
./asm/jit.bin:     file format binary


Disassembly of section .data:

0000000000000000 <.data>:
       0:	55                   	push   rbp
       1:	48 89 e5             	mov    rbp,rsp
       4:	53                   	push   rbx
       5:	41 54                	push   r12
       7:	41 55                	push   r13
       9:	41 56                	push   r14
       b:	41 57                	push   r15
       d:	57                   	push   rdi
       e:	56                   	push   rsi
       f:	49 89 fe             	mov    r14,rdi
      12:	49 89 f7             	mov    r15,rsi
      15:	49 8b 5e 28          	mov    rbx,QWORD PTR [r14+0x28]
      19:	4d 8b 5e 30          	mov    r11,QWORD PTR [r14+0x30]
      1d:	4d 8b 56 38          	mov    r10,QWORD PTR [r14+0x38]
      21:	4d 8b 4e 40          	mov    r9,QWORD PTR [r14+0x40]
      25:	4d 8b 46 48          	mov    r8,QWORD PTR [r14+0x48]
      29:	49 8b 46 50          	mov    rax,QWORD PTR [r14+0x50]
      2d:	49 8b 4e 58          	mov    rcx,QWORD PTR [r14+0x58]
      31:	49 8b 56 60          	mov    rdx,QWORD PTR [r14+0x60]
      35:	49 8b 76 68          	mov    rsi,QWORD PTR [r14+0x68]
      39:	49 8b 7e 70          	mov    rdi,QWORD PTR [r14+0x70]
      3d:	41 ff 76 20          	push   QWORD PTR [r14+0x20]
      41:	41 ff b6 98 00 00 00 	push   QWORD PTR [r14+0x98]
      48:	41 ff 36             	push   QWORD PTR [r14]
      4b:	41 ff 76 08          	push   QWORD PTR [r14+0x8]
      4f:	41 ff 76 10          	push   QWORD PTR [r14+0x10]
      53:	41 ff 76 18          	push   QWORD PTR [r14+0x18]
      57:	41 ff 77 08          	push   QWORD PTR [r15+0x8]
      5b:	41 ff 37             	push   QWORD PTR [r15]
      5e:	48 83 ec 18          	sub    rsp,0x18
      62:	4c 8b 6d b8          	mov    r13,QWORD PTR [rbp-0x48]
      66:	4c 8b 65 c0          	mov    r12,QWORD PTR [rbp-0x40]
      6a:	e9 71 4c 00 00       	jmp    0x4ce0
      6f:	90                   	nop
      70:	49 be 8b c9 56 55 55 	movabs r14,0x55555556c98b
      77:	55 00 00 
      7a:	4d 8b be c5 01 0a 00 	mov    r15,QWORD PTR [r14+0xa01c5]
      81:	4d 89 fe             	mov    r14,r15
      84:	e9 21 4d 00 00       	jmp    0x4daa
      89:	90                   	nop
      8a:	49 be 7b ca 56 55 55 	movabs r14,0x55555556ca7b
      91:	55 00 00 
      94:	4d 8b be 4d 01 0a 00 	mov    r15,QWORD PTR [r14+0xa014d]
      9b:	4d 89 fe             	mov    r14,r15
      9e:	e9 e5 4c 00 00       	jmp    0x4d88
      a3:	83 f8 ff             	cmp    eax,0xffffffff
      a6:	74 24                	je     0xcc
      a8:	49 83 c5 08          	add    r13,0x8
      ac:	49 8b 5d 00          	mov    rbx,QWORD PTR [r13+0x0]
      b0:	4d 8d 6d 08          	lea    r13,[r13+0x8]
      b4:	4d 8b 65 00          	mov    r12,QWORD PTR [r13+0x0]
      b8:	4d 8d 6d 08          	lea    r13,[r13+0x8]
      bc:	4d 8b 7d 00          	mov    r15,QWORD PTR [r13+0x0]
      c0:	4d 8d 6d 08          	lea    r13,[r13+0x8]
      c4:	4d 89 fe             	mov    r14,r15
      c7:	e9 9a 4c 00 00       	jmp    0x4d66
      cc:	48 d1 e3             	shl    rbx,1
      cf:	48 d1 eb             	shr    rbx,1
      d2:	4c 8b 63 10          	mov    r12,QWORD PTR [rbx+0x10]
      d6:	49 83 3c 24 01       	cmp    QWORD PTR [r12],0x1
      db:	76 cb                	jbe    0xa8
      dd:	49 bf a8 02 57 55 55 	movabs r15,0x5555555702a8
      e4:	55 00 00 
      e7:	4d 8d 6d f8          	lea    r13,[r13-0x8]
      eb:	4d 89 7d 00          	mov    QWORD PTR [r13+0x0],r15
      ef:	e9 fd 54 00 00       	jmp    0x55f1
      f4:	4c 8b 43 08          	mov    r8,QWORD PTR [rbx+0x8]
      f8:	49 bf b3 02 57 55 55 	movabs r15,0x5555555702b3
      ff:	55 00 00 
     102:	49 8d 8f 2b cd 07 00 	lea    rcx,[r15+0x7cd2b]
     109:	8b 10                	mov    edx,DWORD PTR [rax]
     10b:	4c 89 e6             	mov    rsi,r12
     10e:	bf 02 00 00 00       	mov    edi,0x2
     113:	b8 00 00 00 00       	mov    eax,0x0
     118:	49 bf c7 02 57 55 55 	movabs r15,0x5555555702c7
     11f:	55 00 00 
     122:	4d 8d 6d f8          	lea    r13,[r13-0x8]
     126:	4d 89 7d 00          	mov    QWORD PTR [r13+0x0],r15
     12a:	e9 2a 55 00 00       	jmp    0x5659
     12f:	e9 74 ff ff ff       	jmp    0xa8
     134:	49 8b 5c 24 38       	mov    rbx,QWORD PTR [r12+0x38]
     139:	48 85 db             	test   rbx,rbx
     13c:	0f 85 97 00 00 00    	jne    0x1d9
     142:	49 8b 5c 24 10       	mov    rbx,QWORD PTR [r12+0x10]
     147:	4c 89 e7             	mov    rdi,r12
     14a:	49 bf 2e 04 57 55 55 	movabs r15,0x55555557042e
     151:	55 00 00 
     154:	4d 8d 6d f8          	lea    r13,[r13-0x8]
     158:	4d 89 7d 00          	mov    QWORD PTR [r13+0x0],r15
     15c:	e9 0e ff ff ff       	jmp    0x6f
     161:	48 85 db             	test   rbx,rbx
     164:	0f 84 80 00 00 00    	je     0x1ea
     16a:	49 89 dc             	mov    r12,rbx
     16d:	48 8b 5b 10          	mov    rbx,QWORD PTR [rbx+0x10]
     171:	eb d4                	jmp    0x147
     173:	48 d1 e3             	shl    rbx,1
     176:	48 d1 eb             	shr    rbx,1
     179:	48 8b 5b 10          	mov    rbx,QWORD PTR [rbx+0x10]
     17d:	48 85 db             	test   rbx,rbx
     180:	74 b2                	je     0x134
     182:	48 d1 e3             	shl    rbx,1
     185:	48 d1 eb             	shr    rbx,1
     188:	48 8b 03             	mov    rax,QWORD PTR [rbx]
     18b:	48 85 c0             	test   rax,rax
     18e:	74 e3                	je     0x173
     190:	48 8b 7b 08          	mov    rdi,QWORD PTR [rbx+0x8]
     194:	49 bf 53 04 57 55 55 	movabs r15,0x555555570453
     19b:	55 00 00 
     19e:	4d 8d 6d f8          	lea    r13,[r13-0x8]
     1a2:	4d 89 7d 00          	mov    QWORD PTR [r13+0x0],r15
     1a6:	49 89 c6             	mov    r14,rax
     1a9:	e9 03 52 00 00       	jmp    0x53b1
     1ae:	eb c3                	jmp    0x173
     1b0:	49 bf 5a 04 57 55 55 	movabs r15,0x55555557045a
     1b7:	55 00 00 
     1ba:	4d 8d 6d f8          	lea    r13,[r13-0x8]
     1be:	4d 89 7d 00          	mov    QWORD PTR [r13+0x0],r15
     1c2:	e9 a8 fe ff ff       	jmp    0x6f
     1c7:	48 d1 e3             	shl    rbx,1
     1ca:	48 d1 eb             	shr    rbx,1
     1cd:	48 8b 1b             	mov    rbx,QWORD PTR [rbx]
     1d0:	48 85 db             	test   rbx,rbx
     1d3:	0f 84 69 ff ff ff    	je     0x142
     1d9:	48 d1 e3             	shl    rbx,1
     1dc:	48 d1 eb             	shr    rbx,1
     1df:	48 8b 7b 08          	mov    rdi,QWORD PTR [rbx+0x8]
     1e3:	48 85 ff             	test   rdi,rdi
     1e6:	75 c8                	jne    0x1b0
     1e8:	eb dd                	jmp    0x1c7
     1ea:	49 83 c5 08          	add    r13,0x8
     1ee:	49 8b 5d 00          	mov    rbx,QWORD PTR [r13+0x0]
     1f2:	4d 8d 6d 08          	lea    r13,[r13+0x8]
     1f6:	4d 8b 65 00          	mov    r12,QWORD PTR [r13+0x0]
     1fa:	4d 8d 6d 08          	lea    r13,[r13+0x8]
     1fe:	4d 8b 7d 00          	mov    r15,QWORD PTR [r13+0x0]
     202:	4d 8d 6d 08          	lea    r13,[r13+0x8]
     206:	4d 89 fe             	mov    r14,r15
     209:	e9 19 4c 00 00       	jmp    0x4e27
     20e:	90                   	nop
     20f:	4d 8d 6d f8          	lea    r13,[r13-0x8]
     213:	49 89 5d 00          	mov    QWORD PTR [r13+0x0],rbx
     217:	48 d1 e7             	shl    rdi,1
     21a:	48 d1 ef             	shr    rdi,1
     21d:	48 8b 5f 38          	mov    rbx,QWORD PTR [rdi+0x38]
     221:	48 85 db             	test   rbx,rbx
     224:	74 62                	je     0x288
     226:	48 d1 e3             	shl    rbx,1
     229:	48 d1 eb             	shr    rbx,1
     22c:	48 39 73 08          	cmp    QWORD PTR [rbx+0x8],rsi
     230:	74 17                	je     0x249
     232:	48 d1 e3             	shl    rbx,1
     235:	48 d1 eb             	shr    rbx,1
     238:	48 8b 1b             	mov    rbx,QWORD PTR [rbx]
     23b:	48 85 db             	test   rbx,rbx
     23e:	75 e6                	jne    0x226
     240:	48 c7 c0 fb ff ff ff 	mov    rax,0xfffffffffffffffb
     247:	eb 27                	jmp    0x270
     249:	48 89 f7             	mov    rdi,rsi
     24c:	49 bf 20 06 57 55 55 	movabs r15,0x555555570620
     253:	55 00 00 
     256:	4d 8d 6d f8          	lea    r13,[r13-0x8]
     25a:	4d 89 7d 00          	mov    QWORD PTR [r13+0x0],r15
     25e:	e9 0c fe ff ff       	jmp    0x6f
     263:	48 c7 43 08 00 00 00 	mov    QWORD PTR [rbx+0x8],0x0
     26a:	00 
     26b:	b8 00 00 00 00       	mov    eax,0x0
     270:	49 8b 5d 00          	mov    rbx,QWORD PTR [r13+0x0]
     274:	4d 8d 6d 08          	lea    r13,[r13+0x8]
     278:	4d 8b 7d 00          	mov    r15,QWORD PTR [r13+0x0]
     27c:	4d 8d 6d 08          	lea    r13,[r13+0x8]
     280:	4d 89 fe             	mov    r14,r15
     283:	e9 34 50 00 00       	jmp    0x52bc
     288:	48 c7 c0 fb ff ff ff 	mov    rax,0xfffffffffffffffb
     28f:	eb df                	jmp    0x270
     291:	90                   	nop
     292:	49 83 ed 08          	sub    r13,0x8
     296:	49 bf c1 e3 58 55 55 	movabs r15,0x55555558e3c1
     29d:	55 00 00 
     2a0:	49 8b 97 0f 2e 0a 00 	mov    rdx,QWORD PTR [r15+0xa2e0f]
     2a7:	f6 c2 04             	test   dl,0x4
     2aa:	74 67                	je     0x313
     2ac:	b8 00 00 00 00       	mov    eax,0x0
     2b1:	48 d1 e7             	shl    rdi,1
     2b4:	48 d1 ef             	shr    rdi,1
     2b7:	f6 47 08 28          	test   BYTE PTR [rdi+0x8],0x28
     2bb:	75 42                	jne    0x2ff
     2bd:	ba 00 00 00 80       	mov    edx,0x80000000
     2c2:	be 01 20 00 00       	mov    esi,0x2001
     2c7:	49 bf e1 e3 58 55 55 	movabs r15,0x55555558e3e1
     2ce:	55 00 00 
     2d1:	4d 8d 6d f8          	lea    r13,[r13-0x8]
     2d5:	4d 89 7d 00          	mov    QWORD PTR [r13+0x0],r15
     2d9:	49 be e1 e3 58 55 55 	movabs r14,0x55555558e3e1
     2e0:	55 00 00 
     2e3:	4d 8b be 9f 2d 0a 00 	mov    r15,QWORD PTR [r14+0xa2d9f]
     2ea:	4d 89 fe             	mov    r14,r15
     2ed:	e9 74 50 00 00       	jmp    0x5366
     2f2:	48 83 f8 ff          	cmp    rax,0xffffffffffffffff
     2f6:	0f 94 c0             	sete   al
     2f9:	0f b6 c0             	movzx  eax,al
     2fc:	48 f7 d8             	neg    rax
     2ff:	49 83 c5 08          	add    r13,0x8
     303:	4d 8b 7d 00          	mov    r15,QWORD PTR [r13+0x0]
     307:	4d 8d 6d 08          	lea    r13,[r13+0x8]
     30b:	4d 89 fe             	mov    r14,r15
     30e:	e9 87 4f 00 00       	jmp    0x529a
     313:	f6 c2 01             	test   dl,0x1
     316:	0f 84 b1 00 00 00    	je     0x3cd
     31c:	48 d1 e7             	shl    rdi,1
     31f:	48 d1 ef             	shr    rdi,1
     322:	0f b6 57 08          	movzx  edx,BYTE PTR [rdi+0x8]
     326:	f6 c2 28             	test   dl,0x28
     329:	75 44                	jne    0x36f
     32b:	ba 00 00 00 00       	mov    edx,0x0
     330:	be 01 20 00 00       	mov    esi,0x2001
     335:	49 bf 11 e4 58 55 55 	movabs r15,0x55555558e411
     33c:	55 00 00 
     33f:	4d 8d 6d f8          	lea    r13,[r13-0x8]
     343:	4d 89 7d 00          	mov    QWORD PTR [r13+0x0],r15
     347:	49 be 11 e4 58 55 55 	movabs r14,0x55555558e411
     34e:	55 00 00 
     351:	4d 8b be 6f 2d 0a 00 	mov    r15,QWORD PTR [r14+0xa2d6f]
     358:	4d 89 fe             	mov    r14,r15
     35b:	e9 15 50 00 00       	jmp    0x5375
     360:	48 83 f8 ff          	cmp    rax,0xffffffffffffffff
     364:	0f 94 c0             	sete   al
     367:	0f b6 c0             	movzx  eax,al
     36a:	48 f7 d8             	neg    rax
     36d:	eb 90                	jmp    0x2ff
     36f:	b8 00 00 00 00       	mov    eax,0x0
     374:	f6 c2 08             	test   dl,0x8
     377:	74 86                	je     0x2ff
     379:	f6 c2 20             	test   dl,0x20
     37c:	75 0a                	jne    0x388
     37e:	40 f6 c6 01          	test   sil,0x1
     382:	0f 84 77 ff ff ff    	je     0x2ff
     388:	48 89 f2             	mov    rdx,rsi
     38b:	be 01 20 00 00       	mov    esi,0x2001
     390:	49 bf 43 e4 58 55 55 	movabs r15,0x55555558e443
     397:	55 00 00 
     39a:	4d 8d 6d f8          	lea    r13,[r13-0x8]
     39e:	4d 89 7d 00          	mov    QWORD PTR [r13+0x0],r15
     3a2:	49 be 43 e4 58 55 55 	movabs r14,0x55555558e443
     3a9:	55 00 00 
     3ac:	4d 8b be 45 2d 0a 00 	mov    r15,QWORD PTR [r14+0xa2d45]
     3b3:	4d 89 fe             	mov    r14,r15
     3b6:	e9 d8 4f 00 00       	jmp    0x5393
     3bb:	48 83 f8 ff          	cmp    rax,0xffffffffffffffff
     3bf:	0f 94 c0             	sete   al
     3c2:	0f b6 c0             	movzx  eax,al
     3c5:	48 f7 d8             	neg    rax
     3c8:	e9 32 ff ff ff       	jmp    0x2ff
     3cd:	b8 00 00 00 00       	mov    eax,0x0
     3d2:	f6 c6 10             	test   dh,0x10
     3d5:	0f 84 24 ff ff ff    	je     0x2ff
     3db:	48 d1 e7             	shl    rdi,1
     3de:	48 d1 ef             	shr    rdi,1
     3e1:	0f b6 47 08          	movzx  eax,BYTE PTR [rdi+0x8]
     3e5:	a8 28                	test   al,0x28
     3e7:	75 47                	jne    0x430
     3e9:	ba 00 00 00 00       	mov    edx,0x0
     3ee:	be 01 20 00 00       	mov    esi,0x2001
     3f3:	49 bf 74 e4 58 55 55 	movabs r15,0x55555558e474
     3fa:	55 00 00 
     3fd:	4d 8d 6d f8          	lea    r13,[r13-0x8]
     401:	4d 89 7d 00          	mov    QWORD PTR [r13+0x0],r15
     405:	49 be 74 e4 58 55 55 	movabs r14,0x55555558e474
     40c:	55 00 00 
     40f:	4d 8b be 0c 2d 0a 00 	mov    r15,QWORD PTR [r14+0xa2d0c]
     416:	4d 89 fe             	mov    r14,r15
     419:	e9 66 4f 00 00       	jmp    0x5384
     41e:	48 83 f8 ff          	cmp    rax,0xffffffffffffffff
     422:	0f 94 c0             	sete   al
     425:	0f b6 c0             	movzx  eax,al
     428:	48 f7 d8             	neg    rax
     42b:	e9 cf fe ff ff       	jmp    0x2ff
     430:	83 e0 60             	and    eax,0x60
     433:	89 c2                	mov    edx,eax
     435:	b8 00 00 00 00       	mov    eax,0x0
     43a:	80 fa 60             	cmp    dl,0x60
     43d:	0f 85 bc fe ff ff    	jne    0x2ff
     443:	ba 00 00 00 00       	mov    edx,0x0
     448:	be 01 20 00 00       	mov    esi,0x2001
     44d:	49 bf a9 e4 58 55 55 	movabs r15,0x55555558e4a9
     454:	55 00 00 
     457:	4d 8d 6d f8          	lea    r13,[r13-0x8]
     45b:	4d 89 7d 00          	mov    QWORD PTR [r13+0x0],r15
     45f:	49 be a9 e4 58 55 55 	movabs r14,0x55555558e4a9
     466:	55 00 00 
     469:	4d 8b be df 2c 0a 00 	mov    r15,QWORD PTR [r14+0xa2cdf]
     470:	4d 89 fe             	mov    r14,r15
     473:	e9 2a 4f 00 00       	jmp    0x53a2
     478:	48 83 f8 ff          	cmp    rax,0xffffffffffffffff
     47c:	0f 94 c0             	sete   al
     47f:	0f b6 c0             	movzx  eax,al
     482:	48 f7 d8             	neg    rax
     485:	e9 75 fe ff ff       	jmp    0x2ff
     48a:	90                   	nop
     48b:	4d 8d 6d f8          	lea    r13,[r13-0x8]
     48f:	49 89 5d 00          	mov    QWORD PTR [r13+0x0],rbx
     493:	49 83 ed 10          	sub    r13,0x10
     497:	bb 28 00 00 00       	mov    ebx,0x28
     49c:	4c 8b 7d 88          	mov    r15,QWORD PTR [rbp-0x78]
     4a0:	49 8b 04 1f          	mov    rax,QWORD PTR [r15+rbx*1]
     4a4:	49 89 45 08          	mov    QWORD PTR [r13+0x8],rax
     4a8:	31 c0                	xor    eax,eax
     4aa:	41 c7 45 04 00 00 00 	mov    DWORD PTR [r13+0x4],0x0
     4b1:	00 
     4b2:	49 8d 4d 04          	lea    rcx,[r13+0x4]
     4b6:	41 b8 04 00 00 00    	mov    r8d,0x4
     4bc:	ba 03 00 00 00       	mov    edx,0x3
     4c1:	be 06 00 00 00       	mov    esi,0x6
     4c6:	49 be 76 24 59 55 55 	movabs r14,0x555555592476
     4cd:	55 00 00 
     4d0:	4d 8d 6d f8          	lea    r13,[r13-0x8]
     4d4:	4d 89 75 00          	mov    QWORD PTR [r13+0x0],r14
     4d8:	e9 ac fb ff ff       	jmp    0x89
     4dd:	49 8b 55 08          	mov    rdx,QWORD PTR [r13+0x8]
     4e1:	4c 8b 7d 88          	mov    r15,QWORD PTR [rbp-0x78]
     4e5:	49 33 14 1f          	xor    rdx,QWORD PTR [r15+rbx*1]
     4e9:	75 1c                	jne    0x507
     4eb:	49 83 c5 10          	add    r13,0x10
     4ef:	49 8b 5d 00          	mov    rbx,QWORD PTR [r13+0x0]
     4f3:	4d 8d 6d 08          	lea    r13,[r13+0x8]
     4f7:	4d 8b 7d 00          	mov    r15,QWORD PTR [r13+0x0]
     4fb:	4d 8d 6d 08          	lea    r13,[r13+0x8]
     4ff:	4d 89 fe             	mov    r14,r15
     502:	e9 0c 4e 00 00       	jmp    0x5313
     507:	49 bf 8c 24 59 55 55 	movabs r15,0x55555559248c
     50e:	55 00 00 
     511:	4d 8d 6d f8          	lea    r13,[r13-0x8]
     515:	4d 89 7d 00          	mov    QWORD PTR [r13+0x0],r15
     519:	e9 19 4f 00 00       	jmp    0x5437
     51e:	90                   	nop
     51f:	4d 8d 6d f8          	lea    r13,[r13-0x8]
     523:	4c 8b 7d a8          	mov    r15,QWORD PTR [rbp-0x58]
     527:	4d 89 7d 00          	mov    QWORD PTR [r13+0x0],r15
     52b:	4d 8d 6d f8          	lea    r13,[r13-0x8]
     52f:	4c 8b 75 a0          	mov    r14,QWORD PTR [rbp-0x60]
     533:	4d 89 75 00          	mov    QWORD PTR [r13+0x0],r14
     537:	4d 8d 6d f8          	lea    r13,[r13-0x8]
     53b:	4c 89 7d a8          	mov    QWORD PTR [rbp-0x58],r15
     53f:	4c 8b 7d 98          	mov    r15,QWORD PTR [rbp-0x68]
     543:	4d 89 7d 00          	mov    QWORD PTR [r13+0x0],r15
     547:	4d 8d 6d f8          	lea    r13,[r13-0x8]
     54b:	4d 89 65 00          	mov    QWORD PTR [r13+0x0],r12
     54f:	4d 8d 6d f8          	lea    r13,[r13-0x8]
     553:	49 89 5d 00          	mov    QWORD PTR [r13+0x0],rbx
     557:	49 89 fc             	mov    r12,rdi
     55a:	49 89 f6             	mov    r14,rsi
     55d:	49 89 d7             	mov    r15,rdx
     560:	4c 89 7d 98          	mov    QWORD PTR [rbp-0x68],r15
     564:	4c 8b 7d a8          	mov    r15,QWORD PTR [rbp-0x58]
     568:	48 d1 e7             	shl    rdi,1
     56b:	48 d1 ef             	shr    rdi,1
     56e:	4c 8b 7f 08          	mov    r15,QWORD PTR [rdi+0x8]
     572:	4c 89 7d a8          	mov    QWORD PTR [rbp-0x58],r15
     576:	49 bf ac 24 59 55 55 	movabs r15,0x5555555924ac
     57d:	55 00 00 
     580:	41 f6 87 24 ed 09 00 	test   BYTE PTR [r15+0x9ed24],0x40
     587:	40 
     588:	4c 89 75 a0          	mov    QWORD PTR [rbp-0x60],r14
     58c:	0f 84 48 02 00 00    	je     0x7da
     592:	48 b8 00 40 00 00 ff 	movabs rax,0xffffffff00004000
     599:	ff ff ff 
     59c:	4c 8b 7d a8          	mov    r15,QWORD PTR [rbp-0x58]
     5a0:	49 d1 e7             	shl    r15,1
     5a3:	49 d1 ef             	shr    r15,1
     5a6:	49 85 47 08          	test   QWORD PTR [r15+0x8],rax
     5aa:	4c 89 7d a8          	mov    QWORD PTR [rbp-0x58],r15
     5ae:	0f 85 26 02 00 00    	jne    0x7da
     5b4:	4c 8b 7d a8          	mov    r15,QWORD PTR [rbp-0x58]
     5b8:	49 d1 e7             	shl    r15,1
     5bb:	49 d1 ef             	shr    r15,1
     5be:	41 80 67 08 df       	and    BYTE PTR [r15+0x8],0xdf
     5c3:	48 c7 c3 fe ff ff ff 	mov    rbx,0xfffffffffffffffe
     5ca:	4c 89 7d a8          	mov    QWORD PTR [rbp-0x58],r15
     5ce:	eb 18                	jmp    0x5e8
     5d0:	4c 8b 7d a8          	mov    r15,QWORD PTR [rbp-0x58]
     5d4:	49 d1 e7             	shl    r15,1
     5d7:	49 d1 ef             	shr    r15,1
     5da:	41 80 67 08 df       	and    BYTE PTR [r15+0x8],0xdf
     5df:	41 80 4f 09 01       	or     BYTE PTR [r15+0x9],0x1
     5e4:	4c 89 7d a8          	mov    QWORD PTR [rbp-0x58],r15
     5e8:	48 89 d8             	mov    rax,rbx
     5eb:	49 8b 5d 00          	mov    rbx,QWORD PTR [r13+0x0]
     5ef:	4d 8d 6d 08          	lea    r13,[r13+0x8]
     5f3:	4d 8b 65 00          	mov    r12,QWORD PTR [r13+0x0]
     5f7:	4d 8d 6d 08          	lea    r13,[r13+0x8]
     5fb:	4c 8b 7d 98          	mov    r15,QWORD PTR [rbp-0x68]
     5ff:	4d 8b 7d 00          	mov    r15,QWORD PTR [r13+0x0]
     603:	4d 8d 6d 08          	lea    r13,[r13+0x8]
     607:	4c 8b 75 a0          	mov    r14,QWORD PTR [rbp-0x60]
     60b:	4d 8b 75 00          	mov    r14,QWORD PTR [r13+0x0]
     60f:	4d 8d 6d 08          	lea    r13,[r13+0x8]
     613:	4c 89 7d 98          	mov    QWORD PTR [rbp-0x68],r15
     617:	4c 8b 7d a8          	mov    r15,QWORD PTR [rbp-0x58]
     61b:	4d 8b 7d 00          	mov    r15,QWORD PTR [r13+0x0]
     61f:	4d 8d 6d 08          	lea    r13,[r13+0x8]
     623:	4c 89 7d a8          	mov    QWORD PTR [rbp-0x58],r15
     627:	4d 8b 7d 00          	mov    r15,QWORD PTR [r13+0x0]
     62b:	4d 8d 6d 08          	lea    r13,[r13+0x8]
     62f:	4c 89 75 a0          	mov    QWORD PTR [rbp-0x60],r14
     633:	4d 89 fe             	mov    r14,r15
     636:	e9 fa 4c 00 00       	jmp    0x5335
     63b:	4c 8b 7d a8          	mov    r15,QWORD PTR [rbp-0x58]
     63f:	49 d1 e7             	shl    r15,1
     642:	49 d1 ef             	shr    r15,1
     645:	41 8b 47 0c          	mov    eax,DWORD PTR [r15+0xc]
     649:	85 c0                	test   eax,eax
     64b:	4c 89 7d a8          	mov    QWORD PTR [rbp-0x58],r15
     64f:	0f 88 b3 00 00 00    	js     0x708
     655:	29 d8                	sub    eax,ebx
     657:	0f 88 8b 00 00 00    	js     0x6e8
     65d:	4c 8b 7d a8          	mov    r15,QWORD PTR [rbp-0x58]
     661:	41 89 47 0c          	mov    DWORD PTR [r15+0xc],eax
     665:	4c 89 7d a8          	mov    QWORD PTR [rbp-0x58],r15
     669:	49 bf 01 25 59 55 55 	movabs r15,0x555555592501
     670:	55 00 00 
     673:	49 8b 87 cf ec 09 00 	mov    rax,QWORD PTR [r15+0x9eccf]
     67a:	a8 40                	test   al,0x40
     67c:	0f 84 1e 01 00 00    	je     0x7a0
     682:	49 bf 0d 25 59 55 55 	movabs r15,0x55555559250d
     689:	55 00 00 
     68c:	49 83 bf ab ae 0a 00 	cmp    QWORD PTR [r15+0xaaeab],0x0
     693:	00 
     694:	0f 84 06 01 00 00    	je     0x7a0
     69a:	4c 8b 7d 98          	mov    r15,QWORD PTR [rbp-0x68]
     69e:	4c 39 fb             	cmp    rbx,r15
     6a1:	4c 89 7d 98          	mov    QWORD PTR [rbp-0x68],r15
     6a5:	0f 83 3d ff ff ff    	jae    0x5e8
     6ab:	4c 8b 7d a8          	mov    r15,QWORD PTR [rbp-0x58]
     6af:	49 d1 e7             	shl    r15,1
     6b2:	49 d1 ef             	shr    r15,1
     6b5:	41 f6 47 09 40       	test   BYTE PTR [r15+0x9],0x40
     6ba:	4c 89 7d a8          	mov    QWORD PTR [rbp-0x58],r15
     6be:	75 13                	jne    0x6d3
     6c0:	4c 8b 7d a8          	mov    r15,QWORD PTR [rbp-0x58]
     6c4:	49 d1 e7             	shl    r15,1
     6c7:	49 d1 ef             	shr    r15,1
     6ca:	41 80 67 08 df       	and    BYTE PTR [r15+0x8],0xdf
     6cf:	4c 89 7d a8          	mov    QWORD PTR [rbp-0x58],r15
     6d3:	4c 8b 7d a8          	mov    r15,QWORD PTR [rbp-0x58]
     6d7:	41 c7 47 0c 00 00 00 	mov    DWORD PTR [r15+0xc],0x0
     6de:	00 
     6df:	4c 89 7d a8          	mov    QWORD PTR [rbp-0x58],r15
     6e3:	e9 00 ff ff ff       	jmp    0x5e8
     6e8:	4c 8b 7d a8          	mov    r15,QWORD PTR [rbp-0x58]
     6ec:	49 d1 e7             	shl    r15,1
     6ef:	49 d1 ef             	shr    r15,1
     6f2:	41 c7 47 0c 00 00 00 	mov    DWORD PTR [r15+0xc],0x0
     6f9:	00 
     6fa:	41 80 67 08 df       	and    BYTE PTR [r15+0x8],0xdf
     6ff:	4c 89 7d a8          	mov    QWORD PTR [rbp-0x58],r15
     703:	e9 61 ff ff ff       	jmp    0x669
     708:	4c 8b 7d 98          	mov    r15,QWORD PTR [rbp-0x68]
     70c:	49 39 df             	cmp    r15,rbx
     70f:	4c 89 7d 98          	mov    QWORD PTR [rbp-0x68],r15
     713:	0f 85 50 ff ff ff    	jne    0x669
     719:	4c 8b 7d a8          	mov    r15,QWORD PTR [rbp-0x58]
     71d:	49 8d 57 0c          	lea    rdx,[r15+0xc]
     721:	41 8b 7c 24 18       	mov    edi,DWORD PTR [r12+0x18]
     726:	be 1b 54 00 00       	mov    esi,0x541b
     72b:	b8 00 00 00 00       	mov    eax,0x0
     730:	49 be 54 25 59 55 55 	movabs r14,0x555555592554
     737:	55 00 00 
     73a:	4d 8d 6d f8          	lea    r13,[r13-0x8]
     73e:	4d 89 75 00          	mov    QWORD PTR [r13+0x0],r14
     742:	4c 89 7d a8          	mov    QWORD PTR [rbp-0x58],r15
     746:	e9 88 4d 00 00       	jmp    0x54d3
     74b:	83 f8 ff             	cmp    eax,0xffffffff
     74e:	0f 85 15 ff ff ff    	jne    0x669
     754:	49 bf 5e 25 59 55 55 	movabs r15,0x55555559255e
     75b:	55 00 00 
     75e:	4d 8d 6d f8          	lea    r13,[r13-0x8]
     762:	4d 89 7d 00          	mov    QWORD PTR [r13+0x0],r15
     766:	e9 86 4e 00 00       	jmp    0x55f1
     76b:	49 bf 65 25 59 55 55 	movabs r15,0x555555592565
     772:	55 00 00 
     775:	49 8d 97 0d d6 05 00 	lea    rdx,[r15+0x5d60d]
     77c:	8b 30                	mov    esi,DWORD PTR [rax]
     77e:	4c 89 e7             	mov    rdi,r12
     781:	49 bf 6f 25 59 55 55 	movabs r15,0x55555559256f
     788:	55 00 00 
     78b:	4d 8d 6d f8          	lea    r13,[r13-0x8]
     78f:	4d 89 7d 00          	mov    QWORD PTR [r13+0x0],r15
     793:	e9 f1 4d 00 00       	jmp    0x5589
     798:	48 89 c3             	mov    rbx,rax
     79b:	e9 da 00 00 00       	jmp    0x87a
     7a0:	4c 8b 7d 98          	mov    r15,QWORD PTR [rbp-0x68]
     7a4:	4c 39 fb             	cmp    rbx,r15
     7a7:	4c 89 7d 98          	mov    QWORD PTR [rbp-0x68],r15
     7ab:	0f 83 37 fe ff ff    	jae    0x5e8
     7b1:	a8 20                	test   al,0x20
     7b3:	0f 85 2f fe ff ff    	jne    0x5e8
     7b9:	4c 8b 7d a8          	mov    r15,QWORD PTR [rbp-0x58]
     7bd:	49 d1 e7             	shl    r15,1
     7c0:	49 d1 ef             	shr    r15,1
     7c3:	41 80 67 08 df       	and    BYTE PTR [r15+0x8],0xdf
     7c8:	4c 89 7d a8          	mov    QWORD PTR [rbp-0x58],r15
     7cc:	e9 17 fe ff ff       	jmp    0x5e8
     7d1:	83 fe 04             	cmp    esi,0x4
     7d4:	0f 85 d5 00 00 00    	jne    0x8af
     7da:	41 8b 7c 24 18       	mov    edi,DWORD PTR [r12+0x18]
     7df:	b9 00 00 00 00       	mov    ecx,0x0
     7e4:	4c 8b 7d 98          	mov    r15,QWORD PTR [rbp-0x68]
     7e8:	4c 89 fa             	mov    rdx,r15
     7eb:	4c 8b 75 a0          	mov    r14,QWORD PTR [rbp-0x60]
     7ef:	4c 89 f6             	mov    rsi,r14
     7f2:	4c 89 7d 98          	mov    QWORD PTR [rbp-0x68],r15
     7f6:	49 bf a7 25 59 55 55 	movabs r15,0x5555555925a7
     7fd:	55 00 00 
     800:	4d 8d 6d f8          	lea    r13,[r13-0x8]
     804:	4d 89 7d 00          	mov    QWORD PTR [r13+0x0],r15
     808:	4c 89 75 a0          	mov    QWORD PTR [rbp-0x60],r14
     80c:	e9 a8 4c 00 00       	jmp    0x54b9
     811:	48 89 c3             	mov    rbx,rax
     814:	48 85 c0             	test   rax,rax
     817:	0f 84 b3 fd ff ff    	je     0x5d0
     81d:	0f 8f 18 fe ff ff    	jg     0x63b
     823:	49 bf be 25 59 55 55 	movabs r15,0x5555555925be
     82a:	55 00 00 
     82d:	4d 8d 6d f8          	lea    r13,[r13-0x8]
     831:	4d 89 7d 00          	mov    QWORD PTR [r13+0x0],r15
     835:	e9 b7 4d 00 00       	jmp    0x55f1
     83a:	48 d1 e0             	shl    rax,1
     83d:	48 d1 e8             	shr    rax,1
     840:	8b 30                	mov    esi,DWORD PTR [rax]
     842:	83 fe 0b             	cmp    esi,0xb
     845:	74 8a                	je     0x7d1
     847:	83 fe 04             	cmp    esi,0x4
     84a:	74 85                	je     0x7d1
     84c:	49 bf d1 25 59 55 55 	movabs r15,0x5555555925d1
     853:	55 00 00 
     856:	49 8d 97 b8 d5 05 00 	lea    rdx,[r15+0x5d5b8]
     85d:	4c 89 e7             	mov    rdi,r12
     860:	49 bf d9 25 59 55 55 	movabs r15,0x5555555925d9
     867:	55 00 00 
     86a:	4d 8d 6d f8          	lea    r13,[r13-0x8]
     86e:	4d 89 7d 00          	mov    QWORD PTR [r13+0x0],r15
     872:	e9 12 4d 00 00       	jmp    0x5589
     877:	48 89 c3             	mov    rbx,rax
     87a:	4c 8b 7d a8          	mov    r15,QWORD PTR [rbp-0x58]
     87e:	49 d1 e7             	shl    r15,1
     881:	49 d1 ef             	shr    r15,1
     884:	41 80 67 08 df       	and    BYTE PTR [r15+0x8],0xdf
     889:	48 83 fb ff          	cmp    rbx,0xffffffffffffffff
     88d:	4c 89 7d a8          	mov    QWORD PTR [rbp-0x58],r15
     891:	0f 85 51 fd ff ff    	jne    0x5e8
     897:	4c 8b 7d a8          	mov    r15,QWORD PTR [rbp-0x58]
     89b:	49 d1 e7             	shl    r15,1
     89e:	49 d1 ef             	shr    r15,1
     8a1:	41 80 4f 09 02       	or     BYTE PTR [r15+0x9],0x2
     8a6:	4c 89 7d a8          	mov    QWORD PTR [rbp-0x58],r15
     8aa:	e9 39 fd ff ff       	jmp    0x5e8
     8af:	4c 8b 7d a8          	mov    r15,QWORD PTR [rbp-0x58]
     8b3:	49 d1 e7             	shl    r15,1
     8b6:	49 d1 ef             	shr    r15,1
     8b9:	41 80 67 08 df       	and    BYTE PTR [r15+0x8],0xdf
     8be:	48 c7 c3 fe ff ff ff 	mov    rbx,0xfffffffffffffffe
     8c5:	4c 89 7d a8          	mov    QWORD PTR [rbp-0x58],r15
     8c9:	e9 1a fd ff ff       	jmp    0x5e8
     8ce:	49 8b 45 08          	mov    rax,QWORD PTR [r13+0x8]
     8d2:	4c 8b 7d 88          	mov    r15,QWORD PTR [rbp-0x78]
     8d6:	49 d1 e7             	shl    r15,1
     8d9:	49 d1 ef             	shr    r15,1
     8dc:	49 33 47 28          	xor    rax,QWORD PTR [r15+0x28]
     8e0:	75 44                	jne    0x926
     8e2:	49 83 c5 18          	add    r13,0x18
     8e6:	49 8b 5d 00          	mov    rbx,QWORD PTR [r13+0x0]
     8ea:	4d 8d 6d 08          	lea    r13,[r13+0x8]
     8ee:	4d 8b 65 00          	mov    r12,QWORD PTR [r13+0x0]
     8f2:	4d 8d 6d 08          	lea    r13,[r13+0x8]
     8f6:	4c 8b 7d 98          	mov    r15,QWORD PTR [rbp-0x68]
     8fa:	4d 8b 7d 00          	mov    r15,QWORD PTR [r13+0x0]
     8fe:	4d 8d 6d 08          	lea    r13,[r13+0x8]
     902:	4c 8b 75 a0          	mov    r14,QWORD PTR [rbp-0x60]
     906:	4d 8b 75 00          	mov    r14,QWORD PTR [r13+0x0]
     90a:	4d 8d 6d 08          	lea    r13,[r13+0x8]
     90e:	4c 89 7d 98          	mov    QWORD PTR [rbp-0x68],r15
     912:	4d 8b 7d 00          	mov    r15,QWORD PTR [r13+0x0]
     916:	4d 8d 6d 08          	lea    r13,[r13+0x8]
     91a:	4c 89 75 a0          	mov    QWORD PTR [rbp-0x60],r14
     91e:	4d 89 fe             	mov    r14,r15
     921:	e9 fc 43 00 00       	jmp    0x4d22
     926:	49 bf 29 3a 5a 55 55 	movabs r15,0x5555555a3a29
     92d:	55 00 00 
     930:	4d 8d 6d f8          	lea    r13,[r13-0x8]
     934:	4d 89 7d 00          	mov    QWORD PTR [r13+0x0],r15
     938:	e9 fa 4a 00 00       	jmp    0x5437
     93d:	90                   	nop
     93e:	4d 8d 6d f8          	lea    r13,[r13-0x8]
     942:	49 89 5d 00          	mov    QWORD PTR [r13+0x0],rbx
     946:	48 d1 e7             	shl    rdi,1
     949:	48 d1 ef             	shr    rdi,1
     94c:	80 8f d9 00 00 00 20 	or     BYTE PTR [rdi+0xd9],0x20
     953:	48 8b 5f 58          	mov    rbx,QWORD PTR [rdi+0x58]
     957:	49 bf 3e 3a 5a 55 55 	movabs r15,0x5555555a3a3e
     95e:	55 00 00 
     961:	4d 8d 6d f8          	lea    r13,[r13-0x8]
     965:	4d 89 7d 00          	mov    QWORD PTR [r13+0x0],r15
     969:	e9 9d 4c 00 00       	jmp    0x560b
     96e:	48 89 df             	mov    rdi,rbx
     971:	49 bf 46 3a 5a 55 55 	movabs r15,0x5555555a3a46
     978:	55 00 00 
     97b:	4d 8d 6d f8          	lea    r13,[r13-0x8]
     97f:	4d 89 7d 00          	mov    QWORD PTR [r13+0x0],r15
     983:	e9 c9 4a 00 00       	jmp    0x5451
     988:	49 8b 5d 00          	mov    rbx,QWORD PTR [r13+0x0]
     98c:	4d 8d 6d 08          	lea    r13,[r13+0x8]
     990:	4d 8b 7d 00          	mov    r15,QWORD PTR [r13+0x0]
     994:	4d 8d 6d 08          	lea    r13,[r13+0x8]
     998:	4d 89 fe             	mov    r14,r15
     99b:	e9 8c 48 00 00       	jmp    0x522c
     9a0:	49 83 c5 18          	add    r13,0x18
     9a4:	49 8b 5d 00          	mov    rbx,QWORD PTR [r13+0x0]
     9a8:	4d 8d 6d 08          	lea    r13,[r13+0x8]
     9ac:	4d 8b 65 00          	mov    r12,QWORD PTR [r13+0x0]
     9b0:	4d 8d 6d 08          	lea    r13,[r13+0x8]
     9b4:	4c 8b 7d 98          	mov    r15,QWORD PTR [rbp-0x68]
     9b8:	4d 8b 7d 00          	mov    r15,QWORD PTR [r13+0x0]
     9bc:	4d 8d 6d 08          	lea    r13,[r13+0x8]
     9c0:	4c 8b 75 a0          	mov    r14,QWORD PTR [rbp-0x60]
     9c4:	4d 8b 75 00          	mov    r14,QWORD PTR [r13+0x0]
     9c8:	4d 8d 6d 08          	lea    r13,[r13+0x8]
     9cc:	4c 89 7d 98          	mov    QWORD PTR [rbp-0x68],r15
     9d0:	4c 8b 7d a8          	mov    r15,QWORD PTR [rbp-0x58]
     9d4:	4d 8b 7d 00          	mov    r15,QWORD PTR [r13+0x0]
     9d8:	4d 8d 6d 08          	lea    r13,[r13+0x8]
     9dc:	4c 89 7d a8          	mov    QWORD PTR [rbp-0x58],r15
     9e0:	4c 8b 7d b0          	mov    r15,QWORD PTR [rbp-0x50]
     9e4:	4d 8b 7d 00          	mov    r15,QWORD PTR [r13+0x0]
     9e8:	4d 8d 6d 08          	lea    r13,[r13+0x8]
     9ec:	4c 89 7d b0          	mov    QWORD PTR [rbp-0x50],r15
     9f0:	4d 8b 7d 00          	mov    r15,QWORD PTR [r13+0x0]
     9f4:	4d 8d 6d 08          	lea    r13,[r13+0x8]
     9f8:	4c 89 75 a0          	mov    QWORD PTR [rbp-0x60],r14
     9fc:	4d 89 fe             	mov    r14,r15
     9ff:	e9 00 49 00 00       	jmp    0x5304
     a04:	4c 89 23             	mov    QWORD PTR [rbx],r12
     a07:	be 00 00 00 00       	mov    esi,0x0
     a0c:	4c 8b 7d a0          	mov    r15,QWORD PTR [rbp-0x60]
     a10:	4c 89 ff             	mov    rdi,r15
     a13:	49 be 9d 46 5a 55 55 	movabs r14,0x5555555a469d
     a1a:	55 00 00 
     a1d:	4d 8d 6d f8          	lea    r13,[r13-0x8]
     a21:	4d 89 75 00          	mov    QWORD PTR [r13+0x0],r14
     a25:	4c 89 7d a0          	mov    QWORD PTR [rbp-0x60],r15
     a29:	e9 63 f8 ff ff       	jmp    0x291
     a2e:	48 85 c0             	test   rax,rax
     a31:	0f 85 4b 01 00 00    	jne    0xb82
     a37:	4c 8b 7d a8          	mov    r15,QWORD PTR [rbp-0x58]
     a3b:	48 d1 e3             	shl    rbx,1
     a3e:	48 d1 eb             	shr    rbx,1
     a41:	4c 8b 7b 10          	mov    r15,QWORD PTR [rbx+0x10]
     a45:	49 be b1 46 5a 55 55 	movabs r14,0x5555555a46b1
     a4c:	55 00 00 
     a4f:	49 8d 86 76 e2 ff ff 	lea    rax,[r14-0x1d8a]
     a56:	49 d1 e7             	shl    r15,1
     a59:	49 d1 ef             	shr    r15,1
     a5c:	49 89 47 10          	mov    QWORD PTR [r15+0x10],rax
     a60:	4c 8b 75 98          	mov    r14,QWORD PTR [rbp-0x68]
     a64:	49 d1 e6             	shl    r14,1
     a67:	49 d1 ee             	shr    r14,1
     a6a:	49 8b 46 08          	mov    rax,QWORD PTR [r14+0x8]
     a6e:	49 39 06             	cmp    QWORD PTR [r14],rax
     a71:	4c 89 7d a8          	mov    QWORD PTR [rbp-0x58],r15
     a75:	4c 89 75 98          	mov    QWORD PTR [rbp-0x68],r14
     a79:	0f 83 8d 01 00 00    	jae    0xc0c
     a7f:	48 8b 43 50          	mov    rax,QWORD PTR [rbx+0x50]
     a83:	49 bf cf 46 5a 55 55 	movabs r15,0x5555555a46cf
     a8a:	55 00 00 
     a8d:	49 8d 8f 61 d9 04 00 	lea    rcx,[r15+0x4d961]
     a94:	48 89 48 40          	mov    QWORD PTR [rax+0x40],rcx
     a98:	48 89 df             	mov    rdi,rbx
     a9b:	49 bf db 46 5a 55 55 	movabs r15,0x5555555a46db
     aa2:	55 00 00 
     aa5:	4d 8d 6d f8          	lea    r13,[r13-0x8]
     aa9:	4d 89 7d 00          	mov    QWORD PTR [r13+0x0],r15
     aad:	e9 8d 4b 00 00       	jmp    0x563f
     ab2:	48 85 c0             	test   rax,rax
     ab5:	0f 84 e6 00 00 00    	je     0xba1
     abb:	48 d1 e0             	shl    rax,1
     abe:	48 d1 e8             	shr    rax,1
     ac1:	80 88 e1 04 00 00 20 	or     BYTE PTR [rax+0x4e1],0x20
     ac8:	48 d1 e3             	shl    rbx,1
     acb:	48 d1 eb             	shr    rbx,1
     ace:	48 89 03             	mov    QWORD PTR [rbx],rax
     ad1:	48 c7 43 48 00 00 00 	mov    QWORD PTR [rbx+0x48],0x0
     ad8:	00 
     ad9:	80 a3 d9 00 00 00 df 	and    BYTE PTR [rbx+0xd9],0xdf
     ae0:	4c 8b 7d a0          	mov    r15,QWORD PTR [rbp-0x60]
     ae4:	49 d1 e7             	shl    r15,1
     ae7:	49 d1 ef             	shr    r15,1
     aea:	41 f6 47 09 08       	test   BYTE PTR [r15+0x9],0x8
     aef:	4c 89 7d a0          	mov    QWORD PTR [rbp-0x60],r15
     af3:	0f 85 c7 00 00 00    	jne    0xbc0
     af9:	49 bf 0f 47 5a 55 55 	movabs r15,0x5555555a470f
     b00:	55 00 00 
     b03:	49 8d 87 f8 13 00 00 	lea    rax,[r15+0x13f8]
     b0a:	4c 8b 7d a0          	mov    r15,QWORD PTR [rbp-0x60]
     b0e:	49 d1 e7             	shl    r15,1
     b11:	49 d1 ef             	shr    r15,1
     b14:	49 89 47 10          	mov    QWORD PTR [r15+0x10],rax
     b18:	41 80 7f 09 00       	cmp    BYTE PTR [r15+0x9],0x0
     b1d:	4c 89 7d a0          	mov    QWORD PTR [rbp-0x60],r15
     b21:	0f 88 79 fe ff ff    	js     0x9a0
     b27:	4c 8b 7d a0          	mov    r15,QWORD PTR [rbp-0x60]
     b2b:	49 d1 e7             	shl    r15,1
     b2e:	49 d1 ef             	shr    r15,1
     b31:	41 80 4f 09 80       	or     BYTE PTR [r15+0x9],0x80
     b36:	49 be 2a 47 5a 55 55 	movabs r14,0x5555555a472a
     b3d:	55 00 00 
     b40:	49 8b 96 06 cb 08 00 	mov    rdx,QWORD PTR [r14+0x8cb06]
     b47:	49 89 57 50          	mov    QWORD PTR [r15+0x50],rdx
     b4b:	49 8d 47 50          	lea    rax,[r15+0x50]
     b4f:	48 89 42 08          	mov    QWORD PTR [rdx+0x8],rax
     b53:	49 be 3d 47 5a 55 55 	movabs r14,0x5555555a473d
     b5a:	55 00 00 
     b5d:	49 8d 8e f3 ca 08 00 	lea    rcx,[r14+0x8caf3]
     b64:	49 89 4f 58          	mov    QWORD PTR [r15+0x58],rcx
     b68:	49 be 48 47 5a 55 55 	movabs r14,0x5555555a4748
     b6f:	55 00 00 
     b72:	49 89 86 e8 ca 08 00 	mov    QWORD PTR [r14+0x8cae8],rax
     b79:	4c 89 7d a0          	mov    QWORD PTR [rbp-0x60],r15
     b7d:	e9 1e fe ff ff       	jmp    0x9a0
     b82:	48 89 df             	mov    rdi,rbx
     b85:	49 bf ac 47 5a 55 55 	movabs r15,0x5555555a47ac
     b8c:	55 00 00 
     b8f:	4d 8d 6d f8          	lea    r13,[r13-0x8]
     b93:	4d 89 7d 00          	mov    QWORD PTR [r13+0x0],r15
     b97:	e9 a1 fd ff ff       	jmp    0x93d
     b9c:	e9 ff fd ff ff       	jmp    0x9a0
     ba1:	48 89 df             	mov    rdi,rbx
     ba4:	49 bf b9 47 5a 55 55 	movabs r15,0x5555555a47b9
     bab:	55 00 00 
     bae:	4d 8d 6d f8          	lea    r13,[r13-0x8]
     bb2:	4d 89 7d 00          	mov    QWORD PTR [r13+0x0],r15
     bb6:	e9 82 fd ff ff       	jmp    0x93d
     bbb:	e9 e0 fd ff ff       	jmp    0x9a0
     bc0:	4c 8b 7d a0          	mov    r15,QWORD PTR [rbp-0x60]
     bc4:	49 8d 77 28          	lea    rsi,[r15+0x28]
     bc8:	49 be c9 47 5a 55 55 	movabs r14,0x5555555a47c9
     bcf:	55 00 00 
     bd2:	49 8d be 27 ca 08 00 	lea    rdi,[r14+0x8ca27]
     bd9:	49 be ce 47 5a 55 55 	movabs r14,0x5555555a47ce
     be0:	55 00 00 
     be3:	4d 8d 6d f8          	lea    r13,[r13-0x8]
     be7:	4d 89 75 00          	mov    QWORD PTR [r13+0x0],r14
     beb:	4c 89 7d a0          	mov    QWORD PTR [rbp-0x60],r15
     bef:	e9 77 48 00 00       	jmp    0x546b
     bf4:	4c 8b 7d a0          	mov    r15,QWORD PTR [rbp-0x60]
     bf8:	49 d1 e7             	shl    r15,1
     bfb:	49 d1 ef             	shr    r15,1
     bfe:	41 80 67 09 f7       	and    BYTE PTR [r15+0x9],0xf7
     c03:	4c 89 7d a0          	mov    QWORD PTR [rbp-0x60],r15
     c07:	e9 ed fe ff ff       	jmp    0xaf9
     c0c:	4c 8b 7d 98          	mov    r15,QWORD PTR [rbp-0x68]
     c10:	4c 8b bb a8 00 00 00 	mov    r15,QWORD PTR [rbx+0xa8]
     c17:	49 8b 77 20          	mov    rsi,QWORD PTR [r15+0x20]
     c1b:	48 8b 7b 58          	mov    rdi,QWORD PTR [rbx+0x58]
     c1f:	49 be ed 47 5a 55 55 	movabs r14,0x5555555a47ed
     c26:	55 00 00 
     c29:	4d 8d 6d f8          	lea    r13,[r13-0x8]
     c2d:	4d 89 75 00          	mov    QWORD PTR [r13+0x0],r14
     c31:	4c 89 7d 98          	mov    QWORD PTR [rbp-0x68],r15
     c35:	e9 d4 f5 ff ff       	jmp    0x20e
     c3a:	48 85 c0             	test   rax,rax
     c3d:	0f 85 d5 03 00 00    	jne    0x1018
     c43:	4c 8b 7d 98          	mov    r15,QWORD PTR [rbp-0x68]
     c47:	49 c7 07 00 00 00 00 	mov    QWORD PTR [r15],0x0
     c4e:	4c 89 7d 98          	mov    QWORD PTR [rbp-0x68],r15
     c52:	4c 8b 7d 98          	mov    r15,QWORD PTR [rbp-0x68]
     c56:	4d 8b 7c 24 20       	mov    r15,QWORD PTR [r12+0x20]
     c5b:	4d 85 ff             	test   r15,r15
     c5e:	4c 89 7d 98          	mov    QWORD PTR [rbp-0x68],r15
     c62:	0f 84 83 00 00 00    	je     0xceb
     c68:	4c 8b 7d b0          	mov    r15,QWORD PTR [rbp-0x50]
     c6c:	4c 8b 75 98          	mov    r14,QWORD PTR [rbp-0x68]
     c70:	4d 89 f7             	mov    r15,r14
     c73:	4d 8b 76 08          	mov    r14,QWORD PTR [r14+0x8]
     c77:	49 8b 07             	mov    rax,QWORD PTR [r15]
     c7a:	48 8b 70 20          	mov    rsi,QWORD PTR [rax+0x20]
     c7e:	48 8b 7b 58          	mov    rdi,QWORD PTR [rbx+0x58]
     c82:	4c 89 7d b0          	mov    QWORD PTR [rbp-0x50],r15
     c86:	49 bf 1f 48 5a 55 55 	movabs r15,0x5555555a481f
     c8d:	55 00 00 
     c90:	4d 8d 6d f8          	lea    r13,[r13-0x8]
     c94:	4d 89 7d 00          	mov    QWORD PTR [r13+0x0],r15
     c98:	4c 89 75 98          	mov    QWORD PTR [rbp-0x68],r14
     c9c:	e9 6d f5 ff ff       	jmp    0x20e
     ca1:	48 d1 e3             	shl    rbx,1
     ca4:	48 d1 eb             	shr    rbx,1
     ca7:	48 8b 43 58          	mov    rax,QWORD PTR [rbx+0x58]
     cab:	48 d1 e0             	shl    rax,1
     cae:	48 d1 e8             	shr    rax,1
     cb1:	48 8b 40 30          	mov    rax,QWORD PTR [rax+0x30]
     cb5:	4c 8b 7d b0          	mov    r15,QWORD PTR [rbp-0x50]
     cb9:	49 d1 e7             	shl    r15,1
     cbc:	49 d1 ef             	shr    r15,1
     cbf:	49 89 47 08          	mov    QWORD PTR [r15+0x8],rax
     cc3:	48 8b 43 58          	mov    rax,QWORD PTR [rbx+0x58]
     cc7:	48 d1 e0             	shl    rax,1
     cca:	48 d1 e8             	shr    rax,1
     ccd:	4c 89 78 30          	mov    QWORD PTR [rax+0x30],r15
     cd1:	4c 8b 75 98          	mov    r14,QWORD PTR [rbp-0x68]
     cd5:	4d 85 f6             	test   r14,r14
     cd8:	4c 89 7d b0          	mov    QWORD PTR [rbp-0x50],r15
     cdc:	4c 89 75 98          	mov    QWORD PTR [rbp-0x68],r14
     ce0:	75 86                	jne    0xc68
     ce2:	49 c7 44 24 20 00 00 	mov    QWORD PTR [r12+0x20],0x0
     ce9:	00 00 
     ceb:	4c 8b 7d 98          	mov    r15,QWORD PTR [rbp-0x68]
     cef:	4d 8b 7c 24 10       	mov    r15,QWORD PTR [r12+0x10]
     cf4:	4d 85 ff             	test   r15,r15
     cf7:	4c 89 7d 98          	mov    QWORD PTR [rbp-0x68],r15
     cfb:	0f 84 8c 00 00 00    	je     0xd8d
     d01:	4c 8b 7d b0          	mov    r15,QWORD PTR [rbp-0x50]
     d05:	4c 8b 75 98          	mov    r14,QWORD PTR [rbp-0x68]
     d09:	4d 89 f7             	mov    r15,r14
     d0c:	4d 8b 76 08          	mov    r14,QWORD PTR [r14+0x8]
     d10:	49 8b 07             	mov    rax,QWORD PTR [r15]
     d13:	48 8b 70 20          	mov    rsi,QWORD PTR [rax+0x20]
     d17:	48 8b 7b 58          	mov    rdi,QWORD PTR [rbx+0x58]
     d1b:	4c 89 7d b0          	mov    QWORD PTR [rbp-0x50],r15
     d1f:	49 bf 61 48 5a 55 55 	movabs r15,0x5555555a4861
     d26:	55 00 00 
     d29:	4d 8d 6d f8          	lea    r13,[r13-0x8]
     d2d:	4d 89 7d 00          	mov    QWORD PTR [r13+0x0],r15
     d31:	4c 89 75 98          	mov    QWORD PTR [rbp-0x68],r14
     d35:	e9 d4 f4 ff ff       	jmp    0x20e
     d3a:	48 d1 e3             	shl    rbx,1
     d3d:	48 d1 eb             	shr    rbx,1
     d40:	48 8b 43 58          	mov    rax,QWORD PTR [rbx+0x58]
     d44:	48 d1 e0             	shl    rax,1
     d47:	48 d1 e8             	shr    rax,1
     d4a:	48 8b 40 30          	mov    rax,QWORD PTR [rax+0x30]
     d4e:	4c 8b 7d b0          	mov    r15,QWORD PTR [rbp-0x50]
     d52:	49 d1 e7             	shl    r15,1
     d55:	49 d1 ef             	shr    r15,1
     d58:	49 89 47 08          	mov    QWORD PTR [r15+0x8],rax
     d5c:	48 8b 43 58          	mov    rax,QWORD PTR [rbx+0x58]
     d60:	48 d1 e0             	shl    rax,1
     d63:	48 d1 e8             	shr    rax,1
     d66:	4c 89 78 30          	mov    QWORD PTR [rax+0x30],r15
     d6a:	4c 8b 75 98          	mov    r14,QWORD PTR [rbp-0x68]
     d6e:	4d 85 f6             	test   r14,r14
     d71:	4c 89 7d b0          	mov    QWORD PTR [rbp-0x50],r15
     d75:	4c 89 75 98          	mov    QWORD PTR [rbp-0x68],r14
     d79:	75 86                	jne    0xd01
     d7b:	49 c7 44 24 10 00 00 	mov    QWORD PTR [r12+0x10],0x0
     d82:	00 00 
     d84:	49 c7 44 24 18 00 00 	mov    QWORD PTR [r12+0x18],0x0
     d8b:	00 00 
     d8d:	49 bf 91 48 5a 55 55 	movabs r15,0x5555555a4891
     d94:	55 00 00 
     d97:	49 8d 87 ae 1c 00 00 	lea    rax,[r15+0x1cae]
     d9e:	4c 8b 7d a0          	mov    r15,QWORD PTR [rbp-0x60]
     da2:	49 d1 e7             	shl    r15,1
     da5:	49 d1 ef             	shr    r15,1
     da8:	49 89 47 10          	mov    QWORD PTR [r15+0x10],rax
     dac:	4c 8b 75 a8          	mov    r14,QWORD PTR [rbp-0x58]
     db0:	49 d1 e6             	shl    r14,1
     db3:	49 d1 ee             	shr    r14,1
     db6:	41 f6 46 08 08       	test   BYTE PTR [r14+0x8],0x8
     dbb:	4c 89 7d a0          	mov    QWORD PTR [rbp-0x60],r15
     dbf:	4c 89 75 a8          	mov    QWORD PTR [rbp-0x58],r14
     dc3:	74 5a                	je     0xe1f
     dc5:	49 bf a3 48 5a 55 55 	movabs r15,0x5555555a48a3
     dcc:	55 00 00 
     dcf:	41 f6 87 2d c9 08 00 	test   BYTE PTR [r15+0x8c92d],0x1
     dd6:	01 
     dd7:	74 46                	je     0xe1f
     dd9:	ba 00 00 00 00       	mov    edx,0x0
     dde:	be 04 00 00 00       	mov    esi,0x4
     de3:	4c 8b 7d a8          	mov    r15,QWORD PTR [rbp-0x58]
     de7:	4c 89 ff             	mov    rdi,r15
     dea:	49 be b8 48 5a 55 55 	movabs r14,0x5555555a48b8
     df1:	55 00 00 
     df4:	4d 8d 6d f8          	lea    r13,[r13-0x8]
     df8:	4d 89 75 00          	mov    QWORD PTR [r13+0x0],r14
     dfc:	4c 89 7d a8          	mov    QWORD PTR [rbp-0x58],r15
     e00:	49 bf b8 48 5a 55 55 	movabs r15,0x5555555a48b8
     e07:	55 00 00 
     e0a:	4d 8b b7 d0 c8 08 00 	mov    r14,QWORD PTR [r15+0x8c8d0]
     e11:	e9 41 45 00 00       	jmp    0x5357
     e16:	48 85 c0             	test   rax,rax
     e19:	0f 85 11 02 00 00    	jne    0x1030
     e1f:	48 d1 e3             	shl    rbx,1
     e22:	48 d1 eb             	shr    rbx,1
     e25:	48 8b 43 50          	mov    rax,QWORD PTR [rbx+0x50]
     e29:	49 bf cc 48 5a 55 55 	movabs r15,0x5555555a48cc
     e30:	55 00 00 
     e33:	49 8d 8f 07 42 05 00 	lea    rcx,[r15+0x54207]
     e3a:	48 d1 e0             	shl    rax,1
     e3d:	48 d1 e8             	shr    rax,1
     e40:	48 89 48 40          	mov    QWORD PTR [rax+0x40],rcx
     e44:	0f b6 83 da 00 00 00 	movzx  eax,BYTE PTR [rbx+0xda]
     e4b:	83 e0 c0             	and    eax,0xffffffc0
     e4e:	3c 40                	cmp    al,0x40
     e50:	0f 84 f9 01 00 00    	je     0x104f
     e56:	49 8b 45 08          	mov    rax,QWORD PTR [r13+0x8]
     e5a:	48 d1 e0             	shl    rax,1
     e5d:	48 d1 e8             	shr    rax,1
     e60:	48 83 b8 c0 01 00 00 	cmp    QWORD PTR [rax+0x1c0],0x0
     e67:	00 
     e68:	0f 85 8d 02 00 00    	jne    0x10fb
     e6e:	48 d1 e3             	shl    rbx,1
     e71:	48 d1 eb             	shr    rbx,1
     e74:	80 8b d9 00 00 00 40 	or     BYTE PTR [rbx+0xd9],0x40
     e7b:	be 01 00 00 00       	mov    esi,0x1
     e80:	48 89 df             	mov    rdi,rbx
     e83:	49 bf 09 49 5a 55 55 	movabs r15,0x5555555a4909
     e8a:	55 00 00 
     e8d:	4d 8d 6d f8          	lea    r13,[r13-0x8]
     e91:	4d 89 7d 00          	mov    QWORD PTR [r13+0x0],r15
     e95:	e9 53 46 00 00       	jmp    0x54ed
     e9a:	49 bf 10 49 5a 55 55 	movabs r15,0x5555555a4910
     ea1:	55 00 00 
     ea4:	49 8b 9f 10 c7 08 00 	mov    rbx,QWORD PTR [r15+0x8c710]
     eab:	49 8b 45 08          	mov    rax,QWORD PTR [r13+0x8]
     eaf:	48 d1 e0             	shl    rax,1
     eb2:	48 d1 e8             	shr    rax,1
     eb5:	48 03 98 20 01 00 00 	add    rbx,QWORD PTR [rax+0x120]
     ebc:	4c 8b 7d a0          	mov    r15,QWORD PTR [rbp-0x60]
     ec0:	49 d1 e7             	shl    r15,1
     ec3:	49 d1 ef             	shr    r15,1
     ec6:	41 f6 47 09 08       	test   BYTE PTR [r15+0x9],0x8
     ecb:	4c 89 7d a0          	mov    QWORD PTR [rbp-0x60],r15
     ecf:	74 6f                	je     0xf40
     ed1:	48 89 d8             	mov    rax,rbx
     ed4:	4c 8b 7d a0          	mov    r15,QWORD PTR [rbp-0x60]
     ed8:	49 d1 e7             	shl    r15,1
     edb:	49 d1 ef             	shr    r15,1
     ede:	49 2b 47 28          	sub    rax,QWORD PTR [r15+0x28]
     ee2:	48 8d 80 2b 01 00 00 	lea    rax,[rax+0x12b]
     ee9:	48 3d 56 02 00 00    	cmp    rax,0x256
     eef:	4c 89 7d a0          	mov    QWORD PTR [rbp-0x60],r15
     ef3:	0f 86 92 00 00 00    	jbe    0xf8b
     ef9:	4c 8b 7d a0          	mov    r15,QWORD PTR [rbp-0x60]
     efd:	49 8d 77 28          	lea    rsi,[r15+0x28]
     f01:	49 be 44 49 5a 55 55 	movabs r14,0x5555555a4944
     f08:	55 00 00 
     f0b:	49 8d be ac c8 08 00 	lea    rdi,[r14+0x8c8ac]
     f12:	49 be 49 49 5a 55 55 	movabs r14,0x5555555a4949
     f19:	55 00 00 
     f1c:	4d 8d 6d f8          	lea    r13,[r13-0x8]
     f20:	4d 89 75 00          	mov    QWORD PTR [r13+0x0],r14
     f24:	4c 89 7d a0          	mov    QWORD PTR [rbp-0x60],r15
     f28:	e9 3e 45 00 00       	jmp    0x546b
     f2d:	4c 8b 7d a0          	mov    r15,QWORD PTR [rbp-0x60]
     f31:	49 d1 e7             	shl    r15,1
     f34:	49 d1 ef             	shr    r15,1
     f37:	41 80 67 09 f7       	and    BYTE PTR [r15+0x9],0xf7
     f3c:	4c 89 7d a0          	mov    QWORD PTR [rbp-0x60],r15
     f40:	4c 8b 7d a0          	mov    r15,QWORD PTR [rbp-0x60]
     f44:	49 89 5f 28          	mov    QWORD PTR [r15+0x28],rbx
     f48:	49 8d 77 28          	lea    rsi,[r15+0x28]
     f4c:	49 be 5d 49 5a 55 55 	movabs r14,0x5555555a495d
     f53:	55 00 00 
     f56:	49 8d be 93 c8 08 00 	lea    rdi,[r14+0x8c893]
     f5d:	49 be 62 49 5a 55 55 	movabs r14,0x5555555a4962
     f64:	55 00 00 
     f67:	4d 8d 6d f8          	lea    r13,[r13-0x8]
     f6b:	4d 89 75 00          	mov    QWORD PTR [r13+0x0],r14
     f6f:	4c 89 7d a0          	mov    QWORD PTR [rbp-0x60],r15
     f73:	e9 ad 46 00 00       	jmp    0x5625
     f78:	4c 8b 7d a0          	mov    r15,QWORD PTR [rbp-0x60]
     f7c:	49 d1 e7             	shl    r15,1
     f7f:	49 d1 ef             	shr    r15,1
     f82:	41 80 4f 09 08       	or     BYTE PTR [r15+0x9],0x8
     f87:	4c 89 7d a0          	mov    QWORD PTR [rbp-0x60],r15
     f8b:	4c 8b 7d a0          	mov    r15,QWORD PTR [rbp-0x60]
     f8f:	49 d1 e7             	shl    r15,1
     f92:	49 d1 ef             	shr    r15,1
     f95:	41 f6 47 08 20       	test   BYTE PTR [r15+0x8],0x20
     f9a:	4c 89 7d a0          	mov    QWORD PTR [rbp-0x60],r15
     f9e:	0f 84 fc f9 ff ff    	je     0x9a0
     fa4:	4c 8b 7d a0          	mov    r15,QWORD PTR [rbp-0x60]
     fa8:	49 d1 e7             	shl    r15,1
     fab:	49 d1 ef             	shr    r15,1
     fae:	41 80 7f 09 00       	cmp    BYTE PTR [r15+0x9],0x0
     fb3:	4c 89 7d a0          	mov    QWORD PTR [rbp-0x60],r15
     fb7:	0f 88 e3 f9 ff ff    	js     0x9a0
     fbd:	4c 8b 7d a0          	mov    r15,QWORD PTR [rbp-0x60]
     fc1:	49 d1 e7             	shl    r15,1
     fc4:	49 d1 ef             	shr    r15,1
     fc7:	41 80 4f 09 80       	or     BYTE PTR [r15+0x9],0x80
     fcc:	49 be 89 49 5a 55 55 	movabs r14,0x5555555a4989
     fd3:	55 00 00 
     fd6:	49 8b 96 a7 c8 08 00 	mov    rdx,QWORD PTR [r14+0x8c8a7]
     fdd:	49 89 57 50          	mov    QWORD PTR [r15+0x50],rdx
     fe1:	49 8d 47 50          	lea    rax,[r15+0x50]
     fe5:	48 89 42 08          	mov    QWORD PTR [rdx+0x8],rax
     fe9:	49 be 9c 49 5a 55 55 	movabs r14,0x5555555a499c
     ff0:	55 00 00 
     ff3:	49 8d 8e 94 c8 08 00 	lea    rcx,[r14+0x8c894]
     ffa:	49 89 4f 58          	mov    QWORD PTR [r15+0x58],rcx
     ffe:	49 be a7 49 5a 55 55 	movabs r14,0x5555555a49a7
    1005:	55 00 00 
    1008:	49 89 86 89 c8 08 00 	mov    QWORD PTR [r14+0x8c889],rax
    100f:	4c 89 7d a0          	mov    QWORD PTR [rbp-0x60],r15
    1013:	e9 88 f9 ff ff       	jmp    0x9a0
    1018:	4c 8b 7d 98          	mov    r15,QWORD PTR [rbp-0x68]
    101c:	49 8b 47 20          	mov    rax,QWORD PTR [r15+0x20]
    1020:	49 89 07             	mov    QWORD PTR [r15],rax
    1023:	49 89 47 08          	mov    QWORD PTR [r15+0x8],rax
    1027:	4c 89 7d 98          	mov    QWORD PTR [rbp-0x68],r15
    102b:	e9 22 fc ff ff       	jmp    0xc52
    1030:	48 89 df             	mov    rdi,rbx
    1033:	49 bf c7 49 5a 55 55 	movabs r15,0x5555555a49c7
    103a:	55 00 00 
    103d:	4d 8d 6d f8          	lea    r13,[r13-0x8]
    1041:	4d 89 7d 00          	mov    QWORD PTR [r13+0x0],r15
    1045:	e9 f3 f8 ff ff       	jmp    0x93d
    104a:	e9 51 f9 ff ff       	jmp    0x9a0
    104f:	8b 7b 18             	mov    edi,DWORD PTR [rbx+0x18]
    1052:	49 bf d4 49 5a 55 55 	movabs r15,0x5555555a49d4
    1059:	55 00 00 
    105c:	4d 8d 6d f8          	lea    r13,[r13-0x8]
    1060:	4d 89 7d 00          	mov    QWORD PTR [r13+0x0],r15
    1064:	e9 21 f4 ff ff       	jmp    0x48a
    1069:	83 f8 ff             	cmp    eax,0xffffffff
    106c:	74 2a                	je     0x1098
    106e:	48 d1 e3             	shl    rbx,1
    1071:	48 d1 eb             	shr    rbx,1
    1074:	80 a3 da 00 00 00 3f 	and    BYTE PTR [rbx+0xda],0x3f
    107b:	49 bf e8 49 5a 55 55 	movabs r15,0x5555555a49e8
    1082:	55 00 00 
    1085:	49 83 bf c8 88 09 00 	cmp    QWORD PTR [r15+0x988c8],0x0
    108c:	00 
    108d:	0f 84 db fd ff ff    	je     0xe6e
    1093:	e9 be fd ff ff       	jmp    0xe56
    1098:	49 bf f8 49 5a 55 55 	movabs r15,0x5555555a49f8
    109f:	55 00 00 
    10a2:	4d 8d 6d f8          	lea    r13,[r13-0x8]
    10a6:	4d 89 7d 00          	mov    QWORD PTR [r13+0x0],r15
    10aa:	e9 42 45 00 00       	jmp    0x55f1
    10af:	49 bf ff 49 5a 55 55 	movabs r15,0x5555555a49ff
    10b6:	55 00 00 
    10b9:	49 8d 97 23 d4 04 00 	lea    rdx,[r15+0x4d423]
    10c0:	8b 30                	mov    esi,DWORD PTR [rax]
    10c2:	48 89 df             	mov    rdi,rbx
    10c5:	49 bf 09 4a 5a 55 55 	movabs r15,0x5555555a4a09
    10cc:	55 00 00 
    10cf:	4d 8d 6d f8          	lea    r13,[r13-0x8]
    10d3:	4d 89 7d 00          	mov    QWORD PTR [r13+0x0],r15
    10d7:	e9 ad 44 00 00       	jmp    0x5589
    10dc:	48 89 df             	mov    rdi,rbx
    10df:	49 bf 11 4a 5a 55 55 	movabs r15,0x5555555a4a11
    10e6:	55 00 00 
    10e9:	4d 8d 6d f8          	lea    r13,[r13-0x8]
    10ed:	4d 89 7d 00          	mov    QWORD PTR [r13+0x0],r15
    10f1:	e9 47 f8 ff ff       	jmp    0x93d
    10f6:	e9 a5 f8 ff ff       	jmp    0x9a0
    10fb:	48 89 df             	mov    rdi,rbx
    10fe:	49 bf 1e 4a 5a 55 55 	movabs r15,0x5555555a4a1e
    1105:	55 00 00 
    1108:	4d 8d 6d f8          	lea    r13,[r13-0x8]
    110c:	4d 89 7d 00          	mov    QWORD PTR [r13+0x0],r15
    1110:	e9 f2 43 00 00       	jmp    0x5507
    1115:	48 85 c0             	test   rax,rax
    1118:	0f 84 50 fd ff ff    	je     0xe6e
    111e:	48 89 df             	mov    rdi,rbx
    1121:	49 bf 2f 4a 5a 55 55 	movabs r15,0x5555555a4a2f
    1128:	55 00 00 
    112b:	4d 8d 6d f8          	lea    r13,[r13-0x8]
    112f:	4d 89 7d 00          	mov    QWORD PTR [r13+0x0],r15
    1133:	e9 05 f8 ff ff       	jmp    0x93d
    1138:	e9 63 f8 ff ff       	jmp    0x9a0
    113d:	49 83 ed 08          	sub    r13,0x8
    1141:	48 d1 e7             	shl    rdi,1
    1144:	48 d1 ef             	shr    rdi,1
    1147:	48 8b 57 08          	mov    rdx,QWORD PTR [rdi+0x8]
    114b:	49 bf bf 74 d6 f7 ff 	movabs r15,0x7ffff7d674bf
    1152:	7f 00 00 
    1155:	49 8b 87 a1 69 15 00 	mov    rax,QWORD PTR [r15+0x1569a1]
    115c:	48 89 d1             	mov    rcx,rdx
    115f:	48 d1 e0             	shl    rax,1
    1162:	48 d1 e8             	shr    rax,1
    1165:	48 8b 40 18          	mov    rax,QWORD PTR [rax+0x18]
    1169:	48 83 e1 f8          	and    rcx,0xfffffffffffffff8
    116d:	83 e2 02             	and    edx,0x2
    1170:	0f 84 ca 00 00 00    	je     0x1240
    1176:	49 bf d6 74 d6 f7 ff 	movabs r15,0x7ffff7d674d6
    117d:	7f 00 00 
    1180:	49 39 bf c2 99 15 00 	cmp    QWORD PTR [r15+0x1599c2],rdi
    1187:	76 68                	jbe    0x11f1
    1189:	48 d1 e7             	shl    rdi,1
    118c:	48 d1 ef             	shr    rdi,1
    118f:	48 8b 37             	mov    rsi,QWORD PTR [rdi]
    1192:	49 89 f8             	mov    r8,rdi
    1195:	48 83 e8 01          	sub    rax,0x1
    1199:	48 83 c7 10          	add    rdi,0x10
    119d:	48 21 c7             	and    rdi,rax
    11a0:	49 29 f0             	sub    r8,rsi
    11a3:	48 01 ce             	add    rsi,rcx
    11a6:	4c 89 c2             	mov    rdx,r8
    11a9:	48 09 f2             	or     rdx,rsi
    11ac:	48 21 d0             	and    rax,rdx
    11af:	48 8d 57 ff          	lea    rdx,[rdi-0x1]
    11b3:	48 21 d7             	and    rdi,rdx
    11b6:	48 09 f8             	or     rax,rdi
    11b9:	75 5d                	jne    0x1218
    11bb:	49 bf 0b 75 d6 f7 ff 	movabs r15,0x7ffff7d6750b
    11c2:	7f 00 00 
    11c5:	f0 41 ff 8f 9d 6d 15 	lock dec DWORD PTR [r15+0x156d9d]
    11cc:	00 
    11cd:	48 89 f0             	mov    rax,rsi
    11d0:	48 f7 d8             	neg    rax
    11d3:	49 bf 19 75 d6 f7 ff 	movabs r15,0x7ffff7d67519
    11da:	7f 00 00 
    11dd:	f0 49 01 87 9f 6d 15 	lock add QWORD PTR [r15+0x156d9f],rax
    11e4:	00 
    11e5:	4c 89 c7             	mov    rdi,r8
    11e8:	49 83 c5 08          	add    r13,0x8
    11ec:	e9 3a 3a 00 00       	jmp    0x4c2b
    11f1:	49 bf 2f 75 d6 f7 ff 	movabs r15,0x7ffff7d6752f
    11f8:	7f 00 00 
    11fb:	49 39 bf 61 99 15 00 	cmp    QWORD PTR [r15+0x159961],rdi
    1202:	76 85                	jbe    0x1189
    1204:	49 83 c5 08          	add    r13,0x8
    1208:	4d 8b 7d 00          	mov    r15,QWORD PTR [r13+0x0]
    120c:	4d 8d 6d 08          	lea    r13,[r13+0x8]
    1210:	4d 89 fe             	mov    r14,r15
    1213:	e9 71 3e 00 00       	jmp    0x5089
    1218:	49 bf 47 75 d6 f7 ff 	movabs r15,0x7ffff7d67547
    121f:	7f 00 00 
    1222:	49 8d bf 99 3c 12 00 	lea    rdi,[r15+0x123c99]
    1229:	49 bf 4c 75 d6 f7 ff 	movabs r15,0x7ffff7d6754c
    1230:	7f 00 00 
    1233:	4d 8d 6d f8          	lea    r13,[r13-0x8]
    1237:	4d 89 7d 00          	mov    QWORD PTR [r13+0x0],r15
    123b:	e9 33 44 00 00       	jmp    0x5673
    1240:	49 bf 53 75 d6 f7 ff 	movabs r15,0x7ffff7d67553
    1247:	7f 00 00 
    124a:	49 8d 8f ad 4a 12 00 	lea    rcx,[r15+0x124aad]
    1251:	ba fd 0a 00 00       	mov    edx,0xafd
    1256:	49 bf 5f 75 d6 f7 ff 	movabs r15,0x7ffff7d6755f
    125d:	7f 00 00 
    1260:	49 8d b7 77 fe 11 00 	lea    rsi,[r15+0x11fe77]
    1267:	49 bf 66 75 d6 f7 ff 	movabs r15,0x7ffff7d67566
    126e:	7f 00 00 
    1271:	49 8d bf 79 fe 11 00 	lea    rdi,[r15+0x11fe79]
    1278:	49 bf 6b 75 d6 f7 ff 	movabs r15,0x7ffff7d6756b
    127f:	7f 00 00 
    1282:	4d 8d 6d f8          	lea    r13,[r13-0x8]
    1286:	4d 89 7d 00          	mov    QWORD PTR [r13+0x0],r15
    128a:	e9 5a 41 00 00       	jmp    0x53e9
    128f:	90                   	nop
    1290:	4d 8d 6d f8          	lea    r13,[r13-0x8]
    1294:	4c 8b 7d 98          	mov    r15,QWORD PTR [rbp-0x68]
    1298:	4d 89 7d 00          	mov    QWORD PTR [r13+0x0],r15
    129c:	49 be 79 75 d6 f7 ff 	movabs r14,0x7ffff7d67579
    12a3:	7f 00 00 
    12a6:	49 8b 86 e7 68 15 00 	mov    rax,QWORD PTR [r14+0x1568e7]
    12ad:	4d 8d 6d f8          	lea    r13,[r13-0x8]
    12b1:	4d 89 65 00          	mov    QWORD PTR [r13+0x0],r12
    12b5:	4d 8d 6d f8          	lea    r13,[r13-0x8]
    12b9:	49 89 5d 00          	mov    QWORD PTR [r13+0x0],rbx
    12bd:	48 d1 e7             	shl    rdi,1
    12c0:	48 d1 ef             	shr    rdi,1
    12c3:	48 8b 57 08          	mov    rdx,QWORD PTR [rdi+0x8]
    12c7:	48 d1 e0             	shl    rax,1
    12ca:	48 d1 e8             	shr    rax,1
    12cd:	48 8b 40 18          	mov    rax,QWORD PTR [rax+0x18]
    12d1:	4c 8b 3f             	mov    r15,QWORD PTR [rdi]
    12d4:	49 89 d4             	mov    r12,rdx
    12d7:	49 83 e4 f8          	and    r12,0xfffffffffffffff8
    12db:	83 e2 02             	and    edx,0x2
    12de:	4c 89 7d 98          	mov    QWORD PTR [rbp-0x68],r15
    12e2:	0f 84 a9 01 00 00    	je     0x1491
    12e8:	49 89 f9             	mov    r9,rdi
    12eb:	48 8d 48 ff          	lea    rcx,[rax-0x1]
    12ef:	48 8d 57 10          	lea    rdx,[rdi+0x10]
    12f3:	4c 8b 7d 98          	mov    r15,QWORD PTR [rbp-0x68]
    12f7:	4d 01 fc             	add    r12,r15
    12fa:	4d 29 f9             	sub    r9,r15
    12fd:	48 21 ca             	and    rdx,rcx
    1300:	4d 89 c8             	mov    r8,r9
    1303:	4d 09 e0             	or     r8,r12
    1306:	49 21 c8             	and    r8,rcx
    1309:	48 8d 4a ff          	lea    rcx,[rdx-0x1]
    130d:	48 21 ca             	and    rdx,rcx
    1310:	49 09 d0             	or     r8,rdx
    1313:	4c 89 7d 98          	mov    QWORD PTR [rbp-0x68],r15
    1317:	0f 85 43 01 00 00    	jne    0x1460
    131d:	48 8d 5c 30 07       	lea    rbx,[rax+rsi*1+0x7]
    1322:	48 f7 d8             	neg    rax
    1325:	4c 8b 7d 98          	mov    r15,QWORD PTR [rbp-0x68]
    1329:	4c 01 fb             	add    rbx,r15
    132c:	48 21 c3             	and    rbx,rax
    132f:	49 39 dc             	cmp    r12,rbx
    1332:	4c 89 7d 98          	mov    QWORD PTR [rbp-0x68],r15
    1336:	0f 84 f1 00 00 00    	je     0x142d
    133c:	31 c0                	xor    eax,eax
    133e:	b9 01 00 00 00       	mov    ecx,0x1
    1343:	48 89 da             	mov    rdx,rbx
    1346:	4c 89 e6             	mov    rsi,r12
    1349:	4c 89 cf             	mov    rdi,r9
    134c:	49 bf eb 75 d6 f7 ff 	movabs r15,0x7ffff7d675eb
    1353:	7f 00 00 
    1356:	4d 8d 6d f8          	lea    r13,[r13-0x8]
    135a:	4d 89 7d 00          	mov    QWORD PTR [r13+0x0],r15
    135e:	e9 d8 41 00 00       	jmp    0x553b
    1363:	48 83 f8 ff          	cmp    rax,0xffffffffffffffff
    1367:	0f 84 1c 01 00 00    	je     0x1489
    136d:	4c 8b 7d 98          	mov    r15,QWORD PTR [rbp-0x68]
    1371:	4d 8d 04 07          	lea    r8,[r15+rax*1]
    1375:	41 f6 c0 0f          	test   r8b,0xf
    1379:	4c 89 7d 98          	mov    QWORD PTR [rbp-0x68],r15
    137d:	0f 85 5d 01 00 00    	jne    0x14e0
    1383:	4c 8b 7d 98          	mov    r15,QWORD PTR [rbp-0x68]
    1387:	49 d1 e0             	shl    r8,1
    138a:	49 d1 e8             	shr    r8,1
    138d:	4d 39 38             	cmp    QWORD PTR [r8],r15
    1390:	4c 89 7d 98          	mov    QWORD PTR [rbp-0x68],r15
    1394:	0f 85 95 01 00 00    	jne    0x152f
    139a:	48 89 d8             	mov    rax,rbx
    139d:	4c 29 e3             	sub    rbx,r12
    13a0:	4c 8b 7d 98          	mov    r15,QWORD PTR [rbp-0x68]
    13a4:	4c 29 f8             	sub    rax,r15
    13a7:	48 83 c8 02          	or     rax,0x2
    13ab:	49 d1 e0             	shl    r8,1
    13ae:	49 d1 e8             	shr    r8,1
    13b1:	49 89 40 08          	mov    QWORD PTR [r8+0x8],rax
    13b5:	48 89 d8             	mov    rax,rbx
    13b8:	49 be 25 76 d6 f7 ff 	movabs r14,0x7ffff7d67625
    13bf:	7f 00 00 
    13c2:	f0 49 0f c1 86 93 6c 	lock xadd QWORD PTR [r14+0x156c93],rax
    13c9:	15 00 
    13cb:	48 01 c3             	add    rbx,rax
    13ce:	4c 89 7d 98          	mov    QWORD PTR [rbp-0x68],r15
    13d2:	49 bf 2f 76 d6 f7 ff 	movabs r15,0x7ffff7d6762f
    13d9:	7f 00 00 
    13dc:	49 8b 87 91 6c 15 00 	mov    rax,QWORD PTR [r15+0x156c91]
    13e3:	48 39 c3             	cmp    rbx,rax
    13e6:	76 15                	jbe    0x13fd
    13e8:	49 bf 3d 76 d6 f7 ff 	movabs r15,0x7ffff7d6763d
    13ef:	7f 00 00 
    13f2:	f0 49 0f b1 9f 83 6c 	lock cmpxchg QWORD PTR [r15+0x156c83],rbx
    13f9:	15 00 
    13fb:	75 d5                	jne    0x13d2
    13fd:	49 8b 5d 00          	mov    rbx,QWORD PTR [r13+0x0]
    1401:	4d 8d 6d 08          	lea    r13,[r13+0x8]
    1405:	4c 89 c0             	mov    rax,r8
    1408:	4d 8b 65 00          	mov    r12,QWORD PTR [r13+0x0]
    140c:	4d 8d 6d 08          	lea    r13,[r13+0x8]
    1410:	4c 8b 7d 98          	mov    r15,QWORD PTR [rbp-0x68]
    1414:	4d 8b 7d 00          	mov    r15,QWORD PTR [r13+0x0]
    1418:	4d 8d 6d 08          	lea    r13,[r13+0x8]
    141c:	4d 8b 75 00          	mov    r14,QWORD PTR [r13+0x0]
    1420:	4d 8d 6d 08          	lea    r13,[r13+0x8]
    1424:	4c 89 7d 98          	mov    QWORD PTR [rbp-0x68],r15
    1428:	e9 a0 3c 00 00       	jmp    0x50cd
    142d:	49 89 f8             	mov    r8,rdi
    1430:	49 8b 5d 00          	mov    rbx,QWORD PTR [r13+0x0]
    1434:	4d 8d 6d 08          	lea    r13,[r13+0x8]
    1438:	4d 8b 65 00          	mov    r12,QWORD PTR [r13+0x0]
    143c:	4d 8d 6d 08          	lea    r13,[r13+0x8]
    1440:	4c 89 c0             	mov    rax,r8
    1443:	4c 8b 7d 98          	mov    r15,QWORD PTR [rbp-0x68]
    1447:	4d 8b 7d 00          	mov    r15,QWORD PTR [r13+0x0]
    144b:	4d 8d 6d 08          	lea    r13,[r13+0x8]
    144f:	4d 8b 75 00          	mov    r14,QWORD PTR [r13+0x0]
    1453:	4d 8d 6d 08          	lea    r13,[r13+0x8]
    1457:	4c 89 7d 98          	mov    QWORD PTR [rbp-0x68],r15
    145b:	e9 4b 3c 00 00       	jmp    0x50ab
    1460:	49 bf 67 76 d6 f7 ff 	movabs r15,0x7ffff7d67667
    1467:	7f 00 00 
    146a:	49 8d bf 99 3b 12 00 	lea    rdi,[r15+0x123b99]
    1471:	49 bf 6c 76 d6 f7 ff 	movabs r15,0x7ffff7d6766c
    1478:	7f 00 00 
    147b:	4d 8d 6d f8          	lea    r13,[r13-0x8]
    147f:	4d 89 7d 00          	mov    QWORD PTR [r13+0x0],r15
    1483:	e9 eb 41 00 00       	jmp    0x5673
    1488:	90                   	nop
    1489:	45 31 c0             	xor    r8d,r8d
    148c:	e9 6c ff ff ff       	jmp    0x13fd
    1491:	49 bf 7c 76 d6 f7 ff 	movabs r15,0x7ffff7d6767c
    1498:	7f 00 00 
    149b:	49 8d 8f 74 49 12 00 	lea    rcx,[r15+0x124974]
    14a2:	ba 23 0b 00 00       	mov    edx,0xb23
    14a7:	49 bf 88 76 d6 f7 ff 	movabs r15,0x7ffff7d67688
    14ae:	7f 00 00 
    14b1:	49 8d b7 4e fd 11 00 	lea    rsi,[r15+0x11fd4e]
    14b8:	49 bf 8f 76 d6 f7 ff 	movabs r15,0x7ffff7d6768f
    14bf:	7f 00 00 
    14c2:	49 8d bf 50 fd 11 00 	lea    rdi,[r15+0x11fd50]
    14c9:	49 bf 94 76 d6 f7 ff 	movabs r15,0x7ffff7d67694
    14d0:	7f 00 00 
    14d3:	4d 8d 6d f8          	lea    r13,[r13-0x8]
    14d7:	4d 89 7d 00          	mov    QWORD PTR [r13+0x0],r15
    14db:	e9 09 3f 00 00       	jmp    0x53e9
    14e0:	49 bf 9b 76 d6 f7 ff 	movabs r15,0x7ffff7d6769b
    14e7:	7f 00 00 
    14ea:	49 8d 8f 55 49 12 00 	lea    rcx,[r15+0x124955]
    14f1:	ba 3b 0b 00 00       	mov    edx,0xb3b
    14f6:	49 bf a7 76 d6 f7 ff 	movabs r15,0x7ffff7d676a7
    14fd:	7f 00 00 
    1500:	49 8d b7 2f fd 11 00 	lea    rsi,[r15+0x11fd2f]
    1507:	49 bf ae 76 d6 f7 ff 	movabs r15,0x7ffff7d676ae
    150e:	7f 00 00 
    1511:	49 8d bf 46 fd 11 00 	lea    rdi,[r15+0x11fd46]
    1518:	49 bf b3 76 d6 f7 ff 	movabs r15,0x7ffff7d676b3
    151f:	7f 00 00 
    1522:	4d 8d 6d f8          	lea    r13,[r13-0x8]
    1526:	4d 89 7d 00          	mov    QWORD PTR [r13+0x0],r15
    152a:	e9 ba 3e 00 00       	jmp    0x53e9
    152f:	49 bf ba 76 d6 f7 ff 	movabs r15,0x7ffff7d676ba
    1536:	7f 00 00 
    1539:	49 8d 8f 36 49 12 00 	lea    rcx,[r15+0x124936]
    1540:	ba 3d 0b 00 00       	mov    edx,0xb3d
    1545:	49 bf c6 76 d6 f7 ff 	movabs r15,0x7ffff7d676c6
    154c:	7f 00 00 
    154f:	49 8d b7 10 fd 11 00 	lea    rsi,[r15+0x11fd10]
    1556:	49 bf cd 76 d6 f7 ff 	movabs r15,0x7ffff7d676cd
    155d:	7f 00 00 
    1560:	49 8d bf 42 fd 11 00 	lea    rdi,[r15+0x11fd42]
    1567:	49 bf d2 76 d6 f7 ff 	movabs r15,0x7ffff7d676d2
    156e:	7f 00 00 
    1571:	4d 8d 6d f8          	lea    r13,[r13-0x8]
    1575:	4d 89 7d 00          	mov    QWORD PTR [r13+0x0],r15
    1579:	e9 6b 3e 00 00       	jmp    0x53e9
    157e:	90                   	nop
    157f:	90                   	nop
    1580:	4d 8d 6d f8          	lea    r13,[r13-0x8]
    1584:	49 89 45 00          	mov    QWORD PTR [r13+0x0],rax
    1588:	49 8b 45 00          	mov    rax,QWORD PTR [r13+0x0]
    158c:	4d 8d 6d 08          	lea    r13,[r13+0x8]
    1590:	49 bf e9 76 d6 f7 ff 	movabs r15,0x7ffff7d676e9
    1597:	7f 00 00 
    159a:	49 8d 8f c7 48 12 00 	lea    rcx,[r15+0x1248c7]
    15a1:	ba a4 02 00 00       	mov    edx,0x2a4
    15a6:	49 bf f5 76 d6 f7 ff 	movabs r15,0x7ffff7d676f5
    15ad:	7f 00 00 
    15b0:	49 8d b7 32 fd 11 00 	lea    rsi,[r15+0x11fd32]
    15b7:	49 bf fc 76 d6 f7 ff 	movabs r15,0x7ffff7d676fc
    15be:	7f 00 00 
    15c1:	49 8d bf 24 3b 12 00 	lea    rdi,[r15+0x123b24]
    15c8:	49 83 ed 08          	sub    r13,0x8
    15cc:	49 bf 05 77 d6 f7 ff 	movabs r15,0x7ffff7d67705
    15d3:	7f 00 00 
    15d6:	4d 8d 6d f8          	lea    r13,[r13-0x8]
    15da:	4d 89 7d 00          	mov    QWORD PTR [r13+0x0],r15
    15de:	e9 06 3e 00 00       	jmp    0x53e9
    15e3:	90                   	nop
    15e4:	49 bf 18 77 d6 f7 ff 	movabs r15,0x7ffff7d67718
    15eb:	7f 00 00 
    15ee:	49 83 bf 68 97 15 00 	cmp    QWORD PTR [r15+0x159768],0x0
    15f5:	00 
    15f6:	4d 8d 6d f8          	lea    r13,[r13-0x8]
    15fa:	4c 8b 7d 98          	mov    r15,QWORD PTR [rbp-0x68]
    15fe:	4d 89 7d 00          	mov    QWORD PTR [r13+0x0],r15
    1602:	4d 8d 6d f8          	lea    r13,[r13-0x8]
    1606:	4d 89 65 00          	mov    QWORD PTR [r13+0x0],r12
    160a:	4d 8d 6d f8          	lea    r13,[r13-0x8]
    160e:	49 89 5d 00          	mov    QWORD PTR [r13+0x0],rbx
    1612:	4c 89 7d 98          	mov    QWORD PTR [rbp-0x68],r15
    1616:	0f 84 71 01 00 00    	je     0x178d
    161c:	49 bf 29 77 d6 f7 ff 	movabs r15,0x7ffff7d67729
    1623:	7f 00 00 
    1626:	49 8b 9f 47 66 15 00 	mov    rbx,QWORD PTR [r15+0x156647]
    162d:	4c 8b 7d 88          	mov    r15,QWORD PTR [rbp-0x78]
    1631:	4d 8b 24 1f          	mov    r12,QWORD PTR [r15+rbx*1]
    1635:	49 d1 e7             	shl    r15,1
    1638:	49 d1 ef             	shr    r15,1
    163b:	41 8b 47 18          	mov    eax,DWORD PTR [r15+0x18]
    163f:	85 c0                	test   eax,eax
    1641:	0f 85 79 01 00 00    	jne    0x17c0
    1647:	ba 01 00 00 00       	mov    edx,0x1
    164c:	49 bf 49 77 d6 f7 ff 	movabs r15,0x7ffff7d67749
    1653:	7f 00 00 
    1656:	41 0f b1 97 3f 97 15 	cmpxchg DWORD PTR [r15+0x15973f],edx
    165d:	00 
    165e:	49 bf 50 77 d6 f7 ff 	movabs r15,0x7ffff7d67750
    1665:	7f 00 00 
    1668:	4c 8b 75 98          	mov    r14,QWORD PTR [rbp-0x68]
    166c:	4d 8b b7 30 97 15 00 	mov    r14,QWORD PTR [r15+0x159730]
    1673:	4d 85 f6             	test   r14,r14
    1676:	4c 89 75 98          	mov    QWORD PTR [rbp-0x68],r14
    167a:	74 6f                	je     0x16eb
    167c:	4c 8b 7d 98          	mov    r15,QWORD PTR [rbp-0x68]
    1680:	49 d1 e7             	shl    r15,1
    1683:	49 d1 ef             	shr    r15,1
    1686:	49 8b 87 78 08 00 00 	mov    rax,QWORD PTR [r15+0x878]
    168d:	49 83 bf 80 08 00 00 	cmp    QWORD PTR [r15+0x880],0x0
    1694:	00 
    1695:	49 be 6d 77 d6 f7 ff 	movabs r14,0x7ffff7d6776d
    169c:	7f 00 00 
    169f:	49 89 86 13 97 15 00 	mov    QWORD PTR [r14+0x159713],rax
    16a6:	4c 89 7d 98          	mov    QWORD PTR [rbp-0x68],r15
    16aa:	0f 85 f7 01 00 00    	jne    0x18a7
    16b0:	4c 8b 7d 98          	mov    r15,QWORD PTR [rbp-0x68]
    16b4:	49 d1 e7             	shl    r15,1
    16b7:	49 d1 ef             	shr    r15,1
    16ba:	49 c7 87 80 08 00 00 	mov    QWORD PTR [r15+0x880],0x1
    16c1:	01 00 00 00 
    16c5:	4d 85 e4             	test   r12,r12
    16c8:	4c 89 7d 98          	mov    QWORD PTR [rbp-0x68],r15
    16cc:	74 1d                	je     0x16eb
    16ce:	49 8b 84 24 80 08 00 	mov    rax,QWORD PTR [r12+0x880]
    16d5:	00 
    16d6:	48 85 c0             	test   rax,rax
    16d9:	0f 84 17 02 00 00    	je     0x18f6
    16df:	48 83 e8 01          	sub    rax,0x1
    16e3:	49 89 84 24 80 08 00 	mov    QWORD PTR [r12+0x880],rax
    16ea:	00 
    16eb:	4c 8b 7d 88          	mov    r15,QWORD PTR [rbp-0x78]
    16ef:	49 d1 e7             	shl    r15,1
    16f2:	49 d1 ef             	shr    r15,1
    16f5:	41 8b 47 18          	mov    eax,DWORD PTR [r15+0x18]
    16f9:	85 c0                	test   eax,eax
    16fb:	0f 85 0c 01 00 00    	jne    0x180d
    1701:	49 bf b2 77 d6 f7 ff 	movabs r15,0x7ffff7d677b2
    1708:	7f 00 00 
    170b:	41 83 af d6 96 15 00 	sub    DWORD PTR [r15+0x1596d6],0x1
    1712:	01 
    1713:	4c 8b 7d 98          	mov    r15,QWORD PTR [rbp-0x68]
    1717:	4d 85 ff             	test   r15,r15
    171a:	4c 89 7d 98          	mov    QWORD PTR [rbp-0x68],r15
    171e:	74 6d                	je     0x178d
    1720:	90                   	nop
    1721:	4c 8b 7d 88          	mov    r15,QWORD PTR [rbp-0x78]
    1725:	49 d1 e7             	shl    r15,1
    1728:	49 d1 ef             	shr    r15,1
    172b:	41 8b 47 18          	mov    eax,DWORD PTR [r15+0x18]
    172f:	85 c0                	test   eax,eax
    1731:	0f 85 29 01 00 00    	jne    0x1860
    1737:	ba 01 00 00 00       	mov    edx,0x1
    173c:	4c 8b 7d 98          	mov    r15,QWORD PTR [rbp-0x68]
    1740:	49 d1 e7             	shl    r15,1
    1743:	49 d1 ef             	shr    r15,1
    1746:	41 0f b1 17          	cmpxchg DWORD PTR [r15],edx
    174a:	4c 89 7d 98          	mov    QWORD PTR [rbp-0x68],r15
    174e:	4c 8b 7d 88          	mov    r15,QWORD PTR [rbp-0x78]
    1752:	4c 8b 75 98          	mov    r14,QWORD PTR [rbp-0x68]
    1756:	4d 89 34 1f          	mov    QWORD PTR [r15+rbx*1],r14
    175a:	4c 89 f0             	mov    rax,r14
    175d:	49 8b 5d 00          	mov    rbx,QWORD PTR [r13+0x0]
    1761:	4d 8d 6d 08          	lea    r13,[r13+0x8]
    1765:	4d 8b 65 00          	mov    r12,QWORD PTR [r13+0x0]
    1769:	4d 8d 6d 08          	lea    r13,[r13+0x8]
    176d:	4d 8b 75 00          	mov    r14,QWORD PTR [r13+0x0]
    1771:	4d 8d 6d 08          	lea    r13,[r13+0x8]
    1775:	4c 89 7d 88          	mov    QWORD PTR [rbp-0x78],r15
    1779:	4d 8b 7d 00          	mov    r15,QWORD PTR [r13+0x0]
    177d:	4d 8d 6d 08          	lea    r13,[r13+0x8]
    1781:	4c 89 75 98          	mov    QWORD PTR [rbp-0x68],r14
    1785:	4d 89 fe             	mov    r14,r15
    1788:	e9 ee 39 00 00       	jmp    0x517b
    178d:	4c 8b 7d 98          	mov    r15,QWORD PTR [rbp-0x68]
    1791:	45 31 ff             	xor    r15d,r15d
    1794:	49 8b 5d 00          	mov    rbx,QWORD PTR [r13+0x0]
    1798:	4d 8d 6d 08          	lea    r13,[r13+0x8]
    179c:	4d 8b 65 00          	mov    r12,QWORD PTR [r13+0x0]
    17a0:	4d 8d 6d 08          	lea    r13,[r13+0x8]
    17a4:	4c 89 f8             	mov    rax,r15
    17a7:	4d 8b 7d 00          	mov    r15,QWORD PTR [r13+0x0]
    17ab:	4d 8d 6d 08          	lea    r13,[r13+0x8]
    17af:	4d 8b 75 00          	mov    r14,QWORD PTR [r13+0x0]
    17b3:	4d 8d 6d 08          	lea    r13,[r13+0x8]
    17b7:	4c 89 7d 98          	mov    QWORD PTR [rbp-0x68],r15
    17bb:	e9 99 39 00 00       	jmp    0x5159
    17c0:	31 c0                	xor    eax,eax
    17c2:	ba 01 00 00 00       	mov    edx,0x1
    17c7:	49 bf ff 77 d6 f7 ff 	movabs r15,0x7ffff7d677ff
    17ce:	7f 00 00 
    17d1:	f0 41 0f b1 97 89 96 	lock cmpxchg DWORD PTR [r15+0x159689],edx
    17d8:	15 00 
    17da:	0f 84 7e fe ff ff    	je     0x165e
    17e0:	49 bf 0c 78 d6 f7 ff 	movabs r15,0x7ffff7d6780c
    17e7:	7f 00 00 
    17ea:	49 8d bf 7c 96 15 00 	lea    rdi,[r15+0x15967c]
    17f1:	49 bf 11 78 d6 f7 ff 	movabs r15,0x7ffff7d67811
    17f8:	7f 00 00 
    17fb:	4d 8d 6d f8          	lea    r13,[r13-0x8]
    17ff:	4d 89 7d 00          	mov    QWORD PTR [r13+0x0],r15
    1803:	e9 19 3d 00 00       	jmp    0x5521
    1808:	e9 51 fe ff ff       	jmp    0x165e
    180d:	31 c0                	xor    eax,eax
    180f:	49 bf 28 78 d6 f7 ff 	movabs r15,0x7ffff7d67828
    1816:	7f 00 00 
    1819:	41 87 87 60 96 15 00 	xchg   DWORD PTR [r15+0x159660],eax
    1820:	83 f8 01             	cmp    eax,0x1
    1823:	0f 8e ea fe ff ff    	jle    0x1713
    1829:	45 31 d2             	xor    r10d,r10d
    182c:	ba 01 00 00 00       	mov    edx,0x1
    1831:	be 81 00 00 00       	mov    esi,0x81
    1836:	b8 ca 00 00 00       	mov    eax,0xca
    183b:	49 bf 46 78 d6 f7 ff 	movabs r15,0x7ffff7d67846
    1842:	7f 00 00 
    1845:	49 8d bf 42 96 15 00 	lea    rdi,[r15+0x159642]
    184c:	49 be 46 78 d6 f7 ff 	movabs r14,0x7ffff7d67846
    1853:	7f 00 00 
    1856:	e9 a5 3e 00 00       	jmp    0x5700
    185b:	e9 b3 fe ff ff       	jmp    0x1713
    1860:	31 c0                	xor    eax,eax
    1862:	ba 01 00 00 00       	mov    edx,0x1
    1867:	4c 8b 7d 98          	mov    r15,QWORD PTR [rbp-0x68]
    186b:	49 d1 e7             	shl    r15,1
    186e:	49 d1 ef             	shr    r15,1
    1871:	f0 41 0f b1 17       	lock cmpxchg DWORD PTR [r15],edx
    1876:	4c 89 7d 98          	mov    QWORD PTR [rbp-0x68],r15
    187a:	0f 84 ce fe ff ff    	je     0x174e
    1880:	4c 8b 7d 98          	mov    r15,QWORD PTR [rbp-0x68]
    1884:	4c 89 ff             	mov    rdi,r15
    1887:	49 be 6b 78 d6 f7 ff 	movabs r14,0x7ffff7d6786b
    188e:	7f 00 00 
    1891:	4d 8d 6d f8          	lea    r13,[r13-0x8]
    1895:	4d 89 75 00          	mov    QWORD PTR [r13+0x0],r14
    1899:	4c 89 7d 98          	mov    QWORD PTR [rbp-0x68],r15
    189d:	e9 7f 3c 00 00       	jmp    0x5521
    18a2:	e9 a7 fe ff ff       	jmp    0x174e
    18a7:	49 bf 77 78 d6 f7 ff 	movabs r15,0x7ffff7d67877
    18ae:	7f 00 00 
    18b1:	49 8d 8f 49 47 12 00 	lea    rcx,[r15+0x124749]
    18b8:	ba 02 03 00 00       	mov    edx,0x302
    18bd:	49 bf 83 78 d6 f7 ff 	movabs r15,0x7ffff7d67883
    18c4:	7f 00 00 
    18c7:	49 8d b7 a4 fb 11 00 	lea    rsi,[r15+0x11fba4]
    18ce:	49 bf 8a 78 d6 f7 ff 	movabs r15,0x7ffff7d6788a
    18d5:	7f 00 00 
    18d8:	49 8d bf a5 fb 11 00 	lea    rdi,[r15+0x11fba5]
    18df:	49 bf 8f 78 d6 f7 ff 	movabs r15,0x7ffff7d6788f
    18e6:	7f 00 00 
    18e9:	4d 8d 6d f8          	lea    r13,[r13-0x8]
    18ed:	4d 89 7d 00          	mov    QWORD PTR [r13+0x0],r15
    18f1:	e9 f3 3a 00 00       	jmp    0x53e9
    18f6:	49 bf 94 78 d6 f7 ff 	movabs r15,0x7ffff7d67894
    18fd:	7f 00 00 
    1900:	4d 8d 6d f8          	lea    r13,[r13-0x8]
    1904:	4d 89 7d 00          	mov    QWORD PTR [r13+0x0],r15
    1908:	e9 80 3d 00 00       	jmp    0x568d
    190d:	90                   	nop
    190e:	90                   	nop
    190f:	49 83 ed 08          	sub    r13,0x8
    1913:	48 d1 e7             	shl    rdi,1
    1916:	48 d1 ef             	shr    rdi,1
    1919:	48 8b 4f 08          	mov    rcx,QWORD PTR [rdi+0x8]
    191d:	48 89 c8             	mov    rax,rcx
    1920:	48 83 e0 f8          	and    rax,0xfffffffffffffff8
    1924:	48 3b 04 38          	cmp    rax,QWORD PTR [rax+rdi*1]
    1928:	0f 85 12 01 00 00    	jne    0x1a40
    192e:	48 d1 e7             	shl    rdi,1
    1931:	48 d1 ef             	shr    rdi,1
    1934:	48 8b 47 10          	mov    rax,QWORD PTR [rdi+0x10]
    1938:	48 8b 57 18          	mov    rdx,QWORD PTR [rdi+0x18]
    193c:	48 d1 e0             	shl    rax,1
    193f:	48 d1 e8             	shr    rax,1
    1942:	48 3b 78 18          	cmp    rdi,QWORD PTR [rax+0x18]
    1946:	0f 85 bc 00 00 00    	jne    0x1a08
    194c:	48 d1 e2             	shl    rdx,1
    194f:	48 d1 ea             	shr    rdx,1
    1952:	48 3b 7a 10          	cmp    rdi,QWORD PTR [rdx+0x10]
    1956:	0f 85 ac 00 00 00    	jne    0x1a08
    195c:	48 d1 e0             	shl    rax,1
    195f:	48 d1 e8             	shr    rax,1
    1962:	48 89 50 18          	mov    QWORD PTR [rax+0x18],rdx
    1966:	48 d1 e2             	shl    rdx,1
    1969:	48 d1 ea             	shr    rdx,1
    196c:	48 89 42 10          	mov    QWORD PTR [rdx+0x10],rax
    1970:	48 81 f9 ff 03 00 00 	cmp    rcx,0x3ff
    1977:	76 52                	jbe    0x19cb
    1979:	48 d1 e7             	shl    rdi,1
    197c:	48 d1 ef             	shr    rdi,1
    197f:	48 8b 57 20          	mov    rdx,QWORD PTR [rdi+0x20]
    1983:	48 85 d2             	test   rdx,rdx
    1986:	74 43                	je     0x19cb
    1988:	48 d1 e2             	shl    rdx,1
    198b:	48 d1 ea             	shr    rdx,1
    198e:	48 3b 7a 28          	cmp    rdi,QWORD PTR [rdx+0x28]
    1992:	0f 85 d0 00 00 00    	jne    0x1a68
    1998:	48 d1 e7             	shl    rdi,1
    199b:	48 d1 ef             	shr    rdi,1
    199e:	48 8b 4f 28          	mov    rcx,QWORD PTR [rdi+0x28]
    19a2:	48 d1 e1             	shl    rcx,1
    19a5:	48 d1 e9             	shr    rcx,1
    19a8:	48 3b 79 20          	cmp    rdi,QWORD PTR [rcx+0x20]
    19ac:	0f 85 b6 00 00 00    	jne    0x1a68
    19b2:	48 d1 e0             	shl    rax,1
    19b5:	48 d1 e8             	shr    rax,1
    19b8:	48 83 78 20 00       	cmp    QWORD PTR [rax+0x20],0x0
    19bd:	74 20                	je     0x19df
    19bf:	48 89 4a 28          	mov    QWORD PTR [rdx+0x28],rcx
    19c3:	48 8b 47 28          	mov    rax,QWORD PTR [rdi+0x28]
    19c7:	48 89 50 20          	mov    QWORD PTR [rax+0x20],rdx
    19cb:	49 83 c5 08          	add    r13,0x8
    19cf:	4d 8b 7d 00          	mov    r15,QWORD PTR [r13+0x0]
    19d3:	4d 8d 6d 08          	lea    r13,[r13+0x8]
    19d7:	4d 89 fe             	mov    r14,r15
    19da:	e9 88 34 00 00       	jmp    0x4e67
    19df:	48 39 d7             	cmp    rdi,rdx
    19e2:	74 4d                	je     0x1a31
    19e4:	66 48 0f 6e c2       	movq   xmm0,rdx
    19e9:	66 48 0f 6e c9       	movq   xmm1,rcx
    19ee:	66 0f 6c c1          	punpcklqdq xmm0,xmm1
    19f2:	0f 11 40 20          	movups XMMWORD PTR [rax+0x20],xmm0
    19f6:	48 8b 57 20          	mov    rdx,QWORD PTR [rdi+0x20]
    19fa:	48 89 42 28          	mov    QWORD PTR [rdx+0x28],rax
    19fe:	48 8b 57 28          	mov    rdx,QWORD PTR [rdi+0x28]
    1a02:	48 89 42 20          	mov    QWORD PTR [rdx+0x20],rax
    1a06:	eb c3                	jmp    0x19cb
    1a08:	49 bf 47 79 d6 f7 ff 	movabs r15,0x7ffff7d67947
    1a0f:	7f 00 00 
    1a12:	49 8d bf 23 fb 11 00 	lea    rdi,[r15+0x11fb23]
    1a19:	49 bf 4c 79 d6 f7 ff 	movabs r15,0x7ffff7d6794c
    1a20:	7f 00 00 
    1a23:	4d 8d 6d f8          	lea    r13,[r13-0x8]
    1a27:	4d 89 7d 00          	mov    QWORD PTR [r13+0x0],r15
    1a2b:	e9 43 3c 00 00       	jmp    0x5673
    1a30:	90                   	nop
    1a31:	66 48 0f 6e c0       	movq   xmm0,rax
    1a36:	66 0f 6c c0          	punpcklqdq xmm0,xmm0
    1a3a:	0f 11 40 20          	movups XMMWORD PTR [rax+0x20],xmm0
    1a3e:	eb 8b                	jmp    0x19cb
    1a40:	49 bf 66 79 d6 f7 ff 	movabs r15,0x7ffff7d67966
    1a47:	7f 00 00 
    1a4a:	49 8d bf e7 fa 11 00 	lea    rdi,[r15+0x11fae7]
    1a51:	49 bf 6b 79 d6 f7 ff 	movabs r15,0x7ffff7d6796b
    1a58:	7f 00 00 
    1a5b:	4d 8d 6d f8          	lea    r13,[r13-0x8]
    1a5f:	4d 89 7d 00          	mov    QWORD PTR [r13+0x0],r15
    1a63:	e9 0b 3c 00 00       	jmp    0x5673
    1a68:	49 bf 72 79 d6 f7 ff 	movabs r15,0x7ffff7d67972
    1a6f:	7f 00 00 
    1a72:	49 8d bf d6 38 12 00 	lea    rdi,[r15+0x1238d6]
    1a79:	49 bf 77 79 d6 f7 ff 	movabs r15,0x7ffff7d67977
    1a80:	7f 00 00 
    1a83:	4d 8d 6d f8          	lea    r13,[r13-0x8]
    1a87:	4d 89 7d 00          	mov    QWORD PTR [r13+0x0],r15
    1a8b:	e9 e3 3b 00 00       	jmp    0x5673
    1a90:	90                   	nop
    1a91:	4d 8d 6d f8          	lea    r13,[r13-0x8]
    1a95:	4c 8b 7d b0          	mov    r15,QWORD PTR [rbp-0x50]
    1a99:	4d 89 7d 00          	mov    QWORD PTR [r13+0x0],r15
    1a9d:	48 8d 47 60          	lea    rax,[rdi+0x60]
    1aa1:	49 89 ff             	mov    r15,rdi
    1aa4:	4d 8d 6d f8          	lea    r13,[r13-0x8]
    1aa8:	4c 8b 75 a8          	mov    r14,QWORD PTR [rbp-0x58]
    1aac:	4d 89 75 00          	mov    QWORD PTR [r13+0x0],r14
    1ab0:	4d 8d 6d f8          	lea    r13,[r13-0x8]
    1ab4:	4c 89 7d b0          	mov    QWORD PTR [rbp-0x50],r15
    1ab8:	4c 8b 7d a0          	mov    r15,QWORD PTR [rbp-0x60]
    1abc:	4d 89 7d 00          	mov    QWORD PTR [r13+0x0],r15
    1ac0:	4c 8d 7f 10          	lea    r15,[rdi+0x10]
    1ac4:	4d 8d 6d f8          	lea    r13,[r13-0x8]
    1ac8:	4c 89 7d a0          	mov    QWORD PTR [rbp-0x60],r15
    1acc:	4c 8b 7d 98          	mov    r15,QWORD PTR [rbp-0x68]
    1ad0:	4d 89 7d 00          	mov    QWORD PTR [r13+0x0],r15
    1ad4:	4d 8d 6d f8          	lea    r13,[r13-0x8]
    1ad8:	4d 89 65 00          	mov    QWORD PTR [r13+0x0],r12
    1adc:	4d 8d 6d f8          	lea    r13,[r13-0x8]
    1ae0:	49 89 5d 00          	mov    QWORD PTR [r13+0x0],rbx
    1ae4:	49 83 ed 18          	sub    r13,0x18
    1ae8:	c7 47 08 00 00 00 00 	mov    DWORD PTR [rdi+0x8],0x0
    1aef:	49 89 45 08          	mov    QWORD PTR [r13+0x8],rax
    1af3:	4c 89 7d 98          	mov    QWORD PTR [rbp-0x68],r15
    1af7:	4c 89 75 a8          	mov    QWORD PTR [rbp-0x58],r14
    1afb:	31 db                	xor    ebx,ebx
    1afd:	4c 8b 7d a0          	mov    r15,QWORD PTR [rbp-0x60]
    1b01:	49 d1 e7             	shl    r15,1
    1b04:	49 d1 ef             	shr    r15,1
    1b07:	49 87 1f             	xchg   QWORD PTR [r15],rbx
    1b0a:	48 85 db             	test   rbx,rbx
    1b0d:	4c 89 7d a0          	mov    QWORD PTR [rbp-0x60],r15
    1b11:	0f 85 06 01 00 00    	jne    0x1c1d
    1b17:	4c 8b 7d a0          	mov    r15,QWORD PTR [rbp-0x60]
    1b1b:	49 83 c7 08          	add    r15,0x8
    1b1f:	4d 39 7d 08          	cmp    QWORD PTR [r13+0x8],r15
    1b23:	4c 89 7d a0          	mov    QWORD PTR [rbp-0x60],r15
    1b27:	75 d2                	jne    0x1afb
    1b29:	49 83 c5 18          	add    r13,0x18
    1b2d:	49 8b 5d 00          	mov    rbx,QWORD PTR [r13+0x0]
    1b31:	4d 8d 6d 08          	lea    r13,[r13+0x8]
    1b35:	4d 8b 65 00          	mov    r12,QWORD PTR [r13+0x0]
    1b39:	4d 8d 6d 08          	lea    r13,[r13+0x8]
    1b3d:	4c 8b 7d 98          	mov    r15,QWORD PTR [rbp-0x68]
    1b41:	4d 8b 7d 00          	mov    r15,QWORD PTR [r13+0x0]
    1b45:	4d 8d 6d 08          	lea    r13,[r13+0x8]
    1b49:	4c 8b 75 a0          	mov    r14,QWORD PTR [rbp-0x60]
    1b4d:	4d 8b 75 00          	mov    r14,QWORD PTR [r13+0x0]
    1b51:	4d 8d 6d 08          	lea    r13,[r13+0x8]
    1b55:	4c 89 7d 98          	mov    QWORD PTR [rbp-0x68],r15
    1b59:	4c 8b 7d a8          	mov    r15,QWORD PTR [rbp-0x58]
    1b5d:	4d 8b 7d 00          	mov    r15,QWORD PTR [r13+0x0]
    1b61:	4d 8d 6d 08          	lea    r13,[r13+0x8]
    1b65:	4c 89 7d a8          	mov    QWORD PTR [rbp-0x58],r15
    1b69:	4c 8b 7d b0          	mov    r15,QWORD PTR [rbp-0x50]
    1b6d:	4d 8b 7d 00          	mov    r15,QWORD PTR [r13+0x0]
    1b71:	4d 8d 6d 08          	lea    r13,[r13+0x8]
    1b75:	4c 89 7d b0          	mov    QWORD PTR [rbp-0x50],r15
    1b79:	4d 8b 7d 00          	mov    r15,QWORD PTR [r13+0x0]
    1b7d:	4d 8d 6d 08          	lea    r13,[r13+0x8]
    1b81:	4c 89 75 a0          	mov    QWORD PTR [rbp-0x60],r14
    1b85:	4d 89 fe             	mov    r14,r15
    1b88:	e9 5b 33 00 00       	jmp    0x4ee8
    1b8d:	4c 8b 7d 98          	mov    r15,QWORD PTR [rbp-0x68]
    1b91:	4c 8b 75 a8          	mov    r14,QWORD PTR [rbp-0x58]
    1b95:	43 f6 44 37 08 01    	test   BYTE PTR [r15+r14*1+0x8],0x1
    1b9b:	4c 89 7d 98          	mov    QWORD PTR [rbp-0x68],r15
    1b9f:	4c 89 75 a8          	mov    QWORD PTR [rbp-0x58],r14
    1ba3:	0f 84 67 01 00 00    	je     0x1d10
    1ba9:	4c 8b 7d 98          	mov    r15,QWORD PTR [rbp-0x68]
    1bad:	49 d1 e7             	shl    r15,1
    1bb0:	49 d1 ef             	shr    r15,1
    1bb3:	49 83 67 08 fe       	and    QWORD PTR [r15+0x8],0xfffffffffffffffe
    1bb8:	4c 89 7d 98          	mov    QWORD PTR [rbp-0x68],r15
    1bbc:	4c 8b 7d b0          	mov    r15,QWORD PTR [rbp-0x50]
    1bc0:	49 d1 e7             	shl    r15,1
    1bc3:	49 d1 ef             	shr    r15,1
    1bc6:	49 8b 47 70          	mov    rax,QWORD PTR [r15+0x70]
    1bca:	49 89 5f 70          	mov    QWORD PTR [r15+0x70],rbx
    1bce:	48 d1 e0             	shl    rax,1
    1bd1:	48 d1 e8             	shr    rax,1
    1bd4:	48 89 58 18          	mov    QWORD PTR [rax+0x18],rbx
    1bd8:	49 81 fc ff 03 00 00 	cmp    r12,0x3ff
    1bdf:	4c 89 7d b0          	mov    QWORD PTR [rbp-0x50],r15
    1be3:	76 08                	jbe    0x1bed
    1be5:	66 0f ef c9          	pxor   xmm1,xmm1
    1be9:	0f 11 4b 20          	movups XMMWORD PTR [rbx+0x20],xmm1
    1bed:	4c 89 e6             	mov    rsi,r12
    1bf0:	66 48 0f 6e c0       	movq   xmm0,rax
    1bf5:	48 83 ce 01          	or     rsi,0x1
    1bf9:	41 0f 16 45 08       	movhps xmm0,QWORD PTR [r13+0x8]
    1bfe:	48 89 73 08          	mov    QWORD PTR [rbx+0x8],rsi
    1c02:	0f 11 43 10          	movups XMMWORD PTR [rbx+0x10],xmm0
    1c06:	4c 8b 7d 98          	mov    r15,QWORD PTR [rbp-0x68]
    1c0a:	4d 89 27             	mov    QWORD PTR [r15],r12
    1c0d:	4c 89 7d 98          	mov    QWORD PTR [rbp-0x68],r15
    1c11:	48 85 d2             	test   rdx,rdx
    1c14:	0f 84 fd fe ff ff    	je     0x1b17
    1c1a:	48 89 d3             	mov    rbx,rdx
    1c1d:	48 d1 e3             	shl    rbx,1
    1c20:	48 d1 eb             	shr    rbx,1
    1c23:	48 8b 43 08          	mov    rax,QWORD PTR [rbx+0x8]
    1c27:	89 c2                	mov    edx,eax
    1c29:	c1 ea 04             	shr    edx,0x4
    1c2c:	83 ea 02             	sub    edx,0x2
    1c2f:	4c 8b 7d b0          	mov    r15,QWORD PTR [rbp-0x50]
    1c33:	49 8d 54 d7 10       	lea    rdx,[r15+rdx*8+0x10]
    1c38:	4c 8b 75 a0          	mov    r14,QWORD PTR [rbp-0x60]
    1c3c:	49 39 d6             	cmp    r14,rdx
    1c3f:	4c 89 7d b0          	mov    QWORD PTR [rbp-0x50],r15
    1c43:	4c 89 75 a0          	mov    QWORD PTR [rbp-0x60],r14
    1c47:	0f 85 31 01 00 00    	jne    0x1d7e
    1c4d:	49 89 c4             	mov    r12,rax
    1c50:	48 d1 e3             	shl    rbx,1
    1c53:	48 d1 eb             	shr    rbx,1
    1c56:	48 8b 53 10          	mov    rdx,QWORD PTR [rbx+0x10]
    1c5a:	49 83 e4 f8          	and    r12,0xfffffffffffffff8
    1c5e:	4c 8b 7d 98          	mov    r15,QWORD PTR [rbp-0x68]
    1c62:	4d 8d 3c 1c          	lea    r15,[r12+rbx*1]
    1c66:	4c 8b 75 a8          	mov    r14,QWORD PTR [rbp-0x58]
    1c6a:	49 d1 e7             	shl    r15,1
    1c6d:	49 d1 ef             	shr    r15,1
    1c70:	4d 8b 77 08          	mov    r14,QWORD PTR [r15+0x8]
    1c74:	49 83 e6 f8          	and    r14,0xfffffffffffffff8
    1c78:	a8 01                	test   al,0x1
    1c7a:	4c 89 7d 98          	mov    QWORD PTR [rbp-0x68],r15
    1c7e:	4c 89 75 a8          	mov    QWORD PTR [rbp-0x58],r14
    1c82:	75 48                	jne    0x1ccc
    1c84:	48 d1 e3             	shl    rbx,1
    1c87:	48 d1 eb             	shr    rbx,1
    1c8a:	48 8b 03             	mov    rax,QWORD PTR [rbx]
    1c8d:	48 29 c3             	sub    rbx,rax
    1c90:	49 01 c4             	add    r12,rax
    1c93:	48 d1 e3             	shl    rbx,1
    1c96:	48 d1 eb             	shr    rbx,1
    1c99:	48 8b 73 08          	mov    rsi,QWORD PTR [rbx+0x8]
    1c9d:	48 83 e6 f8          	and    rsi,0xfffffffffffffff8
    1ca1:	48 39 c6             	cmp    rsi,rax
    1ca4:	0f 85 ac 00 00 00    	jne    0x1d56
    1caa:	48 89 df             	mov    rdi,rbx
    1cad:	49 89 55 00          	mov    QWORD PTR [r13+0x0],rdx
    1cb1:	49 bf 7c 7a d6 f7 ff 	movabs r15,0x7ffff7d67a7c
    1cb8:	7f 00 00 
    1cbb:	4d 8d 6d f8          	lea    r13,[r13-0x8]
    1cbf:	4d 89 7d 00          	mov    QWORD PTR [r13+0x0],r15
    1cc3:	e9 47 fc ff ff       	jmp    0x190f
    1cc8:	49 8b 55 00          	mov    rdx,QWORD PTR [r13+0x0]
    1ccc:	4c 8b 7d b0          	mov    r15,QWORD PTR [rbp-0x50]
    1cd0:	4c 8b 75 98          	mov    r14,QWORD PTR [rbp-0x68]
    1cd4:	49 d1 e7             	shl    r15,1
    1cd7:	49 d1 ef             	shr    r15,1
    1cda:	4d 39 77 60          	cmp    QWORD PTR [r15+0x60],r14
    1cde:	4c 89 7d b0          	mov    QWORD PTR [rbp-0x50],r15
    1ce2:	4c 89 75 98          	mov    QWORD PTR [rbp-0x68],r14
    1ce6:	0f 85 a1 fe ff ff    	jne    0x1b8d
    1cec:	4c 8b 7d a8          	mov    r15,QWORD PTR [rbp-0x58]
    1cf0:	4d 01 fc             	add    r12,r15
    1cf3:	49 83 cc 01          	or     r12,0x1
    1cf7:	4c 89 63 08          	mov    QWORD PTR [rbx+0x8],r12
    1cfb:	4c 8b 75 b0          	mov    r14,QWORD PTR [rbp-0x50]
    1cff:	49 89 5e 60          	mov    QWORD PTR [r14+0x60],rbx
    1d03:	4c 89 7d a8          	mov    QWORD PTR [rbp-0x58],r15
    1d07:	4c 89 75 b0          	mov    QWORD PTR [rbp-0x50],r14
    1d0b:	e9 01 ff ff ff       	jmp    0x1c11
    1d10:	4c 8b 7d 98          	mov    r15,QWORD PTR [rbp-0x68]
    1d14:	4c 89 ff             	mov    rdi,r15
    1d17:	4c 8b 75 a8          	mov    r14,QWORD PTR [rbp-0x58]
    1d1b:	4d 01 f4             	add    r12,r14
    1d1e:	49 89 55 00          	mov    QWORD PTR [r13+0x0],rdx
    1d22:	4c 89 7d 98          	mov    QWORD PTR [rbp-0x68],r15
    1d26:	49 bf af 7a d6 f7 ff 	movabs r15,0x7ffff7d67aaf
    1d2d:	7f 00 00 
    1d30:	4d 8d 6d f8          	lea    r13,[r13-0x8]
    1d34:	4d 89 7d 00          	mov    QWORD PTR [r13+0x0],r15
    1d38:	4c 89 75 a8          	mov    QWORD PTR [rbp-0x58],r14
    1d3c:	e9 ce fb ff ff       	jmp    0x190f
    1d41:	4c 8b 7d 98          	mov    r15,QWORD PTR [rbp-0x68]
    1d45:	4d 8d 3c 1c          	lea    r15,[r12+rbx*1]
    1d49:	49 8b 55 00          	mov    rdx,QWORD PTR [r13+0x0]
    1d4d:	4c 89 7d 98          	mov    QWORD PTR [rbp-0x68],r15
    1d51:	e9 66 fe ff ff       	jmp    0x1bbc
    1d56:	49 bf c7 7a d6 f7 ff 	movabs r15,0x7ffff7d67ac7
    1d5d:	7f 00 00 
    1d60:	49 8d bf e1 37 12 00 	lea    rdi,[r15+0x1237e1]
    1d67:	49 bf cc 7a d6 f7 ff 	movabs r15,0x7ffff7d67acc
    1d6e:	7f 00 00 
    1d71:	4d 8d 6d f8          	lea    r13,[r13-0x8]
    1d75:	4d 89 7d 00          	mov    QWORD PTR [r13+0x0],r15
    1d79:	e9 f5 38 00 00       	jmp    0x5673
    1d7e:	49 bf d3 7a d6 f7 ff 	movabs r15,0x7ffff7d67ad3
    1d85:	7f 00 00 
    1d88:	49 8d bf a5 37 12 00 	lea    rdi,[r15+0x1237a5]
    1d8f:	49 bf d8 7a d6 f7 ff 	movabs r15,0x7ffff7d67ad8
    1d96:	7f 00 00 
    1d99:	4d 8d 6d f8          	lea    r13,[r13-0x8]
    1d9d:	4d 89 7d 00          	mov    QWORD PTR [r13+0x0],r15
    1da1:	e9 cd 38 00 00       	jmp    0x5673
    1da6:	90                   	nop
    1da7:	4d 8d 6d f8          	lea    r13,[r13-0x8]
    1dab:	4c 8b 7d a0          	mov    r15,QWORD PTR [rbp-0x60]
    1daf:	4d 89 7d 00          	mov    QWORD PTR [r13+0x0],r15
    1db3:	4d 8d 6d f8          	lea    r13,[r13-0x8]
    1db7:	4c 8b 75 98          	mov    r14,QWORD PTR [rbp-0x68]
    1dbb:	4d 89 75 00          	mov    QWORD PTR [r13+0x0],r14
    1dbf:	4d 8d 6d f8          	lea    r13,[r13-0x8]
    1dc3:	4d 89 65 00          	mov    QWORD PTR [r13+0x0],r12
    1dc7:	49 89 fc             	mov    r12,rdi
    1dca:	4d 8d 6d f8          	lea    r13,[r13-0x8]
    1dce:	49 89 5d 00          	mov    QWORD PTR [r13+0x0],rbx
    1dd2:	48 89 f3             	mov    rbx,rsi
    1dd5:	49 83 ed 08          	sub    r13,0x8
    1dd9:	4c 89 7d a0          	mov    QWORD PTR [rbp-0x60],r15
    1ddd:	49 bf f7 7a d6 f7 ff 	movabs r15,0x7ffff7d67af7
    1de4:	7f 00 00 
    1de7:	49 8b 87 69 93 15 00 	mov    rax,QWORD PTR [r15+0x159369]
    1dee:	49 bf fe 7a d6 f7 ff 	movabs r15,0x7ffff7d67afe
    1df5:	7f 00 00 
    1df8:	49 8b 97 6a 67 15 00 	mov    rdx,QWORD PTR [r15+0x15676a]
    1dff:	48 85 c0             	test   rax,rax
    1e02:	4c 89 75 98          	mov    QWORD PTR [rbp-0x68],r14
    1e06:	75 2b                	jne    0x1e33
    1e08:	49 bf 0a 7b d6 f7 ff 	movabs r15,0x7ffff7d67b0a
    1e0f:	7f 00 00 
    1e12:	49 8b 87 96 67 15 00 	mov    rax,QWORD PTR [r15+0x156796]
    1e19:	48 85 c0             	test   rax,rax
    1e1c:	0f 84 63 02 00 00    	je     0x2085
    1e22:	49 bf 1a 7b d6 f7 ff 	movabs r15,0x7ffff7d67b1a
    1e29:	7f 00 00 
    1e2c:	49 89 87 46 93 15 00 	mov    QWORD PTR [r15+0x159346],rax
    1e33:	48 83 e8 01          	sub    rax,0x1
    1e37:	48 39 d0             	cmp    rax,rdx
    1e3a:	0f 83 19 03 00 00    	jae    0x2159
    1e40:	49 bf 2e 7b d6 f7 ff 	movabs r15,0x7ffff7d67b2e
    1e47:	7f 00 00 
    1e4a:	4c 8b 75 98          	mov    r14,QWORD PTR [rbp-0x68]
    1e4e:	4d 8b b7 2a 93 15 00 	mov    r14,QWORD PTR [r15+0x15932a]
    1e55:	4d 85 f6             	test   r14,r14
    1e58:	4c 89 75 98          	mov    QWORD PTR [rbp-0x68],r14
    1e5c:	0f 84 bf 02 00 00    	je     0x2121
    1e62:	31 f6                	xor    esi,esi
    1e64:	b9 01 00 00 00       	mov    ecx,0x1
    1e69:	eb 45                	jmp    0x1eb0
    1e6b:	4c 8b 7d 98          	mov    r15,QWORD PTR [rbp-0x68]
    1e6f:	49 d1 e7             	shl    r15,1
    1e72:	49 d1 ef             	shr    r15,1
    1e75:	41 0f b1 0f          	cmpxchg DWORD PTR [r15],ecx
    1e79:	85 c0                	test   eax,eax
    1e7b:	4c 89 7d 98          	mov    QWORD PTR [rbp-0x68],r15
    1e7f:	74 61                	je     0x1ee2
    1e81:	4c 8b 7d 98          	mov    r15,QWORD PTR [rbp-0x68]
    1e85:	49 d1 e7             	shl    r15,1
    1e88:	49 d1 ef             	shr    r15,1
    1e8b:	4d 8b bf 70 08 00 00 	mov    r15,QWORD PTR [r15+0x870]
    1e92:	49 be 58 7b d6 f7 ff 	movabs r14,0x7ffff7d67b58
    1e99:	7f 00 00 
    1e9c:	49 8b 96 00 93 15 00 	mov    rdx,QWORD PTR [r14+0x159300]
    1ea3:	49 39 d7             	cmp    r15,rdx
    1ea6:	4c 89 7d 98          	mov    QWORD PTR [rbp-0x68],r15
    1eaa:	0f 84 37 02 00 00    	je     0x20e7
    1eb0:	4c 8b 7d 88          	mov    r15,QWORD PTR [rbp-0x78]
    1eb4:	49 d1 e7             	shl    r15,1
    1eb7:	49 d1 ef             	shr    r15,1
    1eba:	41 8b 47 18          	mov    eax,DWORD PTR [r15+0x18]
    1ebe:	85 c0                	test   eax,eax
    1ec0:	74 a9                	je     0x1e6b
    1ec2:	89 f0                	mov    eax,esi
    1ec4:	4c 8b 7d 98          	mov    r15,QWORD PTR [rbp-0x68]
    1ec8:	49 d1 e7             	shl    r15,1
    1ecb:	49 d1 ef             	shr    r15,1
    1ece:	f0 41 0f b1 0f       	lock cmpxchg DWORD PTR [r15],ecx
    1ed3:	0f 95 c0             	setne  al
    1ed6:	0f b6 c0             	movzx  eax,al
    1ed9:	85 c0                	test   eax,eax
    1edb:	4c 89 7d 98          	mov    QWORD PTR [rbp-0x68],r15
    1edf:	75 a0                	jne    0x1e81
    1ee1:	90                   	nop
    1ee2:	49 bf 87 7b d6 f7 ff 	movabs r15,0x7ffff7d67b87
    1ee9:	7f 00 00 
    1eec:	4d 8b a7 e9 61 15 00 	mov    r12,QWORD PTR [r15+0x1561e9]
    1ef3:	4c 8b 7d 88          	mov    r15,QWORD PTR [rbp-0x78]
    1ef7:	4c 8b 75 a0          	mov    r14,QWORD PTR [rbp-0x60]
    1efb:	4f 8b 34 27          	mov    r14,QWORD PTR [r15+r12*1]
    1eff:	49 d1 e7             	shl    r15,1
    1f02:	49 d1 ef             	shr    r15,1
    1f05:	41 8b 47 18          	mov    eax,DWORD PTR [r15+0x18]
    1f09:	85 c0                	test   eax,eax
    1f0b:	4c 89 75 a0          	mov    QWORD PTR [rbp-0x60],r14
    1f0f:	0f 85 b1 02 00 00    	jne    0x21c6
    1f15:	ba 01 00 00 00       	mov    edx,0x1
    1f1a:	49 bf a8 7b d6 f7 ff 	movabs r15,0x7ffff7d67ba8
    1f21:	7f 00 00 
    1f24:	41 0f b1 97 e0 92 15 	cmpxchg DWORD PTR [r15+0x1592e0],edx
    1f2b:	00 
    1f2c:	4c 8b 7d a0          	mov    r15,QWORD PTR [rbp-0x60]
    1f30:	4d 85 ff             	test   r15,r15
    1f33:	4c 89 7d a0          	mov    QWORD PTR [rbp-0x60],r15
    1f37:	74 31                	je     0x1f6a
    1f39:	4c 8b 7d a0          	mov    r15,QWORD PTR [rbp-0x60]
    1f3d:	49 d1 e7             	shl    r15,1
    1f40:	49 d1 ef             	shr    r15,1
    1f43:	49 8b 87 80 08 00 00 	mov    rax,QWORD PTR [r15+0x880]
    1f4a:	48 85 c0             	test   rax,rax
    1f4d:	4c 89 7d a0          	mov    QWORD PTR [rbp-0x60],r15
    1f51:	0f 84 51 08 00 00    	je     0x27a8
    1f57:	48 83 e8 01          	sub    rax,0x1
    1f5b:	4c 8b 7d a0          	mov    r15,QWORD PTR [rbp-0x60]
    1f5f:	49 89 87 80 08 00 00 	mov    QWORD PTR [r15+0x880],rax
    1f66:	4c 89 7d a0          	mov    QWORD PTR [rbp-0x60],r15
    1f6a:	49 bf cf 7b d6 f7 ff 	movabs r15,0x7ffff7d67bcf
    1f71:	7f 00 00 
    1f74:	49 8b 87 b1 92 15 00 	mov    rax,QWORD PTR [r15+0x1592b1]
    1f7b:	49 bf d6 7b d6 f7 ff 	movabs r15,0x7ffff7d67bd6
    1f82:	7f 00 00 
    1f85:	49 8d 8f aa 92 15 00 	lea    rcx,[r15+0x1592aa]
    1f8c:	48 85 c0             	test   rax,rax
    1f8f:	75 11                	jne    0x1fa2
    1f91:	eb 40                	jmp    0x1fd3
    1f93:	48 8d 88 78 08 00 00 	lea    rcx,[rax+0x878]
    1f9a:	48 85 d2             	test   rdx,rdx
    1f9d:	74 34                	je     0x1fd3
    1f9f:	48 89 d0             	mov    rax,rdx
    1fa2:	48 d1 e0             	shl    rax,1
    1fa5:	48 d1 e8             	shr    rax,1
    1fa8:	48 83 b8 80 08 00 00 	cmp    QWORD PTR [rax+0x880],0x0
    1faf:	00 
    1fb0:	0f 85 85 05 00 00    	jne    0x253b
    1fb6:	48 d1 e0             	shl    rax,1
    1fb9:	48 d1 e8             	shr    rax,1
    1fbc:	48 8b 90 78 08 00 00 	mov    rdx,QWORD PTR [rax+0x878]
    1fc3:	4c 8b 7d 98          	mov    r15,QWORD PTR [rbp-0x68]
    1fc7:	4c 39 f8             	cmp    rax,r15
    1fca:	4c 89 7d 98          	mov    QWORD PTR [rbp-0x68],r15
    1fce:	75 c3                	jne    0x1f93
    1fd0:	48 89 11             	mov    QWORD PTR [rcx],rdx
    1fd3:	4c 8b 7d 98          	mov    r15,QWORD PTR [rbp-0x68]
    1fd7:	49 d1 e7             	shl    r15,1
    1fda:	49 d1 ef             	shr    r15,1
    1fdd:	49 83 87 80 08 00 00 	add    QWORD PTR [r15+0x880],0x1
    1fe4:	01 
    1fe5:	4c 8b 75 88          	mov    r14,QWORD PTR [rbp-0x78]
    1fe9:	49 d1 e6             	shl    r14,1
    1fec:	49 d1 ee             	shr    r14,1
    1fef:	41 8b 46 18          	mov    eax,DWORD PTR [r14+0x18]
    1ff3:	85 c0                	test   eax,eax
    1ff5:	4c 89 7d 98          	mov    QWORD PTR [rbp-0x68],r15
    1ff9:	0f 85 14 02 00 00    	jne    0x2213
    1fff:	49 bf 2c 7c d6 f7 ff 	movabs r15,0x7ffff7d67c2c
    2006:	7f 00 00 
    2009:	41 83 af 5c 92 15 00 	sub    DWORD PTR [r15+0x15925c],0x1
    2010:	01 
    2011:	90                   	nop
    2012:	4c 8b 7d 88          	mov    r15,QWORD PTR [rbp-0x78]
    2016:	4c 8b 75 98          	mov    r14,QWORD PTR [rbp-0x68]
    201a:	4f 89 34 27          	mov    QWORD PTR [r15+r12*1],r14
    201e:	49 8b 86 70 08 00 00 	mov    rax,QWORD PTR [r14+0x870]
    2025:	4c 89 7d 88          	mov    QWORD PTR [rbp-0x78],r15
    2029:	49 bf 41 7c d6 f7 ff 	movabs r15,0x7ffff7d67c41
    2030:	7f 00 00 
    2033:	49 89 87 17 92 15 00 	mov    QWORD PTR [r15+0x159217],rax
    203a:	4c 89 75 98          	mov    QWORD PTR [rbp-0x68],r14
    203e:	49 83 c5 08          	add    r13,0x8
    2042:	4c 8b 7d 98          	mov    r15,QWORD PTR [rbp-0x68]
    2046:	4c 89 f8             	mov    rax,r15
    2049:	49 8b 5d 00          	mov    rbx,QWORD PTR [r13+0x0]
    204d:	4d 8d 6d 08          	lea    r13,[r13+0x8]
    2051:	4d 8b 65 00          	mov    r12,QWORD PTR [r13+0x0]
    2055:	4d 8d 6d 08          	lea    r13,[r13+0x8]
    2059:	4d 8b 7d 00          	mov    r15,QWORD PTR [r13+0x0]
    205d:	4d 8d 6d 08          	lea    r13,[r13+0x8]
    2061:	4c 8b 75 a0          	mov    r14,QWORD PTR [rbp-0x60]
    2065:	4d 8b 75 00          	mov    r14,QWORD PTR [r13+0x0]
    2069:	4d 8d 6d 08          	lea    r13,[r13+0x8]
    206d:	4c 89 7d 98          	mov    QWORD PTR [rbp-0x68],r15
    2071:	4d 8b 7d 00          	mov    r15,QWORD PTR [r13+0x0]
    2075:	4d 8d 6d 08          	lea    r13,[r13+0x8]
    2079:	4c 89 75 a0          	mov    QWORD PTR [rbp-0x60],r14
    207d:	4d 89 fe             	mov    r14,r15
    2080:	e9 65 2f 00 00       	jmp    0x4fea
    2085:	49 bf 57 7c d6 f7 ff 	movabs r15,0x7ffff7d67c57
    208c:	7f 00 00 
    208f:	49 39 97 41 66 15 00 	cmp    QWORD PTR [r15+0x156641],rdx
    2096:	0f 83 97 fd ff ff    	jae    0x1e33
    209c:	49 bf 62 7c d6 f7 ff 	movabs r15,0x7ffff7d67c62
    20a3:	7f 00 00 
    20a6:	4d 8d 6d f8          	lea    r13,[r13-0x8]
    20aa:	4d 89 7d 00          	mov    QWORD PTR [r13+0x0],r15
    20ae:	e9 d2 33 00 00       	jmp    0x5485
    20b3:	85 c0                	test   eax,eax
    20b5:	0f 8e ab 01 00 00    	jle    0x2266
    20bb:	c1 e0 03             	shl    eax,0x3
    20be:	49 bf 74 7c d6 f7 ff 	movabs r15,0x7ffff7d67c74
    20c5:	7f 00 00 
    20c8:	49 8b 97 f4 65 15 00 	mov    rdx,QWORD PTR [r15+0x1565f4]
    20cf:	48 98                	cdqe   
    20d1:	49 bf 7d 7c d6 f7 ff 	movabs r15,0x7ffff7d67c7d
    20d8:	7f 00 00 
    20db:	49 89 87 e3 91 15 00 	mov    QWORD PTR [r15+0x1591e3],rax
    20e2:	e9 4c fd ff ff       	jmp    0x1e33
    20e7:	48 39 d3             	cmp    rbx,rdx
    20ea:	74 64                	je     0x2150
    20ec:	90                   	nop
    20ed:	4c 8b 7d 88          	mov    r15,QWORD PTR [rbp-0x78]
    20f1:	49 d1 e7             	shl    r15,1
    20f4:	49 d1 ef             	shr    r15,1
    20f7:	41 8b 47 18          	mov    eax,DWORD PTR [r15+0x18]
    20fb:	85 c0                	test   eax,eax
    20fd:	0f 85 93 01 00 00    	jne    0x2296
    2103:	b9 01 00 00 00       	mov    ecx,0x1
    2108:	48 d1 e2             	shl    rdx,1
    210b:	48 d1 ea             	shr    rdx,1
    210e:	0f b1 0a             	cmpxchg DWORD PTR [rdx],ecx
    2111:	4c 8b 7d 98          	mov    r15,QWORD PTR [rbp-0x68]
    2115:	49 89 d7             	mov    r15,rdx
    2118:	4c 89 7d 98          	mov    QWORD PTR [rbp-0x68],r15
    211c:	e9 c1 fd ff ff       	jmp    0x1ee2
    2121:	49 bf b7 7c d6 f7 ff 	movabs r15,0x7ffff7d67cb7
    2128:	7f 00 00 
    212b:	4c 8b 75 98          	mov    r14,QWORD PTR [rbp-0x68]
    212f:	4d 8d b7 c9 6e 15 00 	lea    r14,[r15+0x156ec9]
    2136:	49 bf be 7c d6 f7 ff 	movabs r15,0x7ffff7d67cbe
    213d:	7f 00 00 
    2140:	4d 89 b7 9a 91 15 00 	mov    QWORD PTR [r15+0x15919a],r14
    2147:	4c 89 75 98          	mov    QWORD PTR [rbp-0x68],r14
    214b:	e9 12 fd ff ff       	jmp    0x1e62
    2150:	48 8b 93 70 08 00 00 	mov    rdx,QWORD PTR [rbx+0x870]
    2157:	eb 93                	jmp    0x20ec
    2159:	48 8d 4a 01          	lea    rcx,[rdx+0x1]
    215d:	48 89 d0             	mov    rax,rdx
    2160:	4c 8b 7d 88          	mov    r15,QWORD PTR [rbp-0x78]
    2164:	49 d1 e7             	shl    r15,1
    2167:	49 d1 ef             	shr    r15,1
    216a:	41 83 7f 18 00       	cmp    DWORD PTR [r15+0x18],0x0
    216f:	74 13                	je     0x2184
    2171:	49 bf f3 7c d6 f7 ff 	movabs r15,0x7ffff7d67cf3
    2178:	7f 00 00 
    217b:	f0 49 0f b1 8f 75 65 	lock cmpxchg QWORD PTR [r15+0x156575],rcx
    2182:	15 00 
    2184:	49 bf f3 7c d6 f7 ff 	movabs r15,0x7ffff7d67cf3
    218b:	7f 00 00 
    218e:	49 0f b1 8f 75 65 15 	cmpxchg QWORD PTR [r15+0x156575],rcx
    2195:	00 
    2196:	48 39 d0             	cmp    rax,rdx
    2199:	0f 84 38 01 00 00    	je     0x22d7
    219f:	49 bf 03 7d d6 f7 ff 	movabs r15,0x7ffff7d67d03
    21a6:	7f 00 00 
    21a9:	49 8b 97 65 65 15 00 	mov    rdx,QWORD PTR [r15+0x156565]
    21b0:	49 bf 0a 7d d6 f7 ff 	movabs r15,0x7ffff7d67d0a
    21b7:	7f 00 00 
    21ba:	49 8b 87 56 91 15 00 	mov    rax,QWORD PTR [r15+0x159156]
    21c1:	e9 6d fc ff ff       	jmp    0x1e33
    21c6:	31 c0                	xor    eax,eax
    21c8:	ba 01 00 00 00       	mov    edx,0x1
    21cd:	49 bf 1f 7d d6 f7 ff 	movabs r15,0x7ffff7d67d1f
    21d4:	7f 00 00 
    21d7:	f0 41 0f b1 97 69 91 	lock cmpxchg DWORD PTR [r15+0x159169],edx
    21de:	15 00 
    21e0:	0f 84 46 fd ff ff    	je     0x1f2c
    21e6:	49 bf 2c 7d d6 f7 ff 	movabs r15,0x7ffff7d67d2c
    21ed:	7f 00 00 
    21f0:	49 8d bf 5c 91 15 00 	lea    rdi,[r15+0x15915c]
    21f7:	49 bf 31 7d d6 f7 ff 	movabs r15,0x7ffff7d67d31
    21fe:	7f 00 00 
    2201:	4d 8d 6d f8          	lea    r13,[r13-0x8]
    2205:	4d 89 7d 00          	mov    QWORD PTR [r13+0x0],r15
    2209:	e9 13 33 00 00       	jmp    0x5521
    220e:	e9 19 fd ff ff       	jmp    0x1f2c
    2213:	31 c0                	xor    eax,eax
    2215:	49 bf 48 7d d6 f7 ff 	movabs r15,0x7ffff7d67d48
    221c:	7f 00 00 
    221f:	41 87 87 40 91 15 00 	xchg   DWORD PTR [r15+0x159140],eax
    2226:	83 f8 01             	cmp    eax,0x1
    2229:	0f 8e e2 fd ff ff    	jle    0x2011
    222f:	45 31 d2             	xor    r10d,r10d
    2232:	ba 01 00 00 00       	mov    edx,0x1
    2237:	be 81 00 00 00       	mov    esi,0x81
    223c:	b8 ca 00 00 00       	mov    eax,0xca
    2241:	49 bf 6a 7d d6 f7 ff 	movabs r15,0x7ffff7d67d6a
    2248:	7f 00 00 
    224b:	49 8d bf 1e 91 15 00 	lea    rdi,[r15+0x15911e]
    2252:	49 be 6a 7d d6 f7 ff 	movabs r14,0x7ffff7d67d6a
    2259:	7f 00 00 
    225c:	e9 9f 34 00 00       	jmp    0x5700
    2261:	e9 ab fd ff ff       	jmp    0x2011
    2266:	49 bf 83 7d d6 f7 ff 	movabs r15,0x7ffff7d67d83
    226d:	7f 00 00 
    2270:	49 c7 87 dd 90 15 00 	mov    QWORD PTR [r15+0x1590dd],0x10
    2277:	10 00 00 00 
    227b:	49 bf 8a 7d d6 f7 ff 	movabs r15,0x7ffff7d67d8a
    2282:	7f 00 00 
    2285:	49 8b 97 de 64 15 00 	mov    rdx,QWORD PTR [r15+0x1564de]
    228c:	b8 10 00 00 00       	mov    eax,0x10
    2291:	e9 9d fb ff ff       	jmp    0x1e33
    2296:	31 c0                	xor    eax,eax
    2298:	b9 01 00 00 00       	mov    ecx,0x1
    229d:	48 d1 e2             	shl    rdx,1
    22a0:	48 d1 ea             	shr    rdx,1
    22a3:	f0 0f b1 0a          	lock cmpxchg DWORD PTR [rdx],ecx
    22a7:	4c 8b 7d 98          	mov    r15,QWORD PTR [rbp-0x68]
    22ab:	49 89 d7             	mov    r15,rdx
    22ae:	4c 89 7d 98          	mov    QWORD PTR [rbp-0x68],r15
    22b2:	0f 84 2a fc ff ff    	je     0x1ee2
    22b8:	48 89 d7             	mov    rdi,rdx
    22bb:	49 bf b4 7d d6 f7 ff 	movabs r15,0x7ffff7d67db4
    22c2:	7f 00 00 
    22c5:	4d 8d 6d f8          	lea    r13,[r13-0x8]
    22c9:	4d 89 7d 00          	mov    QWORD PTR [r13+0x0],r15
    22cd:	e9 4f 32 00 00       	jmp    0x5521
    22d2:	e9 0b fc ff ff       	jmp    0x1ee2
    22d7:	49 bf c0 7d d6 f7 ff 	movabs r15,0x7ffff7d67dc0
    22de:	7f 00 00 
    22e1:	49 8b b7 c8 64 15 00 	mov    rsi,QWORD PTR [r15+0x1564c8]
    22e8:	49 8d bc 24 c8 08 00 	lea    rdi,[r12+0x8c8]
    22ef:	00 
    22f0:	49 bf cc 7d d6 f7 ff 	movabs r15,0x7ffff7d67dcc
    22f7:	7f 00 00 
    22fa:	4d 8d 6d f8          	lea    r13,[r13-0x8]
    22fe:	4d 89 7d 00          	mov    QWORD PTR [r13+0x0],r15
    2302:	e9 c8 30 00 00       	jmp    0x53cf
    2307:	48 89 c3             	mov    rbx,rax
    230a:	48 85 c0             	test   rax,rax
    230d:	0f 84 77 02 00 00    	je     0x258a
    2313:	4c 8b 7d 98          	mov    r15,QWORD PTR [rbp-0x68]
    2317:	4c 8d 7b 20          	lea    r15,[rbx+0x20]
    231b:	48 8d 83 80 00 00 00 	lea    rax,[rbx+0x80]
    2322:	4c 89 3b             	mov    QWORD PTR [rbx],r15
    2325:	48 8d 93 70 08 00 00 	lea    rdx,[rbx+0x870]
    232c:	90                   	nop
    232d:	4c 89 7d 98          	mov    QWORD PTR [rbp-0x68],r15
    2331:	66 48 0f 6e c0       	movq   xmm0,rax
    2336:	48 83 c0 10          	add    rax,0x10
    233a:	66 0f 6c c0          	punpcklqdq xmm0,xmm0
    233e:	48 d1 e0             	shl    rax,1
    2341:	48 d1 e8             	shr    rax,1
    2344:	0f 11 00             	movups XMMWORD PTR [rax],xmm0
    2347:	48 39 c2             	cmp    rdx,rax
    234a:	75 e5                	jne    0x2331
    234c:	49 bf 0c 7e d6 f7 ff 	movabs r15,0x7ffff7d67e0c
    2353:	7f 00 00 
    2356:	49 8d 87 74 6d 15 00 	lea    rax,[r15+0x156d74]
    235d:	4c 8b 7d 98          	mov    r15,QWORD PTR [rbp-0x68]
    2361:	49 39 c7             	cmp    r15,rax
    2364:	4c 89 7d 98          	mov    QWORD PTR [rbp-0x68],r15
    2368:	0f 84 99 02 00 00    	je     0x2607
    236e:	48 d1 e3             	shl    rbx,1
    2371:	48 d1 eb             	shr    rbx,1
    2374:	83 4b 24 02          	or     DWORD PTR [rbx+0x24],0x2
    2378:	48 d1 e3             	shl    rbx,1
    237b:	48 d1 eb             	shr    rbx,1
    237e:	c7 43 28 00 00 00 00 	mov    DWORD PTR [rbx+0x28],0x0
    2385:	48 8d 8b c8 08 00 00 	lea    rcx,[rbx+0x8c8]
    238c:	48 8d 93 b8 08 00 00 	lea    rdx,[rbx+0x8b8]
    2393:	48 c7 83 a0 08 00 00 	mov    QWORD PTR [rbx+0x8a0],0x1
    239a:	01 00 00 00 
    239e:	48 8b 43 10          	mov    rax,QWORD PTR [rbx+0x10]
    23a2:	48 89 83 b0 08 00 00 	mov    QWORD PTR [rbx+0x8b0],rax
    23a9:	48 89 83 a8 08 00 00 	mov    QWORD PTR [rbx+0x8a8],rax
    23b0:	83 e1 0f             	and    ecx,0xf
    23b3:	74 07                	je     0x23bc
    23b5:	48 29 ca             	sub    rdx,rcx
    23b8:	48 83 c2 10          	add    rdx,0x10
    23bc:	48 01 d8             	add    rax,rbx
    23bf:	48 d1 e3             	shl    rbx,1
    23c2:	48 d1 eb             	shr    rbx,1
    23c5:	48 89 93 80 00 00 00 	mov    QWORD PTR [rbx+0x80],rdx
    23cc:	48 29 d0             	sub    rax,rdx
    23cf:	48 83 c8 01          	or     rax,0x1
    23d3:	48 d1 e2             	shl    rdx,1
    23d6:	48 d1 ea             	shr    rdx,1
    23d9:	48 89 42 08          	mov    QWORD PTR [rdx+0x8],rax
    23dd:	90                   	nop
    23de:	49 bf 74 7e d6 f7 ff 	movabs r15,0x7ffff7d67e74
    23e5:	7f 00 00 
    23e8:	49 8b 87 fc 5e 15 00 	mov    rax,QWORD PTR [r15+0x155efc]
    23ef:	4c 8b 7d 88          	mov    r15,QWORD PTR [rbp-0x78]
    23f3:	4d 8b 24 07          	mov    r12,QWORD PTR [r15+rax*1]
    23f7:	4c 8b 75 98          	mov    r14,QWORD PTR [rbp-0x68]
    23fb:	4d 89 34 07          	mov    QWORD PTR [r15+rax*1],r14
    23ff:	c7 43 20 00 00 00 00 	mov    DWORD PTR [rbx+0x20],0x0
    2406:	49 d1 e7             	shl    r15,1
    2409:	49 d1 ef             	shr    r15,1
    240c:	41 8b 47 18          	mov    eax,DWORD PTR [r15+0x18]
    2410:	85 c0                	test   eax,eax
    2412:	4c 89 75 98          	mov    QWORD PTR [rbp-0x68],r14
    2416:	0f 85 f2 02 00 00    	jne    0x270e
    241c:	ba 01 00 00 00       	mov    edx,0x1
    2421:	49 bf 9f 7e d6 f7 ff 	movabs r15,0x7ffff7d67e9f
    2428:	7f 00 00 
    242b:	41 0f b1 97 d9 8f 15 	cmpxchg DWORD PTR [r15+0x158fd9],edx
    2432:	00 
    2433:	49 bf a6 7e d6 f7 ff 	movabs r15,0x7ffff7d67ea6
    243a:	7f 00 00 
    243d:	49 8b 87 4a 75 15 00 	mov    rax,QWORD PTR [r15+0x15754a]
    2444:	48 d1 e3             	shl    rbx,1
    2447:	48 d1 eb             	shr    rbx,1
    244a:	48 89 83 90 08 00 00 	mov    QWORD PTR [rbx+0x890],rax
    2451:	49 bf b4 7e d6 f7 ff 	movabs r15,0x7ffff7d67eb4
    2458:	7f 00 00 
    245b:	4c 8b 75 98          	mov    r14,QWORD PTR [rbp-0x68]
    245f:	4d 89 b7 3c 75 15 00 	mov    QWORD PTR [r15+0x15753c],r14
    2466:	4c 8b 7d 88          	mov    r15,QWORD PTR [rbp-0x78]
    246a:	49 d1 e7             	shl    r15,1
    246d:	49 d1 ef             	shr    r15,1
    2470:	41 8b 47 18          	mov    eax,DWORD PTR [r15+0x18]
    2474:	85 c0                	test   eax,eax
    2476:	4c 89 75 98          	mov    QWORD PTR [rbp-0x68],r14
    247a:	0f 85 3b 02 00 00    	jne    0x26bb
    2480:	49 bf cb 7e d6 f7 ff 	movabs r15,0x7ffff7d67ecb
    2487:	7f 00 00 
    248a:	41 83 af ad 8f 15 00 	sub    DWORD PTR [r15+0x158fad],0x1
    2491:	01 
    2492:	4c 8b 7d 88          	mov    r15,QWORD PTR [rbp-0x78]
    2496:	49 d1 e7             	shl    r15,1
    2499:	49 d1 ef             	shr    r15,1
    249c:	41 8b 47 18          	mov    eax,DWORD PTR [r15+0x18]
    24a0:	85 c0                	test   eax,eax
    24a2:	0f 85 b3 02 00 00    	jne    0x275b
    24a8:	ba 01 00 00 00       	mov    edx,0x1
    24ad:	49 bf e7 7e d6 f7 ff 	movabs r15,0x7ffff7d67ee7
    24b4:	7f 00 00 
    24b7:	41 0f b1 97 a1 8f 15 	cmpxchg DWORD PTR [r15+0x158fa1],edx
    24be:	00 
    24bf:	4d 85 e4             	test   r12,r12
    24c2:	74 1d                	je     0x24e1
    24c4:	49 8b 84 24 80 08 00 	mov    rax,QWORD PTR [r12+0x880]
    24cb:	00 
    24cc:	48 85 c0             	test   rax,rax
    24cf:	0f 84 d3 02 00 00    	je     0x27a8
    24d5:	48 83 e8 01          	sub    rax,0x1
    24d9:	49 89 84 24 80 08 00 	mov    QWORD PTR [r12+0x880],rax
    24e0:	00 
    24e1:	4c 8b 7d 88          	mov    r15,QWORD PTR [rbp-0x78]
    24e5:	49 d1 e7             	shl    r15,1
    24e8:	49 d1 ef             	shr    r15,1
    24eb:	41 8b 47 18          	mov    eax,DWORD PTR [r15+0x18]
    24ef:	85 c0                	test   eax,eax
    24f1:	0f 85 71 01 00 00    	jne    0x2668
    24f7:	49 bf 1e 7f d6 f7 ff 	movabs r15,0x7ffff7d67f1e
    24fe:	7f 00 00 
    2501:	41 83 af 6a 8f 15 00 	sub    DWORD PTR [r15+0x158f6a],0x1
    2508:	01 
    2509:	4c 8b 7d 88          	mov    r15,QWORD PTR [rbp-0x78]
    250d:	49 d1 e7             	shl    r15,1
    2510:	49 d1 ef             	shr    r15,1
    2513:	41 8b 47 18          	mov    eax,DWORD PTR [r15+0x18]
    2517:	85 c0                	test   eax,eax
    2519:	0f 85 02 01 00 00    	jne    0x2621
    251f:	ba 01 00 00 00       	mov    edx,0x1
    2524:	4c 8b 7d 98          	mov    r15,QWORD PTR [rbp-0x68]
    2528:	49 d1 e7             	shl    r15,1
    252b:	49 d1 ef             	shr    r15,1
    252e:	41 0f b1 17          	cmpxchg DWORD PTR [r15],edx
    2532:	4c 89 7d 98          	mov    QWORD PTR [rbp-0x68],r15
    2536:	e9 03 fb ff ff       	jmp    0x203e
    253b:	49 bf 40 7f d6 f7 ff 	movabs r15,0x7ffff7d67f40
    2542:	7f 00 00 
    2545:	49 8d 8f 20 63 12 00 	lea    rcx,[r15+0x126320]
    254c:	ba 1c 03 00 00       	mov    edx,0x31c
    2551:	49 bf 4c 7f d6 f7 ff 	movabs r15,0x7ffff7d67f4c
    2558:	7f 00 00 
    255b:	49 8d b7 db f4 11 00 	lea    rsi,[r15+0x11f4db]
    2562:	49 bf 53 7f d6 f7 ff 	movabs r15,0x7ffff7d67f53
    2569:	7f 00 00 
    256c:	49 8d bf 34 f5 11 00 	lea    rdi,[r15+0x11f534]
    2573:	49 bf 58 7f d6 f7 ff 	movabs r15,0x7ffff7d67f58
    257a:	7f 00 00 
    257d:	4d 8d 6d f8          	lea    r13,[r13-0x8]
    2581:	4d 89 7d 00          	mov    QWORD PTR [r13+0x0],r15
    2585:	e9 5f 2e 00 00       	jmp    0x53e9
    258a:	49 bf 5f 7f d6 f7 ff 	movabs r15,0x7ffff7d67f5f
    2591:	7f 00 00 
    2594:	49 8b b7 29 63 15 00 	mov    rsi,QWORD PTR [r15+0x156329]
    259b:	bf c8 08 00 00       	mov    edi,0x8c8
    25a0:	49 bf 69 7f d6 f7 ff 	movabs r15,0x7ffff7d67f69
    25a7:	7f 00 00 
    25aa:	4d 8d 6d f8          	lea    r13,[r13-0x8]
    25ae:	4d 89 7d 00          	mov    QWORD PTR [r13+0x0],r15
    25b2:	e9 18 2e 00 00       	jmp    0x53cf
    25b7:	48 89 c3             	mov    rbx,rax
    25ba:	48 85 c0             	test   rax,rax
    25bd:	0f 85 50 fd ff ff    	jne    0x2313
    25c3:	4c 8b 7d 88          	mov    r15,QWORD PTR [rbp-0x78]
    25c7:	49 d1 e7             	shl    r15,1
    25ca:	49 d1 ef             	shr    r15,1
    25cd:	41 83 7f 18 00       	cmp    DWORD PTR [r15+0x18],0x0
    25d2:	74 12                	je     0x25e6
    25d4:	49 bf 88 7f d6 f7 ff 	movabs r15,0x7ffff7d67f88
    25db:	7f 00 00 
    25de:	f0 49 ff 8f e0 62 15 	lock dec QWORD PTR [r15+0x1562e0]
    25e5:	00 
    25e6:	49 bf 88 7f d6 f7 ff 	movabs r15,0x7ffff7d67f88
    25ed:	7f 00 00 
    25f0:	49 ff 8f e0 62 15 00 	dec    QWORD PTR [r15+0x1562e0]
    25f7:	4c 8b 7d 98          	mov    r15,QWORD PTR [rbp-0x68]
    25fb:	45 31 ff             	xor    r15d,r15d
    25fe:	4c 89 7d 98          	mov    QWORD PTR [rbp-0x68],r15
    2602:	e9 37 fa ff ff       	jmp    0x203e
    2607:	49 bf 9b 7f d6 f7 ff 	movabs r15,0x7ffff7d67f9b
    260e:	7f 00 00 
    2611:	49 c7 87 05 8f 15 00 	mov    QWORD PTR [r15+0x158f05],0x80
    2618:	80 00 00 00 
    261c:	e9 57 fd ff ff       	jmp    0x2378
    2621:	31 c0                	xor    eax,eax
    2623:	ba 01 00 00 00       	mov    edx,0x1
    2628:	4c 8b 7d 98          	mov    r15,QWORD PTR [rbp-0x68]
    262c:	49 d1 e7             	shl    r15,1
    262f:	49 d1 ef             	shr    r15,1
    2632:	f0 41 0f b1 17       	lock cmpxchg DWORD PTR [r15],edx
    2637:	4c 89 7d 98          	mov    QWORD PTR [rbp-0x68],r15
    263b:	0f 84 fd f9 ff ff    	je     0x203e
    2641:	4c 8b 7d 98          	mov    r15,QWORD PTR [rbp-0x68]
    2645:	4c 89 ff             	mov    rdi,r15
    2648:	49 be bb 7f d6 f7 ff 	movabs r14,0x7ffff7d67fbb
    264f:	7f 00 00 
    2652:	4d 8d 6d f8          	lea    r13,[r13-0x8]
    2656:	4d 89 75 00          	mov    QWORD PTR [r13+0x0],r14
    265a:	4c 89 7d 98          	mov    QWORD PTR [rbp-0x68],r15
    265e:	e9 be 2e 00 00       	jmp    0x5521
    2663:	e9 d6 f9 ff ff       	jmp    0x203e
    2668:	31 c0                	xor    eax,eax
    266a:	49 bf c8 7f d6 f7 ff 	movabs r15,0x7ffff7d67fc8
    2671:	7f 00 00 
    2674:	41 87 87 c0 8e 15 00 	xchg   DWORD PTR [r15+0x158ec0],eax
    267b:	83 e8 01             	sub    eax,0x1
    267e:	0f 8e 85 fe ff ff    	jle    0x2509
    2684:	45 31 d2             	xor    r10d,r10d
    2687:	ba 01 00 00 00       	mov    edx,0x1
    268c:	be 81 00 00 00       	mov    esi,0x81
    2691:	b8 ca 00 00 00       	mov    eax,0xca
    2696:	49 bf ea 7f d6 f7 ff 	movabs r15,0x7ffff7d67fea
    269d:	7f 00 00 
    26a0:	49 8d bf 9e 8e 15 00 	lea    rdi,[r15+0x158e9e]
    26a7:	49 be ea 7f d6 f7 ff 	movabs r14,0x7ffff7d67fea
    26ae:	7f 00 00 
    26b1:	e9 4a 30 00 00       	jmp    0x5700
    26b6:	e9 4e fe ff ff       	jmp    0x2509
    26bb:	31 c0                	xor    eax,eax
    26bd:	49 bf f9 7f d6 f7 ff 	movabs r15,0x7ffff7d67ff9
    26c4:	7f 00 00 
    26c7:	41 87 87 7f 8e 15 00 	xchg   DWORD PTR [r15+0x158e7f],eax
    26ce:	83 e8 01             	sub    eax,0x1
    26d1:	0f 8e bb fd ff ff    	jle    0x2492
    26d7:	45 31 d2             	xor    r10d,r10d
    26da:	ba 01 00 00 00       	mov    edx,0x1
    26df:	be 81 00 00 00       	mov    esi,0x81
    26e4:	b8 ca 00 00 00       	mov    eax,0xca
    26e9:	49 bf 1b 80 d6 f7 ff 	movabs r15,0x7ffff7d6801b
    26f0:	7f 00 00 
    26f3:	49 8d bf 5d 8e 15 00 	lea    rdi,[r15+0x158e5d]
    26fa:	49 be 1b 80 d6 f7 ff 	movabs r14,0x7ffff7d6801b
    2701:	7f 00 00 
    2704:	e9 f7 2f 00 00       	jmp    0x5700
    2709:	e9 84 fd ff ff       	jmp    0x2492
    270e:	31 c0                	xor    eax,eax
    2710:	ba 01 00 00 00       	mov    edx,0x1
    2715:	49 bf 31 80 d6 f7 ff 	movabs r15,0x7ffff7d68031
    271c:	7f 00 00 
    271f:	f0 41 0f b1 97 47 8e 	lock cmpxchg DWORD PTR [r15+0x158e47],edx
    2726:	15 00 
    2728:	0f 84 05 fd ff ff    	je     0x2433
    272e:	49 bf 3e 80 d6 f7 ff 	movabs r15,0x7ffff7d6803e
    2735:	7f 00 00 
    2738:	49 8d bf 3a 8e 15 00 	lea    rdi,[r15+0x158e3a]
    273f:	49 bf 43 80 d6 f7 ff 	movabs r15,0x7ffff7d68043
    2746:	7f 00 00 
    2749:	4d 8d 6d f8          	lea    r13,[r13-0x8]
    274d:	4d 89 7d 00          	mov    QWORD PTR [r13+0x0],r15
    2751:	e9 cb 2d 00 00       	jmp    0x5521
    2756:	e9 d8 fc ff ff       	jmp    0x2433
    275b:	31 c0                	xor    eax,eax
    275d:	ba 01 00 00 00       	mov    edx,0x1
    2762:	49 bf 57 80 d6 f7 ff 	movabs r15,0x7ffff7d68057
    2769:	7f 00 00 
    276c:	f0 41 0f b1 97 31 8e 	lock cmpxchg DWORD PTR [r15+0x158e31],edx
    2773:	15 00 
    2775:	0f 84 44 fd ff ff    	je     0x24bf
    277b:	49 bf 64 80 d6 f7 ff 	movabs r15,0x7ffff7d68064
    2782:	7f 00 00 
    2785:	49 8d bf 24 8e 15 00 	lea    rdi,[r15+0x158e24]
    278c:	49 bf 69 80 d6 f7 ff 	movabs r15,0x7ffff7d68069
    2793:	7f 00 00 
    2796:	4d 8d 6d f8          	lea    r13,[r13-0x8]
    279a:	4d 89 7d 00          	mov    QWORD PTR [r13+0x0],r15
    279e:	e9 7e 2d 00 00       	jmp    0x5521
    27a3:	e9 17 fd ff ff       	jmp    0x24bf
    27a8:	49 bf 73 80 d6 f7 ff 	movabs r15,0x7ffff7d68073
    27af:	7f 00 00 
    27b2:	4d 8d 6d f8          	lea    r13,[r13-0x8]
    27b6:	4d 89 7d 00          	mov    QWORD PTR [r13+0x0],r15
    27ba:	e9 ce 2e 00 00       	jmp    0x568d
    27bf:	90                   	nop
    27c0:	90                   	nop
    27c1:	4d 8d 6d f8          	lea    r13,[r13-0x8]
    27c5:	4d 89 65 00          	mov    QWORD PTR [r13+0x0],r12
    27c9:	49 83 ed 10          	sub    r13,0x10
    27cd:	90                   	nop
    27ce:	49 bf 8d 80 d6 f7 ff 	movabs r15,0x7ffff7d6808d
    27d5:	7f 00 00 
    27d8:	49 8d 87 f3 6a 15 00 	lea    rax,[r15+0x156af3]
    27df:	48 39 c7             	cmp    rdi,rax
    27e2:	74 79                	je     0x285d
    27e4:	4c 8b 7d 88          	mov    r15,QWORD PTR [rbp-0x78]
    27e8:	49 d1 e7             	shl    r15,1
    27eb:	49 d1 ef             	shr    r15,1
    27ee:	41 8b 47 18          	mov    eax,DWORD PTR [r15+0x18]
    27f2:	85 c0                	test   eax,eax
    27f4:	0f 85 c6 00 00 00    	jne    0x28c0
    27fa:	48 d1 e7             	shl    rdi,1
    27fd:	48 d1 ef             	shr    rdi,1
    2800:	83 2f 01             	sub    DWORD PTR [rdi],0x1
    2803:	4c 8b 7d 88          	mov    r15,QWORD PTR [rbp-0x78]
    2807:	49 d1 e7             	shl    r15,1
    280a:	49 d1 ef             	shr    r15,1
    280d:	41 8b 47 18          	mov    eax,DWORD PTR [r15+0x18]
    2811:	85 c0                	test   eax,eax
    2813:	0f 85 e0 00 00 00    	jne    0x28f9
    2819:	ba 01 00 00 00       	mov    edx,0x1
    281e:	49 bf b9 80 d6 f7 ff 	movabs r15,0x7ffff7d680b9
    2825:	7f 00 00 
    2828:	41 0f b1 97 c7 6a 15 	cmpxchg DWORD PTR [r15+0x156ac7],edx
    282f:	00 
    2830:	49 bf c0 80 d6 f7 ff 	movabs r15,0x7ffff7d680c0
    2837:	7f 00 00 
    283a:	49 8d 87 c0 6a 15 00 	lea    rax,[r15+0x156ac0]
    2841:	49 83 c5 10          	add    r13,0x10
    2845:	4d 8b 65 00          	mov    r12,QWORD PTR [r13+0x0]
    2849:	4d 8d 6d 08          	lea    r13,[r13+0x8]
    284d:	4d 8b 7d 00          	mov    r15,QWORD PTR [r13+0x0]
    2851:	4d 8d 6d 08          	lea    r13,[r13+0x8]
    2855:	4d 89 fe             	mov    r14,r15
    2858:	e9 0c 27 00 00       	jmp    0x4f69
    285d:	49 89 f4             	mov    r12,rsi
    2860:	4c 8b 7d 88          	mov    r15,QWORD PTR [rbp-0x78]
    2864:	49 d1 e7             	shl    r15,1
    2867:	49 d1 ef             	shr    r15,1
    286a:	41 8b 47 18          	mov    eax,DWORD PTR [r15+0x18]
    286e:	85 c0                	test   eax,eax
    2870:	0f 85 db 00 00 00    	jne    0x2951
    2876:	48 d1 e7             	shl    rdi,1
    2879:	48 d1 ef             	shr    rdi,1
    287c:	83 2f 01             	sub    DWORD PTR [rdi],0x1
    287f:	49 bf e7 80 d6 f7 ff 	movabs r15,0x7ffff7d680e7
    2886:	7f 00 00 
    2889:	4d 8d 6d f8          	lea    r13,[r13-0x8]
    288d:	4d 89 7d 00          	mov    QWORD PTR [r13+0x0],r15
    2891:	e9 09 2c 00 00       	jmp    0x549f
    2896:	48 85 c0             	test   rax,rax
    2899:	75 a6                	jne    0x2841
    289b:	49 83 c5 10          	add    r13,0x10
    289f:	4c 89 e7             	mov    rdi,r12
    28a2:	49 bf fa 80 d6 f7 ff 	movabs r15,0x7ffff7d680fa
    28a9:	7f 00 00 
    28ac:	49 8d b7 86 6a 15 00 	lea    rsi,[r15+0x156a86]
    28b3:	4d 8b 65 00          	mov    r12,QWORD PTR [r13+0x0]
    28b7:	4d 8d 6d 08          	lea    r13,[r13+0x8]
    28bb:	e9 e7 f4 ff ff       	jmp    0x1da7
    28c0:	31 c0                	xor    eax,eax
    28c2:	48 d1 e7             	shl    rdi,1
    28c5:	48 d1 ef             	shr    rdi,1
    28c8:	87 07                	xchg   DWORD PTR [rdi],eax
    28ca:	83 f8 01             	cmp    eax,0x1
    28cd:	0f 8e 30 ff ff ff    	jle    0x2803
    28d3:	45 31 d2             	xor    r10d,r10d
    28d6:	ba 01 00 00 00       	mov    edx,0x1
    28db:	be 81 00 00 00       	mov    esi,0x81
    28e0:	b8 ca 00 00 00       	mov    eax,0xca
    28e5:	49 be 1b 81 d6 f7 ff 	movabs r14,0x7ffff7d6811b
    28ec:	7f 00 00 
    28ef:	e9 0c 2e 00 00       	jmp    0x5700
    28f4:	e9 0a ff ff ff       	jmp    0x2803
    28f9:	31 c0                	xor    eax,eax
    28fb:	ba 01 00 00 00       	mov    edx,0x1
    2900:	49 bf 2f 81 d6 f7 ff 	movabs r15,0x7ffff7d6812f
    2907:	7f 00 00 
    290a:	f0 41 0f b1 97 51 6a 	lock cmpxchg DWORD PTR [r15+0x156a51],edx
    2911:	15 00 
    2913:	49 bf 36 81 d6 f7 ff 	movabs r15,0x7ffff7d68136
    291a:	7f 00 00 
    291d:	49 8d 87 4a 6a 15 00 	lea    rax,[r15+0x156a4a]
    2924:	0f 84 17 ff ff ff    	je     0x2841
    292a:	48 89 c7             	mov    rdi,rax
    292d:	49 89 45 08          	mov    QWORD PTR [r13+0x8],rax
    2931:	49 bf 45 81 d6 f7 ff 	movabs r15,0x7ffff7d68145
    2938:	7f 00 00 
    293b:	4d 8d 6d f8          	lea    r13,[r13-0x8]
    293f:	4d 89 7d 00          	mov    QWORD PTR [r13+0x0],r15
    2943:	e9 d9 2b 00 00       	jmp    0x5521
    2948:	49 8b 45 08          	mov    rax,QWORD PTR [r13+0x8]
    294c:	e9 f0 fe ff ff       	jmp    0x2841
    2951:	31 c0                	xor    eax,eax
    2953:	48 d1 e7             	shl    rdi,1
    2956:	48 d1 ef             	shr    rdi,1
    2959:	87 07                	xchg   DWORD PTR [rdi],eax
    295b:	83 f8 01             	cmp    eax,0x1
    295e:	0f 8e 1b ff ff ff    	jle    0x287f
    2964:	45 31 d2             	xor    r10d,r10d
    2967:	ba 01 00 00 00       	mov    edx,0x1
    296c:	be 81 00 00 00       	mov    esi,0x81
    2971:	b8 ca 00 00 00       	mov    eax,0xca
    2976:	49 be 6b 81 d6 f7 ff 	movabs r14,0x7ffff7d6816b
    297d:	7f 00 00 
    2980:	e9 7b 2d 00 00       	jmp    0x5700
    2985:	e9 f5 fe ff ff       	jmp    0x287f
    298a:	4d 8d 6d f8          	lea    r13,[r13-0x8]
    298e:	4c 8b 7d b0          	mov    r15,QWORD PTR [rbp-0x50]
    2992:	4d 89 7d 00          	mov    QWORD PTR [r13+0x0],r15
    2996:	4d 8d 6d f8          	lea    r13,[r13-0x8]
    299a:	4c 8b 75 a8          	mov    r14,QWORD PTR [rbp-0x58]
    299e:	4d 89 75 00          	mov    QWORD PTR [r13+0x0],r14
    29a2:	4d 8d 6d f8          	lea    r13,[r13-0x8]
    29a6:	4c 89 7d b0          	mov    QWORD PTR [rbp-0x50],r15
    29aa:	4c 8b 7d a0          	mov    r15,QWORD PTR [rbp-0x60]
    29ae:	4d 89 7d 00          	mov    QWORD PTR [r13+0x0],r15
    29b2:	41 89 d7             	mov    r15d,edx
    29b5:	4d 8d 6d f8          	lea    r13,[r13-0x8]
    29b9:	4c 89 7d a0          	mov    QWORD PTR [rbp-0x60],r15
    29bd:	4c 8b 7d 98          	mov    r15,QWORD PTR [rbp-0x68]
    29c1:	4d 89 7d 00          	mov    QWORD PTR [r13+0x0],r15
    29c5:	4d 8d 6d f8          	lea    r13,[r13-0x8]
    29c9:	4d 89 65 00          	mov    QWORD PTR [r13+0x0],r12
    29cd:	4d 8d 6d f8          	lea    r13,[r13-0x8]
    29d1:	49 89 5d 00          	mov    QWORD PTR [r13+0x0],rbx
    29d5:	49 83 ed 48          	sub    r13,0x48
    29d9:	4c 89 7d 98          	mov    QWORD PTR [rbp-0x68],r15
    29dd:	4c 8b 7d 88          	mov    r15,QWORD PTR [rbp-0x78]
    29e1:	49 d1 e7             	shl    r15,1
    29e4:	49 d1 ef             	shr    r15,1
    29e7:	49 8b 47 28          	mov    rax,QWORD PTR [r15+0x28]
    29eb:	49 89 45 38          	mov    QWORD PTR [r13+0x38],rax
    29ef:	31 c0                	xor    eax,eax
    29f1:	48 d1 e6             	shl    rsi,1
    29f4:	48 d1 ee             	shr    rsi,1
    29f7:	48 8b 46 08          	mov    rax,QWORD PTR [rsi+0x8]
    29fb:	48 89 c3             	mov    rbx,rax
    29fe:	48 83 e3 f8          	and    rbx,0xfffffffffffffff8
    2a02:	48 89 da             	mov    rdx,rbx
    2a05:	48 f7 da             	neg    rdx
    2a08:	48 39 d6             	cmp    rsi,rdx
    2a0b:	4c 89 75 a8          	mov    QWORD PTR [rbp-0x58],r14
    2a0f:	0f 87 86 04 00 00    	ja     0x2e9b
    2a15:	4c 8b 7d 98          	mov    r15,QWORD PTR [rbp-0x68]
    2a19:	49 89 f7             	mov    r15,rsi
    2a1c:	40 f6 c6 0f          	test   sil,0xf
    2a20:	4c 89 7d 98          	mov    QWORD PTR [rbp-0x68],r15
    2a24:	0f 85 71 04 00 00    	jne    0x2e9b
    2a2a:	48 83 fb 1f          	cmp    rbx,0x1f
    2a2e:	0f 86 90 04 00 00    	jbe    0x2ec4
    2a34:	a8 08                	test   al,0x8
    2a36:	0f 85 88 04 00 00    	jne    0x2ec4
    2a3c:	49 bf a1 88 d6 f7 ff 	movabs r15,0x7ffff7d688a1
    2a43:	7f 00 00 
    2a46:	49 8b 8f d7 54 15 00 	mov    rcx,QWORD PTR [r15+0x1554d7]
    2a4d:	49 89 fc             	mov    r12,rdi
    2a50:	4c 8b 7d 88          	mov    r15,QWORD PTR [rbp-0x78]
    2a54:	49 8b 14 0f          	mov    rdx,QWORD PTR [r15+rcx*1]
    2a58:	48 85 d2             	test   rdx,rdx
    2a5b:	74 5f                	je     0x2abc
    2a5d:	48 8d 43 ef          	lea    rax,[rbx-0x11]
    2a61:	48 c1 e8 04          	shr    rax,0x4
    2a65:	49 bf bc 88 d6 f7 ff 	movabs r15,0x7ffff7d688bc
    2a6c:	7f 00 00 
    2a6f:	49 39 87 14 5a 15 00 	cmp    QWORD PTR [r15+0x155a14],rax
    2a76:	76 44                	jbe    0x2abc
    2a78:	48 8d 76 10          	lea    rsi,[rsi+0x10]
    2a7c:	4c 8b 7d 98          	mov    r15,QWORD PTR [rbp-0x68]
    2a80:	49 d1 e7             	shl    r15,1
    2a83:	49 d1 ef             	shr    r15,1
    2a86:	49 3b 57 18          	cmp    rdx,QWORD PTR [r15+0x18]
    2a8a:	4c 89 7d 98          	mov    QWORD PTR [rbp-0x68],r15
    2a8e:	0f 84 2d 0b 00 00    	je     0x35c1
    2a94:	48 8d 3c 42          	lea    rdi,[rdx+rax*2]
    2a98:	48 d1 e7             	shl    rdi,1
    2a9b:	48 d1 ef             	shr    rdi,1
    2a9e:	44 0f b7 07          	movzx  r8d,WORD PTR [rdi]
    2aa2:	49 bf dc 88 d6 f7 ff 	movabs r15,0x7ffff7d688dc
    2aa9:	7f 00 00 
    2aac:	4d 3b 87 04 5a 15 00 	cmp    r8,QWORD PTR [r15+0x155a04]
    2ab3:	4c 89 c1             	mov    rcx,r8
    2ab6:	0f 82 ac 03 00 00    	jb     0x2e68
    2abc:	49 bf ec 88 d6 f7 ff 	movabs r15,0x7ffff7d688ec
    2ac3:	7f 00 00 
    2ac6:	49 3b 9f b4 85 15 00 	cmp    rbx,QWORD PTR [r15+0x1585b4]
    2acd:	0f 87 4b 01 00 00    	ja     0x2c1e
    2ad3:	4c 8b 7d 98          	mov    r15,QWORD PTR [rbp-0x68]
    2ad7:	4c 8b 75 a8          	mov    r14,QWORD PTR [rbp-0x58]
    2adb:	4d 8d 34 1f          	lea    r14,[r15+rbx*1]
    2adf:	49 d1 e6             	shl    r14,1
    2ae2:	49 d1 ee             	shr    r14,1
    2ae5:	49 8b 46 08          	mov    rax,QWORD PTR [r14+0x8]
    2ae9:	48 83 f8 10          	cmp    rax,0x10
    2aed:	4c 89 7d 98          	mov    QWORD PTR [rbp-0x68],r15
    2af1:	4c 89 75 a8          	mov    QWORD PTR [rbp-0x58],r14
    2af5:	0f 86 f2 03 00 00    	jbe    0x2eed
    2afb:	48 83 e0 f8          	and    rax,0xfffffffffffffff8
    2aff:	49 3b 84 24 88 08 00 	cmp    rax,QWORD PTR [r12+0x888]
    2b06:	00 
    2b07:	0f 83 e0 03 00 00    	jae    0x2eed
    2b0d:	49 bf 1b 89 d6 f7 ff 	movabs r15,0x7ffff7d6891b
    2b14:	7f 00 00 
    2b17:	41 8b 87 71 85 15 00 	mov    eax,DWORD PTR [r15+0x158571]
    2b1e:	85 c0                	test   eax,eax
    2b20:	0f 85 f4 08 00 00    	jne    0x341a
    2b26:	41 c7 44 24 08 01 00 	mov    DWORD PTR [r12+0x8],0x1
    2b2d:	00 00 
    2b2f:	c1 eb 04             	shr    ebx,0x4
    2b32:	8d 4b fe             	lea    ecx,[rbx-0x2]
    2b35:	49 8d 04 cc          	lea    rax,[r12+rcx*8]
    2b39:	48 d1 e0             	shl    rax,1
    2b3c:	48 d1 e8             	shr    rax,1
    2b3f:	48 8b 50 10          	mov    rdx,QWORD PTR [rax+0x10]
    2b43:	4c 8b 7d 88          	mov    r15,QWORD PTR [rbp-0x78]
    2b47:	49 d1 e7             	shl    r15,1
    2b4a:	49 d1 ef             	shr    r15,1
    2b4d:	41 8b 77 18          	mov    esi,DWORD PTR [r15+0x18]
    2b51:	85 f6                	test   esi,esi
    2b53:	0f 85 0a 05 00 00    	jne    0x3063
    2b59:	4c 8b 7d 98          	mov    r15,QWORD PTR [rbp-0x68]
    2b5d:	49 39 d7             	cmp    r15,rdx
    2b60:	4c 89 7d 98          	mov    QWORD PTR [rbp-0x68],r15
    2b64:	0f 84 64 05 00 00    	je     0x30ce
    2b6a:	4c 8b 7d 98          	mov    r15,QWORD PTR [rbp-0x68]
    2b6e:	49 89 57 10          	mov    QWORD PTR [r15+0x10],rdx
    2b72:	4c 89 78 10          	mov    QWORD PTR [rax+0x10],r15
    2b76:	4c 89 7d 98          	mov    QWORD PTR [rbp-0x68],r15
    2b7a:	48 85 d2             	test   rdx,rdx
    2b7d:	74 23                	je     0x2ba2
    2b7f:	4c 8b 7d a0          	mov    r15,QWORD PTR [rbp-0x60]
    2b83:	41 83 e7 01          	and    r15d,0x1
    2b87:	4c 89 7d a0          	mov    QWORD PTR [rbp-0x60],r15
    2b8b:	74 15                	je     0x2ba2
    2b8d:	48 d1 e2             	shl    rdx,1
    2b90:	48 d1 ea             	shr    rdx,1
    2b93:	48 8b 42 08          	mov    rax,QWORD PTR [rdx+0x8]
    2b97:	c1 e8 04             	shr    eax,0x4
    2b9a:	39 c3                	cmp    ebx,eax
    2b9c:	0f 85 1b 04 00 00    	jne    0x2fbd
    2ba2:	49 8b 45 38          	mov    rax,QWORD PTR [r13+0x38]
    2ba6:	4c 8b 7d 88          	mov    r15,QWORD PTR [rbp-0x78]
    2baa:	49 d1 e7             	shl    r15,1
    2bad:	49 d1 ef             	shr    r15,1
    2bb0:	49 33 47 28          	xor    rax,QWORD PTR [r15+0x28]
    2bb4:	0f 85 2e 0f 00 00    	jne    0x3ae8
    2bba:	49 83 c5 48          	add    r13,0x48
    2bbe:	49 8b 5d 00          	mov    rbx,QWORD PTR [r13+0x0]
    2bc2:	4d 8d 6d 08          	lea    r13,[r13+0x8]
    2bc6:	4d 8b 65 00          	mov    r12,QWORD PTR [r13+0x0]
    2bca:	4d 8d 6d 08          	lea    r13,[r13+0x8]
    2bce:	4c 8b 7d 98          	mov    r15,QWORD PTR [rbp-0x68]
    2bd2:	4d 8b 7d 00          	mov    r15,QWORD PTR [r13+0x0]
    2bd6:	4d 8d 6d 08          	lea    r13,[r13+0x8]
    2bda:	4c 8b 75 a0          	mov    r14,QWORD PTR [rbp-0x60]
    2bde:	4d 8b 75 00          	mov    r14,QWORD PTR [r13+0x0]
    2be2:	4d 8d 6d 08          	lea    r13,[r13+0x8]
    2be6:	4c 89 7d 98          	mov    QWORD PTR [rbp-0x68],r15
    2bea:	4c 8b 7d a8          	mov    r15,QWORD PTR [rbp-0x58]
    2bee:	4d 8b 7d 00          	mov    r15,QWORD PTR [r13+0x0]
    2bf2:	4d 8d 6d 08          	lea    r13,[r13+0x8]
    2bf6:	4c 89 7d a8          	mov    QWORD PTR [rbp-0x58],r15
    2bfa:	4c 8b 7d b0          	mov    r15,QWORD PTR [rbp-0x50]
    2bfe:	4d 8b 7d 00          	mov    r15,QWORD PTR [r13+0x0]
    2c02:	4d 8d 6d 08          	lea    r13,[r13+0x8]
    2c06:	4c 89 7d b0          	mov    QWORD PTR [rbp-0x50],r15
    2c0a:	4d 8b 7d 00          	mov    r15,QWORD PTR [r13+0x0]
    2c0e:	4d 8d 6d 08          	lea    r13,[r13+0x8]
    2c12:	4c 89 75 a0          	mov    QWORD PTR [rbp-0x60],r14
    2c16:	4d 89 fe             	mov    r14,r15
    2c19:	e9 ae 21 00 00       	jmp    0x4dcc
    2c1e:	4c 8b 7d 98          	mov    r15,QWORD PTR [rbp-0x68]
    2c22:	49 d1 e7             	shl    r15,1
    2c25:	49 d1 ef             	shr    r15,1
    2c28:	41 f6 47 08 02       	test   BYTE PTR [r15+0x8],0x2
    2c2d:	4c 89 7d 98          	mov    QWORD PTR [rbp-0x68],r15
    2c31:	0f 85 0a 02 00 00    	jne    0x2e41
    2c37:	4c 8b 7d 88          	mov    r15,QWORD PTR [rbp-0x78]
    2c3b:	49 d1 e7             	shl    r15,1
    2c3e:	49 d1 ef             	shr    r15,1
    2c41:	41 8b 47 18          	mov    eax,DWORD PTR [r15+0x18]
    2c45:	85 c0                	test   eax,eax
    2c47:	74 12                	je     0x2c5b
    2c49:	4c 8b 7d a0          	mov    r15,QWORD PTR [rbp-0x60]
    2c4d:	41 83 e7 01          	and    r15d,0x1
    2c51:	4c 89 7d a0          	mov    QWORD PTR [rbp-0x60],r15
    2c55:	0f 84 21 0b 00 00    	je     0x377c
    2c5b:	41 c7 45 1c 01 00 00 	mov    DWORD PTR [r13+0x1c],0x1
    2c62:	00 
    2c63:	49 8b 44 24 60       	mov    rax,QWORD PTR [r12+0x60]
    2c68:	4c 8b 7d 98          	mov    r15,QWORD PTR [rbp-0x68]
    2c6c:	4c 8b 75 a0          	mov    r14,QWORD PTR [rbp-0x60]
    2c70:	4d 8d 34 1f          	lea    r14,[r15+rbx*1]
    2c74:	4c 39 f8             	cmp    rax,r15
    2c77:	4c 89 7d 98          	mov    QWORD PTR [rbp-0x68],r15
    2c7b:	4c 89 75 a0          	mov    QWORD PTR [rbp-0x60],r14
    2c7f:	0f 84 9d 09 00 00    	je     0x3622
    2c85:	41 f6 44 24 04 02    	test   BYTE PTR [r12+0x4],0x2
    2c8b:	0f 84 ba 09 00 00    	je     0x364b
    2c91:	4c 8b 7d a0          	mov    r15,QWORD PTR [rbp-0x60]
    2c95:	49 d1 e7             	shl    r15,1
    2c98:	49 d1 ef             	shr    r15,1
    2c9b:	49 8b 47 08          	mov    rax,QWORD PTR [r15+0x8]
    2c9f:	a8 01                	test   al,0x1
    2ca1:	4c 89 7d a0          	mov    QWORD PTR [rbp-0x60],r15
    2ca5:	0f 84 ea 09 00 00    	je     0x3695
    2cab:	4c 8b 7d a8          	mov    r15,QWORD PTR [rbp-0x58]
    2caf:	49 89 c7             	mov    r15,rax
    2cb2:	49 83 e7 f8          	and    r15,0xfffffffffffffff8
    2cb6:	48 83 f8 10          	cmp    rax,0x10
    2cba:	4c 89 7d a8          	mov    QWORD PTR [rbp-0x58],r15
    2cbe:	0f 86 2d 07 00 00    	jbe    0x33f1
    2cc4:	4c 8b 7d a8          	mov    r15,QWORD PTR [rbp-0x58]
    2cc8:	4d 39 bc 24 88 08 00 	cmp    QWORD PTR [r12+0x888],r15
    2ccf:	00 
    2cd0:	4c 89 7d a8          	mov    QWORD PTR [rbp-0x58],r15
    2cd4:	0f 86 17 07 00 00    	jbe    0x33f1
    2cda:	49 bf 15 8a d6 f7 ff 	movabs r15,0x7ffff7d68a15
    2ce1:	7f 00 00 
    2ce4:	41 8b b7 77 84 15 00 	mov    esi,DWORD PTR [r15+0x158477]
    2ceb:	85 f6                	test   esi,esi
    2ced:	0f 85 cb 09 00 00    	jne    0x36be
    2cf3:	4c 8b 7d 98          	mov    r15,QWORD PTR [rbp-0x68]
    2cf7:	49 d1 e7             	shl    r15,1
    2cfa:	49 d1 ef             	shr    r15,1
    2cfd:	41 f6 47 08 01       	test   BYTE PTR [r15+0x8],0x1
    2d02:	4c 89 7d 98          	mov    QWORD PTR [rbp-0x68],r15
    2d06:	75 50                	jne    0x2d58
    2d08:	4c 8b 7d 98          	mov    r15,QWORD PTR [rbp-0x68]
    2d0c:	49 d1 e7             	shl    r15,1
    2d0f:	49 d1 ef             	shr    r15,1
    2d12:	49 8b 07             	mov    rax,QWORD PTR [r15]
    2d15:	49 29 c7             	sub    r15,rax
    2d18:	48 01 c3             	add    rbx,rax
    2d1b:	49 d1 e7             	shl    r15,1
    2d1e:	49 d1 ef             	shr    r15,1
    2d21:	49 8b 57 08          	mov    rdx,QWORD PTR [r15+0x8]
    2d25:	48 83 e2 f8          	and    rdx,0xfffffffffffffff8
    2d29:	48 39 c2             	cmp    rdx,rax
    2d2c:	4c 89 7d 98          	mov    QWORD PTR [rbp-0x68],r15
    2d30:	0f 85 a3 0a 00 00    	jne    0x37d9
    2d36:	4c 8b 7d 98          	mov    r15,QWORD PTR [rbp-0x68]
    2d3a:	4c 89 ff             	mov    rdi,r15
    2d3d:	49 be 49 8a d6 f7 ff 	movabs r14,0x7ffff7d68a49
    2d44:	7f 00 00 
    2d47:	4d 8d 6d f8          	lea    r13,[r13-0x8]
    2d4b:	4d 89 75 00          	mov    QWORD PTR [r13+0x0],r14
    2d4f:	4c 89 7d 98          	mov    QWORD PTR [rbp-0x68],r15
    2d53:	e9 b7 eb ff ff       	jmp    0x190f
    2d58:	4c 8b 7d a0          	mov    r15,QWORD PTR [rbp-0x60]
    2d5c:	4d 39 7c 24 60       	cmp    QWORD PTR [r12+0x60],r15
    2d61:	4c 89 7d a0          	mov    QWORD PTR [rbp-0x60],r15
    2d65:	0f 84 5e 06 00 00    	je     0x33c9
    2d6b:	4c 8b 7d a0          	mov    r15,QWORD PTR [rbp-0x60]
    2d6f:	4c 8b 75 a8          	mov    r14,QWORD PTR [rbp-0x58]
    2d73:	43 f6 44 37 08 01    	test   BYTE PTR [r15+r14*1+0x8],0x1
    2d79:	4c 89 7d a0          	mov    QWORD PTR [rbp-0x60],r15
    2d7d:	4c 89 75 a8          	mov    QWORD PTR [rbp-0x58],r14
    2d81:	0f 84 d7 06 00 00    	je     0x345e
    2d87:	4c 8b 7d a0          	mov    r15,QWORD PTR [rbp-0x60]
    2d8b:	49 d1 e7             	shl    r15,1
    2d8e:	49 d1 ef             	shr    r15,1
    2d91:	49 83 67 08 fe       	and    QWORD PTR [r15+0x8],0xfffffffffffffffe
    2d96:	4c 89 7d a0          	mov    QWORD PTR [rbp-0x60],r15
    2d9a:	49 8b 44 24 70       	mov    rax,QWORD PTR [r12+0x70]
    2d9f:	49 8d 54 24 60       	lea    rdx,[r12+0x60]
    2da4:	48 d1 e0             	shl    rax,1
    2da7:	48 d1 e8             	shr    rax,1
    2daa:	48 39 50 18          	cmp    QWORD PTR [rax+0x18],rdx
    2dae:	0f 85 fd 09 00 00    	jne    0x37b1
    2db4:	66 48 0f 6e c0       	movq   xmm0,rax
    2db9:	66 48 0f 6e ca       	movq   xmm1,rdx
    2dbe:	66 0f 6c c1          	punpcklqdq xmm0,xmm1
    2dc2:	4c 8b 7d 98          	mov    r15,QWORD PTR [rbp-0x68]
    2dc6:	49 d1 e7             	shl    r15,1
    2dc9:	49 d1 ef             	shr    r15,1
    2dcc:	41 0f 11 47 10       	movups XMMWORD PTR [r15+0x10],xmm0
    2dd1:	48 81 fb ff 03 00 00 	cmp    rbx,0x3ff
    2dd8:	4c 89 7d 98          	mov    QWORD PTR [rbp-0x68],r15
    2ddc:	0f 87 c5 01 00 00    	ja     0x2fa7
    2de2:	4c 8b 7d 98          	mov    r15,QWORD PTR [rbp-0x68]
    2de6:	4d 89 7c 24 70       	mov    QWORD PTR [r12+0x70],r15
    2deb:	48 d1 e0             	shl    rax,1
    2dee:	48 d1 e8             	shr    rax,1
    2df1:	4c 89 78 18          	mov    QWORD PTR [rax+0x18],r15
    2df5:	48 89 d8             	mov    rax,rbx
    2df8:	48 83 c8 01          	or     rax,0x1
    2dfc:	49 89 47 08          	mov    QWORD PTR [r15+0x8],rax
    2e00:	49 89 1c 1f          	mov    QWORD PTR [r15+rbx*1],rbx
    2e04:	4c 89 7d 98          	mov    QWORD PTR [rbp-0x68],r15
    2e08:	48 81 fb ff ff 00 00 	cmp    rbx,0xffff
    2e0f:	0f 87 e2 02 00 00    	ja     0x30f7
    2e15:	41 8b 45 1c          	mov    eax,DWORD PTR [r13+0x1c]
    2e19:	85 c0                	test   eax,eax
    2e1b:	0f 85 81 fd ff ff    	jne    0x2ba2
    2e21:	4c 8b 7d 88          	mov    r15,QWORD PTR [rbp-0x78]
    2e25:	49 d1 e7             	shl    r15,1
    2e28:	49 d1 ef             	shr    r15,1
    2e2b:	41 8b 47 18          	mov    eax,DWORD PTR [r15+0x18]
    2e2f:	85 c0                	test   eax,eax
    2e31:	0f 85 ae 01 00 00    	jne    0x2fe5
    2e37:	41 83 2c 24 01       	sub    DWORD PTR [r12],0x1
    2e3c:	e9 61 fd ff ff       	jmp    0x2ba2
    2e41:	4c 8b 7d 98          	mov    r15,QWORD PTR [rbp-0x68]
    2e45:	4c 89 ff             	mov    rdi,r15
    2e48:	49 be f0 8a d6 f7 ff 	movabs r14,0x7ffff7d68af0
    2e4f:	7f 00 00 
    2e52:	4d 8d 6d f8          	lea    r13,[r13-0x8]
    2e56:	4d 89 75 00          	mov    QWORD PTR [r13+0x0],r14
    2e5a:	4c 89 7d 98          	mov    QWORD PTR [rbp-0x68],r15
    2e5e:	e9 da e2 ff ff       	jmp    0x113d
    2e63:	e9 3a fd ff ff       	jmp    0x2ba2
    2e68:	48 8d 04 c2          	lea    rax,[rdx+rax*8]
    2e6c:	4c 8b 7d 98          	mov    r15,QWORD PTR [rbp-0x68]
    2e70:	49 d1 e7             	shl    r15,1
    2e73:	49 d1 ef             	shr    r15,1
    2e76:	49 89 57 18          	mov    QWORD PTR [r15+0x18],rdx
    2e7a:	83 c1 01             	add    ecx,0x1
    2e7d:	48 8b 90 80 00 00 00 	mov    rdx,QWORD PTR [rax+0x80]
    2e84:	49 89 57 10          	mov    QWORD PTR [r15+0x10],rdx
    2e88:	48 89 b0 80 00 00 00 	mov    QWORD PTR [rax+0x80],rsi
    2e8f:	66 89 0f             	mov    WORD PTR [rdi],cx
    2e92:	4c 89 7d 98          	mov    QWORD PTR [rbp-0x68],r15
    2e96:	e9 07 fd ff ff       	jmp    0x2ba2
    2e9b:	49 bf 27 8b d6 f7 ff 	movabs r15,0x7ffff7d68b27
    2ea2:	7f 00 00 
    2ea5:	49 8d bf 9a e9 11 00 	lea    rdi,[r15+0x11e99a]
    2eac:	49 bf 2c 8b d6 f7 ff 	movabs r15,0x7ffff7d68b2c
    2eb3:	7f 00 00 
    2eb6:	4d 8d 6d f8          	lea    r13,[r13-0x8]
    2eba:	4d 89 7d 00          	mov    QWORD PTR [r13+0x0],r15
    2ebe:	e9 b0 27 00 00       	jmp    0x5673
    2ec3:	90                   	nop
    2ec4:	49 bf 37 8b d6 f7 ff 	movabs r15,0x7ffff7d68b37
    2ecb:	7f 00 00 
    2ece:	49 8d bf a2 e9 11 00 	lea    rdi,[r15+0x11e9a2]
    2ed5:	49 bf 3c 8b d6 f7 ff 	movabs r15,0x7ffff7d68b3c
    2edc:	7f 00 00 
    2edf:	4d 8d 6d f8          	lea    r13,[r13-0x8]
    2ee3:	4d 89 7d 00          	mov    QWORD PTR [r13+0x0],r15
    2ee7:	e9 87 27 00 00       	jmp    0x5673
    2eec:	90                   	nop
    2eed:	4c 8b 7d a0          	mov    r15,QWORD PTR [rbp-0x60]
    2ef1:	45 85 ff             	test   r15d,r15d
    2ef4:	4c 89 7d a0          	mov    QWORD PTR [rbp-0x60],r15
    2ef8:	0f 85 80 00 00 00    	jne    0x2f7e
    2efe:	4c 8b 7d 88          	mov    r15,QWORD PTR [rbp-0x78]
    2f02:	49 d1 e7             	shl    r15,1
    2f05:	49 d1 ef             	shr    r15,1
    2f08:	41 8b 47 18          	mov    eax,DWORD PTR [r15+0x18]
    2f0c:	85 c0                	test   eax,eax
    2f0e:	0f 85 14 01 00 00    	jne    0x3028
    2f14:	4c 8b 7d a0          	mov    r15,QWORD PTR [rbp-0x60]
    2f18:	44 89 f8             	mov    eax,r15d
    2f1b:	ba 01 00 00 00       	mov    edx,0x1
    2f20:	41 0f b1 14 24       	cmpxchg DWORD PTR [r12],edx
    2f25:	4c 89 7d a0          	mov    QWORD PTR [rbp-0x60],r15
    2f29:	4c 8b 7d a8          	mov    r15,QWORD PTR [rbp-0x58]
    2f2d:	49 d1 e7             	shl    r15,1
    2f30:	49 d1 ef             	shr    r15,1
    2f33:	49 8b 47 08          	mov    rax,QWORD PTR [r15+0x8]
    2f37:	41 b8 01 00 00 00    	mov    r8d,0x1
    2f3d:	48 83 f8 10          	cmp    rax,0x10
    2f41:	4c 89 7d a8          	mov    QWORD PTR [rbp-0x58],r15
    2f45:	76 13                	jbe    0x2f5a
    2f47:	45 31 c0             	xor    r8d,r8d
    2f4a:	48 83 e0 f8          	and    rax,0xfffffffffffffff8
    2f4e:	49 3b 84 24 88 08 00 	cmp    rax,QWORD PTR [r12+0x888]
    2f55:	00 
    2f56:	41 0f 93 c0          	setae  r8b
    2f5a:	4c 8b 7d 88          	mov    r15,QWORD PTR [rbp-0x78]
    2f5e:	49 d1 e7             	shl    r15,1
    2f61:	49 d1 ef             	shr    r15,1
    2f64:	41 8b 47 18          	mov    eax,DWORD PTR [r15+0x18]
    2f68:	85 c0                	test   eax,eax
    2f6a:	0f 85 91 08 00 00    	jne    0x3801
    2f70:	41 83 2c 24 01       	sub    DWORD PTR [r12],0x1
    2f75:	45 85 c0             	test   r8d,r8d
    2f78:	0f 84 8f fb ff ff    	je     0x2b0d
    2f7e:	49 bf a7 8b d6 f7 ff 	movabs r15,0x7ffff7d68ba7
    2f85:	7f 00 00 
    2f88:	49 8d bf 59 2a 12 00 	lea    rdi,[r15+0x122a59]
    2f8f:	49 bf ac 8b d6 f7 ff 	movabs r15,0x7ffff7d68bac
    2f96:	7f 00 00 
    2f99:	4d 8d 6d f8          	lea    r13,[r13-0x8]
    2f9d:	4d 89 7d 00          	mov    QWORD PTR [r13+0x0],r15
    2fa1:	e9 cd 26 00 00       	jmp    0x5673
    2fa6:	90                   	nop
    2fa7:	66 0f ef c0          	pxor   xmm0,xmm0
    2fab:	4c 8b 7d 98          	mov    r15,QWORD PTR [rbp-0x68]
    2faf:	41 0f 11 47 20       	movups XMMWORD PTR [r15+0x20],xmm0
    2fb4:	4c 89 7d 98          	mov    QWORD PTR [rbp-0x68],r15
    2fb8:	e9 25 fe ff ff       	jmp    0x2de2
    2fbd:	49 bf c7 8b d6 f7 ff 	movabs r15,0x7ffff7d68bc7
    2fc4:	7f 00 00 
    2fc7:	49 8d bf 27 e9 11 00 	lea    rdi,[r15+0x11e927]
    2fce:	49 bf cc 8b d6 f7 ff 	movabs r15,0x7ffff7d68bcc
    2fd5:	7f 00 00 
    2fd8:	4d 8d 6d f8          	lea    r13,[r13-0x8]
    2fdc:	4d 89 7d 00          	mov    QWORD PTR [r13+0x0],r15
    2fe0:	e9 8e 26 00 00       	jmp    0x5673
    2fe5:	4c 8b 7d b0          	mov    r15,QWORD PTR [rbp-0x50]
    2fe9:	45 8b 7d 1c          	mov    r15d,DWORD PTR [r13+0x1c]
    2fed:	45 87 3c 24          	xchg   DWORD PTR [r12],r15d
    2ff1:	41 83 ff 01          	cmp    r15d,0x1
    2ff5:	4c 89 7d b0          	mov    QWORD PTR [rbp-0x50],r15
    2ff9:	0f 8e a3 fb ff ff    	jle    0x2ba2
    2fff:	45 31 d2             	xor    r10d,r10d
    3002:	ba 01 00 00 00       	mov    edx,0x1
    3007:	be 81 00 00 00       	mov    esi,0x81
    300c:	4c 89 e7             	mov    rdi,r12
    300f:	b8 ca 00 00 00       	mov    eax,0xca
    3014:	49 be f4 8b d6 f7 ff 	movabs r14,0x7ffff7d68bf4
    301b:	7f 00 00 
    301e:	e9 dd 26 00 00       	jmp    0x5700
    3023:	e9 7a fb ff ff       	jmp    0x2ba2
    3028:	ba 01 00 00 00       	mov    edx,0x1
    302d:	4c 8b 7d a0          	mov    r15,QWORD PTR [rbp-0x60]
    3031:	44 89 f8             	mov    eax,r15d
    3034:	f0 41 0f b1 14 24    	lock cmpxchg DWORD PTR [r12],edx
    303a:	4c 89 7d a0          	mov    QWORD PTR [rbp-0x60],r15
    303e:	0f 84 e5 fe ff ff    	je     0x2f29
    3044:	4c 89 e7             	mov    rdi,r12
    3047:	49 bf 16 8c d6 f7 ff 	movabs r15,0x7ffff7d68c16
    304e:	7f 00 00 
    3051:	4d 8d 6d f8          	lea    r13,[r13-0x8]
    3055:	4d 89 7d 00          	mov    QWORD PTR [r13+0x0],r15
    3059:	e9 c3 24 00 00       	jmp    0x5521
    305e:	e9 c6 fe ff ff       	jmp    0x2f29
    3063:	49 8d 4c cc 10       	lea    rcx,[r12+rcx*8+0x10]
    3068:	eb 57                	jmp    0x30c1
    306a:	4c 8b 7d 98          	mov    r15,QWORD PTR [rbp-0x68]
    306e:	49 d1 e7             	shl    r15,1
    3071:	49 d1 ef             	shr    r15,1
    3074:	49 89 57 10          	mov    QWORD PTR [r15+0x10],rdx
    3078:	48 89 d0             	mov    rax,rdx
    307b:	4c 8b 75 88          	mov    r14,QWORD PTR [rbp-0x78]
    307f:	49 d1 e6             	shl    r14,1
    3082:	49 d1 ee             	shr    r14,1
    3085:	41 83 7e 18 00       	cmp    DWORD PTR [r14+0x18],0x0
    308a:	4c 89 7d 98          	mov    QWORD PTR [rbp-0x68],r15
    308e:	74 13                	je     0x30a3
    3090:	4c 8b 7d 98          	mov    r15,QWORD PTR [rbp-0x68]
    3094:	48 d1 e1             	shl    rcx,1
    3097:	48 d1 e9             	shr    rcx,1
    309a:	f0 4c 0f b1 39       	lock cmpxchg QWORD PTR [rcx],r15
    309f:	4c 89 7d 98          	mov    QWORD PTR [rbp-0x68],r15
    30a3:	4c 8b 7d 98          	mov    r15,QWORD PTR [rbp-0x68]
    30a7:	48 d1 e1             	shl    rcx,1
    30aa:	48 d1 e9             	shr    rcx,1
    30ad:	4c 0f b1 39          	cmpxchg QWORD PTR [rcx],r15
    30b1:	4c 89 7d 98          	mov    QWORD PTR [rbp-0x68],r15
    30b5:	48 39 c2             	cmp    rdx,rax
    30b8:	0f 84 bc fa ff ff    	je     0x2b7a
    30be:	48 89 c2             	mov    rdx,rax
    30c1:	4c 8b 7d 98          	mov    r15,QWORD PTR [rbp-0x68]
    30c5:	4c 39 fa             	cmp    rdx,r15
    30c8:	4c 89 7d 98          	mov    QWORD PTR [rbp-0x68],r15
    30cc:	75 9c                	jne    0x306a
    30ce:	49 bf 60 8c d6 f7 ff 	movabs r15,0x7ffff7d68c60
    30d5:	7f 00 00 
    30d8:	49 8d bf c8 29 12 00 	lea    rdi,[r15+0x1229c8]
    30df:	49 bf 65 8c d6 f7 ff 	movabs r15,0x7ffff7d68c65
    30e6:	7f 00 00 
    30e9:	4d 8d 6d f8          	lea    r13,[r13-0x8]
    30ed:	4d 89 7d 00          	mov    QWORD PTR [r13+0x0],r15
    30f1:	e9 7d 25 00 00       	jmp    0x5673
    30f6:	90                   	nop
    30f7:	41 8b 44 24 08       	mov    eax,DWORD PTR [r12+0x8]
    30fc:	85 c0                	test   eax,eax
    30fe:	0f 85 02 06 00 00    	jne    0x3706
    3104:	49 bf 7a 8c d6 f7 ff 	movabs r15,0x7ffff7d68c7a
    310b:	7f 00 00 
    310e:	49 8d 87 06 5f 15 00 	lea    rax,[r15+0x155f06]
    3115:	49 39 c4             	cmp    r12,rax
    3118:	0f 84 07 06 00 00    	je     0x3725
    311e:	4c 8b 7d b0          	mov    r15,QWORD PTR [rbp-0x50]
    3122:	4d 8b 7c 24 60       	mov    r15,QWORD PTR [r12+0x60]
    3127:	4c 8b 75 a8          	mov    r14,QWORD PTR [rbp-0x58]
    312b:	4d 89 fe             	mov    r14,r15
    312e:	49 81 e6 00 00 00 fc 	and    r14,0xfffffffffc000000
    3135:	49 d1 e6             	shl    r14,1
    3138:	49 d1 ee             	shr    r14,1
    313b:	4d 39 26             	cmp    QWORD PTR [r14],r12
    313e:	4c 89 7d b0          	mov    QWORD PTR [rbp-0x50],r15
    3142:	4c 89 75 a8          	mov    QWORD PTR [rbp-0x58],r14
    3146:	0f 85 02 0a 00 00    	jne    0x3b4e
    314c:	49 bf a1 8c d6 f7 ff 	movabs r15,0x7ffff7d68ca1
    3153:	7f 00 00 
    3156:	49 8b 87 bf 51 15 00 	mov    rax,QWORD PTR [r15+0x1551bf]
    315d:	49 bf a8 8c d6 f7 ff 	movabs r15,0x7ffff7d68ca8
    3164:	7f 00 00 
    3167:	49 8b 9f e0 55 15 00 	mov    rbx,QWORD PTR [r15+0x1555e0]
    316e:	48 d1 e0             	shl    rax,1
    3171:	48 d1 e8             	shr    rax,1
    3174:	48 8b 78 18          	mov    rdi,QWORD PTR [rax+0x18]
    3178:	4c 8b 7d a8          	mov    r15,QWORD PTR [rbp-0x58]
    317c:	49 8d 47 20          	lea    rax,[r15+0x20]
    3180:	49 89 5d 20          	mov    QWORD PTR [r13+0x20],rbx
    3184:	49 89 7d 28          	mov    QWORD PTR [r13+0x28],rdi
    3188:	4c 8b 75 b0          	mov    r14,QWORD PTR [rbp-0x50]
    318c:	49 39 c6             	cmp    r14,rax
    318f:	4c 89 7d a8          	mov    QWORD PTR [rbp-0x58],r15
    3193:	4c 89 75 b0          	mov    QWORD PTR [rbp-0x50],r14
    3197:	0f 85 f3 02 00 00    	jne    0x3490
    319d:	48 89 f8             	mov    rax,rdi
    31a0:	48 8d 7c 3b 20       	lea    rdi,[rbx+rdi*1+0x20]
    31a5:	48 83 e8 01          	sub    rax,0x1
    31a9:	49 89 7d 08          	mov    QWORD PTR [r13+0x8],rdi
    31ad:	49 89 45 10          	mov    QWORD PTR [r13+0x10],rax
    31b1:	e9 30 01 00 00       	jmp    0x32e6
    31b6:	48 d1 e2             	shl    rdx,1
    31b9:	48 d1 ea             	shr    rdx,1
    31bc:	48 8b 0a             	mov    rcx,QWORD PTR [rdx]
    31bf:	4c 8b 7d 98          	mov    r15,QWORD PTR [rbp-0x68]
    31c3:	4c 01 f9             	add    rcx,r15
    31c6:	48 8d 71 ff          	lea    rsi,[rcx-0x1]
    31ca:	49 89 cf             	mov    r15,rcx
    31cd:	48 89 cb             	mov    rbx,rcx
    31d0:	48 81 fe fe ff ff 03 	cmp    rsi,0x3fffffe
    31d7:	4c 89 7d 98          	mov    QWORD PTR [rbp-0x68],r15
    31db:	0f 87 1e 09 00 00    	ja     0x3aff
    31e1:	b9 00 00 00 04       	mov    ecx,0x4000000
    31e6:	48 29 c1             	sub    rcx,rax
    31e9:	48 89 c8             	mov    rax,rcx
    31ec:	4c 8b 7d 98          	mov    r15,QWORD PTR [rbp-0x68]
    31f0:	4c 01 f8             	add    rax,r15
    31f3:	49 3b 45 08          	cmp    rax,QWORD PTR [r13+0x8]
    31f7:	4c 89 7d 98          	mov    QWORD PTR [rbp-0x68],r15
    31fb:	0f 82 e9 04 00 00    	jb     0x36ea
    3201:	48 d1 e7             	shl    rdi,1
    3204:	48 d1 ef             	shr    rdi,1
    3207:	48 8b 47 10          	mov    rax,QWORD PTR [rdi+0x10]
    320b:	49 29 84 24 88 08 00 	sub    QWORD PTR [r12+0x888],rax
    3212:	00 
    3213:	90                   	nop
    3214:	48 8d 87 00 00 00 04 	lea    rax,[rdi+0x4000000]
    321b:	49 bf 30 8d d6 f7 ff 	movabs r15,0x7ffff7d68d30
    3222:	7f 00 00 
    3225:	49 39 87 40 81 15 00 	cmp    QWORD PTR [r15+0x158140],rax
    322c:	0f 84 7d 01 00 00    	je     0x33af
    3232:	be 00 00 00 04       	mov    esi,0x4000000
    3237:	4c 8b 7d b0          	mov    r15,QWORD PTR [rbp-0x50]
    323b:	4c 8b 75 a0          	mov    r14,QWORD PTR [rbp-0x60]
    323f:	4d 89 f7             	mov    r15,r14
    3242:	4c 89 7d b0          	mov    QWORD PTR [rbp-0x50],r15
    3246:	49 bf 43 8d d6 f7 ff 	movabs r15,0x7ffff7d68d43
    324d:	7f 00 00 
    3250:	4d 8d 6d f8          	lea    r13,[r13-0x8]
    3254:	4d 89 7d 00          	mov    QWORD PTR [r13+0x0],r15
    3258:	4c 89 75 a0          	mov    QWORD PTR [rbp-0x60],r14
    325c:	e9 ca 19 00 00       	jmp    0x4c2b
    3261:	4c 8b 7d a0          	mov    r15,QWORD PTR [rbp-0x60]
    3265:	49 d1 e7             	shl    r15,1
    3268:	49 d1 ef             	shr    r15,1
    326b:	41 f6 47 08 01       	test   BYTE PTR [r15+0x8],0x1
    3270:	4c 89 7d a0          	mov    QWORD PTR [rbp-0x60],r15
    3274:	0f 84 fd 00 00 00    	je     0x3377
    327a:	4c 8b 7d b0          	mov    r15,QWORD PTR [rbp-0x50]
    327e:	4c 8b 75 98          	mov    r14,QWORD PTR [rbp-0x68]
    3282:	4b 8d 0c 3e          	lea    rcx,[r14+r15*1]
    3286:	49 85 4d 10          	test   QWORD PTR [r13+0x10],rcx
    328a:	4c 89 7d b0          	mov    QWORD PTR [rbp-0x50],r15
    328e:	4c 89 75 98          	mov    QWORD PTR [rbp-0x68],r14
    3292:	0f 85 01 08 00 00    	jne    0x3a99
    3298:	4c 8b 7d a8          	mov    r15,QWORD PTR [rbp-0x58]
    329c:	49 d1 e7             	shl    r15,1
    329f:	49 d1 ef             	shr    r15,1
    32a2:	49 8b 47 10          	mov    rax,QWORD PTR [r15+0x10]
    32a6:	4c 01 f8             	add    rax,r15
    32a9:	48 39 c1             	cmp    rcx,rax
    32ac:	4c 89 7d a8          	mov    QWORD PTR [rbp-0x58],r15
    32b0:	0f 85 94 07 00 00    	jne    0x3a4a
    32b6:	48 83 cb 01          	or     rbx,0x1
    32ba:	4c 8b 7d a8          	mov    r15,QWORD PTR [rbp-0x58]
    32be:	49 8d 47 20          	lea    rax,[r15+0x20]
    32c2:	4c 8b 75 b0          	mov    r14,QWORD PTR [rbp-0x50]
    32c6:	4d 89 74 24 60       	mov    QWORD PTR [r12+0x60],r14
    32cb:	49 d1 e6             	shl    r14,1
    32ce:	49 d1 ee             	shr    r14,1
    32d1:	49 89 5e 08          	mov    QWORD PTR [r14+0x8],rbx
    32d5:	49 39 c6             	cmp    r14,rax
    32d8:	4c 89 7d a8          	mov    QWORD PTR [rbp-0x58],r15
    32dc:	4c 89 75 b0          	mov    QWORD PTR [rbp-0x50],r14
    32e0:	0f 85 b7 01 00 00    	jne    0x349d
    32e6:	4c 8b 7d a8          	mov    r15,QWORD PTR [rbp-0x58]
    32ea:	4c 89 ff             	mov    rdi,r15
    32ed:	49 d1 e7             	shl    r15,1
    32f0:	49 d1 ef             	shr    r15,1
    32f3:	4d 8b 7f 08          	mov    r15,QWORD PTR [r15+0x8]
    32f7:	49 8b 47 10          	mov    rax,QWORD PTR [r15+0x10]
    32fb:	48 8d 50 f0          	lea    rdx,[rax-0x10]
    32ff:	49 8d 34 17          	lea    rsi,[r15+rdx*1]
    3303:	83 e6 0f             	and    esi,0xf
    3306:	48 29 f2             	sub    rdx,rsi
    3309:	4c 01 fa             	add    rdx,r15
    330c:	48 d1 e2             	shl    rdx,1
    330f:	48 d1 ea             	shr    rdx,1
    3312:	48 83 7a 08 01       	cmp    QWORD PTR [rdx+0x8],0x1
    3317:	4c 89 7d a8          	mov    QWORD PTR [rbp-0x58],r15
    331b:	0f 85 da 06 00 00    	jne    0x39fb
    3321:	48 d1 e2             	shl    rdx,1
    3324:	48 d1 ea             	shr    rdx,1
    3327:	48 2b 12             	sub    rdx,QWORD PTR [rdx]
    332a:	4c 8b 42 08          	mov    r8,QWORD PTR [rdx+0x8]
    332e:	4c 8b 7d a0          	mov    r15,QWORD PTR [rbp-0x60]
    3332:	49 89 d7             	mov    r15,rdx
    3335:	4c 89 c1             	mov    rcx,r8
    3338:	48 83 e1 f8          	and    rcx,0xfffffffffffffff8
    333c:	48 01 ce             	add    rsi,rcx
    333f:	4c 8b 75 98          	mov    r14,QWORD PTR [rbp-0x68]
    3343:	4c 8d 76 10          	lea    r14,[rsi+0x10]
    3347:	48 83 c6 0f          	add    rsi,0xf
    334b:	48 83 fe 3e          	cmp    rsi,0x3e
    334f:	4c 89 7d a0          	mov    QWORD PTR [rbp-0x60],r15
    3353:	4c 89 75 98          	mov    QWORD PTR [rbp-0x68],r14
    3357:	0f 87 4f 06 00 00    	ja     0x39ac
    335d:	41 83 e0 01          	and    r8d,0x1
    3361:	0f 84 4f fe ff ff    	je     0x31b6
    3367:	4c 8b 7d 98          	mov    r15,QWORD PTR [rbp-0x68]
    336b:	4c 89 fb             	mov    rbx,r15
    336e:	4c 89 7d 98          	mov    QWORD PTR [rbp-0x68],r15
    3372:	e9 6a fe ff ff       	jmp    0x31e1
    3377:	4c 8b 7d b0          	mov    r15,QWORD PTR [rbp-0x50]
    337b:	4c 8b 75 a0          	mov    r14,QWORD PTR [rbp-0x60]
    337f:	49 d1 e6             	shl    r14,1
    3382:	49 d1 ee             	shr    r14,1
    3385:	4d 2b 3e             	sub    r15,QWORD PTR [r14]
    3388:	4c 89 ff             	mov    rdi,r15
    338b:	4c 89 7d b0          	mov    QWORD PTR [rbp-0x50],r15
    338f:	49 bf f4 8d d6 f7 ff 	movabs r15,0x7ffff7d68df4
    3396:	7f 00 00 
    3399:	4d 8d 6d f8          	lea    r13,[r13-0x8]
    339d:	4d 89 7d 00          	mov    QWORD PTR [r13+0x0],r15
    33a1:	4c 89 75 a0          	mov    QWORD PTR [rbp-0x60],r14
    33a5:	e9 65 e5 ff ff       	jmp    0x190f
    33aa:	e9 cb fe ff ff       	jmp    0x327a
    33af:	49 bf 0b 8e d6 f7 ff 	movabs r15,0x7ffff7d68e0b
    33b6:	7f 00 00 
    33b9:	49 c7 87 65 80 15 00 	mov    QWORD PTR [r15+0x158065],0x0
    33c0:	00 00 00 00 
    33c4:	e9 69 fe ff ff       	jmp    0x3232
    33c9:	4c 8b 7d a8          	mov    r15,QWORD PTR [rbp-0x58]
    33cd:	4c 01 fb             	add    rbx,r15
    33d0:	48 89 d8             	mov    rax,rbx
    33d3:	48 83 c8 01          	or     rax,0x1
    33d7:	4c 8b 75 98          	mov    r14,QWORD PTR [rbp-0x68]
    33db:	49 89 46 08          	mov    QWORD PTR [r14+0x8],rax
    33df:	4d 89 74 24 60       	mov    QWORD PTR [r12+0x60],r14
    33e4:	4c 89 7d a8          	mov    QWORD PTR [rbp-0x58],r15
    33e8:	4c 89 75 98          	mov    QWORD PTR [rbp-0x68],r14
    33ec:	e9 17 fa ff ff       	jmp    0x2e08
    33f1:	49 bf 37 8e d6 f7 ff 	movabs r15,0x7ffff7d68e37
    33f8:	7f 00 00 
    33fb:	49 8d bf 81 28 12 00 	lea    rdi,[r15+0x122881]
    3402:	49 bf 3c 8e d6 f7 ff 	movabs r15,0x7ffff7d68e3c
    3409:	7f 00 00 
    340c:	4d 8d 6d f8          	lea    r13,[r13-0x8]
    3410:	4d 89 7d 00          	mov    QWORD PTR [r13+0x0],r15
    3414:	e9 5a 22 00 00       	jmp    0x5673
    3419:	90                   	nop
    341a:	4c 8b 7d 98          	mov    r15,QWORD PTR [rbp-0x68]
    341e:	49 8d 7f 18          	lea    rdi,[r15+0x18]
    3422:	49 8d 4f 10          	lea    rcx,[r15+0x10]
    3426:	0f b6 c0             	movzx  eax,al
    3429:	48 be 01 01 01 01 01 	movabs rsi,0x101010101010101
    3430:	01 01 01 
    3433:	48 83 e7 f8          	and    rdi,0xfffffffffffffff8
    3437:	48 0f af c6          	imul   rax,rsi
    343b:	48 8d 53 f0          	lea    rdx,[rbx-0x10]
    343f:	48 29 f9             	sub    rcx,rdi
    3442:	89 d6                	mov    esi,edx
    3444:	01 d1                	add    ecx,edx
    3446:	c1 e9 03             	shr    ecx,0x3
    3449:	49 89 47 10          	mov    QWORD PTR [r15+0x10],rax
    344d:	49 89 44 37 08       	mov    QWORD PTR [r15+rsi*1+0x8],rax
    3452:	f3 48 ab             	rep stos QWORD PTR es:[rdi],rax
    3455:	4c 89 7d 98          	mov    QWORD PTR [rbp-0x68],r15
    3459:	e9 c8 f6 ff ff       	jmp    0x2b26
    345e:	4c 8b 7d a0          	mov    r15,QWORD PTR [rbp-0x60]
    3462:	4c 89 ff             	mov    rdi,r15
    3465:	4c 8b 75 a8          	mov    r14,QWORD PTR [rbp-0x58]
    3469:	4c 01 f3             	add    rbx,r14
    346c:	4c 89 7d a0          	mov    QWORD PTR [rbp-0x60],r15
    3470:	49 bf 8b 8e d6 f7 ff 	movabs r15,0x7ffff7d68e8b
    3477:	7f 00 00 
    347a:	4d 8d 6d f8          	lea    r13,[r13-0x8]
    347e:	4d 89 7d 00          	mov    QWORD PTR [r13+0x0],r15
    3482:	4c 89 75 a8          	mov    QWORD PTR [rbp-0x58],r14
    3486:	e9 84 e4 ff ff       	jmp    0x190f
    348b:	e9 0a f9 ff ff       	jmp    0x2d9a
    3490:	4c 8b 7d b0          	mov    r15,QWORD PTR [rbp-0x50]
    3494:	49 8b 5f 08          	mov    rbx,QWORD PTR [r15+0x8]
    3498:	90                   	nop
    3499:	4c 89 7d b0          	mov    QWORD PTR [rbp-0x50],r15
    349d:	48 83 e3 f8          	and    rbx,0xfffffffffffffff8
    34a1:	49 bf a3 8e d6 f7 ff 	movabs r15,0x7ffff7d68ea3
    34a8:	7f 00 00 
    34ab:	49 39 9f dd 53 15 00 	cmp    QWORD PTR [r15+0x1553dd],rbx
    34b2:	0f 87 5d f9 ff ff    	ja     0x2e15
    34b8:	48 89 d8             	mov    rax,rbx
    34bb:	48 83 e8 21          	sub    rax,0x21
    34bf:	0f 88 50 f9 ff ff    	js     0x2e15
    34c5:	49 8b 7d 20          	mov    rdi,QWORD PTR [r13+0x20]
    34c9:	48 39 c7             	cmp    rdi,rax
    34cc:	0f 83 43 f9 ff ff    	jae    0x2e15
    34d2:	48 29 f8             	sub    rax,rdi
    34d5:	4c 8b 7d 98          	mov    r15,QWORD PTR [rbp-0x68]
    34d9:	49 89 c7             	mov    r15,rax
    34dc:	49 8b 45 28          	mov    rax,QWORD PTR [r13+0x28]
    34e0:	48 f7 d8             	neg    rax
    34e3:	49 21 c7             	and    r15,rax
    34e6:	4c 89 7d 98          	mov    QWORD PTR [rbp-0x68],r15
    34ea:	0f 84 25 f9 ff ff    	je     0x2e15
    34f0:	4c 8b 7d a0          	mov    r15,QWORD PTR [rbp-0x60]
    34f4:	4c 8b 75 a8          	mov    r14,QWORD PTR [rbp-0x58]
    34f8:	49 d1 e6             	shl    r14,1
    34fb:	49 d1 ee             	shr    r14,1
    34fe:	4d 8b 7e 10          	mov    r15,QWORD PTR [r14+0x10]
    3502:	4c 89 75 a8          	mov    QWORD PTR [rbp-0x58],r14
    3506:	4c 8b 75 98          	mov    r14,QWORD PTR [rbp-0x68]
    350a:	4d 29 f7             	sub    r15,r14
    350d:	49 83 ff 1f          	cmp    r15,0x1f
    3511:	4c 89 7d a0          	mov    QWORD PTR [rbp-0x60],r15
    3515:	4c 89 75 98          	mov    QWORD PTR [rbp-0x68],r14
    3519:	0f 8e f6 f8 ff ff    	jle    0x2e15
    351f:	49 bf f2 8e d6 f7 ff 	movabs r15,0x7ffff7d68ef2
    3526:	7f 00 00 
    3529:	41 8b 97 6e 53 15 00 	mov    edx,DWORD PTR [r15+0x15536e]
    3530:	85 d2                	test   edx,edx
    3532:	0f 88 8e 03 00 00    	js     0x38c6
    3538:	0f 95 c0             	setne  al
    353b:	4c 8b 7d a8          	mov    r15,QWORD PTR [rbp-0x58]
    353f:	4c 8b 75 a0          	mov    r14,QWORD PTR [rbp-0x60]
    3543:	4b 8d 3c 3e          	lea    rdi,[r14+r15*1]
    3547:	84 c0                	test   al,al
    3549:	4c 89 7d a8          	mov    QWORD PTR [rbp-0x58],r15
    354d:	4c 89 75 a0          	mov    QWORD PTR [rbp-0x60],r14
    3551:	0f 85 1c 03 00 00    	jne    0x3873
    3557:	ba 04 00 00 00       	mov    edx,0x4
    355c:	4c 8b 7d 98          	mov    r15,QWORD PTR [rbp-0x68]
    3560:	4c 89 fe             	mov    rsi,r15
    3563:	49 be 16 8f d6 f7 ff 	movabs r14,0x7ffff7d68f16
    356a:	7f 00 00 
    356d:	4d 8d 6d f8          	lea    r13,[r13-0x8]
    3571:	4d 89 75 00          	mov    QWORD PTR [r13+0x0],r14
    3575:	4c 89 7d 98          	mov    QWORD PTR [rbp-0x68],r15
    3579:	e9 6b 21 00 00       	jmp    0x56e9
    357e:	4c 8b 7d a0          	mov    r15,QWORD PTR [rbp-0x60]
    3582:	4c 8b 75 a8          	mov    r14,QWORD PTR [rbp-0x58]
    3586:	49 d1 e6             	shl    r14,1
    3589:	49 d1 ee             	shr    r14,1
    358c:	4d 89 7e 10          	mov    QWORD PTR [r14+0x10],r15
    3590:	90                   	nop
    3591:	4c 89 7d a0          	mov    QWORD PTR [rbp-0x60],r15
    3595:	4c 8b 7d 98          	mov    r15,QWORD PTR [rbp-0x68]
    3599:	4c 29 fb             	sub    rbx,r15
    359c:	4d 29 bc 24 88 08 00 	sub    QWORD PTR [r12+0x888],r15
    35a3:	00 
    35a4:	48 83 cb 01          	or     rbx,0x1
    35a8:	4c 89 7d 98          	mov    QWORD PTR [rbp-0x68],r15
    35ac:	4c 8b 7d b0          	mov    r15,QWORD PTR [rbp-0x50]
    35b0:	49 89 5f 08          	mov    QWORD PTR [r15+0x8],rbx
    35b4:	4c 89 7d b0          	mov    QWORD PTR [rbp-0x50],r15
    35b8:	4c 89 75 a8          	mov    QWORD PTR [rbp-0x58],r14
    35bc:	e9 54 f8 ff ff       	jmp    0x2e15
    35c1:	90                   	nop
    35c2:	4c 8b 7d 88          	mov    r15,QWORD PTR [rbp-0x78]
    35c6:	49 8b 14 0f          	mov    rdx,QWORD PTR [r15+rcx*1]
    35ca:	48 d1 e2             	shl    rdx,1
    35cd:	48 d1 ea             	shr    rdx,1
    35d0:	48 8b 8c c2 80 00 00 	mov    rcx,QWORD PTR [rdx+rax*8+0x80]
    35d7:	00 
    35d8:	48 85 c9             	test   rcx,rcx
    35db:	75 17                	jne    0x35f4
    35dd:	e9 b2 f4 ff ff       	jmp    0x2a94
    35e2:	48 d1 e1             	shl    rcx,1
    35e5:	48 d1 e9             	shr    rcx,1
    35e8:	48 8b 09             	mov    rcx,QWORD PTR [rcx]
    35eb:	48 85 c9             	test   rcx,rcx
    35ee:	0f 84 a0 f4 ff ff    	je     0x2a94
    35f4:	48 39 ce             	cmp    rsi,rcx
    35f7:	75 e9                	jne    0x35e2
    35f9:	49 bf 68 8f d6 f7 ff 	movabs r15,0x7ffff7d68f68
    3600:	7f 00 00 
    3603:	49 8d bf 68 26 12 00 	lea    rdi,[r15+0x122668]
    360a:	49 bf 6d 8f d6 f7 ff 	movabs r15,0x7ffff7d68f6d
    3611:	7f 00 00 
    3614:	4d 8d 6d f8          	lea    r13,[r13-0x8]
    3618:	4d 89 7d 00          	mov    QWORD PTR [r13+0x0],r15
    361c:	e9 52 20 00 00       	jmp    0x5673
    3621:	90                   	nop
    3622:	49 bf 77 8f d6 f7 ff 	movabs r15,0x7ffff7d68f77
    3629:	7f 00 00 
    362c:	49 8d bf d9 26 12 00 	lea    rdi,[r15+0x1226d9]
    3633:	49 bf 7c 8f d6 f7 ff 	movabs r15,0x7ffff7d68f7c
    363a:	7f 00 00 
    363d:	4d 8d 6d f8          	lea    r13,[r13-0x8]
    3641:	4d 89 7d 00          	mov    QWORD PTR [r13+0x0],r15
    3645:	e9 29 20 00 00       	jmp    0x5673
    364a:	90                   	nop
    364b:	48 d1 e0             	shl    rax,1
    364e:	48 d1 e8             	shr    rax,1
    3651:	48 8b 50 08          	mov    rdx,QWORD PTR [rax+0x8]
    3655:	48 83 e2 f8          	and    rdx,0xfffffffffffffff8
    3659:	48 01 d0             	add    rax,rdx
    365c:	4c 8b 7d a0          	mov    r15,QWORD PTR [rbp-0x60]
    3660:	49 39 c7             	cmp    r15,rax
    3663:	4c 89 7d a0          	mov    QWORD PTR [rbp-0x60],r15
    3667:	0f 82 24 f6 ff ff    	jb     0x2c91
    366d:	49 bf 9b 8f d6 f7 ff 	movabs r15,0x7ffff7d68f9b
    3674:	7f 00 00 
    3677:	49 8d bf d5 26 12 00 	lea    rdi,[r15+0x1226d5]
    367e:	49 bf a0 8f d6 f7 ff 	movabs r15,0x7ffff7d68fa0
    3685:	7f 00 00 
    3688:	4d 8d 6d f8          	lea    r13,[r13-0x8]
    368c:	4d 89 7d 00          	mov    QWORD PTR [r13+0x0],r15
    3690:	e9 de 1f 00 00       	jmp    0x5673
    3695:	49 bf a7 8f d6 f7 ff 	movabs r15,0x7ffff7d68fa7
    369c:	7f 00 00 
    369f:	49 8d bf e9 26 12 00 	lea    rdi,[r15+0x1226e9]
    36a6:	49 bf ac 8f d6 f7 ff 	movabs r15,0x7ffff7d68fac
    36ad:	7f 00 00 
    36b0:	4d 8d 6d f8          	lea    r13,[r13-0x8]
    36b4:	4d 89 7d 00          	mov    QWORD PTR [r13+0x0],r15
    36b8:	e9 b6 1f 00 00       	jmp    0x5673
    36bd:	90                   	nop
    36be:	48 8d 53 f0          	lea    rdx,[rbx-0x10]
    36c2:	4c 8b 7d 98          	mov    r15,QWORD PTR [rbp-0x68]
    36c6:	49 8d 7f 10          	lea    rdi,[r15+0x10]
    36ca:	49 be be 8f d6 f7 ff 	movabs r14,0x7ffff7d68fbe
    36d1:	7f 00 00 
    36d4:	4d 8d 6d f8          	lea    r13,[r13-0x8]
    36d8:	4d 89 75 00          	mov    QWORD PTR [r13+0x0],r14
    36dc:	4c 89 7d 98          	mov    QWORD PTR [rbp-0x68],r15
    36e0:	e9 bf 1f 00 00       	jmp    0x56a4
    36e5:	e9 09 f6 ff ff       	jmp    0x2cf3
    36ea:	4c 8b 7d b0          	mov    r15,QWORD PTR [rbp-0x50]
    36ee:	49 8b 5f 08          	mov    rbx,QWORD PTR [r15+0x8]
    36f2:	4c 8b 75 a8          	mov    r14,QWORD PTR [rbp-0x58]
    36f6:	49 89 fe             	mov    r14,rdi
    36f9:	4c 89 7d b0          	mov    QWORD PTR [rbp-0x50],r15
    36fd:	4c 89 75 a8          	mov    QWORD PTR [rbp-0x58],r14
    3701:	e9 97 fd ff ff       	jmp    0x349d
    3706:	4c 89 e7             	mov    rdi,r12
    3709:	49 bf e0 8f d6 f7 ff 	movabs r15,0x7ffff7d68fe0
    3710:	7f 00 00 
    3713:	4d 8d 6d f8          	lea    r13,[r13-0x8]
    3717:	4d 89 7d 00          	mov    QWORD PTR [r13+0x0],r15
    371b:	e9 e3 1c 00 00       	jmp    0x5403
    3720:	e9 df f9 ff ff       	jmp    0x3104
    3725:	49 8b 44 24 60       	mov    rax,QWORD PTR [r12+0x60]
    372a:	48 d1 e0             	shl    rax,1
    372d:	48 d1 e8             	shr    rax,1
    3730:	48 8b 40 08          	mov    rax,QWORD PTR [rax+0x8]
    3734:	48 83 e0 f8          	and    rax,0xfffffffffffffff8
    3738:	49 bf fb 8f d6 f7 ff 	movabs r15,0x7ffff7d68ffb
    373f:	7f 00 00 
    3742:	49 3b 87 85 52 15 00 	cmp    rax,QWORD PTR [r15+0x155285]
    3749:	0f 82 c6 f6 ff ff    	jb     0x2e15
    374f:	49 bf 08 90 d6 f7 ff 	movabs r15,0x7ffff7d69008
    3756:	7f 00 00 
    3759:	49 8b bf 80 52 15 00 	mov    rdi,QWORD PTR [r15+0x155280]
    3760:	49 bf 0d 90 d6 f7 ff 	movabs r15,0x7ffff7d6900d
    3767:	7f 00 00 
    376a:	4d 8d 6d f8          	lea    r13,[r13-0x8]
    376e:	4d 89 7d 00          	mov    QWORD PTR [r13+0x0],r15
    3772:	e9 5b 1f 00 00       	jmp    0x56d2
    3777:	e9 99 f6 ff ff       	jmp    0x2e15
    377c:	4c 8b 7d b0          	mov    r15,QWORD PTR [rbp-0x50]
    3780:	4c 8b 75 88          	mov    r14,QWORD PTR [rbp-0x78]
    3784:	49 d1 e6             	shl    r14,1
    3787:	49 d1 ee             	shr    r14,1
    378a:	45 8b 7e 18          	mov    r15d,DWORD PTR [r14+0x18]
    378e:	45 89 7d 1c          	mov    DWORD PTR [r13+0x1c],r15d
    3792:	44 89 f8             	mov    eax,r15d
    3795:	45 85 ff             	test   r15d,r15d
    3798:	4c 89 7d b0          	mov    QWORD PTR [rbp-0x50],r15
    379c:	0f 85 97 00 00 00    	jne    0x3839
    37a2:	ba 01 00 00 00       	mov    edx,0x1
    37a7:	41 0f b1 14 24       	cmpxchg DWORD PTR [r12],edx
    37ac:	e9 b2 f4 ff ff       	jmp    0x2c63
    37b1:	49 bf 3d 90 d6 f7 ff 	movabs r15,0x7ffff7d6903d
    37b8:	7f 00 00 
    37bb:	49 8d bf db 26 12 00 	lea    rdi,[r15+0x1226db]
    37c2:	49 bf 42 90 d6 f7 ff 	movabs r15,0x7ffff7d69042
    37c9:	7f 00 00 
    37cc:	4d 8d 6d f8          	lea    r13,[r13-0x8]
    37d0:	4d 89 7d 00          	mov    QWORD PTR [r13+0x0],r15
    37d4:	e9 9a 1e 00 00       	jmp    0x5673
    37d9:	49 bf 49 90 d6 f7 ff 	movabs r15,0x7ffff7d69049
    37e0:	7f 00 00 
    37e3:	49 8d bf 97 26 12 00 	lea    rdi,[r15+0x122697]
    37ea:	49 bf 4e 90 d6 f7 ff 	movabs r15,0x7ffff7d6904e
    37f1:	7f 00 00 
    37f4:	4d 8d 6d f8          	lea    r13,[r13-0x8]
    37f8:	4d 89 7d 00          	mov    QWORD PTR [r13+0x0],r15
    37fc:	e9 72 1e 00 00       	jmp    0x5673
    3801:	31 c0                	xor    eax,eax
    3803:	41 87 04 24          	xchg   DWORD PTR [r12],eax
    3807:	83 f8 01             	cmp    eax,0x1
    380a:	0f 8e 65 f7 ff ff    	jle    0x2f75
    3810:	45 31 d2             	xor    r10d,r10d
    3813:	ba 01 00 00 00       	mov    edx,0x1
    3818:	be 81 00 00 00       	mov    esi,0x81
    381d:	4c 89 e7             	mov    rdi,r12
    3820:	b8 ca 00 00 00       	mov    eax,0xca
    3825:	49 be 71 90 d6 f7 ff 	movabs r14,0x7ffff7d69071
    382c:	7f 00 00 
    382f:	e9 cc 1e 00 00       	jmp    0x5700
    3834:	e9 3c f7 ff ff       	jmp    0x2f75
    3839:	31 c0                	xor    eax,eax
    383b:	ba 01 00 00 00       	mov    edx,0x1
    3840:	f0 41 0f b1 14 24    	lock cmpxchg DWORD PTR [r12],edx
    3846:	41 c7 45 1c 00 00 00 	mov    DWORD PTR [r13+0x1c],0x0
    384d:	00 
    384e:	0f 84 0f f4 ff ff    	je     0x2c63
    3854:	4c 89 e7             	mov    rdi,r12
    3857:	49 bf 9a 90 d6 f7 ff 	movabs r15,0x7ffff7d6909a
    385e:	7f 00 00 
    3861:	4d 8d 6d f8          	lea    r13,[r13-0x8]
    3865:	4d 89 7d 00          	mov    QWORD PTR [r13+0x0],r15
    3869:	e9 b3 1c 00 00       	jmp    0x5521
    386e:	e9 f0 f3 ff ff       	jmp    0x2c63
    3873:	45 31 c9             	xor    r9d,r9d
    3876:	41 83 c8 ff          	or     r8d,0xffffffff
    387a:	31 d2                	xor    edx,edx
    387c:	b9 32 00 00 00       	mov    ecx,0x32
    3881:	4c 8b 7d 98          	mov    r15,QWORD PTR [rbp-0x68]
    3885:	4c 89 fe             	mov    rsi,r15
    3888:	49 be b5 90 d6 f7 ff 	movabs r14,0x7ffff7d690b5
    388f:	7f 00 00 
    3892:	4d 8d 6d f8          	lea    r13,[r13-0x8]
    3896:	4d 89 75 00          	mov    QWORD PTR [r13+0x0],r14
    389a:	4c 89 7d 98          	mov    QWORD PTR [rbp-0x68],r15
    389e:	e9 1a 1d 00 00       	jmp    0x55bd
    38a3:	48 83 c0 01          	add    rax,0x1
    38a7:	0f 84 68 f5 ff ff    	je     0x2e15
    38ad:	4c 8b 7d a0          	mov    r15,QWORD PTR [rbp-0x60]
    38b1:	4c 8b 75 a8          	mov    r14,QWORD PTR [rbp-0x58]
    38b5:	4d 89 7e 18          	mov    QWORD PTR [r14+0x18],r15
    38b9:	4c 89 7d a0          	mov    QWORD PTR [rbp-0x60],r15
    38bd:	4c 89 75 a8          	mov    QWORD PTR [rbp-0x58],r14
    38c1:	e9 b8 fc ff ff       	jmp    0x357e
    38c6:	49 bf cf 90 d6 f7 ff 	movabs r15,0x7ffff7d690cf
    38cd:	7f 00 00 
    38d0:	49 8b 87 51 4d 15 00 	mov    rax,QWORD PTR [r15+0x154d51]
    38d7:	48 d1 e0             	shl    rax,1
    38da:	48 d1 e8             	shr    rax,1
    38dd:	8b 08                	mov    ecx,DWORD PTR [rax]
    38df:	85 c9                	test   ecx,ecx
    38e1:	49 bf d9 90 d6 f7 ff 	movabs r15,0x7ffff7d690d9
    38e8:	7f 00 00 
    38eb:	41 89 8f 87 51 15 00 	mov    DWORD PTR [r15+0x155187],ecx
    38f2:	41 89 4d 10          	mov    DWORD PTR [r13+0x10],ecx
    38f6:	75 35                	jne    0x392d
    38f8:	49 bf e6 90 d6 f7 ff 	movabs r15,0x7ffff7d690e6
    38ff:	7f 00 00 
    3902:	49 8d bf 62 27 12 00 	lea    rdi,[r15+0x122762]
    3909:	be 00 00 08 00       	mov    esi,0x80000
    390e:	31 c0                	xor    eax,eax
    3910:	49 bf f2 90 d6 f7 ff 	movabs r15,0x7ffff7d690f2
    3917:	7f 00 00 
    391a:	4d 8d 6d f8          	lea    r13,[r13-0x8]
    391e:	4d 89 7d 00          	mov    QWORD PTR [r13+0x0],r15
    3922:	e9 48 1c 00 00       	jmp    0x556f
    3927:	89 c7                	mov    edi,eax
    3929:	85 c0                	test   eax,eax
    392b:	79 1a                	jns    0x3947
    392d:	49 bf ff 90 d6 f7 ff 	movabs r15,0x7ffff7d690ff
    3934:	7f 00 00 
    3937:	41 83 bf 61 51 15 00 	cmp    DWORD PTR [r15+0x155161],0x0
    393e:	00 
    393f:	0f 95 c0             	setne  al
    3942:	e9 f4 fb ff ff       	jmp    0x353b
    3947:	49 8d 75 37          	lea    rsi,[r13+0x37]
    394b:	ba 01 00 00 00       	mov    edx,0x1
    3950:	41 89 45 08          	mov    DWORD PTR [r13+0x8],eax
    3954:	49 bf 1a 91 d6 f7 ff 	movabs r15,0x7ffff7d6911a
    395b:	7f 00 00 
    395e:	4d 8d 6d f8          	lea    r13,[r13-0x8]
    3962:	4d 89 7d 00          	mov    QWORD PTR [r13+0x0],r15
    3966:	e9 b2 1a 00 00       	jmp    0x541d
    396b:	41 8b 7d 08          	mov    edi,DWORD PTR [r13+0x8]
    396f:	41 8b 4d 10          	mov    ecx,DWORD PTR [r13+0x10]
    3973:	48 85 c0             	test   rax,rax
    3976:	7e 0a                	jle    0x3982
    3978:	31 c9                	xor    ecx,ecx
    397a:	41 80 7d 37 32       	cmp    BYTE PTR [r13+0x37],0x32
    397f:	0f 94 c1             	sete   cl
    3982:	49 bf 37 91 d6 f7 ff 	movabs r15,0x7ffff7d69137
    3989:	7f 00 00 
    398c:	41 89 8f 29 51 15 00 	mov    DWORD PTR [r15+0x155129],ecx
    3993:	49 bf 3c 91 d6 f7 ff 	movabs r15,0x7ffff7d6913c
    399a:	7f 00 00 
    399d:	4d 8d 6d f8          	lea    r13,[r13-0x8]
    39a1:	4d 89 7d 00          	mov    QWORD PTR [r13+0x0],r15
    39a5:	e9 2d 1c 00 00       	jmp    0x55d7
    39aa:	eb 81                	jmp    0x392d
    39ac:	49 bf 45 91 d6 f7 ff 	movabs r15,0x7ffff7d69145
    39b3:	7f 00 00 
    39b6:	49 8d 8f cb 2e 12 00 	lea    rcx,[r15+0x122ecb]
    39bd:	ba 68 02 00 00       	mov    edx,0x268
    39c2:	49 bf 51 91 d6 f7 ff 	movabs r15,0x7ffff7d69151
    39c9:	7f 00 00 
    39cc:	49 8d b7 d6 e2 11 00 	lea    rsi,[r15+0x11e2d6]
    39d3:	49 bf 58 91 d6 f7 ff 	movabs r15,0x7ffff7d69158
    39da:	7f 00 00 
    39dd:	49 8d bf 18 26 12 00 	lea    rdi,[r15+0x122618]
    39e4:	49 bf 5d 91 d6 f7 ff 	movabs r15,0x7ffff7d6915d
    39eb:	7f 00 00 
    39ee:	4d 8d 6d f8          	lea    r13,[r13-0x8]
    39f2:	4d 89 7d 00          	mov    QWORD PTR [r13+0x0],r15
    39f6:	e9 ee 19 00 00       	jmp    0x53e9
    39fb:	49 bf 64 91 d6 f7 ff 	movabs r15,0x7ffff7d69164
    3a02:	7f 00 00 
    3a05:	49 8d 8f ac 2e 12 00 	lea    rcx,[r15+0x122eac]
    3a0c:	ba 65 02 00 00       	mov    edx,0x265
    3a11:	49 bf 70 91 d6 f7 ff 	movabs r15,0x7ffff7d69170
    3a18:	7f 00 00 
    3a1b:	49 8d b7 b7 e2 11 00 	lea    rsi,[r15+0x11e2b7]
    3a22:	49 bf 77 91 d6 f7 ff 	movabs r15,0x7ffff7d69177
    3a29:	7f 00 00 
    3a2c:	49 8d bf c9 25 12 00 	lea    rdi,[r15+0x1225c9]
    3a33:	49 bf 7c 91 d6 f7 ff 	movabs r15,0x7ffff7d6917c
    3a3a:	7f 00 00 
    3a3d:	4d 8d 6d f8          	lea    r13,[r13-0x8]
    3a41:	4d 89 7d 00          	mov    QWORD PTR [r13+0x0],r15
    3a45:	e9 9f 19 00 00       	jmp    0x53e9
    3a4a:	49 bf 83 91 d6 f7 ff 	movabs r15,0x7ffff7d69183
    3a51:	7f 00 00 
    3a54:	49 8d 8f 8d 2e 12 00 	lea    rcx,[r15+0x122e8d]
    3a5b:	ba 78 02 00 00       	mov    edx,0x278
    3a60:	49 bf 8f 91 d6 f7 ff 	movabs r15,0x7ffff7d6918f
    3a67:	7f 00 00 
    3a6a:	49 8d b7 98 e2 11 00 	lea    rsi,[r15+0x11e298]
    3a71:	49 bf 96 91 d6 f7 ff 	movabs r15,0x7ffff7d69196
    3a78:	7f 00 00 
    3a7b:	49 8d bf 7a 26 12 00 	lea    rdi,[r15+0x12267a]
    3a82:	49 bf 9b 91 d6 f7 ff 	movabs r15,0x7ffff7d6919b
    3a89:	7f 00 00 
    3a8c:	4d 8d 6d f8          	lea    r13,[r13-0x8]
    3a90:	4d 89 7d 00          	mov    QWORD PTR [r13+0x0],r15
    3a94:	e9 50 19 00 00       	jmp    0x53e9
    3a99:	49 bf a2 91 d6 f7 ff 	movabs r15,0x7ffff7d691a2
    3aa0:	7f 00 00 
    3aa3:	49 8d 8f 6e 2e 12 00 	lea    rcx,[r15+0x122e6e]
    3aaa:	ba 77 02 00 00       	mov    edx,0x277
    3aaf:	49 bf ae 91 d6 f7 ff 	movabs r15,0x7ffff7d691ae
    3ab6:	7f 00 00 
    3ab9:	49 8d b7 79 e2 11 00 	lea    rsi,[r15+0x11e279]
    3ac0:	49 bf b5 91 d6 f7 ff 	movabs r15,0x7ffff7d691b5
    3ac7:	7f 00 00 
    3aca:	49 8d bf 1b 26 12 00 	lea    rdi,[r15+0x12261b]
    3ad1:	49 bf ba 91 d6 f7 ff 	movabs r15,0x7ffff7d691ba
    3ad8:	7f 00 00 
    3adb:	4d 8d 6d f8          	lea    r13,[r13-0x8]
    3adf:	4d 89 7d 00          	mov    QWORD PTR [r13+0x0],r15
    3ae3:	e9 01 19 00 00       	jmp    0x53e9
    3ae8:	49 bf bf 91 d6 f7 ff 	movabs r15,0x7ffff7d691bf
    3aef:	7f 00 00 
    3af2:	4d 8d 6d f8          	lea    r13,[r13-0x8]
    3af6:	4d 89 7d 00          	mov    QWORD PTR [r13+0x0],r15
    3afa:	e9 bc 1b 00 00       	jmp    0x56bb
    3aff:	49 bf c6 91 d6 f7 ff 	movabs r15,0x7ffff7d691c6
    3b06:	7f 00 00 
    3b09:	49 8d 8f 4a 2e 12 00 	lea    rcx,[r15+0x122e4a]
    3b10:	ba 6b 02 00 00       	mov    edx,0x26b
    3b15:	49 bf d2 91 d6 f7 ff 	movabs r15,0x7ffff7d691d2
    3b1c:	7f 00 00 
    3b1f:	49 8d b7 55 e2 11 00 	lea    rsi,[r15+0x11e255]
    3b26:	49 bf d9 91 d6 f7 ff 	movabs r15,0x7ffff7d691d9
    3b2d:	7f 00 00 
    3b30:	49 8d bf c7 25 12 00 	lea    rdi,[r15+0x1225c7]
    3b37:	49 bf de 91 d6 f7 ff 	movabs r15,0x7ffff7d691de
    3b3e:	7f 00 00 
    3b41:	4d 8d 6d f8          	lea    r13,[r13-0x8]
    3b45:	4d 89 7d 00          	mov    QWORD PTR [r13+0x0],r15
    3b49:	e9 9b 18 00 00       	jmp    0x53e9
    3b4e:	49 bf e5 91 d6 f7 ff 	movabs r15,0x7ffff7d691e5
    3b55:	7f 00 00 
    3b58:	49 8d 8f 3b 2e 12 00 	lea    rcx,[r15+0x122e3b]
    3b5f:	ba 3d 11 00 00       	mov    edx,0x113d
    3b64:	49 bf f1 91 d6 f7 ff 	movabs r15,0x7ffff7d691f1
    3b6b:	7f 00 00 
    3b6e:	49 8d b7 e5 e1 11 00 	lea    rsi,[r15+0x11e1e5]
    3b75:	49 bf f8 91 d6 f7 ff 	movabs r15,0x7ffff7d691f8
    3b7c:	7f 00 00 
    3b7f:	49 8d bf 13 e3 11 00 	lea    rdi,[r15+0x11e313]
    3b86:	49 bf fd 91 d6 f7 ff 	movabs r15,0x7ffff7d691fd
    3b8d:	7f 00 00 
    3b90:	4d 8d 6d f8          	lea    r13,[r13-0x8]
    3b94:	4d 89 7d 00          	mov    QWORD PTR [r13+0x0],r15
    3b98:	e9 4c 18 00 00       	jmp    0x53e9
    3b9d:	90                   	nop
    3b9e:	4d 8d 6d f8          	lea    r13,[r13-0x8]
    3ba2:	4c 8b 7d b0          	mov    r15,QWORD PTR [rbp-0x50]
    3ba6:	4d 89 7d 00          	mov    QWORD PTR [r13+0x0],r15
    3baa:	4d 8d 6d f8          	lea    r13,[r13-0x8]
    3bae:	4c 8b 75 a8          	mov    r14,QWORD PTR [rbp-0x58]
    3bb2:	4d 89 75 00          	mov    QWORD PTR [r13+0x0],r14
    3bb6:	4d 8d 6d f8          	lea    r13,[r13-0x8]
    3bba:	4c 89 7d b0          	mov    QWORD PTR [rbp-0x50],r15
    3bbe:	4c 8b 7d a0          	mov    r15,QWORD PTR [rbp-0x60]
    3bc2:	4d 89 7d 00          	mov    QWORD PTR [r13+0x0],r15
    3bc6:	4d 8d 6d f8          	lea    r13,[r13-0x8]
    3bca:	4c 89 7d a0          	mov    QWORD PTR [rbp-0x60],r15
    3bce:	4c 8b 7d 98          	mov    r15,QWORD PTR [rbp-0x68]
    3bd2:	4d 89 7d 00          	mov    QWORD PTR [r13+0x0],r15
    3bd6:	4d 8d 6d f8          	lea    r13,[r13-0x8]
    3bda:	4d 89 65 00          	mov    QWORD PTR [r13+0x0],r12
    3bde:	49 89 fc             	mov    r12,rdi
    3be1:	4d 8d 6d f8          	lea    r13,[r13-0x8]
    3be5:	49 89 5d 00          	mov    QWORD PTR [r13+0x0],rbx
    3be9:	49 83 ed 48          	sub    r13,0x48
    3bed:	4c 89 7d 98          	mov    QWORD PTR [rbp-0x68],r15
    3bf1:	49 bf 18 92 d6 f7 ff 	movabs r15,0x7ffff7d69218
    3bf8:	7f 00 00 
    3bfb:	49 8b 87 48 4c 15 00 	mov    rax,QWORD PTR [r15+0x154c48]
    3c02:	4c 8b 7d a0          	mov    r15,QWORD PTR [rbp-0x60]
    3c06:	48 d1 e0             	shl    rax,1
    3c09:	48 d1 e8             	shr    rax,1
    3c0c:	4c 8b 78 18          	mov    r15,QWORD PTR [rax+0x18]
    3c10:	48 85 f6             	test   rsi,rsi
    3c13:	4c 89 7d a0          	mov    QWORD PTR [rbp-0x60],r15
    3c17:	4c 89 75 a8          	mov    QWORD PTR [rbp-0x58],r14
    3c1b:	0f 84 cf 03 00 00    	je     0x3ff0
    3c21:	49 bf 2c 92 d6 f7 ff 	movabs r15,0x7ffff7d6922c
    3c28:	7f 00 00 
    3c2b:	49 39 bf 64 50 15 00 	cmp    QWORD PTR [r15+0x155064],rdi
    3c32:	48 89 f3             	mov    rbx,rsi
    3c35:	0f 86 60 02 00 00    	jbe    0x3e9b
    3c3b:	41 c6 45 18 00       	mov    BYTE PTR [r13+0x18],0x0
    3c40:	48 8d 43 60          	lea    rax,[rbx+0x60]
    3c44:	4c 8b 7d a0          	mov    r15,QWORD PTR [rbp-0x60]
    3c48:	4d 89 fb             	mov    r11,r15
    3c4b:	49 f7 db             	neg    r11
    3c4e:	49 89 45 08          	mov    QWORD PTR [r13+0x8],rax
    3c52:	4b 8d 44 27 07       	lea    rax,[r15+r12*1+0x7]
    3c57:	4c 21 d8             	and    rax,r11
    3c5a:	4d 89 5d 10          	mov    QWORD PTR [r13+0x10],r11
    3c5e:	49 89 45 20          	mov    QWORD PTR [r13+0x20],rax
    3c62:	4c 89 7d a0          	mov    QWORD PTR [rbp-0x60],r15
    3c66:	4c 8b 7d a8          	mov    r15,QWORD PTR [rbp-0x58]
    3c6a:	48 d1 e3             	shl    rbx,1
    3c6d:	48 d1 eb             	shr    rbx,1
    3c70:	4c 8b 7b 60          	mov    r15,QWORD PTR [rbx+0x60]
    3c74:	49 d1 e7             	shl    r15,1
    3c77:	49 d1 ef             	shr    r15,1
    3c7a:	49 8b 47 08          	mov    rax,QWORD PTR [r15+0x8]
    3c7e:	4c 8b 75 98          	mov    r14,QWORD PTR [rbp-0x68]
    3c82:	49 89 c6             	mov    r14,rax
    3c85:	49 83 e6 f8          	and    r14,0xfffffffffffffff8
    3c89:	4f 8d 14 3e          	lea    r10,[r14+r15*1]
    3c8d:	4d 3b 7d 08          	cmp    r15,QWORD PTR [r13+0x8]
    3c91:	4c 89 7d a8          	mov    QWORD PTR [rbp-0x58],r15
    3c95:	4c 89 75 98          	mov    QWORD PTR [rbp-0x68],r14
    3c99:	75 0d                	jne    0x3ca8
    3c9b:	4c 8b 7d 98          	mov    r15,QWORD PTR [rbp-0x68]
    3c9f:	4d 85 ff             	test   r15,r15
    3ca2:	4c 89 7d 98          	mov    QWORD PTR [rbp-0x68],r15
    3ca6:	74 2f                	je     0x3cd7
    3ca8:	4c 8b 7d 98          	mov    r15,QWORD PTR [rbp-0x68]
    3cac:	49 83 ff 1f          	cmp    r15,0x1f
    3cb0:	4c 89 7d 98          	mov    QWORD PTR [rbp-0x68],r15
    3cb4:	0f 86 23 0b 00 00    	jbe    0x47dd
    3cba:	a8 01                	test   al,0x1
    3cbc:	0f 84 1b 0b 00 00    	je     0x47dd
    3cc2:	4c 8b 7d a0          	mov    r15,QWORD PTR [rbp-0x60]
    3cc6:	49 8d 47 ff          	lea    rax,[r15-0x1]
    3cca:	49 85 c2             	test   r10,rax
    3ccd:	4c 89 7d a0          	mov    QWORD PTR [rbp-0x60],r15
    3cd1:	0f 85 06 0b 00 00    	jne    0x47dd
    3cd7:	4c 8b 7d b0          	mov    r15,QWORD PTR [rbp-0x50]
    3cdb:	4d 8d 7c 24 20       	lea    r15,[r12+0x20]
    3ce0:	4c 8b 75 98          	mov    r14,QWORD PTR [rbp-0x68]
    3ce4:	4d 39 f7             	cmp    r15,r14
    3ce7:	4c 89 7d b0          	mov    QWORD PTR [rbp-0x50],r15
    3ceb:	4c 89 75 98          	mov    QWORD PTR [rbp-0x68],r14
    3cef:	0f 86 37 0b 00 00    	jbe    0x482c
    3cf5:	49 bf ad 92 d6 f7 ff 	movabs r15,0x7ffff7d692ad
    3cfc:	7f 00 00 
    3cff:	49 8d 87 d3 58 15 00 	lea    rax,[r15+0x1558d3]
    3d06:	48 39 c3             	cmp    rbx,rax
    3d09:	0f 84 25 04 00 00    	je     0x4134
    3d0f:	4c 8b 7d b0          	mov    r15,QWORD PTR [rbp-0x50]
    3d13:	4c 89 f8             	mov    rax,r15
    3d16:	4c 8b 75 a8          	mov    r14,QWORD PTR [rbp-0x58]
    3d1a:	4d 89 f0             	mov    r8,r14
    3d1d:	4c 89 7d b0          	mov    QWORD PTR [rbp-0x50],r15
    3d21:	4c 8b 7d 98          	mov    r15,QWORD PTR [rbp-0x68]
    3d25:	4c 29 f8             	sub    rax,r15
    3d28:	49 81 e0 00 00 00 fc 	and    r8,0xfffffffffc000000
    3d2f:	48 85 c0             	test   rax,rax
    3d32:	4c 89 7d 98          	mov    QWORD PTR [rbp-0x68],r15
    3d36:	4c 89 75 a8          	mov    QWORD PTR [rbp-0x58],r14
    3d3a:	0f 8e b4 01 00 00    	jle    0x3ef4
    3d40:	49 d1 e0             	shl    r8,1
    3d43:	49 d1 e8             	shr    r8,1
    3d46:	4d 8b 48 10          	mov    r9,QWORD PTR [r8+0x10]
    3d4a:	4c 8b 7d a0          	mov    r15,QWORD PTR [rbp-0x60]
    3d4e:	49 8d 4c 07 ff       	lea    rcx,[r15+rax*1-0x1]
    3d53:	49 23 4d 10          	and    rcx,QWORD PTR [r13+0x10]
    3d57:	4c 01 c9             	add    rcx,r9
    3d5a:	48 81 f9 00 00 00 04 	cmp    rcx,0x4000000
    3d61:	4c 89 7d a0          	mov    QWORD PTR [rbp-0x60],r15
    3d65:	0f 87 89 01 00 00    	ja     0x3ef4
    3d6b:	49 d1 e0             	shl    r8,1
    3d6e:	49 d1 e8             	shr    r8,1
    3d71:	49 8b 78 18          	mov    rdi,QWORD PTR [r8+0x18]
    3d75:	48 39 f9             	cmp    rcx,rdi
    3d78:	0f 87 05 06 00 00    	ja     0x4383
    3d7e:	49 d1 e0             	shl    r8,1
    3d81:	49 d1 e8             	shr    r8,1
    3d84:	49 89 48 10          	mov    QWORD PTR [r8+0x10],rcx
    3d88:	90                   	nop
    3d89:	49 8b 40 10          	mov    rax,QWORD PTR [r8+0x10]
    3d8d:	48 d1 e3             	shl    rbx,1
    3d90:	48 d1 eb             	shr    rbx,1
    3d93:	48 8b 8b 88 08 00 00 	mov    rcx,QWORD PTR [rbx+0x888]
    3d9a:	49 01 c0             	add    r8,rax
    3d9d:	48 01 c1             	add    rcx,rax
    3da0:	4c 8b 7d a8          	mov    r15,QWORD PTR [rbp-0x58]
    3da4:	4d 29 f8             	sub    r8,r15
    3da7:	4c 29 c9             	sub    rcx,r9
    3daa:	49 83 c8 01          	or     r8,0x1
    3dae:	48 89 8b 88 08 00 00 	mov    QWORD PTR [rbx+0x888],rcx
    3db5:	4d 89 47 08          	mov    QWORD PTR [r15+0x8],r8
    3db9:	4c 8b 43 60          	mov    r8,QWORD PTR [rbx+0x60]
    3dbd:	4c 89 7d a8          	mov    QWORD PTR [rbp-0x58],r15
    3dc1:	48 d1 e3             	shl    rbx,1
    3dc4:	48 d1 eb             	shr    rbx,1
    3dc7:	48 39 8b 90 08 00 00 	cmp    QWORD PTR [rbx+0x890],rcx
    3dce:	73 07                	jae    0x3dd7
    3dd0:	48 89 8b 90 08 00 00 	mov    QWORD PTR [rbx+0x890],rcx
    3dd7:	49 d1 e0             	shl    r8,1
    3dda:	49 d1 e8             	shr    r8,1
    3ddd:	49 8b 40 08          	mov    rax,QWORD PTR [r8+0x8]
    3de1:	48 83 e0 f8          	and    rax,0xfffffffffffffff8
    3de5:	4c 8b 7d b0          	mov    r15,QWORD PTR [rbp-0x50]
    3de9:	49 39 c7             	cmp    r15,rax
    3dec:	4c 89 7d b0          	mov    QWORD PTR [rbp-0x50],r15
    3df0:	0f 87 d5 01 00 00    	ja     0x3fcb
    3df6:	4c 89 e6             	mov    rsi,r12
    3df9:	49 bf 54 93 d6 f7 ff 	movabs r15,0x7ffff7d69354
    3e00:	7f 00 00 
    3e03:	49 8d 97 2c 58 15 00 	lea    rdx,[r15+0x15582c]
    3e0a:	4b 8d 0c 20          	lea    rcx,[r8+r12*1]
    3e0e:	4c 29 e0             	sub    rax,r12
    3e11:	48 83 ce 04          	or     rsi,0x4
    3e15:	48 39 d3             	cmp    rbx,rdx
    3e18:	48 89 4b 60          	mov    QWORD PTR [rbx+0x60],rcx
    3e1c:	4c 0f 45 e6          	cmovne r12,rsi
    3e20:	48 83 c8 01          	or     rax,0x1
    3e24:	49 83 c0 10          	add    r8,0x10
    3e28:	49 83 cc 01          	or     r12,0x1
    3e2c:	4d 89 60 f8          	mov    QWORD PTR [r8-0x8],r12
    3e30:	48 89 41 08          	mov    QWORD PTR [rcx+0x8],rax
    3e34:	49 83 c5 48          	add    r13,0x48
    3e38:	4c 89 c0             	mov    rax,r8
    3e3b:	49 8b 5d 00          	mov    rbx,QWORD PTR [r13+0x0]
    3e3f:	4d 8d 6d 08          	lea    r13,[r13+0x8]
    3e43:	4d 8b 65 00          	mov    r12,QWORD PTR [r13+0x0]
    3e47:	4d 8d 6d 08          	lea    r13,[r13+0x8]
    3e4b:	4c 8b 7d 98          	mov    r15,QWORD PTR [rbp-0x68]
    3e4f:	4d 8b 7d 00          	mov    r15,QWORD PTR [r13+0x0]
    3e53:	4d 8d 6d 08          	lea    r13,[r13+0x8]
    3e57:	4c 8b 75 a0          	mov    r14,QWORD PTR [rbp-0x60]
    3e5b:	4d 8b 75 00          	mov    r14,QWORD PTR [r13+0x0]
    3e5f:	4d 8d 6d 08          	lea    r13,[r13+0x8]
    3e63:	4c 89 7d 98          	mov    QWORD PTR [rbp-0x68],r15
    3e67:	4c 8b 7d a8          	mov    r15,QWORD PTR [rbp-0x58]
    3e6b:	4d 8b 7d 00          	mov    r15,QWORD PTR [r13+0x0]
    3e6f:	4d 8d 6d 08          	lea    r13,[r13+0x8]
    3e73:	4c 89 7d a8          	mov    QWORD PTR [rbp-0x58],r15
    3e77:	4c 8b 7d b0          	mov    r15,QWORD PTR [rbp-0x50]
    3e7b:	4d 8b 7d 00          	mov    r15,QWORD PTR [r13+0x0]
    3e7f:	4d 8d 6d 08          	lea    r13,[r13+0x8]
    3e83:	4c 89 7d b0          	mov    QWORD PTR [rbp-0x50],r15
    3e87:	4d 8b 7d 00          	mov    r15,QWORD PTR [r13+0x0]
    3e8b:	4d 8d 6d 08          	lea    r13,[r13+0x8]
    3e8f:	4c 89 75 a0          	mov    QWORD PTR [rbp-0x60],r14
    3e93:	4d 89 fe             	mov    r14,r15
    3e96:	e9 02 13 00 00       	jmp    0x519d
    3e9b:	49 bf 96 93 d6 f7 ff 	movabs r15,0x7ffff7d69396
    3ea2:	7f 00 00 
    3ea5:	41 8b 87 16 4f 15 00 	mov    eax,DWORD PTR [r15+0x154f16]
    3eac:	49 bf 9c 93 d6 f7 ff 	movabs r15,0x7ffff7d6939c
    3eb3:	7f 00 00 
    3eb6:	41 39 87 0c 4f 15 00 	cmp    DWORD PTR [r15+0x154f0c],eax
    3ebd:	0f 8d 78 fd ff ff    	jge    0x3c3b
    3ec3:	4c 8b 7d a0          	mov    r15,QWORD PTR [rbp-0x60]
    3ec7:	4c 89 f8             	mov    rax,r15
    3eca:	4c 8b 75 98          	mov    r14,QWORD PTR [rbp-0x68]
    3ece:	4d 8d 74 3f 07       	lea    r14,[r15+rdi*1+0x7]
    3ed3:	48 f7 d8             	neg    rax
    3ed6:	49 21 c6             	and    r14,rax
    3ed9:	4c 39 f7             	cmp    rdi,r14
    3edc:	4c 89 7d a0          	mov    QWORD PTR [rbp-0x60],r15
    3ee0:	4c 89 75 98          	mov    QWORD PTR [rbp-0x68],r14
    3ee4:	0f 82 91 09 00 00    	jb     0x487b
    3eea:	41 c6 45 18 01       	mov    BYTE PTR [r13+0x18],0x1
    3eef:	e9 4c fd ff ff       	jmp    0x3c40
    3ef4:	49 bf cf 93 d6 f7 ff 	movabs r15,0x7ffff7d693cf
    3efb:	7f 00 00 
    3efe:	49 8b b7 b9 4e 15 00 	mov    rsi,QWORD PTR [r15+0x154eb9]
    3f05:	49 8d 7c 24 40       	lea    rdi,[r12+0x40]
    3f0a:	4d 89 45 28          	mov    QWORD PTR [r13+0x28],r8
    3f0e:	49 bf dd 93 d6 f7 ff 	movabs r15,0x7ffff7d693dd
    3f15:	7f 00 00 
    3f18:	4d 8d 6d f8          	lea    r13,[r13-0x8]
    3f1c:	4d 89 7d 00          	mov    QWORD PTR [r13+0x0],r15
    3f20:	e9 aa 14 00 00       	jmp    0x53cf
    3f25:	48 85 c0             	test   rax,rax
    3f28:	0f 84 3a 04 00 00    	je     0x4368
    3f2e:	4d 8b 45 28          	mov    r8,QWORD PTR [r13+0x28]
    3f32:	66 48 0f 6e c3       	movq   xmm0,rbx
    3f37:	48 d1 e0             	shl    rax,1
    3f3a:	48 d1 e8             	shr    rax,1
    3f3d:	48 8b 70 10          	mov    rsi,QWORD PTR [rax+0x10]
    3f41:	4c 8b 7d 98          	mov    r15,QWORD PTR [rbp-0x68]
    3f45:	49 83 ef 20          	sub    r15,0x20
    3f49:	49 83 e7 f0          	and    r15,0xfffffffffffffff0
    3f4d:	66 49 0f 6e c8       	movq   xmm1,r8
    3f52:	4c 8d 40 20          	lea    r8,[rax+0x20]
    3f56:	66 0f 6c c1          	punpcklqdq xmm0,xmm1
    3f5a:	0f 11 00             	movups XMMWORD PTR [rax],xmm0
    3f5d:	48 d1 e3             	shl    rbx,1
    3f60:	48 d1 eb             	shr    rbx,1
    3f63:	48 8b 8b 88 08 00 00 	mov    rcx,QWORD PTR [rbx+0x888]
    3f6a:	4c 89 43 60          	mov    QWORD PTR [rbx+0x60],r8
    3f6e:	48 01 f1             	add    rcx,rsi
    3f71:	48 83 ee 20          	sub    rsi,0x20
    3f75:	48 83 ce 01          	or     rsi,0x1
    3f79:	48 89 8b 88 08 00 00 	mov    QWORD PTR [rbx+0x888],rcx
    3f80:	48 89 70 28          	mov    QWORD PTR [rax+0x28],rsi
    3f84:	49 8d 47 10          	lea    rax,[r15+0x10]
    3f88:	4c 8b 75 a8          	mov    r14,QWORD PTR [rbp-0x58]
    3f8c:	49 8d 34 06          	lea    rsi,[r14+rax*1]
    3f90:	48 d1 e6             	shl    rsi,1
    3f93:	48 d1 ee             	shr    rsi,1
    3f96:	48 c7 46 08 01 00 00 	mov    QWORD PTR [rsi+0x8],0x1
    3f9d:	00 
    3f9e:	49 83 ff 1f          	cmp    r15,0x1f
    3fa2:	4c 89 7d 98          	mov    QWORD PTR [rbp-0x68],r15
    3fa6:	4c 89 75 a8          	mov    QWORD PTR [rbp-0x58],r14
    3faa:	0f 87 55 03 00 00    	ja     0x4305
    3fb0:	48 89 c7             	mov    rdi,rax
    3fb3:	48 83 cf 01          	or     rdi,0x1
    3fb7:	4c 8b 7d a8          	mov    r15,QWORD PTR [rbp-0x58]
    3fbb:	49 89 7f 08          	mov    QWORD PTR [r15+0x8],rdi
    3fbf:	48 89 06             	mov    QWORD PTR [rsi],rax
    3fc2:	4c 89 7d a8          	mov    QWORD PTR [rbp-0x58],r15
    3fc6:	e9 f6 fd ff ff       	jmp    0x3dc1
    3fcb:	49 bf 67 94 d6 f7 ff 	movabs r15,0x7ffff7d69467
    3fd2:	7f 00 00 
    3fd5:	49 8b 87 09 4a 15 00 	mov    rax,QWORD PTR [r15+0x154a09]
    3fdc:	4c 8b 7d 88          	mov    r15,QWORD PTR [rbp-0x78]
    3fe0:	41 c7 04 07 0c 00 00 	mov    DWORD PTR [r15+rax*1],0xc
    3fe7:	00 
    3fe8:	45 31 c0             	xor    r8d,r8d
    3feb:	e9 44 fe ff ff       	jmp    0x3e34
    3ff0:	4c 8b 7d 98          	mov    r15,QWORD PTR [rbp-0x68]
    3ff4:	4c 8b 75 a0          	mov    r14,QWORD PTR [rbp-0x60]
    3ff8:	4d 8d 7c 3e 07       	lea    r15,[r14+rdi*1+0x7]
    3ffd:	49 f7 de             	neg    r14
    4000:	4d 21 f7             	and    r15,r14
    4003:	4c 39 ff             	cmp    rdi,r15
    4006:	4c 89 7d 98          	mov    QWORD PTR [rbp-0x68],r15
    400a:	4c 89 75 a0          	mov    QWORD PTR [rbp-0x60],r14
    400e:	73 d8                	jae    0x3fe8
    4010:	45 31 c9             	xor    r9d,r9d
    4013:	31 ff                	xor    edi,edi
    4015:	41 b8 ff ff ff ff    	mov    r8d,0xffffffff
    401b:	b9 22 00 00 00       	mov    ecx,0x22
    4020:	ba 03 00 00 00       	mov    edx,0x3
    4025:	4c 8b 7d 98          	mov    r15,QWORD PTR [rbp-0x68]
    4029:	4c 89 fe             	mov    rsi,r15
    402c:	49 be ad 94 d6 f7 ff 	movabs r14,0x7ffff7d694ad
    4033:	7f 00 00 
    4036:	4d 8d 6d f8          	lea    r13,[r13-0x8]
    403a:	4d 89 75 00          	mov    QWORD PTR [r13+0x0],r14
    403e:	4c 89 7d 98          	mov    QWORD PTR [rbp-0x68],r15
    4042:	e9 76 15 00 00       	jmp    0x55bd
    4047:	48 83 f8 ff          	cmp    rax,0xffffffffffffffff
    404b:	74 9b                	je     0x3fe8
    404d:	4c 8d 40 10          	lea    r8,[rax+0x10]
    4051:	a8 0f                	test   al,0xf
    4053:	0f 85 da 09 00 00    	jne    0x4a33
    4059:	4c 8b 7d 98          	mov    r15,QWORD PTR [rbp-0x68]
    405d:	4c 89 fa             	mov    rdx,r15
    4060:	48 d1 e0             	shl    rax,1
    4063:	48 d1 e8             	shr    rax,1
    4066:	48 c7 00 00 00 00 00 	mov    QWORD PTR [rax],0x0
    406d:	48 83 ca 02          	or     rdx,0x2
    4071:	48 89 50 08          	mov    QWORD PTR [rax+0x8],rdx
    4075:	ba 01 00 00 00       	mov    edx,0x1
    407a:	49 be de 94 d6 f7 ff 	movabs r14,0x7ffff7d694de
    4081:	7f 00 00 
    4084:	f0 41 0f c1 96 ca 4d 	lock xadd DWORD PTR [r14+0x154dca],edx
    408b:	15 00 
    408d:	83 c2 01             	add    edx,0x1
    4090:	4c 89 7d 98          	mov    QWORD PTR [rbp-0x68],r15
    4094:	49 bf e7 94 d6 f7 ff 	movabs r15,0x7ffff7d694e7
    409b:	7f 00 00 
    409e:	41 8b 87 c9 4d 15 00 	mov    eax,DWORD PTR [r15+0x154dc9]
    40a5:	39 c2                	cmp    edx,eax
    40a7:	7e 15                	jle    0x40be
    40a9:	49 bf f3 94 d6 f7 ff 	movabs r15,0x7ffff7d694f3
    40b0:	7f 00 00 
    40b3:	f0 41 0f b1 97 bd 4d 	lock cmpxchg DWORD PTR [r15+0x154dbd],edx
    40ba:	15 00 
    40bc:	75 d6                	jne    0x4094
    40be:	4c 8b 7d 98          	mov    r15,QWORD PTR [rbp-0x68]
    40c2:	4c 8b 75 a0          	mov    r14,QWORD PTR [rbp-0x60]
    40c6:	4d 89 fe             	mov    r14,r15
    40c9:	4c 89 7d 98          	mov    QWORD PTR [rbp-0x68],r15
    40cd:	49 bf 01 95 d6 f7 ff 	movabs r15,0x7ffff7d69501
    40d4:	7f 00 00 
    40d7:	f0 4d 0f c1 b7 b7 4d 	lock xadd QWORD PTR [r15+0x154db7],r14
    40de:	15 00 
    40e0:	4c 8b 7d 98          	mov    r15,QWORD PTR [rbp-0x68]
    40e4:	4d 01 fe             	add    r14,r15
    40e7:	4c 89 7d 98          	mov    QWORD PTR [rbp-0x68],r15
    40eb:	4c 89 75 a0          	mov    QWORD PTR [rbp-0x60],r14
    40ef:	49 bf 0b 95 d6 f7 ff 	movabs r15,0x7ffff7d6950b
    40f6:	7f 00 00 
    40f9:	49 8b 87 b5 4d 15 00 	mov    rax,QWORD PTR [r15+0x154db5]
    4100:	4c 8b 7d a0          	mov    r15,QWORD PTR [rbp-0x60]
    4104:	49 39 c7             	cmp    r15,rax
    4107:	4c 89 7d a0          	mov    QWORD PTR [rbp-0x60],r15
    410b:	0f 86 23 fd ff ff    	jbe    0x3e34
    4111:	49 bf 1d 95 d6 f7 ff 	movabs r15,0x7ffff7d6951d
    4118:	7f 00 00 
    411b:	4c 8b 75 a0          	mov    r14,QWORD PTR [rbp-0x60]
    411f:	f0 4d 0f b1 b7 a3 4d 	lock cmpxchg QWORD PTR [r15+0x154da3],r14
    4126:	15 00 
    4128:	4c 89 75 a0          	mov    QWORD PTR [rbp-0x60],r14
    412c:	0f 84 02 fd ff ff    	je     0x3e34
    4132:	eb bb                	jmp    0x40ef
    4134:	4c 8b 7d a0          	mov    r15,QWORD PTR [rbp-0x60]
    4138:	49 8d 47 ff          	lea    rax,[r15-0x1]
    413c:	4d 89 fb             	mov    r11,r15
    413f:	49 89 45 08          	mov    QWORD PTR [r13+0x8],rax
    4143:	49 be 3b 95 d6 f7 ff 	movabs r14,0x7ffff7d6953b
    414a:	7f 00 00 
    414d:	49 8b 86 4d 4d 15 00 	mov    rax,QWORD PTR [r14+0x154d4d]
    4154:	49 f7 db             	neg    r11
    4157:	49 8d 74 07 1f       	lea    rsi,[r15+rax*1+0x1f]
    415c:	4c 01 e6             	add    rsi,r12
    415f:	48 d1 e3             	shl    rbx,1
    4162:	48 d1 eb             	shr    rbx,1
    4165:	f6 43 04 02          	test   BYTE PTR [rbx+0x4],0x2
    4169:	4c 89 7d a0          	mov    QWORD PTR [rbp-0x60],r15
    416d:	0f 85 36 01 00 00    	jne    0x42a9
    4173:	4c 8b 7d 98          	mov    r15,QWORD PTR [rbp-0x68]
    4177:	4c 29 fe             	sub    rsi,r15
    417a:	4c 21 de             	and    rsi,r11
    417d:	4c 8b 75 a0          	mov    r14,QWORD PTR [rbp-0x60]
    4181:	49 89 f6             	mov    r14,rsi
    4184:	4c 89 7d 98          	mov    QWORD PTR [rbp-0x68],r15
    4188:	4c 89 75 a0          	mov    QWORD PTR [rbp-0x60],r14
    418c:	0f 8e 57 02 00 00    	jle    0x43e9
    4192:	49 bf 66 95 d6 f7 ff 	movabs r15,0x7ffff7d69566
    4199:	7f 00 00 
    419c:	49 8b 87 5a 48 15 00 	mov    rax,QWORD PTR [r15+0x15485a]
    41a3:	4d 89 5d 18          	mov    QWORD PTR [r13+0x18],r11
    41a7:	4c 8b 7d a0          	mov    r15,QWORD PTR [rbp-0x60]
    41ab:	4c 89 ff             	mov    rdi,r15
    41ae:	4d 89 55 10          	mov    QWORD PTR [r13+0x10],r10
    41b2:	49 be 75 95 d6 f7 ff 	movabs r14,0x7ffff7d69575
    41b9:	7f 00 00 
    41bc:	4d 8d 6d f8          	lea    r13,[r13-0x8]
    41c0:	4d 89 75 00          	mov    QWORD PTR [r13+0x0],r14
    41c4:	4c 8b 30             	mov    r14,QWORD PTR [rax]
    41c7:	4c 89 7d a0          	mov    QWORD PTR [rbp-0x60],r15
    41cb:	e9 02 10 00 00       	jmp    0x51d2
    41d0:	49 89 c0             	mov    r8,rax
    41d3:	90                   	nop
    41d4:	48 85 c0             	test   rax,rax
    41d7:	4d 8b 55 10          	mov    r10,QWORD PTR [r13+0x10]
    41db:	4d 8b 5d 18          	mov    r11,QWORD PTR [r13+0x18]
    41df:	0f 84 ec 01 00 00    	je     0x43d1
    41e5:	49 bf 93 95 d6 f7 ff 	movabs r15,0x7ffff7d69593
    41ec:	7f 00 00 
    41ef:	49 8b 87 15 49 15 00 	mov    rax,QWORD PTR [r15+0x154915]
    41f6:	48 d1 e0             	shl    rax,1
    41f9:	48 d1 e8             	shr    rax,1
    41fc:	48 8b 00             	mov    rax,QWORD PTR [rax]
    41ff:	48 85 c0             	test   rax,rax
    4202:	0f 85 5b 05 00 00    	jne    0x4763
    4208:	49 bf a6 95 d6 f7 ff 	movabs r15,0x7ffff7d695a6
    420f:	7f 00 00 
    4212:	49 8b 8f 62 5e 15 00 	mov    rcx,QWORD PTR [r15+0x155e62]
    4219:	49 bf ad 95 d6 f7 ff 	movabs r15,0x7ffff7d695ad
    4220:	7f 00 00 
    4223:	49 8b 87 1b 4d 15 00 	mov    rax,QWORD PTR [r15+0x154d1b]
    422a:	bf 01 00 00 00       	mov    edi,0x1
    422f:	4c 8b 7d a0          	mov    r15,QWORD PTR [rbp-0x60]
    4233:	4c 01 f9             	add    rcx,r15
    4236:	48 85 c0             	test   rax,rax
    4239:	4c 89 7d a0          	mov    QWORD PTR [rbp-0x60],r15
    423d:	0f 84 ce 01 00 00    	je     0x4411
    4243:	31 c0                	xor    eax,eax
    4245:	49 bf c7 95 d6 f7 ff 	movabs r15,0x7ffff7d695c7
    424c:	7f 00 00 
    424f:	49 89 8f 41 5e 15 00 	mov    QWORD PTR [r15+0x155e41],rcx
    4256:	4d 39 c2             	cmp    r10,r8
    4259:	0f 85 6e 03 00 00    	jne    0x45cd
    425f:	40 84 ff             	test   dil,dil
    4262:	0f 84 65 03 00 00    	je     0x45cd
    4268:	4c 8b 7d 98          	mov    r15,QWORD PTR [rbp-0x68]
    426c:	4c 8b 75 a0          	mov    r14,QWORD PTR [rbp-0x60]
    4270:	4d 01 f7             	add    r15,r14
    4273:	4c 89 7d 98          	mov    QWORD PTR [rbp-0x68],r15
    4277:	49 bf e3 95 d6 f7 ff 	movabs r15,0x7ffff7d695e3
    427e:	7f 00 00 
    4281:	4d 8b 87 fd 55 15 00 	mov    r8,QWORD PTR [r15+0x1555fd]
    4288:	4c 8b 7d 98          	mov    r15,QWORD PTR [rbp-0x68]
    428c:	49 83 cf 01          	or     r15,0x1
    4290:	4c 89 75 a0          	mov    QWORD PTR [rbp-0x60],r14
    4294:	4c 8b 75 a8          	mov    r14,QWORD PTR [rbp-0x58]
    4298:	4d 89 7e 08          	mov    QWORD PTR [r14+0x8],r15
    429c:	4c 89 7d 98          	mov    QWORD PTR [rbp-0x68],r15
    42a0:	4c 89 75 a8          	mov    QWORD PTR [rbp-0x58],r14
    42a4:	e9 18 fb ff ff       	jmp    0x3dc1
    42a9:	4c 21 de             	and    rsi,r11
    42ac:	4c 8b 7d a0          	mov    r15,QWORD PTR [rbp-0x60]
    42b0:	49 89 f7             	mov    r15,rsi
    42b3:	4c 89 7d a0          	mov    QWORD PTR [rbp-0x60],r15
    42b7:	0f 8f d5 fe ff ff    	jg     0x4192
    42bd:	4c 8b 7d a0          	mov    r15,QWORD PTR [rbp-0x60]
    42c1:	49 81 ff 00 00 10 00 	cmp    r15,0x100000
    42c8:	b8 00 00 10 00       	mov    eax,0x100000
    42cd:	4c 0f 42 f8          	cmovb  r15,rax
    42d1:	4d 39 fc             	cmp    r12,r15
    42d4:	4c 89 7d a0          	mov    QWORD PTR [rbp-0x60],r15
    42d8:	0f 82 49 01 00 00    	jb     0x4427
    42de:	49 bf 1c 96 d6 f7 ff 	movabs r15,0x7ffff7d6961c
    42e5:	7f 00 00 
    42e8:	49 8b 8f ec 5d 15 00 	mov    rcx,QWORD PTR [r15+0x155dec]
    42ef:	49 bf 23 96 d6 f7 ff 	movabs r15,0x7ffff7d69623
    42f6:	7f 00 00 
    42f9:	4d 8b 87 bd 55 15 00 	mov    r8,QWORD PTR [r15+0x1555bd]
    4300:	e9 bc fa ff ff       	jmp    0x3dc1
    4305:	49 bf 38 96 d6 f7 ff 	movabs r15,0x7ffff7d69638
    430c:	7f 00 00 
    430f:	66 41 0f 6f 87 f8 52 	movdqa xmm0,XMMWORD PTR [r15+0x1252f8]
    4316:	12 00 
    4318:	ba 01 00 00 00       	mov    edx,0x1
    431d:	4c 8b 7d a8          	mov    r15,QWORD PTR [rbp-0x58]
    4321:	4c 89 fe             	mov    rsi,r15
    4324:	48 89 df             	mov    rdi,rbx
    4327:	4c 8b 75 98          	mov    r14,QWORD PTR [rbp-0x68]
    432b:	43 0f 11 44 3e 08    	movups XMMWORD PTR [r14+r15*1+0x8],xmm0
    4331:	49 83 ce 05          	or     r14,0x5
    4335:	4d 89 77 08          	mov    QWORD PTR [r15+0x8],r14
    4339:	4c 89 7d a8          	mov    QWORD PTR [rbp-0x58],r15
    433d:	49 bf 56 96 d6 f7 ff 	movabs r15,0x7ffff7d69656
    4344:	7f 00 00 
    4347:	4d 8d 6d f8          	lea    r13,[r13-0x8]
    434b:	4d 89 7d 00          	mov    QWORD PTR [r13+0x0],r15
    434f:	4c 89 75 98          	mov    QWORD PTR [rbp-0x68],r14
    4353:	e9 32 e6 ff ff       	jmp    0x298a
    4358:	48 8b 8b 88 08 00 00 	mov    rcx,QWORD PTR [rbx+0x888]
    435f:	4c 8b 43 60          	mov    r8,QWORD PTR [rbx+0x60]
    4363:	e9 59 fa ff ff       	jmp    0x3dc1
    4368:	41 80 7d 18 00       	cmp    BYTE PTR [r13+0x18],0x0
    436d:	0f 84 9b 05 00 00    	je     0x490e
    4373:	48 8b 8b 88 08 00 00 	mov    rcx,QWORD PTR [rbx+0x888]
    437a:	4c 8b 43 60          	mov    r8,QWORD PTR [rbx+0x60]
    437e:	e9 3e fa ff ff       	jmp    0x3dc1
    4383:	48 89 ce             	mov    rsi,rcx
    4386:	ba 03 00 00 00       	mov    edx,0x3
    438b:	4d 89 45 28          	mov    QWORD PTR [r13+0x28],r8
    438f:	48 29 fe             	sub    rsi,rdi
    4392:	4c 01 c7             	add    rdi,r8
    4395:	4d 89 4d 38          	mov    QWORD PTR [r13+0x38],r9
    4399:	49 89 4d 30          	mov    QWORD PTR [r13+0x30],rcx
    439d:	49 bf b2 96 d6 f7 ff 	movabs r15,0x7ffff7d696b2
    43a4:	7f 00 00 
    43a7:	4d 8d 6d f8          	lea    r13,[r13-0x8]
    43ab:	4d 89 7d 00          	mov    QWORD PTR [r13+0x0],r15
    43af:	e9 a1 11 00 00       	jmp    0x5555
    43b4:	4d 8b 45 28          	mov    r8,QWORD PTR [r13+0x28]
    43b8:	85 c0                	test   eax,eax
    43ba:	0f 85 34 fb ff ff    	jne    0x3ef4
    43c0:	49 8b 4d 30          	mov    rcx,QWORD PTR [r13+0x30]
    43c4:	4d 8b 4d 38          	mov    r9,QWORD PTR [r13+0x38]
    43c8:	49 89 48 18          	mov    QWORD PTR [r8+0x18],rcx
    43cc:	e9 ad f9 ff ff       	jmp    0x3d7e
    43d1:	49 bf df 96 d6 f7 ff 	movabs r15,0x7ffff7d696df
    43d8:	7f 00 00 
    43db:	41 f6 87 a5 54 15 00 	test   BYTE PTR [r15+0x1554a5],0x2
    43e2:	02 
    43e3:	0f 85 d4 fe ff ff    	jne    0x42bd
    43e9:	49 8b 45 08          	mov    rax,QWORD PTR [r13+0x8]
    43ed:	4c 8b 7d 98          	mov    r15,QWORD PTR [rbp-0x68]
    43f1:	4c 01 f8             	add    rax,r15
    43f4:	4c 8b 75 a0          	mov    r14,QWORD PTR [rbp-0x60]
    43f8:	49 8d 34 06          	lea    rsi,[r14+rax*1]
    43fc:	4c 21 de             	and    rsi,r11
    43ff:	49 89 f6             	mov    r14,rsi
    4402:	4c 89 7d 98          	mov    QWORD PTR [rbp-0x68],r15
    4406:	4c 89 75 a0          	mov    QWORD PTR [rbp-0x60],r14
    440a:	e9 ae fe ff ff       	jmp    0x42bd
    440f:	31 ff                	xor    edi,edi
    4411:	49 bf 09 97 d6 f7 ff 	movabs r15,0x7ffff7d69709
    4418:	7f 00 00 
    441b:	4d 89 87 bf 4b 15 00 	mov    QWORD PTR [r15+0x154bbf],r8
    4422:	e9 1e fe ff ff       	jmp    0x4245
    4427:	45 31 c9             	xor    r9d,r9d
    442a:	41 b8 ff ff ff ff    	mov    r8d,0xffffffff
    4430:	31 ff                	xor    edi,edi
    4432:	b9 22 00 00 00       	mov    ecx,0x22
    4437:	ba 03 00 00 00       	mov    edx,0x3
    443c:	4c 8b 7d a0          	mov    r15,QWORD PTR [rbp-0x60]
    4440:	4c 89 fe             	mov    rsi,r15
    4443:	4d 89 5d 18          	mov    QWORD PTR [r13+0x18],r11
    4447:	4d 89 55 10          	mov    QWORD PTR [r13+0x10],r10
    444b:	49 be 37 97 d6 f7 ff 	movabs r14,0x7ffff7d69737
    4452:	7f 00 00 
    4455:	4d 8d 6d f8          	lea    r13,[r13-0x8]
    4459:	4d 89 75 00          	mov    QWORD PTR [r13+0x0],r14
    445d:	4c 89 7d a0          	mov    QWORD PTR [rbp-0x60],r15
    4461:	e9 57 11 00 00       	jmp    0x55bd
    4466:	4d 8b 55 10          	mov    r10,QWORD PTR [r13+0x10]
    446a:	4d 8b 5d 18          	mov    r11,QWORD PTR [r13+0x18]
    446e:	48 83 f8 ff          	cmp    rax,0xffffffffffffffff
    4472:	49 89 c0             	mov    r8,rax
    4475:	0f 84 63 fe ff ff    	je     0x42de
    447b:	49 bf 55 97 d6 f7 ff 	movabs r15,0x7ffff7d69755
    4482:	7f 00 00 
    4485:	41 83 8f 2f 54 15 00 	or     DWORD PTR [r15+0x15542f],0x2
    448c:	02 
    448d:	4c 8b 7d a0          	mov    r15,QWORD PTR [rbp-0x60]
    4491:	49 8d 04 07          	lea    rax,[r15+rax*1]
    4495:	4d 85 c0             	test   r8,r8
    4498:	4c 89 7d a0          	mov    QWORD PTR [rbp-0x60],r15
    449c:	0f 84 3c fe ff ff    	je     0x42de
    44a2:	49 bf 69 97 d6 f7 ff 	movabs r15,0x7ffff7d69769
    44a9:	7f 00 00 
    44ac:	49 8b 8f 9f 5c 15 00 	mov    rcx,QWORD PTR [r15+0x155c9f]
    44b3:	4c 8b 7d a0          	mov    r15,QWORD PTR [rbp-0x60]
    44b7:	4c 01 f9             	add    rcx,r15
    44ba:	49 be 74 97 d6 f7 ff 	movabs r14,0x7ffff7d69774
    44c1:	7f 00 00 
    44c4:	49 83 be 54 4b 15 00 	cmp    QWORD PTR [r14+0x154b54],0x0
    44cb:	00 
    44cc:	4c 89 7d a0          	mov    QWORD PTR [rbp-0x60],r15
    44d0:	0f 84 39 ff ff ff    	je     0x440f
    44d6:	49 bf 7d 97 d6 f7 ff 	movabs r15,0x7ffff7d6977d
    44dd:	7f 00 00 
    44e0:	49 89 8f 8b 5c 15 00 	mov    QWORD PTR [r15+0x155c8b],rcx
    44e7:	4c 8b 7d a0          	mov    r15,QWORD PTR [rbp-0x60]
    44eb:	45 31 ff             	xor    r15d,r15d
    44ee:	41 f6 c0 0f          	test   r8b,0xf
    44f2:	4c 89 7d a0          	mov    QWORD PTR [rbp-0x60],r15
    44f6:	0f 85 c3 03 00 00    	jne    0x48bf
    44fc:	4c 29 c0             	sub    rax,r8
    44ff:	49 bf 94 97 d6 f7 ff 	movabs r15,0x7ffff7d69794
    4506:	7f 00 00 
    4509:	4d 89 87 4c 54 15 00 	mov    QWORD PTR [r15+0x15544c],r8
    4510:	4c 8b 7d a0          	mov    r15,QWORD PTR [rbp-0x60]
    4514:	4c 01 f8             	add    rax,r15
    4517:	48 83 c8 01          	or     rax,0x1
    451b:	49 d1 e0             	shl    r8,1
    451e:	49 d1 e8             	shr    r8,1
    4521:	49 89 40 08          	mov    QWORD PTR [r8+0x8],rax
    4525:	49 be a6 97 d6 f7 ff 	movabs r14,0x7ffff7d697a6
    452c:	7f 00 00 
    452f:	49 89 8e 62 5c 15 00 	mov    QWORD PTR [r14+0x155c62],rcx
    4536:	4c 8b 75 98          	mov    r14,QWORD PTR [rbp-0x68]
    453a:	4d 85 f6             	test   r14,r14
    453d:	4c 89 7d a0          	mov    QWORD PTR [rbp-0x60],r15
    4541:	4c 89 75 98          	mov    QWORD PTR [rbp-0x68],r14
    4545:	0f 84 76 f8 ff ff    	je     0x3dc1
    454b:	4c 8b 7d 98          	mov    r15,QWORD PTR [rbp-0x68]
    454f:	49 83 ef 20          	sub    r15,0x20
    4553:	49 83 e7 f0          	and    r15,0xfffffffffffffff0
    4557:	4c 89 f8             	mov    rax,r15
    455a:	48 83 c8 01          	or     rax,0x1
    455e:	4c 8b 75 a8          	mov    r14,QWORD PTR [rbp-0x58]
    4562:	49 d1 e6             	shl    r14,1
    4565:	49 d1 ee             	shr    r14,1
    4568:	49 89 46 08          	mov    QWORD PTR [r14+0x8],rax
    456c:	4b c7 44 37 08 11 00 	mov    QWORD PTR [r15+r14*1+0x8],0x11
    4573:	00 00 
    4575:	4b c7 44 37 18 11 00 	mov    QWORD PTR [r15+r14*1+0x18],0x11
    457c:	00 00 
    457e:	49 83 ff 1f          	cmp    r15,0x1f
    4582:	4c 89 7d 98          	mov    QWORD PTR [rbp-0x68],r15
    4586:	4c 89 75 a8          	mov    QWORD PTR [rbp-0x58],r14
    458a:	0f 86 31 f8 ff ff    	jbe    0x3dc1
    4590:	ba 01 00 00 00       	mov    edx,0x1
    4595:	4c 8b 7d a8          	mov    r15,QWORD PTR [rbp-0x58]
    4599:	4c 89 fe             	mov    rsi,r15
    459c:	49 be ed 97 d6 f7 ff 	movabs r14,0x7ffff7d697ed
    45a3:	7f 00 00 
    45a6:	49 8d be 93 53 15 00 	lea    rdi,[r14+0x155393]
    45ad:	49 be f2 97 d6 f7 ff 	movabs r14,0x7ffff7d697f2
    45b4:	7f 00 00 
    45b7:	4d 8d 6d f8          	lea    r13,[r13-0x8]
    45bb:	4d 89 75 00          	mov    QWORD PTR [r13+0x0],r14
    45bf:	4c 89 7d a8          	mov    QWORD PTR [rbp-0x58],r15
    45c3:	e9 c2 e3 ff ff       	jmp    0x298a
    45c8:	e9 11 fd ff ff       	jmp    0x42de
    45cd:	49 bf 07 98 d6 f7 ff 	movabs r15,0x7ffff7d69807
    45d4:	7f 00 00 
    45d7:	41 f6 87 7d 53 15 00 	test   BYTE PTR [r15+0x15537d],0x2
    45de:	02 
    45df:	0f 85 4b 03 00 00    	jne    0x4930
    45e5:	4c 8b 7d 98          	mov    r15,QWORD PTR [rbp-0x68]
    45e9:	4d 85 ff             	test   r15,r15
    45ec:	4c 89 7d 98          	mov    QWORD PTR [rbp-0x68],r15
    45f0:	74 30                	je     0x4622
    45f2:	4d 39 c2             	cmp    r10,r8
    45f5:	0f 87 d4 03 00 00    	ja     0x49cf
    45fb:	4c 8b 7d 98          	mov    r15,QWORD PTR [rbp-0x68]
    45ff:	4d 85 ff             	test   r15,r15
    4602:	4c 89 7d 98          	mov    QWORD PTR [rbp-0x68],r15
    4606:	74 1a                	je     0x4622
    4608:	4c 89 c0             	mov    rax,r8
    460b:	4c 29 d0             	sub    rax,r10
    460e:	48 01 c1             	add    rcx,rax
    4611:	49 bf 30 98 d6 f7 ff 	movabs r15,0x7ffff7d69830
    4618:	7f 00 00 
    461b:	49 89 8f d8 5b 15 00 	mov    QWORD PTR [r15+0x155bd8],rcx
    4622:	4c 89 c1             	mov    rcx,r8
    4625:	83 e1 0f             	and    ecx,0xf
    4628:	0f 84 c3 00 00 00    	je     0x46f1
    462e:	b8 10 00 00 00       	mov    eax,0x10
    4633:	48 29 c8             	sub    rax,rcx
    4636:	49 8d 14 00          	lea    rdx,[r8+rax*1]
    463a:	4c 8b 7d 98          	mov    r15,QWORD PTR [rbp-0x68]
    463e:	4c 01 f8             	add    rax,r15
    4641:	49 89 55 10          	mov    QWORD PTR [r13+0x10],rdx
    4645:	4c 89 7d 98          	mov    QWORD PTR [rbp-0x68],r15
    4649:	4c 8b 7d a0          	mov    r15,QWORD PTR [rbp-0x60]
    464d:	49 8d 34 07          	lea    rsi,[r15+rax*1]
    4651:	49 8b 7d 08          	mov    rdi,QWORD PTR [r13+0x8]
    4655:	49 8d 14 30          	lea    rdx,[r8+rsi*1]
    4659:	48 01 d7             	add    rdi,rdx
    465c:	48 29 d0             	sub    rax,rdx
    465f:	49 21 fb             	and    r11,rdi
    4662:	49 8d 3c 03          	lea    rdi,[r11+rax*1]
    4666:	49 89 ff             	mov    r15,rdi
    4669:	48 85 ff             	test   rdi,rdi
    466c:	4c 89 7d a0          	mov    QWORD PTR [rbp-0x60],r15
    4670:	0f 88 0a 03 00 00    	js     0x4980
    4676:	49 bf 79 98 d6 f7 ff 	movabs r15,0x7ffff7d69879
    467d:	7f 00 00 
    4680:	49 8b 87 47 45 15 00 	mov    rax,QWORD PTR [r15+0x154547]
    4687:	49 bf 7b 98 d6 f7 ff 	movabs r15,0x7ffff7d6987b
    468e:	7f 00 00 
    4691:	4d 8d 6d f8          	lea    r13,[r13-0x8]
    4695:	4d 89 7d 00          	mov    QWORD PTR [r13+0x0],r15
    4699:	4c 8b 38             	mov    r15,QWORD PTR [rax]
    469c:	4d 89 fe             	mov    r14,r15
    469f:	e9 5b 0b 00 00       	jmp    0x51ff
    46a4:	48 85 c0             	test   rax,rax
    46a7:	74 5c                	je     0x4705
    46a9:	49 bf 87 98 d6 f7 ff 	movabs r15,0x7ffff7d69887
    46b0:	7f 00 00 
    46b3:	49 8b 97 21 46 15 00 	mov    rdx,QWORD PTR [r15+0x154621]
    46ba:	48 d1 e2             	shl    rdx,1
    46bd:	48 d1 ea             	shr    rdx,1
    46c0:	48 8b 12             	mov    rdx,QWORD PTR [rdx]
    46c3:	48 85 d2             	test   rdx,rdx
    46c6:	0f 85 ca 00 00 00    	jne    0x4796
    46cc:	49 bf 96 98 d6 f7 ff 	movabs r15,0x7ffff7d69896
    46d3:	7f 00 00 
    46d6:	49 8b 8f 72 5b 15 00 	mov    rcx,QWORD PTR [r15+0x155b72]
    46dd:	4d 8b 45 10          	mov    r8,QWORD PTR [r13+0x10]
    46e1:	4c 8b 7d a0          	mov    r15,QWORD PTR [rbp-0x60]
    46e5:	4c 01 f9             	add    rcx,r15
    46e8:	4c 89 7d a0          	mov    QWORD PTR [rbp-0x60],r15
    46ec:	e9 0b fe ff ff       	jmp    0x44fc
    46f1:	4d 89 45 10          	mov    QWORD PTR [r13+0x10],r8
    46f5:	4c 8b 7d 98          	mov    r15,QWORD PTR [rbp-0x68]
    46f9:	4c 89 f8             	mov    rax,r15
    46fc:	4c 89 7d 98          	mov    QWORD PTR [rbp-0x68],r15
    4700:	e9 44 ff ff ff       	jmp    0x4649
    4705:	49 bf bf 98 d6 f7 ff 	movabs r15,0x7ffff7d698bf
    470c:	7f 00 00 
    470f:	49 8b 87 01 45 15 00 	mov    rax,QWORD PTR [r15+0x154501]
    4716:	31 ff                	xor    edi,edi
    4718:	49 bf c3 98 d6 f7 ff 	movabs r15,0x7ffff7d698c3
    471f:	7f 00 00 
    4722:	4d 8d 6d f8          	lea    r13,[r13-0x8]
    4726:	4d 89 7d 00          	mov    QWORD PTR [r13+0x0],r15
    472a:	4c 8b 38             	mov    r15,QWORD PTR [rax]
    472d:	4d 89 fe             	mov    r14,r15
    4730:	e9 d9 0a 00 00       	jmp    0x520e
    4735:	49 bf ca 98 d6 f7 ff 	movabs r15,0x7ffff7d698ca
    473c:	7f 00 00 
    473f:	49 8b 8f 3e 5b 15 00 	mov    rcx,QWORD PTR [r15+0x155b3e]
    4746:	48 85 c0             	test   rax,rax
    4749:	0f 84 a0 fb ff ff    	je     0x42ef
    474f:	4d 8b 45 10          	mov    r8,QWORD PTR [r13+0x10]
    4753:	4c 8b 7d a0          	mov    r15,QWORD PTR [rbp-0x60]
    4757:	45 31 ff             	xor    r15d,r15d
    475a:	4c 89 7d a0          	mov    QWORD PTR [rbp-0x60],r15
    475e:	e9 99 fd ff ff       	jmp    0x44fc
    4763:	4d 89 5d 20          	mov    QWORD PTR [r13+0x20],r11
    4767:	4d 89 45 18          	mov    QWORD PTR [r13+0x18],r8
    476b:	49 bf ec 98 d6 f7 ff 	movabs r15,0x7ffff7d698ec
    4772:	7f 00 00 
    4775:	4d 8d 6d f8          	lea    r13,[r13-0x8]
    4779:	4d 89 7d 00          	mov    QWORD PTR [r13+0x0],r15
    477d:	49 89 c6             	mov    r14,rax
    4780:	e9 5c 0a 00 00       	jmp    0x51e1
    4785:	4d 8b 55 10          	mov    r10,QWORD PTR [r13+0x10]
    4789:	4d 8b 45 18          	mov    r8,QWORD PTR [r13+0x18]
    478d:	4d 8b 5d 20          	mov    r11,QWORD PTR [r13+0x20]
    4791:	e9 72 fa ff ff       	jmp    0x4208
    4796:	49 89 45 08          	mov    QWORD PTR [r13+0x8],rax
    479a:	49 bf 07 99 d6 f7 ff 	movabs r15,0x7ffff7d69907
    47a1:	7f 00 00 
    47a4:	4d 8d 6d f8          	lea    r13,[r13-0x8]
    47a8:	4d 89 7d 00          	mov    QWORD PTR [r13+0x0],r15
    47ac:	49 89 d6             	mov    r14,rdx
    47af:	e9 69 0a 00 00       	jmp    0x521d
    47b4:	49 bf 0e 99 d6 f7 ff 	movabs r15,0x7ffff7d6990e
    47bb:	7f 00 00 
    47be:	49 8b 8f fa 5a 15 00 	mov    rcx,QWORD PTR [r15+0x155afa]
    47c5:	4d 8b 45 10          	mov    r8,QWORD PTR [r13+0x10]
    47c9:	49 8b 45 08          	mov    rax,QWORD PTR [r13+0x8]
    47cd:	4c 8b 7d a0          	mov    r15,QWORD PTR [rbp-0x60]
    47d1:	4c 01 f9             	add    rcx,r15
    47d4:	4c 89 7d a0          	mov    QWORD PTR [rbp-0x60],r15
    47d8:	e9 1f fd ff ff       	jmp    0x44fc
    47dd:	49 bf 27 99 d6 f7 ff 	movabs r15,0x7ffff7d69927
    47e4:	7f 00 00 
    47e7:	49 8d 8f 09 27 12 00 	lea    rcx,[r15+0x122709]
    47ee:	ba 4b 09 00 00       	mov    edx,0x94b
    47f3:	49 bf 33 99 d6 f7 ff 	movabs r15,0x7ffff7d69933
    47fa:	7f 00 00 
    47fd:	49 8d b7 a3 da 11 00 	lea    rsi,[r15+0x11daa3]
    4804:	49 bf 3a 99 d6 f7 ff 	movabs r15,0x7ffff7d6993a
    480b:	7f 00 00 
    480e:	49 8d bf 6e 1f 12 00 	lea    rdi,[r15+0x121f6e]
    4815:	49 bf 3f 99 d6 f7 ff 	movabs r15,0x7ffff7d6993f
    481c:	7f 00 00 
    481f:	4d 8d 6d f8          	lea    r13,[r13-0x8]
    4823:	4d 89 7d 00          	mov    QWORD PTR [r13+0x0],r15
    4827:	e9 bd 0b 00 00       	jmp    0x53e9
    482c:	49 bf 46 99 d6 f7 ff 	movabs r15,0x7ffff7d69946
    4833:	7f 00 00 
    4836:	49 8d 8f ea 26 12 00 	lea    rcx,[r15+0x1226ea]
    483d:	ba 51 09 00 00       	mov    edx,0x951
    4842:	49 bf 52 99 d6 f7 ff 	movabs r15,0x7ffff7d69952
    4849:	7f 00 00 
    484c:	49 8d b7 84 da 11 00 	lea    rsi,[r15+0x11da84]
    4853:	49 bf 59 99 d6 f7 ff 	movabs r15,0x7ffff7d69959
    485a:	7f 00 00 
    485d:	49 8d bf f7 1f 12 00 	lea    rdi,[r15+0x121ff7]
    4864:	49 bf 5e 99 d6 f7 ff 	movabs r15,0x7ffff7d6995e
    486b:	7f 00 00 
    486e:	4d 8d 6d f8          	lea    r13,[r13-0x8]
    4872:	4d 89 7d 00          	mov    QWORD PTR [r13+0x0],r15
    4876:	e9 6e 0b 00 00       	jmp    0x53e9
    487b:	45 31 c9             	xor    r9d,r9d
    487e:	41 83 c8 ff          	or     r8d,0xffffffff
    4882:	31 ff                	xor    edi,edi
    4884:	b9 22 00 00 00       	mov    ecx,0x22
    4889:	ba 03 00 00 00       	mov    edx,0x3
    488e:	4c 8b 7d 98          	mov    r15,QWORD PTR [rbp-0x68]
    4892:	4c 89 fe             	mov    rsi,r15
    4895:	49 be 79 99 d6 f7 ff 	movabs r14,0x7ffff7d69979
    489c:	7f 00 00 
    489f:	4d 8d 6d f8          	lea    r13,[r13-0x8]
    48a3:	4d 89 75 00          	mov    QWORD PTR [r13+0x0],r14
    48a7:	4c 89 7d 98          	mov    QWORD PTR [rbp-0x68],r15
    48ab:	e9 0d 0d 00 00       	jmp    0x55bd
    48b0:	48 83 f8 ff          	cmp    rax,0xffffffffffffffff
    48b4:	0f 85 93 f7 ff ff    	jne    0x404d
    48ba:	e9 2b f6 ff ff       	jmp    0x3eea
    48bf:	49 bf 8f 99 d6 f7 ff 	movabs r15,0x7ffff7d6998f
    48c6:	7f 00 00 
    48c9:	49 8d 8f a1 26 12 00 	lea    rcx,[r15+0x1226a1]
    48d0:	ba 48 0a 00 00       	mov    edx,0xa48
    48d5:	49 bf 9b 99 d6 f7 ff 	movabs r15,0x7ffff7d6999b
    48dc:	7f 00 00 
    48df:	49 8d b7 3b da 11 00 	lea    rsi,[r15+0x11da3b]
    48e6:	49 bf a2 99 d6 f7 ff 	movabs r15,0x7ffff7d699a2
    48ed:	7f 00 00 
    48f0:	49 8d bf 16 20 12 00 	lea    rdi,[r15+0x122016]
    48f7:	49 bf a7 99 d6 f7 ff 	movabs r15,0x7ffff7d699a7
    48fe:	7f 00 00 
    4901:	4d 8d 6d f8          	lea    r13,[r13-0x8]
    4905:	4d 89 7d 00          	mov    QWORD PTR [r13+0x0],r15
    4909:	e9 db 0a 00 00       	jmp    0x53e9
    490e:	49 8b 45 20          	mov    rax,QWORD PTR [r13+0x20]
    4912:	4c 8b 7d 98          	mov    r15,QWORD PTR [rbp-0x68]
    4916:	49 89 c7             	mov    r15,rax
    4919:	4c 39 e0             	cmp    rax,r12
    491c:	4c 89 7d 98          	mov    QWORD PTR [rbp-0x68],r15
    4920:	0f 87 d1 00 00 00    	ja     0x49f7
    4926:	41 c6 45 18 01       	mov    BYTE PTR [r13+0x18],0x1
    492b:	e9 36 f3 ff ff       	jmp    0x3c66
    4930:	41 f6 c0 0f          	test   r8b,0xf
    4934:	75 89                	jne    0x48bf
    4936:	40 84 ff             	test   dil,dil
    4939:	0f 84 43 01 00 00    	je     0x4a82
    493f:	49 bf d4 99 d6 f7 ff 	movabs r15,0x7ffff7d699d4
    4946:	7f 00 00 
    4949:	49 8b 87 ec 43 15 00 	mov    rax,QWORD PTR [r15+0x1543ec]
    4950:	4d 89 45 08          	mov    QWORD PTR [r13+0x8],r8
    4954:	31 ff                	xor    edi,edi
    4956:	49 bf dd 99 d6 f7 ff 	movabs r15,0x7ffff7d699dd
    495d:	7f 00 00 
    4960:	4d 8d 6d f8          	lea    r13,[r13-0x8]
    4964:	4d 89 7d 00          	mov    QWORD PTR [r13+0x0],r15
    4968:	4c 8b 38             	mov    r15,QWORD PTR [rax]
    496b:	4d 89 fe             	mov    r14,r15
    496e:	e9 7d 08 00 00       	jmp    0x51f0
    4973:	4d 8b 45 08          	mov    r8,QWORD PTR [r13+0x8]
    4977:	4d 89 45 10          	mov    QWORD PTR [r13+0x10],r8
    497b:	e9 b5 fd ff ff       	jmp    0x4735
    4980:	49 bf f3 99 d6 f7 ff 	movabs r15,0x7ffff7d699f3
    4987:	7f 00 00 
    498a:	49 8d 8f 3d 26 12 00 	lea    rcx,[r15+0x12263d]
    4991:	ba 28 0a 00 00       	mov    edx,0xa28
    4996:	49 bf ff 99 d6 f7 ff 	movabs r15,0x7ffff7d699ff
    499d:	7f 00 00 
    49a0:	49 8d b7 d7 d9 11 00 	lea    rsi,[r15+0x11d9d7]
    49a7:	49 bf 06 9a d6 f7 ff 	movabs r15,0x7ffff7d69a06
    49ae:	7f 00 00 
    49b1:	49 8d bf 18 db 11 00 	lea    rdi,[r15+0x11db18]
    49b8:	49 bf 0b 9a d6 f7 ff 	movabs r15,0x7ffff7d69a0b
    49bf:	7f 00 00 
    49c2:	4d 8d 6d f8          	lea    r13,[r13-0x8]
    49c6:	4d 89 7d 00          	mov    QWORD PTR [r13+0x0],r15
    49ca:	e9 1a 0a 00 00       	jmp    0x53e9
    49cf:	49 bf 12 9a d6 f7 ff 	movabs r15,0x7ffff7d69a12
    49d6:	7f 00 00 
    49d9:	49 8d bf 7e 1f 12 00 	lea    rdi,[r15+0x121f7e]
    49e0:	49 bf 17 9a d6 f7 ff 	movabs r15,0x7ffff7d69a17
    49e7:	7f 00 00 
    49ea:	4d 8d 6d f8          	lea    r13,[r13-0x8]
    49ee:	4d 89 7d 00          	mov    QWORD PTR [r13+0x0],r15
    49f2:	e9 7c 0c 00 00       	jmp    0x5673
    49f7:	45 31 c9             	xor    r9d,r9d
    49fa:	41 83 c8 ff          	or     r8d,0xffffffff
    49fe:	31 ff                	xor    edi,edi
    4a00:	b9 22 00 00 00       	mov    ecx,0x22
    4a05:	ba 03 00 00 00       	mov    edx,0x3
    4a0a:	48 89 c6             	mov    rsi,rax
    4a0d:	49 bf 32 9a d6 f7 ff 	movabs r15,0x7ffff7d69a32
    4a14:	7f 00 00 
    4a17:	4d 8d 6d f8          	lea    r13,[r13-0x8]
    4a1b:	4d 89 7d 00          	mov    QWORD PTR [r13+0x0],r15
    4a1f:	e9 99 0b 00 00       	jmp    0x55bd
    4a24:	48 83 f8 ff          	cmp    rax,0xffffffffffffffff
    4a28:	0f 85 1f f6 ff ff    	jne    0x404d
    4a2e:	e9 f3 fe ff ff       	jmp    0x4926
    4a33:	49 bf 48 9a d6 f7 ff 	movabs r15,0x7ffff7d69a48
    4a3a:	7f 00 00 
    4a3d:	49 8d 8f e8 25 12 00 	lea    rcx,[r15+0x1225e8]
    4a44:	ba 17 09 00 00       	mov    edx,0x917
    4a49:	49 bf 54 9a d6 f7 ff 	movabs r15,0x7ffff7d69a54
    4a50:	7f 00 00 
    4a53:	49 8d b7 82 d9 11 00 	lea    rsi,[r15+0x11d982]
    4a5a:	49 bf 5b 9a d6 f7 ff 	movabs r15,0x7ffff7d69a5b
    4a61:	7f 00 00 
    4a64:	49 8d bf 0d 1e 12 00 	lea    rdi,[r15+0x121e0d]
    4a6b:	49 bf 60 9a d6 f7 ff 	movabs r15,0x7ffff7d69a60
    4a72:	7f 00 00 
    4a75:	4d 8d 6d f8          	lea    r13,[r13-0x8]
    4a79:	4d 89 7d 00          	mov    QWORD PTR [r13+0x0],r15
    4a7d:	e9 67 09 00 00       	jmp    0x53e9
    4a82:	4c 8b 7d a0          	mov    r15,QWORD PTR [rbp-0x60]
    4a86:	45 31 ff             	xor    r15d,r15d
    4a89:	4c 89 7d a0          	mov    QWORD PTR [rbp-0x60],r15
    4a8d:	e9 6a fa ff ff       	jmp    0x44fc
    4a92:	90                   	nop
    4a93:	49 83 ed 18          	sub    r13,0x18
    4a97:	49 bf df c6 d6 f7 ff 	movabs r15,0x7ffff7d6c6df
    4a9e:	7f 00 00 
    4aa1:	49 8b 87 19 18 15 00 	mov    rax,QWORD PTR [r15+0x151819]
    4aa8:	48 d1 e0             	shl    rax,1
    4aab:	48 d1 e8             	shr    rax,1
    4aae:	48 8b 00             	mov    rax,QWORD PTR [rax]
    4ab1:	48 85 c0             	test   rax,rax
    4ab4:	0f 85 b7 00 00 00    	jne    0x4b71
    4aba:	48 85 ff             	test   rdi,rdi
    4abd:	0f 84 9a 00 00 00    	je     0x4b5d
    4ac3:	48 d1 e7             	shl    rdi,1
    4ac6:	48 d1 ef             	shr    rdi,1
    4ac9:	48 8b 47 f8          	mov    rax,QWORD PTR [rdi-0x8]
    4acd:	48 8d 77 f0          	lea    rsi,[rdi-0x10]
    4ad1:	a8 02                	test   al,0x2
    4ad3:	75 4c                	jne    0x4b21
    4ad5:	49 bf 03 c7 d6 f7 ff 	movabs r15,0x7ffff7d6c703
    4adc:	7f 00 00 
    4adf:	49 8b 97 75 16 15 00 	mov    rdx,QWORD PTR [r15+0x151675]
    4ae6:	4c 8b 7d 88          	mov    r15,QWORD PTR [rbp-0x78]
    4aea:	49 83 3c 17 00       	cmp    QWORD PTR [r15+rdx*1],0x0
    4aef:	0f 84 e6 00 00 00    	je     0x4bdb
    4af5:	49 bf 15 c7 d6 f7 ff 	movabs r15,0x7ffff7d6c715
    4afc:	7f 00 00 
    4aff:	49 8d bf 6b 24 15 00 	lea    rdi,[r15+0x15246b]
    4b06:	a8 04                	test   al,0x4
    4b08:	74 0c                	je     0x4b16
    4b0a:	48 89 f0             	mov    rax,rsi
    4b0d:	48 25 00 00 00 fc    	and    rax,0xfffffffffc000000
    4b13:	48 8b 38             	mov    rdi,QWORD PTR [rax]
    4b16:	31 d2                	xor    edx,edx
    4b18:	49 83 c5 18          	add    r13,0x18
    4b1c:	e9 69 de ff ff       	jmp    0x298a
    4b21:	49 bf 36 c7 d6 f7 ff 	movabs r15,0x7ffff7d6c736
    4b28:	7f 00 00 
    4b2b:	41 8b 97 7e 1b 15 00 	mov    edx,DWORD PTR [r15+0x151b7e]
    4b32:	85 d2                	test   edx,edx
    4b34:	75 1b                	jne    0x4b51
    4b36:	49 bf 41 c7 d6 f7 ff 	movabs r15,0x7ffff7d6c741
    4b3d:	7f 00 00 
    4b40:	49 3b 87 4f 1b 15 00 	cmp    rax,QWORD PTR [r15+0x151b4f]
    4b47:	76 08                	jbe    0x4b51
    4b49:	48 3d 00 00 00 02    	cmp    rax,0x2000000
    4b4f:	76 30                	jbe    0x4b81
    4b51:	48 89 f7             	mov    rdi,rsi
    4b54:	49 83 c5 18          	add    r13,0x18
    4b58:	e9 e0 c5 ff ff       	jmp    0x113d
    4b5d:	49 83 c5 18          	add    r13,0x18
    4b61:	4d 8b 7d 00          	mov    r15,QWORD PTR [r13+0x0]
    4b65:	4d 8d 6d 08          	lea    r13,[r13+0x8]
    4b69:	4d 89 fe             	mov    r14,r15
    4b6c:	e9 09 05 00 00       	jmp    0x507a
    4b71:	49 8b 75 18          	mov    rsi,QWORD PTR [r13+0x18]
    4b75:	49 83 c5 18          	add    r13,0x18
    4b79:	49 89 c6             	mov    r14,rax
    4b7c:	e9 ea 04 00 00       	jmp    0x506b
    4b81:	49 bf 7f c7 d6 f7 ff 	movabs r15,0x7ffff7d6c77f
    4b88:	7f 00 00 
    4b8b:	49 39 b7 19 47 15 00 	cmp    QWORD PTR [r15+0x154719],rsi
    4b92:	77 13                	ja     0x4ba7
    4b94:	49 bf 88 c7 d6 f7 ff 	movabs r15,0x7ffff7d6c788
    4b9b:	7f 00 00 
    4b9e:	49 39 b7 08 47 15 00 	cmp    QWORD PTR [r15+0x154708],rsi
    4ba5:	77 aa                	ja     0x4b51
    4ba7:	48 83 e0 f8          	and    rax,0xfffffffffffffff8
    4bab:	48 8d 14 45 00 00 00 	lea    rdx,[rax*2+0x0]
    4bb2:	00 
    4bb3:	49 bf 99 c7 d6 f7 ff 	movabs r15,0x7ffff7d6c799
    4bba:	7f 00 00 
    4bbd:	49 89 87 f7 1a 15 00 	mov    QWORD PTR [r15+0x151af7],rax
    4bc4:	49 bf a0 c7 d6 f7 ff 	movabs r15,0x7ffff7d6c7a0
    4bcb:	7f 00 00 
    4bce:	49 89 97 e0 1a 15 00 	mov    QWORD PTR [r15+0x151ae0],rdx
    4bd5:	90                   	nop
    4bd6:	e9 76 ff ff ff       	jmp    0x4b51
    4bdb:	49 bf af c7 d6 f7 ff 	movabs r15,0x7ffff7d6c7af
    4be2:	7f 00 00 
    4be5:	49 8b 97 d1 15 15 00 	mov    rdx,QWORD PTR [r15+0x1515d1]
    4bec:	49 89 7d 00          	mov    QWORD PTR [r13+0x0],rdi
    4bf0:	4c 8b 7d 88          	mov    r15,QWORD PTR [rbp-0x78]
    4bf4:	41 80 3c 17 00       	cmp    BYTE PTR [r15+rdx*1],0x0
    4bf9:	0f 85 f6 fe ff ff    	jne    0x4af5
    4bff:	49 89 75 08          	mov    QWORD PTR [r13+0x8],rsi
    4c03:	49 bf c7 c7 d6 f7 ff 	movabs r15,0x7ffff7d6c7c7
    4c0a:	7f 00 00 
    4c0d:	4d 8d 6d f8          	lea    r13,[r13-0x8]
    4c11:	4d 89 7d 00          	mov    QWORD PTR [r13+0x0],r15
    4c15:	e9 89 09 00 00       	jmp    0x55a3
    4c1a:	49 8b 7d 00          	mov    rdi,QWORD PTR [r13+0x0]
    4c1e:	49 8b 75 08          	mov    rsi,QWORD PTR [r13+0x8]
    4c22:	48 8b 47 f8          	mov    rax,QWORD PTR [rdi-0x8]
    4c26:	e9 ca fe ff ff       	jmp    0x4af5
    4c2b:	90                   	nop
    4c2c:	b8 0b 00 00 00       	mov    eax,0xb
    4c31:	49 be 79 a9 de f7 ff 	movabs r14,0x7ffff7dea979
    4c38:	7f 00 00 
    4c3b:	e9 c0 0a 00 00       	jmp    0x5700
    4c40:	48 3d 01 f0 ff ff    	cmp    rax,0xfffffffffffff001
    4c46:	73 10                	jae    0x4c58
    4c48:	4d 8b 7d 00          	mov    r15,QWORD PTR [r13+0x0]
    4c4c:	4d 8d 6d 08          	lea    r13,[r13+0x8]
    4c50:	4d 89 fe             	mov    r14,r15
    4c53:	e9 97 04 00 00       	jmp    0x50ef
    4c58:	49 bf 8b a9 de f7 ff 	movabs r15,0x7ffff7dea98b
    4c5f:	7f 00 00 
    4c62:	49 8b 8f e5 34 0d 00 	mov    rcx,QWORD PTR [r15+0xd34e5]
    4c69:	f7 d8                	neg    eax
    4c6b:	4c 8b 7d 88          	mov    r15,QWORD PTR [rbp-0x78]
    4c6f:	41 89 04 0f          	mov    DWORD PTR [r15+rcx*1],eax
    4c73:	48 83 c8 ff          	or     rax,0xffffffffffffffff
    4c77:	4d 8b 75 00          	mov    r14,QWORD PTR [r13+0x0]
    4c7b:	4d 8d 6d 08          	lea    r13,[r13+0x8]
    4c7f:	e9 a0 04 00 00       	jmp    0x5124
    4c84:	90                   	nop
    4c85:	49 89 ca             	mov    r10,rcx
    4c88:	b8 36 00 00 00       	mov    eax,0x36
    4c8d:	49 be 4c 27 df f7 ff 	movabs r14,0x7ffff7df274c
    4c94:	7f 00 00 
    4c97:	e9 64 0a 00 00       	jmp    0x5700
    4c9c:	48 3d 01 f0 ff ff    	cmp    rax,0xfffffffffffff001
    4ca2:	73 10                	jae    0x4cb4
    4ca4:	4d 8b 7d 00          	mov    r15,QWORD PTR [r13+0x0]
    4ca8:	4d 8d 6d 08          	lea    r13,[r13+0x8]
    4cac:	4d 89 fe             	mov    r14,r15
    4caf:	e9 95 01 00 00       	jmp    0x4e49
    4cb4:	49 bf 5e 27 df f7 ff 	movabs r15,0x7ffff7df275e
    4cbb:	7f 00 00 
    4cbe:	49 8b 8f 12 b7 0c 00 	mov    rcx,QWORD PTR [r15+0xcb712]
    4cc5:	f7 d8                	neg    eax
    4cc7:	4c 8b 7d 88          	mov    r15,QWORD PTR [rbp-0x78]
    4ccb:	41 89 04 0f          	mov    DWORD PTR [r15+rcx*1],eax
    4ccf:	48 83 c8 ff          	or     rax,0xffffffffffffffff
    4cd3:	4d 8b 75 00          	mov    r14,QWORD PTR [r13+0x0]
    4cd7:	4d 8d 6d 08          	lea    r13,[r13+0x8]
    4cdb:	e9 78 01 00 00       	jmp    0x4e58
    4ce0:	48 3d 00 f0 ff ff    	cmp    rax,0xfffffffffffff000
    4ce6:	77 0d                	ja     0x4cf5
    4ce8:	4d 8b 7d 00          	mov    r15,QWORD PTR [r13+0x0]
    4cec:	4d 8d 6d 08          	lea    r13,[r13+0x8]
    4cf0:	4d 89 fe             	mov    r14,r15
    4cf3:	eb 4f                	jmp    0x4d44
    4cf5:	49 bf 87 14 fa f7 ff 	movabs r15,0x7ffff7fa1487
    4cfc:	7f 00 00 
    4cff:	49 8b 97 21 ab 00 00 	mov    rdx,QWORD PTR [r15+0xab21]
    4d06:	f7 d8                	neg    eax
    4d08:	4c 8b 7d 88          	mov    r15,QWORD PTR [rbp-0x78]
    4d0c:	41 89 04 17          	mov    DWORD PTR [r15+rdx*1],eax
    4d10:	b8 ff ff ff ff       	mov    eax,0xffffffff
    4d15:	4d 8b 75 00          	mov    r14,QWORD PTR [r13+0x0]
    4d19:	4d 8d 6d 08          	lea    r13,[r13+0x8]
    4d1d:	e9 9e 06 00 00       	jmp    0x53c0
    4d22:	49 bf 8d 46 5a 55 55 	movabs r15,0x5555555a468d
    4d29:	55 00 00 
    4d2c:	4d 39 fe             	cmp    r14,r15
    4d2f:	0f 84 cf bc ff ff    	je     0xa04
    4d35:	49 bf 65 39 5a 55 55 	movabs r15,0x5555555a3965
    4d3c:	55 00 00 
    4d3f:	e9 c9 09 00 00       	jmp    0x570d
    4d44:	49 bf 8c 02 57 55 55 	movabs r15,0x55555557028c
    4d4b:	55 00 00 
    4d4e:	4d 39 fe             	cmp    r14,r15
    4d51:	0f 84 4c b3 ff ff    	je     0xa3
    4d57:	49 bf 40 14 fa f7 ff 	movabs r15,0x7ffff7fa1440
    4d5e:	7f 00 00 
    4d61:	e9 a7 09 00 00       	jmp    0x570d
    4d66:	49 bf 53 04 57 55 55 	movabs r15,0x555555570453
    4d6d:	55 00 00 
    4d70:	4d 39 fe             	cmp    r14,r15
    4d73:	0f 84 35 b4 ff ff    	je     0x1ae
    4d79:	49 bf 98 02 57 55 55 	movabs r15,0x555555570298
    4d80:	55 00 00 
    4d83:	e9 85 09 00 00       	jmp    0x570d
    4d88:	49 bf 40 27 df f7 ff 	movabs r15,0x7ffff7df2740
    4d8f:	7f 00 00 
    4d92:	4d 39 fe             	cmp    r14,r15
    4d95:	0f 84 e9 fe ff ff    	je     0x4c84
    4d9b:	49 bf 7b ca 56 55 55 	movabs r15,0x55555556ca7b
    4da2:	55 00 00 
    4da5:	e9 63 09 00 00       	jmp    0x570d
    4daa:	49 bf d0 c6 d6 f7 ff 	movabs r15,0x7ffff7d6c6d0
    4db1:	7f 00 00 
    4db4:	4d 39 fe             	cmp    r14,r15
    4db7:	0f 84 d5 fc ff ff    	je     0x4a92
    4dbd:	49 bf 8b c9 56 55 55 	movabs r15,0x55555556c98b
    4dc4:	55 00 00 
    4dc7:	e9 41 09 00 00       	jmp    0x570d
    4dcc:	49 bf 20 06 57 55 55 	movabs r15,0x555555570620
    4dd3:	55 00 00 
    4dd6:	4d 39 fe             	cmp    r14,r15
    4dd9:	0f 84 84 b4 ff ff    	je     0x263
    4ddf:	49 bf 2e 04 57 55 55 	movabs r15,0x55555557042e
    4de6:	55 00 00 
    4de9:	4d 39 fe             	cmp    r14,r15
    4dec:	0f 84 6f b3 ff ff    	je     0x161
    4df2:	49 bf f2 97 d6 f7 ff 	movabs r15,0x7ffff7d697f2
    4df9:	7f 00 00 
    4dfc:	4d 39 fe             	cmp    r14,r15
    4dff:	0f 84 c3 f7 ff ff    	je     0x45c8
    4e05:	49 bf 56 96 d6 f7 ff 	movabs r15,0x7ffff7d69656
    4e0c:	7f 00 00 
    4e0f:	4d 39 fe             	cmp    r14,r15
    4e12:	0f 84 40 f5 ff ff    	je     0x4358
    4e18:	49 bf 98 89 d6 f7 ff 	movabs r15,0x7ffff7d68998
    4e1f:	7f 00 00 
    4e22:	e9 e6 08 00 00       	jmp    0x570d
    4e27:	49 bf 46 39 5a 55 55 	movabs r15,0x5555555a3946
    4e2e:	55 00 00 
    4e31:	4d 39 fe             	cmp    r14,r15
    4e34:	0f 84 94 ba ff ff    	je     0x8ce
    4e3a:	49 bf 74 04 57 55 55 	movabs r15,0x555555570474
    4e41:	55 00 00 
    4e44:	e9 c4 08 00 00       	jmp    0x570d
    4e49:	49 bf 57 27 df f7 ff 	movabs r15,0x7ffff7df2757
    4e50:	7f 00 00 
    4e53:	e9 b5 08 00 00       	jmp    0x570d
    4e58:	49 bf 68 27 df f7 ff 	movabs r15,0x7ffff7df2768
    4e5f:	7f 00 00 
    4e62:	e9 a6 08 00 00       	jmp    0x570d
    4e67:	49 bf 7c 7a d6 f7 ff 	movabs r15,0x7ffff7d67a7c
    4e6e:	7f 00 00 
    4e71:	4d 39 fe             	cmp    r14,r15
    4e74:	0f 84 4e ce ff ff    	je     0x1cc8
    4e7a:	49 bf af 7a d6 f7 ff 	movabs r15,0x7ffff7d67aaf
    4e81:	7f 00 00 
    4e84:	4d 39 fe             	cmp    r14,r15
    4e87:	0f 84 b4 ce ff ff    	je     0x1d41
    4e8d:	49 bf f0 8a d6 f7 ff 	movabs r15,0x7ffff7d68af0
    4e94:	7f 00 00 
    4e97:	4d 39 fe             	cmp    r14,r15
    4e9a:	0f 84 c3 df ff ff    	je     0x2e63
    4ea0:	49 bf 49 8a d6 f7 ff 	movabs r15,0x7ffff7d68a49
    4ea7:	7f 00 00 
    4eaa:	4d 39 fe             	cmp    r14,r15
    4ead:	0f 84 a5 de ff ff    	je     0x2d58
    4eb3:	49 bf 8b 8e d6 f7 ff 	movabs r15,0x7ffff7d68e8b
    4eba:	7f 00 00 
    4ebd:	4d 39 fe             	cmp    r14,r15
    4ec0:	0f 84 c5 e5 ff ff    	je     0x348b
    4ec6:	49 bf f4 8d d6 f7 ff 	movabs r15,0x7ffff7d68df4
    4ecd:	7f 00 00 
    4ed0:	4d 39 fe             	cmp    r14,r15
    4ed3:	0f 84 d1 e4 ff ff    	je     0x33aa
    4ed9:	49 bf 0f 79 d6 f7 ff 	movabs r15,0x7ffff7d6790f
    4ee0:	7f 00 00 
    4ee3:	e9 25 08 00 00       	jmp    0x570d
    4ee8:	49 bf 7c 7a d6 f7 ff 	movabs r15,0x7ffff7d67a7c
    4eef:	7f 00 00 
    4ef2:	4d 39 fe             	cmp    r14,r15
    4ef5:	0f 84 cd cd ff ff    	je     0x1cc8
    4efb:	49 bf af 7a d6 f7 ff 	movabs r15,0x7ffff7d67aaf
    4f02:	7f 00 00 
    4f05:	4d 39 fe             	cmp    r14,r15
    4f08:	0f 84 33 ce ff ff    	je     0x1d41
    4f0e:	49 bf f0 8a d6 f7 ff 	movabs r15,0x7ffff7d68af0
    4f15:	7f 00 00 
    4f18:	4d 39 fe             	cmp    r14,r15
    4f1b:	0f 84 42 df ff ff    	je     0x2e63
    4f21:	49 bf 49 8a d6 f7 ff 	movabs r15,0x7ffff7d68a49
    4f28:	7f 00 00 
    4f2b:	4d 39 fe             	cmp    r14,r15
    4f2e:	0f 84 24 de ff ff    	je     0x2d58
    4f34:	49 bf 8b 8e d6 f7 ff 	movabs r15,0x7ffff7d68e8b
    4f3b:	7f 00 00 
    4f3e:	4d 39 fe             	cmp    r14,r15
    4f41:	0f 84 44 e5 ff ff    	je     0x348b
    4f47:	49 bf f4 8d d6 f7 ff 	movabs r15,0x7ffff7d68df4
    4f4e:	7f 00 00 
    4f51:	4d 39 fe             	cmp    r14,r15
    4f54:	0f 84 50 e4 ff ff    	je     0x33aa
    4f5a:	49 bf ca 79 d6 f7 ff 	movabs r15,0x7ffff7d679ca
    4f61:	7f 00 00 
    4f64:	e9 a4 07 00 00       	jmp    0x570d
    4f69:	49 bf 7c 7a d6 f7 ff 	movabs r15,0x7ffff7d67a7c
    4f70:	7f 00 00 
    4f73:	4d 39 fe             	cmp    r14,r15
    4f76:	0f 84 4c cd ff ff    	je     0x1cc8
    4f7c:	49 bf af 7a d6 f7 ff 	movabs r15,0x7ffff7d67aaf
    4f83:	7f 00 00 
    4f86:	4d 39 fe             	cmp    r14,r15
    4f89:	0f 84 b2 cd ff ff    	je     0x1d41
    4f8f:	49 bf f0 8a d6 f7 ff 	movabs r15,0x7ffff7d68af0
    4f96:	7f 00 00 
    4f99:	4d 39 fe             	cmp    r14,r15
    4f9c:	0f 84 c1 de ff ff    	je     0x2e63
    4fa2:	49 bf 49 8a d6 f7 ff 	movabs r15,0x7ffff7d68a49
    4fa9:	7f 00 00 
    4fac:	4d 39 fe             	cmp    r14,r15
    4faf:	0f 84 a3 dd ff ff    	je     0x2d58
    4fb5:	49 bf 8b 8e d6 f7 ff 	movabs r15,0x7ffff7d68e8b
    4fbc:	7f 00 00 
    4fbf:	4d 39 fe             	cmp    r14,r15
    4fc2:	0f 84 c3 e4 ff ff    	je     0x348b
    4fc8:	49 bf f4 8d d6 f7 ff 	movabs r15,0x7ffff7d68df4
    4fcf:	7f 00 00 
    4fd2:	4d 39 fe             	cmp    r14,r15
    4fd5:	0f 84 cf e3 ff ff    	je     0x33aa
    4fdb:	49 bf c6 80 d6 f7 ff 	movabs r15,0x7ffff7d680c6
    4fe2:	7f 00 00 
    4fe5:	e9 23 07 00 00       	jmp    0x570d
    4fea:	49 bf 7c 7a d6 f7 ff 	movabs r15,0x7ffff7d67a7c
    4ff1:	7f 00 00 
    4ff4:	4d 39 fe             	cmp    r14,r15
    4ff7:	0f 84 cb cc ff ff    	je     0x1cc8
    4ffd:	49 bf af 7a d6 f7 ff 	movabs r15,0x7ffff7d67aaf
    5004:	7f 00 00 
    5007:	4d 39 fe             	cmp    r14,r15
    500a:	0f 84 31 cd ff ff    	je     0x1d41
    5010:	49 bf f0 8a d6 f7 ff 	movabs r15,0x7ffff7d68af0
    5017:	7f 00 00 
    501a:	4d 39 fe             	cmp    r14,r15
    501d:	0f 84 40 de ff ff    	je     0x2e63
    5023:	49 bf 49 8a d6 f7 ff 	movabs r15,0x7ffff7d68a49
    502a:	7f 00 00 
    502d:	4d 39 fe             	cmp    r14,r15
    5030:	0f 84 22 dd ff ff    	je     0x2d58
    5036:	49 bf 8b 8e d6 f7 ff 	movabs r15,0x7ffff7d68e8b
    503d:	7f 00 00 
    5040:	4d 39 fe             	cmp    r14,r15
    5043:	0f 84 42 e4 ff ff    	je     0x348b
    5049:	49 bf f4 8d d6 f7 ff 	movabs r15,0x7ffff7d68df4
    5050:	7f 00 00 
    5053:	4d 39 fe             	cmp    r14,r15
    5056:	0f 84 4e e3 ff ff    	je     0x33aa
    505c:	49 bf 4f 7c d6 f7 ff 	movabs r15,0x7ffff7d67c4f
    5063:	7f 00 00 
    5066:	e9 a2 06 00 00       	jmp    0x570d
    506b:	49 bf 73 c7 d6 f7 ff 	movabs r15,0x7ffff7d6c773
    5072:	7f 00 00 
    5075:	e9 93 06 00 00       	jmp    0x570d
    507a:	49 bf 65 c7 d6 f7 ff 	movabs r15,0x7ffff7d6c765
    5081:	7f 00 00 
    5084:	e9 84 06 00 00       	jmp    0x570d
    5089:	49 bf f0 8a d6 f7 ff 	movabs r15,0x7ffff7d68af0
    5090:	7f 00 00 
    5093:	4d 39 fe             	cmp    r14,r15
    5096:	0f 84 c7 dd ff ff    	je     0x2e63
    509c:	49 bf 36 75 d6 f7 ff 	movabs r15,0x7ffff7d67536
    50a3:	7f 00 00 
    50a6:	e9 62 06 00 00       	jmp    0x570d
    50ab:	49 bf f0 8a d6 f7 ff 	movabs r15,0x7ffff7d68af0
    50b2:	7f 00 00 
    50b5:	4d 39 fe             	cmp    r14,r15
    50b8:	0f 84 a5 dd ff ff    	je     0x2e63
    50be:	49 bf 5b 76 d6 f7 ff 	movabs r15,0x7ffff7d6765b
    50c5:	7f 00 00 
    50c8:	e9 40 06 00 00       	jmp    0x570d
    50cd:	49 bf f0 8a d6 f7 ff 	movabs r15,0x7ffff7d68af0
    50d4:	7f 00 00 
    50d7:	4d 39 fe             	cmp    r14,r15
    50da:	0f 84 83 dd ff ff    	je     0x2e63
    50e0:	49 bf 47 76 d6 f7 ff 	movabs r15,0x7ffff7d67647
    50e7:	7f 00 00 
    50ea:	e9 1e 06 00 00       	jmp    0x570d
    50ef:	49 bf f0 8a d6 f7 ff 	movabs r15,0x7ffff7d68af0
    50f6:	7f 00 00 
    50f9:	4d 39 fe             	cmp    r14,r15
    50fc:	0f 84 61 dd ff ff    	je     0x2e63
    5102:	49 bf 43 8d d6 f7 ff 	movabs r15,0x7ffff7d68d43
    5109:	7f 00 00 
    510c:	4d 39 fe             	cmp    r14,r15
    510f:	0f 84 4c e1 ff ff    	je     0x3261
    5115:	49 bf 84 a9 de f7 ff 	movabs r15,0x7ffff7dea984
    511c:	7f 00 00 
    511f:	e9 e9 05 00 00       	jmp    0x570d
    5124:	49 bf f0 8a d6 f7 ff 	movabs r15,0x7ffff7d68af0
    512b:	7f 00 00 
    512e:	4d 39 fe             	cmp    r14,r15
    5131:	0f 84 2c dd ff ff    	je     0x2e63
    5137:	49 bf 43 8d d6 f7 ff 	movabs r15,0x7ffff7d68d43
    513e:	7f 00 00 
    5141:	4d 39 fe             	cmp    r14,r15
    5144:	0f 84 17 e1 ff ff    	je     0x3261
    514a:	49 bf 95 a9 de f7 ff 	movabs r15,0x7ffff7dea995
    5151:	7f 00 00 
    5154:	e9 b4 05 00 00       	jmp    0x570d
    5159:	49 bf f0 8a d6 f7 ff 	movabs r15,0x7ffff7d68af0
    5160:	7f 00 00 
    5163:	4d 39 fe             	cmp    r14,r15
    5166:	0f 84 f7 dc ff ff    	je     0x2e63
    516c:	49 bf eb 77 d6 f7 ff 	movabs r15,0x7ffff7d677eb
    5173:	7f 00 00 
    5176:	e9 92 05 00 00       	jmp    0x570d
    517b:	49 bf f0 8a d6 f7 ff 	movabs r15,0x7ffff7d68af0
    5182:	7f 00 00 
    5185:	4d 39 fe             	cmp    r14,r15
    5188:	0f 84 d5 dc ff ff    	je     0x2e63
    518e:	49 bf de 77 d6 f7 ff 	movabs r15,0x7ffff7d677de
    5195:	7f 00 00 
    5198:	e9 70 05 00 00       	jmp    0x570d
    519d:	49 bf f2 97 d6 f7 ff 	movabs r15,0x7ffff7d697f2
    51a4:	7f 00 00 
    51a7:	4d 39 fe             	cmp    r14,r15
    51aa:	0f 84 18 f4 ff ff    	je     0x45c8
    51b0:	49 bf 56 96 d6 f7 ff 	movabs r15,0x7ffff7d69656
    51b7:	7f 00 00 
    51ba:	4d 39 fe             	cmp    r14,r15
    51bd:	0f 84 95 f1 ff ff    	je     0x4358
    51c3:	49 bf 90 93 d6 f7 ff 	movabs r15,0x7ffff7d69390
    51ca:	7f 00 00 
    51cd:	e9 3b 05 00 00       	jmp    0x570d
    51d2:	49 bf 75 95 d6 f7 ff 	movabs r15,0x7ffff7d69575
    51d9:	7f 00 00 
    51dc:	e9 2c 05 00 00       	jmp    0x570d
    51e1:	49 bf ec 98 d6 f7 ff 	movabs r15,0x7ffff7d698ec
    51e8:	7f 00 00 
    51eb:	e9 1d 05 00 00       	jmp    0x570d
    51f0:	49 bf dd 99 d6 f7 ff 	movabs r15,0x7ffff7d699dd
    51f7:	7f 00 00 
    51fa:	e9 0e 05 00 00       	jmp    0x570d
    51ff:	49 bf 7b 98 d6 f7 ff 	movabs r15,0x7ffff7d6987b
    5206:	7f 00 00 
    5209:	e9 ff 04 00 00       	jmp    0x570d
    520e:	49 bf c3 98 d6 f7 ff 	movabs r15,0x7ffff7d698c3
    5215:	7f 00 00 
    5218:	e9 f0 04 00 00       	jmp    0x570d
    521d:	49 bf 07 99 d6 f7 ff 	movabs r15,0x7ffff7d69907
    5224:	7f 00 00 
    5227:	e9 e1 04 00 00       	jmp    0x570d
    522c:	49 bf ac 47 5a 55 55 	movabs r15,0x5555555a47ac
    5233:	55 00 00 
    5236:	4d 39 fe             	cmp    r14,r15
    5239:	0f 84 5d b9 ff ff    	je     0xb9c
    523f:	49 bf b9 47 5a 55 55 	movabs r15,0x5555555a47b9
    5246:	55 00 00 
    5249:	4d 39 fe             	cmp    r14,r15
    524c:	0f 84 69 b9 ff ff    	je     0xbbb
    5252:	49 bf c7 49 5a 55 55 	movabs r15,0x5555555a49c7
    5259:	55 00 00 
    525c:	4d 39 fe             	cmp    r14,r15
    525f:	0f 84 e5 bd ff ff    	je     0x104a
    5265:	49 bf 2f 4a 5a 55 55 	movabs r15,0x5555555a4a2f
    526c:	55 00 00 
    526f:	4d 39 fe             	cmp    r14,r15
    5272:	0f 84 c0 be ff ff    	je     0x1138
    5278:	49 bf 11 4a 5a 55 55 	movabs r15,0x5555555a4a11
    527f:	55 00 00 
    5282:	4d 39 fe             	cmp    r14,r15
    5285:	0f 84 6b be ff ff    	je     0x10f6
    528b:	49 bf 48 3a 5a 55 55 	movabs r15,0x5555555a3a48
    5292:	55 00 00 
    5295:	e9 73 04 00 00       	jmp    0x570d
    529a:	49 bf 9d 46 5a 55 55 	movabs r15,0x5555555a469d
    52a1:	55 00 00 
    52a4:	4d 39 fe             	cmp    r14,r15
    52a7:	0f 84 81 b7 ff ff    	je     0xa2e
    52ad:	49 bf f3 e3 58 55 55 	movabs r15,0x55555558e3f3
    52b4:	55 00 00 
    52b7:	e9 51 04 00 00       	jmp    0x570d
    52bc:	49 bf ed 47 5a 55 55 	movabs r15,0x5555555a47ed
    52c3:	55 00 00 
    52c6:	4d 39 fe             	cmp    r14,r15
    52c9:	0f 84 6b b9 ff ff    	je     0xc3a
    52cf:	49 bf 1f 48 5a 55 55 	movabs r15,0x5555555a481f
    52d6:	55 00 00 
    52d9:	4d 39 fe             	cmp    r14,r15
    52dc:	0f 84 bf b9 ff ff    	je     0xca1
    52e2:	49 bf 61 48 5a 55 55 	movabs r15,0x5555555a4861
    52e9:	55 00 00 
    52ec:	4d 39 fe             	cmp    r14,r15
    52ef:	0f 84 45 ba ff ff    	je     0xd3a
    52f5:	49 bf 2f 06 57 55 55 	movabs r15,0x55555557062f
    52fc:	55 00 00 
    52ff:	e9 09 04 00 00       	jmp    0x570d
    5304:	49 bf 8a 44 5a 55 55 	movabs r15,0x5555555a448a
    530b:	55 00 00 
    530e:	e9 fa 03 00 00       	jmp    0x570d
    5313:	49 bf d4 49 5a 55 55 	movabs r15,0x5555555a49d4
    531a:	55 00 00 
    531d:	4d 39 fe             	cmp    r14,r15
    5320:	0f 84 43 bd ff ff    	je     0x1069
    5326:	49 bf 87 24 59 55 55 	movabs r15,0x555555592487
    532d:	55 00 00 
    5330:	e9 d8 03 00 00       	jmp    0x570d
    5335:	49 bf d4 49 5a 55 55 	movabs r15,0x5555555a49d4
    533c:	55 00 00 
    533f:	4d 39 fe             	cmp    r14,r15
    5342:	0f 84 21 bd ff ff    	je     0x1069
    5348:	49 bf ea 24 59 55 55 	movabs r15,0x5555555924ea
    534f:	55 00 00 
    5352:	e9 b6 03 00 00       	jmp    0x570d
    5357:	49 bf b8 48 5a 55 55 	movabs r15,0x5555555a48b8
    535e:	55 00 00 
    5361:	e9 a7 03 00 00       	jmp    0x570d
    5366:	49 bf e1 e3 58 55 55 	movabs r15,0x55555558e3e1
    536d:	55 00 00 
    5370:	e9 98 03 00 00       	jmp    0x570d
    5375:	49 bf 11 e4 58 55 55 	movabs r15,0x55555558e411
    537c:	55 00 00 
    537f:	e9 89 03 00 00       	jmp    0x570d
    5384:	49 bf 74 e4 58 55 55 	movabs r15,0x55555558e474
    538b:	55 00 00 
    538e:	e9 7a 03 00 00       	jmp    0x570d
    5393:	49 bf 43 e4 58 55 55 	movabs r15,0x55555558e443
    539a:	55 00 00 
    539d:	e9 6b 03 00 00       	jmp    0x570d
    53a2:	49 bf a9 e4 58 55 55 	movabs r15,0x55555558e4a9
    53a9:	55 00 00 
    53ac:	e9 5c 03 00 00       	jmp    0x570d
    53b1:	49 bf 53 04 57 55 55 	movabs r15,0x555555570453
    53b8:	55 00 00 
    53bb:	e9 4d 03 00 00       	jmp    0x570d
    53c0:	49 bf 92 14 fa f7 ff 	movabs r15,0x7ffff7fa1492
    53c7:	7f 00 00 
    53ca:	e9 3e 03 00 00       	jmp    0x570d
    53cf:	49 be 00 73 d6 f7 ff 	movabs r14,0x7ffff7d67300
    53d6:	7f 00 00 
    53d9:	48 c7 85 78 ff ff ff 	mov    QWORD PTR [rbp-0x88],0x1
    53e0:	01 00 00 00 
    53e4:	e9 32 03 00 00       	jmp    0x571b
    53e9:	49 be 80 72 d6 f7 ff 	movabs r14,0x7ffff7d67280
    53f0:	7f 00 00 
    53f3:	48 c7 85 78 ff ff ff 	mov    QWORD PTR [rbp-0x88],0x1
    53fa:	01 00 00 00 
    53fe:	e9 18 03 00 00       	jmp    0x571b
    5403:	49 be 80 79 d6 f7 ff 	movabs r14,0x7ffff7d67980
    540a:	7f 00 00 
    540d:	48 c7 85 78 ff ff ff 	mov    QWORD PTR [rbp-0x88],0x1
    5414:	01 00 00 00 
    5418:	e9 fe 02 00 00       	jmp    0x571b
    541d:	49 be 00 56 de f7 ff 	movabs r14,0x7ffff7de5600
    5424:	7f 00 00 
    5427:	48 c7 85 78 ff ff ff 	mov    QWORD PTR [rbp-0x88],0x1
    542e:	01 00 00 00 
    5432:	e9 e4 02 00 00       	jmp    0x571b
    5437:	49 be 00 cb 56 55 55 	movabs r14,0x55555556cb00
    543e:	55 00 00 
    5441:	48 c7 85 78 ff ff ff 	mov    QWORD PTR [rbp-0x88],0x1
    5448:	01 00 00 00 
    544c:	e9 ca 02 00 00       	jmp    0x571b
    5451:	49 be 03 04 57 55 55 	movabs r14,0x555555570403
    5458:	55 00 00 
    545b:	48 c7 85 78 ff ff ff 	mov    QWORD PTR [rbp-0x88],0x1
    5462:	01 00 00 00 
    5466:	e9 b0 02 00 00       	jmp    0x571b
    546b:	49 be 05 b4 57 55 55 	movabs r14,0x55555557b405
    5472:	55 00 00 
    5475:	48 c7 85 78 ff ff ff 	mov    QWORD PTR [rbp-0x88],0x1
    547c:	01 00 00 00 
    5480:	e9 96 02 00 00       	jmp    0x571b
    5485:	49 be 90 e6 de f7 ff 	movabs r14,0x7ffff7dee690
    548c:	7f 00 00 
    548f:	48 c7 85 78 ff ff ff 	mov    QWORD PTR [rbp-0x88],0x1
    5496:	01 00 00 00 
    549a:	e9 7c 02 00 00       	jmp    0x571b
    549f:	49 be 10 77 d6 f7 ff 	movabs r14,0x7ffff7d67710
    54a6:	7f 00 00 
    54a9:	48 c7 85 78 ff ff ff 	mov    QWORD PTR [rbp-0x88],0x1
    54b0:	01 00 00 00 
    54b4:	e9 62 02 00 00       	jmp    0x571b
    54b9:	49 be 90 c9 56 55 55 	movabs r14,0x55555556c990
    54c0:	55 00 00 
    54c3:	48 c7 85 78 ff ff ff 	mov    QWORD PTR [rbp-0x88],0x1
    54ca:	01 00 00 00 
    54ce:	e9 48 02 00 00       	jmp    0x571b
    54d3:	49 be 10 cc 56 55 55 	movabs r14,0x55555556cc10
    54da:	55 00 00 
    54dd:	48 c7 85 78 ff ff ff 	mov    QWORD PTR [rbp-0x88],0x1
    54e4:	01 00 00 00 
    54e8:	e9 2e 02 00 00       	jmp    0x571b
    54ed:	49 be 1a f7 57 55 55 	movabs r14,0x55555557f71a
    54f4:	55 00 00 
    54f7:	48 c7 85 78 ff ff ff 	mov    QWORD PTR [rbp-0x88],0x1
    54fe:	01 00 00 00 
    5502:	e9 14 02 00 00       	jmp    0x571b
    5507:	49 be 1a fc 57 55 55 	movabs r14,0x55555557fc1a
    550e:	55 00 00 
    5511:	48 c7 85 78 ff ff ff 	mov    QWORD PTR [rbp-0x88],0x1
    5518:	01 00 00 00 
    551c:	e9 fa 01 00 00       	jmp    0x571b
    5521:	49 be a0 65 d6 f7 ff 	movabs r14,0x7ffff7d665a0
    5528:	7f 00 00 
    552b:	48 c7 85 78 ff ff ff 	mov    QWORD PTR [rbp-0x88],0x1
    5532:	01 00 00 00 
    5536:	e9 e0 01 00 00       	jmp    0x571b
    553b:	49 be a0 1c df f7 ff 	movabs r14,0x7ffff7df1ca0
    5542:	7f 00 00 
    5545:	48 c7 85 78 ff ff ff 	mov    QWORD PTR [rbp-0x88],0x1
    554c:	01 00 00 00 
    5550:	e9 c6 01 00 00       	jmp    0x571b
    5555:	49 be a0 a9 de f7 ff 	movabs r14,0x7ffff7dea9a0
    555c:	7f 00 00 
    555f:	48 c7 85 78 ff ff ff 	mov    QWORD PTR [rbp-0x88],0x1
    5566:	01 00 00 00 
    556a:	e9 ac 01 00 00       	jmp    0x571b
    556f:	49 be b0 54 de f7 ff 	movabs r14,0x7ffff7de54b0
    5576:	7f 00 00 
    5579:	48 c7 85 78 ff ff ff 	mov    QWORD PTR [rbp-0x88],0x1
    5580:	01 00 00 00 
    5584:	e9 92 01 00 00       	jmp    0x571b
    5589:	49 be 3a fa 57 55 55 	movabs r14,0x55555557fa3a
    5590:	55 00 00 
    5593:	48 c7 85 78 ff ff ff 	mov    QWORD PTR [rbp-0x88],0x1
    559a:	01 00 00 00 
    559e:	e9 78 01 00 00       	jmp    0x571b
    55a3:	49 be 40 a9 d6 f7 ff 	movabs r14,0x7ffff7d6a940
    55aa:	7f 00 00 
    55ad:	48 c7 85 78 ff ff ff 	mov    QWORD PTR [rbp-0x88],0x1
    55b4:	01 00 00 00 
    55b8:	e9 5e 01 00 00       	jmp    0x571b
    55bd:	49 be c0 a8 de f7 ff 	movabs r14,0x7ffff7dea8c0
    55c4:	7f 00 00 
    55c7:	48 c7 85 78 ff ff ff 	mov    QWORD PTR [rbp-0x88],0x1
    55ce:	01 00 00 00 
    55d2:	e9 44 01 00 00       	jmp    0x571b
    55d7:	49 be 40 53 de f7 ff 	movabs r14,0x7ffff7de5340
    55de:	7f 00 00 
    55e1:	48 c7 85 78 ff ff ff 	mov    QWORD PTR [rbp-0x88],0x1
    55e8:	01 00 00 00 
    55ec:	e9 2a 01 00 00       	jmp    0x571b
    55f1:	49 be c0 c9 56 55 55 	movabs r14,0x55555556c9c0
    55f8:	55 00 00 
    55fb:	48 c7 85 78 ff ff ff 	mov    QWORD PTR [rbp-0x88],0x1
    5602:	01 00 00 00 
    5606:	e9 10 01 00 00       	jmp    0x571b
    560b:	49 be cb f7 57 55 55 	movabs r14,0x55555557f7cb
    5612:	55 00 00 
    5615:	48 c7 85 78 ff ff ff 	mov    QWORD PTR [rbp-0x88],0x1
    561c:	01 00 00 00 
    5620:	e9 f6 00 00 00       	jmp    0x571b
    5625:	49 be 4c b1 57 55 55 	movabs r14,0x55555557b14c
    562c:	55 00 00 
    562f:	48 c7 85 78 ff ff ff 	mov    QWORD PTR [rbp-0x88],0x1
    5636:	01 00 00 00 
    563a:	e9 dc 00 00 00       	jmp    0x571b
    563f:	49 be 4e 33 5a 55 55 	movabs r14,0x5555555a334e
    5646:	55 00 00 
    5649:	48 c7 85 78 ff ff ff 	mov    QWORD PTR [rbp-0x88],0x1
    5650:	01 00 00 00 
    5654:	e9 c2 00 00 00       	jmp    0x571b
    5659:	49 be cf f5 56 55 55 	movabs r14,0x55555556f5cf
    5660:	55 00 00 
    5663:	48 c7 85 78 ff ff ff 	mov    QWORD PTR [rbp-0x88],0x1
    566a:	01 00 00 00 
    566e:	e9 a8 00 00 00       	jmp    0x571b
    5673:	49 be e0 72 d6 f7 ff 	movabs r14,0x7ffff7d672e0
    567a:	7f 00 00 
    567d:	48 c7 85 78 ff ff ff 	mov    QWORD PTR [rbp-0x88],0x1
    5684:	01 00 00 00 
    5688:	e9 8e 00 00 00       	jmp    0x571b
    568d:	49 be e0 76 d6 f7 ff 	movabs r14,0x7ffff7d676e0
    5694:	7f 00 00 
    5697:	48 c7 85 78 ff ff ff 	mov    QWORD PTR [rbp-0x88],0x1
    569e:	01 00 00 00 
    56a2:	eb 77                	jmp    0x571b
    56a4:	49 be 60 45 cf f7 ff 	movabs r14,0x7ffff7cf4560
    56ab:	7f 00 00 
    56ae:	48 c7 85 78 ff ff ff 	mov    QWORD PTR [rbp-0x88],0x1
    56b5:	01 00 00 00 
    56b9:	eb 60                	jmp    0x571b
    56bb:	49 be 70 1a e0 f7 ff 	movabs r14,0x7ffff7e01a70
    56c2:	7f 00 00 
    56c5:	48 c7 85 78 ff ff ff 	mov    QWORD PTR [rbp-0x88],0x1
    56cc:	01 00 00 00 
    56d0:	eb 49                	jmp    0x571b
    56d2:	49 be 70 87 d6 f7 ff 	movabs r14,0x7ffff7d68770
    56d9:	7f 00 00 
    56dc:	48 c7 85 78 ff ff ff 	mov    QWORD PTR [rbp-0x88],0x1
    56e3:	01 00 00 00 
    56e7:	eb 32                	jmp    0x571b
    56e9:	49 be 70 aa de f7 ff 	movabs r14,0x7ffff7deaa70
    56f0:	7f 00 00 
    56f3:	48 c7 85 78 ff ff ff 	mov    QWORD PTR [rbp-0x88],0x1
    56fa:	01 00 00 00 
    56fe:	eb 1b                	jmp    0x571b
    5700:	48 c7 85 78 ff ff ff 	mov    QWORD PTR [rbp-0x88],0x0
    5707:	00 00 00 00 
    570b:	eb 0e                	jmp    0x571b
    570d:	4c 89 bd 78 ff ff ff 	mov    QWORD PTR [rbp-0x88],r15
    5714:	eb 05                	jmp    0x571b
    5716:	eb 03                	jmp    0x571b
    5718:	9d                   	popf   
    5719:	eb 00                	jmp    0x571b
    571b:	4c 89 75 80          	mov    QWORD PTR [rbp-0x80],r14
    571f:	4c 89 6d b8          	mov    QWORD PTR [rbp-0x48],r13
    5723:	4c 89 65 c0          	mov    QWORD PTR [rbp-0x40],r12
    5727:	4c 8b 75 d0          	mov    r14,QWORD PTR [rbp-0x30]
    572b:	4c 8b 7d c8          	mov    r15,QWORD PTR [rbp-0x38]
    572f:	41 8f 47 08          	pop    QWORD PTR [r15+0x8]
    5733:	41 8f 07             	pop    QWORD PTR [r15]
    5736:	41 8f 86 80 00 00 00 	pop    QWORD PTR [r14+0x80]
    573d:	48 83 c4 10          	add    rsp,0x10
    5741:	41 8f 46 18          	pop    QWORD PTR [r14+0x18]
    5745:	41 8f 46 10          	pop    QWORD PTR [r14+0x10]
    5749:	41 8f 46 08          	pop    QWORD PTR [r14+0x8]
    574d:	41 8f 06             	pop    QWORD PTR [r14]
    5750:	41 8f 86 98 00 00 00 	pop    QWORD PTR [r14+0x98]
    5757:	41 8f 46 20          	pop    QWORD PTR [r14+0x20]
    575b:	49 89 5e 28          	mov    QWORD PTR [r14+0x28],rbx
    575f:	4d 89 5e 30          	mov    QWORD PTR [r14+0x30],r11
    5763:	4d 89 56 38          	mov    QWORD PTR [r14+0x38],r10
    5767:	4d 89 4e 40          	mov    QWORD PTR [r14+0x40],r9
    576b:	4d 89 46 48          	mov    QWORD PTR [r14+0x48],r8
    576f:	49 89 46 50          	mov    QWORD PTR [r14+0x50],rax
    5773:	49 89 4e 58          	mov    QWORD PTR [r14+0x58],rcx
    5777:	49 89 56 60          	mov    QWORD PTR [r14+0x60],rdx
    577b:	49 89 76 68          	mov    QWORD PTR [r14+0x68],rsi
    577f:	49 89 7e 70          	mov    QWORD PTR [r14+0x70],rdi
    5783:	48 83 c4 10          	add    rsp,0x10
    5787:	41 5f                	pop    r15
    5789:	41 5e                	pop    r14
    578b:	41 5d                	pop    r13
    578d:	41 5c                	pop    r12
    578f:	5b                   	pop    rbx
    5790:	5d                   	pop    rbp
    5791:	c3                   	ret    
