
./asm/jit.bin:     file format binary


Disassembly of section .data:

0000000000000000 <.data>:
       0:	55                   	push   rbp
       1:	48 89 e5             	mov    rbp,rsp
       4:	53                   	push   rbx
       5:	41 54                	push   r12
       7:	41 55                	push   r13
       9:	41 56                	push   r14
       b:	41 57                	push   r15
       d:	57                   	push   rdi
       e:	56                   	push   rsi
       f:	49 89 fe             	mov    r14,rdi
      12:	49 89 f7             	mov    r15,rsi
      15:	49 8b 5e 28          	mov    rbx,QWORD PTR [r14+0x28]
      19:	4d 8b 5e 30          	mov    r11,QWORD PTR [r14+0x30]
      1d:	4d 8b 56 38          	mov    r10,QWORD PTR [r14+0x38]
      21:	4d 8b 4e 40          	mov    r9,QWORD PTR [r14+0x40]
      25:	4d 8b 46 48          	mov    r8,QWORD PTR [r14+0x48]
      29:	49 8b 46 50          	mov    rax,QWORD PTR [r14+0x50]
      2d:	49 8b 4e 58          	mov    rcx,QWORD PTR [r14+0x58]
      31:	49 8b 56 60          	mov    rdx,QWORD PTR [r14+0x60]
      35:	49 8b 76 68          	mov    rsi,QWORD PTR [r14+0x68]
      39:	49 8b 7e 70          	mov    rdi,QWORD PTR [r14+0x70]
      3d:	41 ff 76 20          	push   QWORD PTR [r14+0x20]
      41:	41 ff b6 98 00 00 00 	push   QWORD PTR [r14+0x98]
      48:	41 ff 36             	push   QWORD PTR [r14]
      4b:	41 ff 76 08          	push   QWORD PTR [r14+0x8]
      4f:	41 ff 76 10          	push   QWORD PTR [r14+0x10]
      53:	41 ff 76 18          	push   QWORD PTR [r14+0x18]
      57:	41 ff 77 08          	push   QWORD PTR [r15+0x8]
      5b:	41 ff 37             	push   QWORD PTR [r15]
      5e:	48 83 ec 10          	sub    rsp,0x10
      62:	4c 8b 6d b8          	mov    r13,QWORD PTR [rbp-0x48]
      66:	4c 8b 65 c0          	mov    r12,QWORD PTR [rbp-0x40]
      6a:	e9 09 63 00 00       	jmp    0x6378
      6f:	90                   	nop
      70:	49 bf 8b ef 58 55 55 	movabs r15,0x55555558ef8b
      77:	55 00 00 
      7a:	4d 8b b7 85 18 1a 00 	mov    r14,QWORD PTR [r15+0x1a1885]
      81:	e9 56 6b 00 00       	jmp    0x6bdc
      86:	90                   	nop
      87:	49 bf eb f8 58 55 55 	movabs r15,0x55555558f8eb
      8e:	55 00 00 
      91:	4d 8b b7 d5 13 1a 00 	mov    r14,QWORD PTR [r15+0x1a13d5]
      98:	e9 5a 64 00 00       	jmp    0x64f7
      9d:	90                   	nop
      9e:	49 bf 4b fb 58 55 55 	movabs r15,0x55555558fb4b
      a5:	55 00 00 
      a8:	4d 8b b7 a5 12 1a 00 	mov    r14,QWORD PTR [r15+0x1a12a5]
      af:	e9 72 66 00 00       	jmp    0x6726
      b4:	90                   	nop
      b5:	49 bf eb fb 58 55 55 	movabs r15,0x55555558fbeb
      bc:	55 00 00 
      bf:	4d 8b b7 55 12 1a 00 	mov    r14,QWORD PTR [r15+0x1a1255]
      c6:	e9 c6 63 00 00       	jmp    0x6491
      cb:	90                   	nop
      cc:	4d 8d 6d f8          	lea    r13,[r13-0x8]
      d0:	4d 89 65 00          	mov    QWORD PTR [r13+0x0],r12
      d4:	49 89 f4             	mov    r12,rsi
      d7:	4d 8d 6d f8          	lea    r13,[r13-0x8]
      db:	49 89 5d 00          	mov    QWORD PTR [r13+0x0],rbx
      df:	48 89 fb             	mov    rbx,rdi
      e2:	49 83 ed 08          	sub    r13,0x8
      e6:	48 85 f6             	test   rsi,rsi
      e9:	0f 88 31 71 00 00    	js     0x7220
      ef:	48 8b 16             	mov    rdx,QWORD PTR [rsi]
      f2:	48 85 f6             	test   rsi,rsi
      f5:	0f 88 25 71 00 00    	js     0x7220
      fb:	48 8b 46 08          	mov    rax,QWORD PTR [rsi+0x8]
      ff:	48 85 d2             	test   rdx,rdx
     102:	0f 84 a9 00 00 00    	je     0x1b1
     108:	48 85 d2             	test   rdx,rdx
     10b:	0f 88 0f 71 00 00    	js     0x7220
     111:	48 89 42 08          	mov    QWORD PTR [rdx+0x8],rax
     115:	48 85 f6             	test   rsi,rsi
     118:	0f 88 02 71 00 00    	js     0x7220
     11e:	48 8b 46 08          	mov    rax,QWORD PTR [rsi+0x8]
     122:	48 85 c0             	test   rax,rax
     125:	0f 84 9b 00 00 00    	je     0x1c6
     12b:	48 85 c0             	test   rax,rax
     12e:	0f 88 ec 70 00 00    	js     0x7220
     134:	48 89 10             	mov    QWORD PTR [rax],rdx
     137:	48 85 db             	test   rbx,rbx
     13a:	0f 88 e0 70 00 00    	js     0x7220
     140:	48 8b 43 18          	mov    rax,QWORD PTR [rbx+0x18]
     144:	48 85 c0             	test   rax,rax
     147:	74 1f                	je     0x168
     149:	49 8b 7c 24 10       	mov    rdi,QWORD PTR [r12+0x10]
     14e:	49 be 9b 15 59 55 55 	movabs r14,0x55555559159b
     155:	55 00 00 
     158:	4d 8d 6d f8          	lea    r13,[r13-0x8]
     15c:	4d 89 75 00          	mov    QWORD PTR [r13+0x0],r14
     160:	49 89 c6             	mov    r14,rax
     163:	e9 65 6a 00 00       	jmp    0x6bcd
     168:	4c 89 e7             	mov    rdi,r12
     16b:	49 be a3 15 59 55 55 	movabs r14,0x5555555915a3
     172:	55 00 00 
     175:	4d 8d 6d f8          	lea    r13,[r13-0x8]
     179:	4d 89 75 00          	mov    QWORD PTR [r13+0x0],r14
     17d:	e9 1b 0b 00 00       	jmp    0xc9d
     182:	48 85 db             	test   rbx,rbx
     185:	0f 88 95 70 00 00    	js     0x7220
     18b:	48 83 6b 28 01       	sub    QWORD PTR [rbx+0x28],0x1
     190:	49 83 c5 08          	add    r13,0x8
     194:	49 8b 5d 00          	mov    rbx,QWORD PTR [r13+0x0]
     198:	4d 8d 6d 08          	lea    r13,[r13+0x8]
     19c:	4d 8b 65 00          	mov    r12,QWORD PTR [r13+0x0]
     1a0:	4d 8d 6d 08          	lea    r13,[r13+0x8]
     1a4:	4d 8b 75 00          	mov    r14,QWORD PTR [r13+0x0]
     1a8:	4d 8d 6d 08          	lea    r13,[r13+0x8]
     1ac:	e9 43 64 00 00       	jmp    0x65f4
     1b1:	48 85 ff             	test   rdi,rdi
     1b4:	0f 88 66 70 00 00    	js     0x7220
     1ba:	48 89 07             	mov    QWORD PTR [rdi],rax
     1bd:	48 85 c0             	test   rax,rax
     1c0:	0f 85 65 ff ff ff    	jne    0x12b
     1c6:	48 85 db             	test   rbx,rbx
     1c9:	0f 88 51 70 00 00    	js     0x7220
     1cf:	48 89 53 08          	mov    QWORD PTR [rbx+0x8],rdx
     1d3:	e9 5f ff ff ff       	jmp    0x137
     1d8:	90                   	nop
     1d9:	48 85 ff             	test   rdi,rdi
     1dc:	0f 88 3e 70 00 00    	js     0x7220
     1e2:	48 8b 07             	mov    rax,QWORD PTR [rdi]
     1e5:	48 85 f6             	test   rsi,rsi
     1e8:	0f 88 32 70 00 00    	js     0x7220
     1ee:	c7 46 08 00 00 00 00 	mov    DWORD PTR [rsi+0x8],0x0
     1f5:	48 85 f6             	test   rsi,rsi
     1f8:	0f 88 22 70 00 00    	js     0x7220
     1fe:	48 89 06             	mov    QWORD PTR [rsi],rax
     201:	4d 8b 75 00          	mov    r14,QWORD PTR [r13+0x0]
     205:	4d 8d 6d 08          	lea    r13,[r13+0x8]
     209:	e9 47 66 00 00       	jmp    0x6855
     20e:	90                   	nop
     20f:	48 85 ff             	test   rdi,rdi
     212:	0f 88 08 70 00 00    	js     0x7220
     218:	48 8b 07             	mov    rax,QWORD PTR [rdi]
     21b:	48 85 c0             	test   rax,rax
     21e:	74 4e                	je     0x26e
     220:	48 85 ff             	test   rdi,rdi
     223:	0f 88 f7 6f 00 00    	js     0x7220
     229:	8b 57 08             	mov    edx,DWORD PTR [rdi+0x8]
     22c:	85 d2                	test   edx,edx
     22e:	75 26                	jne    0x256
     230:	48 85 c0             	test   rax,rax
     233:	0f 88 e7 6f 00 00    	js     0x7220
     239:	48 8b 50 08          	mov    rdx,QWORD PTR [rax+0x8]
     23d:	48 85 ff             	test   rdi,rdi
     240:	0f 88 da 6f 00 00    	js     0x7220
     246:	48 89 17             	mov    QWORD PTR [rdi],rdx
     249:	4d 8b 75 00          	mov    r14,QWORD PTR [r13+0x0]
     24d:	4d 8d 6d 08          	lea    r13,[r13+0x8]
     251:	e9 df 64 00 00       	jmp    0x6735
     256:	48 85 c0             	test   rax,rax
     259:	0f 88 c1 6f 00 00    	js     0x7220
     25f:	48 8b 10             	mov    rdx,QWORD PTR [rax]
     262:	48 85 ff             	test   rdi,rdi
     265:	0f 88 b5 6f 00 00    	js     0x7220
     26b:	48 89 17             	mov    QWORD PTR [rdi],rdx
     26e:	4d 8b 75 00          	mov    r14,QWORD PTR [r13+0x0]
     272:	4d 8d 6d 08          	lea    r13,[r13+0x8]
     276:	e9 3b 65 00 00       	jmp    0x67b6
     27b:	4c 8b 75 a8          	mov    r14,QWORD PTR [rbp-0x58]
     27f:	4c 8b 7d 98          	mov    r15,QWORD PTR [rbp-0x68]
     283:	45 01 f7             	add    r15d,r14d
     286:	90                   	nop
     287:	4c 89 7d 98          	mov    QWORD PTR [rbp-0x68],r15
     28b:	4c 89 75 a8          	mov    QWORD PTR [rbp-0x58],r14
     28f:	49 8b 45 28          	mov    rax,QWORD PTR [r13+0x28]
     293:	4c 8b 75 88          	mov    r14,QWORD PTR [rbp-0x78]
     297:	49 33 46 28          	xor    rax,QWORD PTR [r14+0x28]
     29b:	0f 85 71 07 00 00    	jne    0xa12
     2a1:	49 83 c5 38          	add    r13,0x38
     2a5:	4c 8b 75 98          	mov    r14,QWORD PTR [rbp-0x68]
     2a9:	44 89 f0             	mov    eax,r14d
     2ac:	49 8b 5d 00          	mov    rbx,QWORD PTR [r13+0x0]
     2b0:	4d 8d 6d 08          	lea    r13,[r13+0x8]
     2b4:	4d 8b 65 00          	mov    r12,QWORD PTR [r13+0x0]
     2b8:	4d 8d 6d 08          	lea    r13,[r13+0x8]
     2bc:	4d 8b 75 00          	mov    r14,QWORD PTR [r13+0x0]
     2c0:	4d 8d 6d 08          	lea    r13,[r13+0x8]
     2c4:	4c 8b 7d a0          	mov    r15,QWORD PTR [rbp-0x60]
     2c8:	4d 8b 7d 00          	mov    r15,QWORD PTR [r13+0x0]
     2cc:	4d 8d 6d 08          	lea    r13,[r13+0x8]
     2d0:	4c 89 75 98          	mov    QWORD PTR [rbp-0x68],r14
     2d4:	4c 8b 75 a8          	mov    r14,QWORD PTR [rbp-0x58]
     2d8:	4d 8b 75 00          	mov    r14,QWORD PTR [r13+0x0]
     2dc:	4d 8d 6d 08          	lea    r13,[r13+0x8]
     2e0:	4c 89 75 a8          	mov    QWORD PTR [rbp-0x58],r14
     2e4:	4c 8b 75 b0          	mov    r14,QWORD PTR [rbp-0x50]
     2e8:	4d 8b 75 00          	mov    r14,QWORD PTR [r13+0x0]
     2ec:	4d 8d 6d 08          	lea    r13,[r13+0x8]
     2f0:	4c 89 75 b0          	mov    QWORD PTR [rbp-0x50],r14
     2f4:	4d 8b 75 00          	mov    r14,QWORD PTR [r13+0x0]
     2f8:	4d 8d 6d 08          	lea    r13,[r13+0x8]
     2fc:	4c 89 7d a0          	mov    QWORD PTR [rbp-0x60],r15
     300:	e9 50 68 00 00       	jmp    0x6b55
     305:	4c 8b 75 a0          	mov    r14,QWORD PTR [rbp-0x60]
     309:	41 83 e6 02          	and    r14d,0x2
     30d:	4c 89 75 a0          	mov    QWORD PTR [rbp-0x60],r14
     311:	0f 84 78 ff ff ff    	je     0x28f
     317:	31 ff                	xor    edi,edi
     319:	49 be f6 44 59 55 55 	movabs r14,0x5555555944f6
     320:	55 00 00 
     323:	4d 8d 6d f8          	lea    r13,[r13-0x8]
     327:	4d 89 75 00          	mov    QWORD PTR [r13+0x0],r14
     32b:	e9 75 6b 00 00       	jmp    0x6ea5
     330:	48 85 db             	test   rbx,rbx
     333:	0f 88 e7 6e 00 00    	js     0x7220
     339:	48 3b 43 10          	cmp    rax,QWORD PTR [rbx+0x10]
     33d:	0f 8c 5c 05 00 00    	jl     0x89f
     343:	48 85 db             	test   rbx,rbx
     346:	0f 88 d4 6e 00 00    	js     0x7220
     34c:	4c 8b 63 28          	mov    r12,QWORD PTR [rbx+0x28]
     350:	4c 8b 75 a0          	mov    r14,QWORD PTR [rbp-0x60]
     354:	48 85 db             	test   rbx,rbx
     357:	0f 88 c3 6e 00 00    	js     0x7220
     35d:	4c 8b 73 08          	mov    r14,QWORD PTR [rbx+0x8]
     361:	48 85 db             	test   rbx,rbx
     364:	0f 88 b6 6e 00 00    	js     0x7220
     36a:	48 89 43 10          	mov    QWORD PTR [rbx+0x10],rax
     36e:	4d 85 e4             	test   r12,r12
     371:	4c 89 75 a0          	mov    QWORD PTR [rbp-0x60],r14
     375:	0f 84 14 ff ff ff    	je     0x28f
     37b:	4c 8b 75 a8          	mov    r14,QWORD PTR [rbp-0x58]
     37f:	45 31 f6             	xor    r14d,r14d
     382:	4c 89 75 a8          	mov    QWORD PTR [rbp-0x58],r14
     386:	eb 52                	jmp    0x3da
     388:	4c 8b 75 a0          	mov    r14,QWORD PTR [rbp-0x60]
     38c:	4c 39 f0             	cmp    rax,r14
     38f:	4c 89 75 a0          	mov    QWORD PTR [rbp-0x60],r14
     393:	7d 37                	jge    0x3cc
     395:	49 8d 7d 10          	lea    rdi,[r13+0x10]
     399:	31 f6                	xor    esi,esi
     39b:	49 be 31 45 59 55 55 	movabs r14,0x555555594531
     3a2:	55 00 00 
     3a5:	4d 8d 6d f8          	lea    r13,[r13-0x8]
     3a9:	4d 89 75 00          	mov    QWORD PTR [r13+0x0],r14
     3ad:	e9 dd 6b 00 00       	jmp    0x6f8f
     3b2:	49 8b 4d 18          	mov    rcx,QWORD PTR [r13+0x18]
     3b6:	49 8b 44 24 08       	mov    rax,QWORD PTR [r12+0x8]
     3bb:	49 39 45 10          	cmp    QWORD PTR [r13+0x10],rax
     3bf:	0f 8f 61 05 00 00    	jg     0x926
     3c5:	0f 84 37 05 00 00    	je     0x902
     3cb:	90                   	nop
     3cc:	4d 8b 64 24 38       	mov    r12,QWORD PTR [r12+0x38]
     3d1:	4d 85 e4             	test   r12,r12
     3d4:	0f 84 a1 fe ff ff    	je     0x27b
     3da:	49 8b 04 24          	mov    rax,QWORD PTR [r12]
     3de:	48 83 f8 ff          	cmp    rax,0xffffffffffffffff
     3e2:	75 a4                	jne    0x388
     3e4:	41 8b 44 24 40       	mov    eax,DWORD PTR [r12+0x40]
     3e9:	4c 8b 75 b0          	mov    r14,QWORD PTR [rbp-0x50]
     3ed:	4d 8b 74 24 38       	mov    r14,QWORD PTR [r12+0x38]
     3f2:	85 c0                	test   eax,eax
     3f4:	4c 89 75 b0          	mov    QWORD PTR [rbp-0x50],r14
     3f8:	0f 85 99 05 00 00    	jne    0x997
     3fe:	49 8b 54 24 30       	mov    rdx,QWORD PTR [r12+0x30]
     403:	48 85 d2             	test   rdx,rdx
     406:	0f 84 a8 05 00 00    	je     0x9b4
     40c:	4c 8b 75 b0          	mov    r14,QWORD PTR [rbp-0x50]
     410:	48 85 d2             	test   rdx,rdx
     413:	0f 88 07 6e 00 00    	js     0x7220
     419:	4c 89 72 38          	mov    QWORD PTR [rdx+0x38],r14
     41d:	49 8b 4c 24 38       	mov    rcx,QWORD PTR [r12+0x38]
     422:	4c 89 75 b0          	mov    QWORD PTR [rbp-0x50],r14
     426:	48 85 c9             	test   rcx,rcx
     429:	74 0d                	je     0x438
     42b:	48 85 c9             	test   rcx,rcx
     42e:	0f 88 ec 6d 00 00    	js     0x7220
     434:	48 89 51 30          	mov    QWORD PTR [rcx+0x30],rdx
     438:	49 8b 54 24 20       	mov    rdx,QWORD PTR [r12+0x20]
     43d:	48 85 d2             	test   rdx,rdx
     440:	74 22                	je     0x464
     442:	49 8b 74 24 28       	mov    rsi,QWORD PTR [r12+0x28]
     447:	48 89 df             	mov    rdi,rbx
     44a:	49 be a6 45 59 55 55 	movabs r14,0x5555555945a6
     451:	55 00 00 
     454:	4d 8d 6d f8          	lea    r13,[r13-0x8]
     458:	4d 89 75 00          	mov    QWORD PTR [r13+0x0],r14
     45c:	49 89 d6             	mov    r14,rdx
     45f:	e9 3c 67 00 00       	jmp    0x6ba0
     464:	4c 89 e7             	mov    rdi,r12
     467:	4c 8b 75 b0          	mov    r14,QWORD PTR [rbp-0x50]
     46b:	4d 89 f4             	mov    r12,r14
     46e:	49 bf b1 45 59 55 55 	movabs r15,0x5555555945b1
     475:	55 00 00 
     478:	4d 8d 6d f8          	lea    r13,[r13-0x8]
     47c:	4d 89 7d 00          	mov    QWORD PTR [r13+0x0],r15
     480:	4c 89 75 b0          	mov    QWORD PTR [rbp-0x50],r14
     484:	e9 14 08 00 00       	jmp    0xc9d
     489:	e9 43 ff ff ff       	jmp    0x3d1
     48e:	4c 8b 75 a8          	mov    r14,QWORD PTR [rbp-0x58]
     492:	48 85 db             	test   rbx,rbx
     495:	0f 88 85 6d 00 00    	js     0x7220
     49b:	4c 8b 73 38          	mov    r14,QWORD PTR [rbx+0x38]
     49f:	b9 ff ff ff ff       	mov    ecx,0xffffffff
     4a4:	4c 8b 7d 98          	mov    r15,QWORD PTR [rbp-0x68]
     4a8:	4d 85 ff             	test   r15,r15
     4ab:	4c 89 7d 98          	mov    QWORD PTR [rbp-0x68],r15
     4af:	4c 89 75 a8          	mov    QWORD PTR [rbp-0x58],r14
     4b3:	74 43                	je     0x4f8
     4b5:	4c 8b 75 98          	mov    r14,QWORD PTR [rbp-0x68]
     4b9:	4d 85 f6             	test   r14,r14
     4bc:	0f 88 5e 6d 00 00    	js     0x7220
     4c2:	49 8b 4e 08          	mov    rcx,QWORD PTR [r14+0x8]
     4c6:	4d 85 f6             	test   r14,r14
     4c9:	0f 88 51 6d 00 00    	js     0x7220
     4cf:	41 69 36 e8 03 00 00 	imul   esi,DWORD PTR [r14],0x3e8
     4d6:	48 ba cf f7 53 e3 a5 	movabs rdx,0x20c49ba5e353f7cf
     4dd:	9b c4 20 
     4e0:	48 89 c8             	mov    rax,rcx
     4e3:	48 c1 f9 3f          	sar    rcx,0x3f
     4e7:	48 f7 ea             	imul   rdx
     4ea:	48 c1 fa 07          	sar    rdx,0x7
     4ee:	48 29 ca             	sub    rdx,rcx
     4f1:	8d 0c 32             	lea    ecx,[rdx+rsi*1]
     4f4:	4c 89 75 98          	mov    QWORD PTR [rbp-0x68],r14
     4f8:	48 85 db             	test   rbx,rbx
     4fb:	0f 88 1f 6d 00 00    	js     0x7220
     501:	8b 53 04             	mov    edx,DWORD PTR [rbx+0x4]
     504:	4c 8b 75 a8          	mov    r14,QWORD PTR [rbp-0x58]
     508:	4d 85 f6             	test   r14,r14
     50b:	0f 88 0f 6d 00 00    	js     0x7220
     511:	49 8b 76 08          	mov    rsi,QWORD PTR [r14+0x8]
     515:	4d 85 f6             	test   r14,r14
     518:	0f 88 02 6d 00 00    	js     0x7220
     51e:	41 8b 3e             	mov    edi,DWORD PTR [r14]
     521:	49 bf 10 46 59 55 55 	movabs r15,0x555555594610
     528:	55 00 00 
     52b:	4d 8d 6d f8          	lea    r13,[r13-0x8]
     52f:	4d 89 7d 00          	mov    QWORD PTR [r13+0x0],r15
     533:	4c 89 75 a8          	mov    QWORD PTR [rbp-0x58],r14
     537:	e9 4a fb ff ff       	jmp    0x86
     53c:	4c 8b 75 98          	mov    r14,QWORD PTR [rbp-0x68]
     540:	41 89 c6             	mov    r14d,eax
     543:	85 c0                	test   eax,eax
     545:	4c 89 75 98          	mov    QWORD PTR [rbp-0x68],r14
     549:	0f 8e 02 03 00 00    	jle    0x851
     54f:	48 85 db             	test   rbx,rbx
     552:	0f 88 c8 6c 00 00    	js     0x7220
     558:	4c 8b 5b 20          	mov    r11,QWORD PTR [rbx+0x20]
     55c:	4c 8b 75 a8          	mov    r14,QWORD PTR [rbp-0x58]
     560:	4d 85 f6             	test   r14,r14
     563:	0f 88 b7 6c 00 00    	js     0x7220
     569:	49 8b 76 08          	mov    rsi,QWORD PTR [r14+0x8]
     56d:	8d 40 ff             	lea    eax,[rax-0x1]
     570:	41 b8 03 00 00 00    	mov    r8d,0x3
     576:	4c 89 df             	mov    rdi,r11
     579:	4c 89 da             	mov    rdx,r11
     57c:	4d 8d 54 c3 08       	lea    r10,[r11+rax*8+0x8]
     581:	48 83 c6 04          	add    rsi,0x4
     585:	90                   	nop
     586:	4c 89 75 a8          	mov    QWORD PTR [rbp-0x58],r14
     58a:	48 85 f6             	test   rsi,rsi
     58d:	0f 88 8d 6c 00 00    	js     0x7220
     593:	8b 4e fc             	mov    ecx,DWORD PTR [rsi-0x4]
     596:	89 c8                	mov    eax,ecx
     598:	83 e0 01             	and    eax,0x1
     59b:	41 89 c1             	mov    r9d,eax
     59e:	41 83 c9 02          	or     r9d,0x2
     5a2:	f6 c1 04             	test   cl,0x4
     5a5:	41 0f 45 c1          	cmovne eax,r9d
     5a9:	f6 c1 08             	test   cl,0x8
     5ac:	41 0f 45 c0          	cmovne eax,r8d
     5b0:	83 e1 10             	and    ecx,0x10
     5b3:	48 85 f6             	test   rsi,rsi
     5b6:	0f 88 64 6c 00 00    	js     0x7220
     5bc:	8b 0e                	mov    ecx,DWORD PTR [rsi]
     5be:	41 0f 45 c0          	cmovne eax,r8d
     5c2:	48 85 d2             	test   rdx,rdx
     5c5:	0f 88 55 6c 00 00    	js     0x7220
     5cb:	89 0a                	mov    DWORD PTR [rdx],ecx
     5cd:	48 83 c2 08          	add    rdx,0x8
     5d1:	48 83 c6 0c          	add    rsi,0xc
     5d5:	48 85 d2             	test   rdx,rdx
     5d8:	0f 88 42 6c 00 00    	js     0x7220
     5de:	89 42 fc             	mov    DWORD PTR [rdx-0x4],eax
     5e1:	49 39 d2             	cmp    r10,rdx
     5e4:	75 a4                	jne    0x58a
     5e6:	48 85 db             	test   rbx,rbx
     5e9:	0f 88 31 6c 00 00    	js     0x7220
     5ef:	48 8b 43 48          	mov    rax,QWORD PTR [rbx+0x48]
     5f3:	48 85 c0             	test   rax,rax
     5f6:	74 15                	je     0x60d
     5f8:	4c 8b 75 a0          	mov    r14,QWORD PTR [rbp-0x60]
     5fc:	41 f6 c6 10          	test   r14b,0x10
     600:	4c 89 75 a0          	mov    QWORD PTR [rbp-0x60],r14
     604:	0f 85 c7 03 00 00    	jne    0x9d1
     60a:	4c 89 df             	mov    rdi,r11
     60d:	4c 8b 75 a8          	mov    r14,QWORD PTR [rbp-0x58]
     611:	45 31 f6             	xor    r14d,r14d
     614:	4c 89 75 a8          	mov    QWORD PTR [rbp-0x58],r14
     618:	eb 7a                	jmp    0x694
     61a:	f6 c1 02             	test   cl,0x2
     61d:	0f 85 75 01 00 00    	jne    0x798
     623:	83 e1 01             	and    ecx,0x1
     626:	74 42                	je     0x66a
     628:	48 85 c0             	test   rax,rax
     62b:	0f 88 ef 6b 00 00    	js     0x7220
     631:	4c 8b 40 08          	mov    r8,QWORD PTR [rax+0x8]
     635:	48 85 c0             	test   rax,rax
     638:	0f 88 e2 6b 00 00    	js     0x7220
     63e:	48 8b 50 18          	mov    rdx,QWORD PTR [rax+0x18]
     642:	4c 8b 75 b0          	mov    r14,QWORD PTR [rbp-0x50]
     646:	44 89 f1             	mov    ecx,r14d
     649:	48 89 df             	mov    rdi,rbx
     64c:	49 bf b7 46 59 55 55 	movabs r15,0x5555555946b7
     653:	55 00 00 
     656:	4d 8d 6d f8          	lea    r13,[r13-0x8]
     65a:	4d 89 7d 00          	mov    QWORD PTR [r13+0x0],r15
     65e:	4c 89 75 b0          	mov    QWORD PTR [rbp-0x50],r14
     662:	4d 89 c6             	mov    r14,r8
     665:	e9 54 65 00 00       	jmp    0x6bbe
     66a:	4c 8b 75 a8          	mov    r14,QWORD PTR [rbp-0x58]
     66e:	49 83 c6 01          	add    r14,0x1
     672:	4c 8b 7d 98          	mov    r15,QWORD PTR [rbp-0x68]
     676:	45 39 f7             	cmp    r15d,r14d
     679:	4c 89 7d 98          	mov    QWORD PTR [rbp-0x68],r15
     67d:	4c 89 75 a8          	mov    QWORD PTR [rbp-0x58],r14
     681:	0f 8e 7e fc ff ff    	jle    0x305
     687:	48 85 db             	test   rbx,rbx
     68a:	0f 88 90 6b 00 00    	js     0x7220
     690:	48 8b 7b 20          	mov    rdi,QWORD PTR [rbx+0x20]
     694:	4c 8b 75 a8          	mov    r14,QWORD PTR [rbp-0x58]
     698:	4a 8d 14 f7          	lea    rdx,[rdi+r14*8]
     69c:	48 85 db             	test   rbx,rbx
     69f:	0f 88 7b 6b 00 00    	js     0x7220
     6a5:	48 8b 43 18          	mov    rax,QWORD PTR [rbx+0x18]
     6a9:	48 85 d2             	test   rdx,rdx
     6ac:	0f 88 6e 6b 00 00    	js     0x7220
     6b2:	4c 63 22             	movsxd r12,DWORD PTR [rdx]
     6b5:	4c 8b 7d b0          	mov    r15,QWORD PTR [rbp-0x50]
     6b9:	48 85 d2             	test   rdx,rdx
     6bc:	0f 88 5e 6b 00 00    	js     0x7220
     6c2:	44 8b 7a 04          	mov    r15d,DWORD PTR [rdx+0x4]
     6c6:	4c 89 e6             	mov    rsi,r12
     6c9:	49 c1 e4 05          	shl    r12,0x5
     6cd:	4c 01 e0             	add    rax,r12
     6d0:	48 85 c0             	test   rax,rax
     6d3:	0f 88 47 6b 00 00    	js     0x7220
     6d9:	8b 10                	mov    edx,DWORD PTR [rax]
     6db:	89 d1                	mov    ecx,edx
     6dd:	44 21 f9             	and    ecx,r15d
     6e0:	83 e2 04             	and    edx,0x4
     6e3:	4c 89 7d b0          	mov    QWORD PTR [rbp-0x50],r15
     6e7:	4c 89 75 a8          	mov    QWORD PTR [rbp-0x58],r14
     6eb:	0f 85 29 ff ff ff    	jne    0x61a
     6f1:	f6 c1 01             	test   cl,0x1
     6f4:	0f 84 3c 01 00 00    	je     0x836
     6fa:	48 85 c0             	test   rax,rax
     6fd:	0f 88 1d 6b 00 00    	js     0x7220
     703:	48 8b 50 18          	mov    rdx,QWORD PTR [rax+0x18]
     707:	41 89 75 0c          	mov    DWORD PTR [r13+0xc],esi
     70b:	4c 8b 75 b0          	mov    r14,QWORD PTR [rbp-0x50]
     70f:	44 89 f1             	mov    ecx,r14d
     712:	48 89 df             	mov    rdi,rbx
     715:	49 bf 03 47 59 55 55 	movabs r15,0x555555594703
     71c:	55 00 00 
     71f:	4d 8d 6d f8          	lea    r13,[r13-0x8]
     723:	4d 89 7d 00          	mov    QWORD PTR [r13+0x0],r15
     727:	48 85 c0             	test   rax,rax
     72a:	0f 88 f0 6a 00 00    	js     0x7220
     730:	4c 8b 78 08          	mov    r15,QWORD PTR [rax+0x8]
     734:	4c 89 75 b0          	mov    QWORD PTR [rbp-0x50],r14
     738:	4d 89 fe             	mov    r14,r15
     73b:	e9 33 64 00 00       	jmp    0x6b73
     740:	48 85 db             	test   rbx,rbx
     743:	0f 88 d7 6a 00 00    	js     0x7220
     749:	48 8b 43 18          	mov    rax,QWORD PTR [rbx+0x18]
     74d:	41 8b 75 0c          	mov    esi,DWORD PTR [r13+0xc]
     751:	4c 01 e0             	add    rax,r12
     754:	48 85 c0             	test   rax,rax
     757:	0f 88 c3 6a 00 00    	js     0x7220
     75d:	8b 10                	mov    edx,DWORD PTR [rax]
     75f:	4c 8b 75 b0          	mov    r14,QWORD PTR [rbp-0x50]
     763:	44 21 f2             	and    edx,r14d
     766:	83 e2 02             	and    edx,0x2
     769:	4c 89 75 b0          	mov    QWORD PTR [rbp-0x50],r14
     76d:	0f 84 f7 fe ff ff    	je     0x66a
     773:	48 85 c0             	test   rax,rax
     776:	0f 88 a4 6a 00 00    	js     0x7220
     77c:	4c 8b 40 10          	mov    r8,QWORD PTR [rax+0x10]
     780:	48 85 c0             	test   rax,rax
     783:	0f 88 97 6a 00 00    	js     0x7220
     789:	4c 3b 40 08          	cmp    r8,QWORD PTR [rax+0x8]
     78d:	0f 85 a2 fe ff ff    	jne    0x635
     793:	e9 d2 fe ff ff       	jmp    0x66a
     798:	48 85 c0             	test   rax,rax
     79b:	0f 88 7f 6a 00 00    	js     0x7220
     7a1:	48 8b 50 18          	mov    rdx,QWORD PTR [rax+0x18]
     7a5:	41 89 75 0c          	mov    DWORD PTR [r13+0xc],esi
     7a9:	4c 8b 75 b0          	mov    r14,QWORD PTR [rbp-0x50]
     7ad:	44 89 f1             	mov    ecx,r14d
     7b0:	48 89 df             	mov    rdi,rbx
     7b3:	49 bf 39 47 59 55 55 	movabs r15,0x555555594739
     7ba:	55 00 00 
     7bd:	4d 8d 6d f8          	lea    r13,[r13-0x8]
     7c1:	4d 89 7d 00          	mov    QWORD PTR [r13+0x0],r15
     7c5:	48 85 c0             	test   rax,rax
     7c8:	0f 88 52 6a 00 00    	js     0x7220
     7ce:	4c 8b 78 10          	mov    r15,QWORD PTR [rax+0x10]
     7d2:	4c 89 75 b0          	mov    QWORD PTR [rbp-0x50],r14
     7d6:	4d 89 fe             	mov    r14,r15
     7d9:	e9 86 63 00 00       	jmp    0x6b64
     7de:	48 85 db             	test   rbx,rbx
     7e1:	0f 88 39 6a 00 00    	js     0x7220
     7e7:	48 8b 43 18          	mov    rax,QWORD PTR [rbx+0x18]
     7eb:	41 8b 75 0c          	mov    esi,DWORD PTR [r13+0xc]
     7ef:	4c 01 e0             	add    rax,r12
     7f2:	48 85 c0             	test   rax,rax
     7f5:	0f 88 25 6a 00 00    	js     0x7220
     7fb:	8b 10                	mov    edx,DWORD PTR [rax]
     7fd:	4c 8b 75 b0          	mov    r14,QWORD PTR [rbp-0x50]
     801:	44 21 f2             	and    edx,r14d
     804:	83 e2 01             	and    edx,0x1
     807:	4c 89 75 b0          	mov    QWORD PTR [rbp-0x50],r14
     80b:	0f 84 59 fe ff ff    	je     0x66a
     811:	48 85 c0             	test   rax,rax
     814:	0f 88 06 6a 00 00    	js     0x7220
     81a:	4c 8b 40 08          	mov    r8,QWORD PTR [rax+0x8]
     81e:	48 85 c0             	test   rax,rax
     821:	0f 88 f9 69 00 00    	js     0x7220
     827:	4c 39 40 10          	cmp    QWORD PTR [rax+0x10],r8
     82b:	0f 85 04 fe ff ff    	jne    0x635
     831:	e9 34 fe ff ff       	jmp    0x66a
     836:	83 e1 02             	and    ecx,0x2
     839:	0f 84 2b fe ff ff    	je     0x66a
     83f:	48 85 c0             	test   rax,rax
     842:	0f 88 d8 69 00 00    	js     0x7220
     848:	4c 8b 40 10          	mov    r8,QWORD PTR [rax+0x10]
     84c:	e9 e4 fd ff ff       	jmp    0x635
     851:	48 85 db             	test   rbx,rbx
     854:	0f 88 c6 69 00 00    	js     0x7220
     85a:	48 8b 43 48          	mov    rax,QWORD PTR [rbx+0x48]
     85e:	48 85 c0             	test   rax,rax
     861:	74 2c                	je     0x88f
     863:	4c 8b 75 a0          	mov    r14,QWORD PTR [rbp-0x60]
     867:	41 f6 c6 10          	test   r14b,0x10
     86b:	4c 89 75 a0          	mov    QWORD PTR [rbp-0x60],r14
     86f:	74 1e                	je     0x88f
     871:	48 89 df             	mov    rdi,rbx
     874:	49 be 94 47 59 55 55 	movabs r14,0x555555594794
     87b:	55 00 00 
     87e:	4d 8d 6d f8          	lea    r13,[r13-0x8]
     882:	4d 89 75 00          	mov    QWORD PTR [r13+0x0],r14
     886:	49 89 c6             	mov    r14,rax
     889:	e9 a9 62 00 00       	jmp    0x6b37
     88e:	90                   	nop
     88f:	4c 8b 75 98          	mov    r14,QWORD PTR [rbp-0x68]
     893:	45 31 f6             	xor    r14d,r14d
     896:	4c 89 75 98          	mov    QWORD PTR [rbp-0x68],r14
     89a:	e9 66 fa ff ff       	jmp    0x305
     89f:	48 85 db             	test   rbx,rbx
     8a2:	0f 88 78 69 00 00    	js     0x7220
     8a8:	4c 8b 63 28          	mov    r12,QWORD PTR [rbx+0x28]
     8ac:	4d 85 e4             	test   r12,r12
     8af:	0f 84 4b 01 00 00    	je     0xa00
     8b5:	4c 89 e2             	mov    rdx,r12
     8b8:	48 85 d2             	test   rdx,rdx
     8bb:	0f 88 5f 69 00 00    	js     0x7220
     8c1:	48 c7 42 08 00 00 00 	mov    QWORD PTR [rdx+0x8],0x0
     8c8:	00 
     8c9:	48 85 d2             	test   rdx,rdx
     8cc:	0f 88 4e 69 00 00    	js     0x7220
     8d2:	48 8b 52 38          	mov    rdx,QWORD PTR [rdx+0x38]
     8d6:	48 85 d2             	test   rdx,rdx
     8d9:	75 dd                	jne    0x8b8
     8db:	48 85 db             	test   rbx,rbx
     8de:	0f 88 3c 69 00 00    	js     0x7220
     8e4:	48 89 43 10          	mov    QWORD PTR [rbx+0x10],rax
     8e8:	4c 8b 75 a0          	mov    r14,QWORD PTR [rbp-0x60]
     8ec:	48 85 db             	test   rbx,rbx
     8ef:	0f 88 2b 69 00 00    	js     0x7220
     8f5:	4c 8b 73 08          	mov    r14,QWORD PTR [rbx+0x8]
     8f9:	4c 89 75 a0          	mov    QWORD PTR [rbp-0x60],r14
     8fd:	e9 79 fa ff ff       	jmp    0x37b
     902:	48 b8 cf f7 53 e3 a5 	movabs rax,0x20c49ba5e353f7cf
     909:	9b c4 20 
     90c:	48 f7 e9             	imul   rcx
     90f:	48 c1 f9 3f          	sar    rcx,0x3f
     913:	48 c1 fa 07          	sar    rdx,0x7
     917:	48 29 ca             	sub    rdx,rcx
     91a:	49 3b 54 24 10       	cmp    rdx,QWORD PTR [r12+0x10]
     91f:	0f 8c a7 fa ff ff    	jl     0x3cc
     925:	90                   	nop
     926:	41 83 44 24 40 01    	add    DWORD PTR [r12+0x40],0x1
     92c:	49 8b 34 24          	mov    rsi,QWORD PTR [r12]
     930:	48 89 df             	mov    rdi,rbx
     933:	4c 8b 75 a8          	mov    r14,QWORD PTR [rbp-0x58]
     937:	41 83 c6 01          	add    r14d,0x1
     93b:	49 8b 54 24 28       	mov    rdx,QWORD PTR [r12+0x28]
     940:	49 bf ee 48 59 55 55 	movabs r15,0x5555555948ee
     947:	55 00 00 
     94a:	4d 8d 6d f8          	lea    r13,[r13-0x8]
     94e:	4d 89 7d 00          	mov    QWORD PTR [r13+0x0],r15
     952:	4d 8b 7c 24 18       	mov    r15,QWORD PTR [r12+0x18]
     957:	4c 89 75 a8          	mov    QWORD PTR [rbp-0x58],r14
     95b:	4d 89 fe             	mov    r14,r15
     95e:	e9 2e 62 00 00       	jmp    0x6b91
     963:	41 83 6c 24 40 01    	sub    DWORD PTR [r12+0x40],0x1
     969:	83 f8 ff             	cmp    eax,0xffffffff
     96c:	74 39                	je     0x9a7
     96e:	49 8d 54 24 10       	lea    rdx,[r12+0x10]
     973:	49 8d 74 24 08       	lea    rsi,[r12+0x8]
     978:	48 63 f8             	movsxd rdi,eax
     97b:	49 be 07 49 59 55 55 	movabs r14,0x555555594907
     982:	55 00 00 
     985:	4d 8d 6d f8          	lea    r13,[r13-0x8]
     989:	4d 89 75 00          	mov    QWORD PTR [r13+0x0],r14
     98d:	e9 db 63 00 00       	jmp    0x6d6d
     992:	e9 35 fa ff ff       	jmp    0x3cc
     997:	4c 8b 75 b0          	mov    r14,QWORD PTR [rbp-0x50]
     99b:	4d 89 f4             	mov    r12,r14
     99e:	4c 89 75 b0          	mov    QWORD PTR [rbp-0x50],r14
     9a2:	e9 2a fa ff ff       	jmp    0x3d1
     9a7:	49 c7 04 24 ff ff ff 	mov    QWORD PTR [r12],0xffffffffffffffff
     9ae:	ff 
     9af:	e9 18 fa ff ff       	jmp    0x3cc
     9b4:	4c 8b 75 b0          	mov    r14,QWORD PTR [rbp-0x50]
     9b8:	48 85 db             	test   rbx,rbx
     9bb:	0f 88 5f 68 00 00    	js     0x7220
     9c1:	4c 89 73 28          	mov    QWORD PTR [rbx+0x28],r14
     9c5:	4c 89 f1             	mov    rcx,r14
     9c8:	4c 89 75 b0          	mov    QWORD PTR [rbp-0x50],r14
     9cc:	e9 55 fa ff ff       	jmp    0x426
     9d1:	48 89 df             	mov    rdi,rbx
     9d4:	49 be 41 49 59 55 55 	movabs r14,0x555555594941
     9db:	55 00 00 
     9de:	4d 8d 6d f8          	lea    r13,[r13-0x8]
     9e2:	4d 89 75 00          	mov    QWORD PTR [r13+0x0],r14
     9e6:	49 89 c6             	mov    r14,rax
     9e9:	e9 58 61 00 00       	jmp    0x6b46
     9ee:	48 85 db             	test   rbx,rbx
     9f1:	0f 88 29 68 00 00    	js     0x7220
     9f7:	4c 8b 5b 20          	mov    r11,QWORD PTR [rbx+0x20]
     9fb:	e9 0a fc ff ff       	jmp    0x60a
     a00:	48 85 db             	test   rbx,rbx
     a03:	0f 88 17 68 00 00    	js     0x7220
     a09:	48 89 43 10          	mov    QWORD PTR [rbx+0x10],rax
     a0d:	e9 7d f8 ff ff       	jmp    0x28f
     a12:	49 be 75 49 59 55 55 	movabs r14,0x555555594975
     a19:	55 00 00 
     a1c:	4d 8d 6d f8          	lea    r13,[r13-0x8]
     a20:	4d 89 75 00          	mov    QWORD PTR [r13+0x0],r14
     a24:	e9 06 67 00 00       	jmp    0x712f
     a29:	90                   	nop
     a2a:	90                   	nop
     a2b:	49 83 ed 18          	sub    r13,0x18
     a2f:	4c 8b 75 88          	mov    r14,QWORD PTR [rbp-0x78]
     a33:	49 8b 46 28          	mov    rax,QWORD PTR [r14+0x28]
     a37:	49 89 45 08          	mov    QWORD PTR [r13+0x8],rax
     a3b:	31 c0                	xor    eax,eax
     a3d:	41 c7 45 04 00 00 00 	mov    DWORD PTR [r13+0x4],0x0
     a44:	00 
     a45:	41 89 7d 00          	mov    DWORD PTR [r13+0x0],edi
     a49:	40 f6 c6 01          	test   sil,0x1
     a4d:	74 0a                	je     0xa59
     a4f:	b8 01 00 00 00       	mov    eax,0x1
     a54:	66 41 89 45 04       	mov    WORD PTR [r13+0x4],ax
     a59:	83 e6 02             	and    esi,0x2
     a5c:	74 06                	je     0xa64
     a5e:	66 41 83 4d 04 04    	or     WORD PTR [r13+0x4],0x4
     a64:	4c 89 ef             	mov    rdi,r13
     a67:	be 01 00 00 00       	mov    esi,0x1
     a6c:	49 be cb 49 59 55 55 	movabs r14,0x5555555949cb
     a73:	55 00 00 
     a76:	4d 8d 6d f8          	lea    r13,[r13-0x8]
     a7a:	4d 89 75 00          	mov    QWORD PTR [r13+0x0],r14
     a7e:	e9 04 63 00 00       	jmp    0x6d87
     a83:	83 f8 01             	cmp    eax,0x1
     a86:	75 2f                	jne    0xab7
     a88:	41 0f b7 4d 06       	movzx  ecx,WORD PTR [r13+0x6]
     a8d:	89 ca                	mov    edx,ecx
     a8f:	83 e2 01             	and    edx,0x1
     a92:	89 d0                	mov    eax,edx
     a94:	83 c8 02             	or     eax,0x2
     a97:	f6 c1 04             	test   cl,0x4
     a9a:	0f 45 d0             	cmovne edx,eax
     a9d:	89 d0                	mov    eax,edx
     a9f:	83 c8 02             	or     eax,0x2
     aa2:	f6 c1 08             	test   cl,0x8
     aa5:	0f 45 d0             	cmovne edx,eax
     aa8:	0f bf c2             	movsx  eax,dx
     aab:	83 ca 02             	or     edx,0x2
     aae:	83 e1 10             	and    ecx,0x10
     ab1:	0f bf d2             	movsx  edx,dx
     ab4:	0f 45 c2             	cmovne eax,edx
     ab7:	49 8b 4d 08          	mov    rcx,QWORD PTR [r13+0x8]
     abb:	4c 8b 75 88          	mov    r14,QWORD PTR [rbp-0x78]
     abf:	49 33 4e 28          	xor    rcx,QWORD PTR [r14+0x28]
     ac3:	75 11                	jne    0xad6
     ac5:	49 83 c5 18          	add    r13,0x18
     ac9:	4d 8b 75 00          	mov    r14,QWORD PTR [r13+0x0]
     acd:	4d 8d 6d 08          	lea    r13,[r13+0x8]
     ad1:	e9 ac 60 00 00       	jmp    0x6b82
     ad6:	49 be 19 4a 59 55 55 	movabs r14,0x555555594a19
     add:	55 00 00 
     ae0:	4d 8d 6d f8          	lea    r13,[r13-0x8]
     ae4:	4d 89 75 00          	mov    QWORD PTR [r13+0x0],r14
     ae8:	e9 42 66 00 00       	jmp    0x712f
     aed:	90                   	nop
     aee:	90                   	nop
     aef:	4d 8d 6d f8          	lea    r13,[r13-0x8]
     af3:	49 89 5d 00          	mov    QWORD PTR [r13+0x0],rbx
     af7:	48 89 fb             	mov    rbx,rdi
     afa:	48 85 ff             	test   rdi,rdi
     afd:	0f 88 1d 67 00 00    	js     0x7220
     b03:	c7 47 30 00 00 00 00 	mov    DWORD PTR [rdi+0x30],0x0
     b0a:	90                   	nop
     b0b:	be 1b 00 00 00       	mov    esi,0x1b
     b10:	48 89 df             	mov    rdi,rbx
     b13:	49 be 3d 4a 59 55 55 	movabs r14,0x555555594a3d
     b1a:	55 00 00 
     b1d:	4d 8d 6d f8          	lea    r13,[r13-0x8]
     b21:	4d 89 75 00          	mov    QWORD PTR [r13+0x0],r14
     b25:	e9 f5 61 00 00       	jmp    0x6d1f
     b2a:	48 85 db             	test   rbx,rbx
     b2d:	0f 88 ed 66 00 00    	js     0x7220
     b33:	8b 43 30             	mov    eax,DWORD PTR [rbx+0x30]
     b36:	85 c0                	test   eax,eax
     b38:	74 d1                	je     0xb0b
     b3a:	49 8b 5d 00          	mov    rbx,QWORD PTR [r13+0x0]
     b3e:	4d 8d 6d 08          	lea    r13,[r13+0x8]
     b42:	4d 8b 75 00          	mov    r14,QWORD PTR [r13+0x0]
     b46:	4d 8d 6d 08          	lea    r13,[r13+0x8]
     b4a:	e9 60 60 00 00       	jmp    0x6baf
     b4f:	49 be 16 83 59 55 55 	movabs r14,0x555555598316
     b56:	55 00 00 
     b59:	4d 8d 6d f8          	lea    r13,[r13-0x8]
     b5d:	4d 89 75 00          	mov    QWORD PTR [r13+0x0],r14
     b61:	e9 7d 01 00 00       	jmp    0xce3
     b66:	49 be 1b 83 59 55 55 	movabs r14,0x55555559831b
     b6d:	55 00 00 
     b70:	4d 8d 6d f8          	lea    r13,[r13-0x8]
     b74:	4d 89 75 00          	mov    QWORD PTR [r13+0x0],r14
     b78:	e9 72 15 00 00       	jmp    0x20ef
     b7d:	48 85 c0             	test   rax,rax
     b80:	75 2f                	jne    0xbb1
     b82:	49 8b 45 18          	mov    rax,QWORD PTR [r13+0x18]
     b86:	4c 8b 75 88          	mov    r14,QWORD PTR [rbp-0x78]
     b8a:	49 33 46 28          	xor    rax,QWORD PTR [r14+0x28]
     b8e:	75 3a                	jne    0xbca
     b90:	49 83 c5 28          	add    r13,0x28
     b94:	49 8b 5d 00          	mov    rbx,QWORD PTR [r13+0x0]
     b98:	4d 8d 6d 08          	lea    r13,[r13+0x8]
     b9c:	4d 8b 65 00          	mov    r12,QWORD PTR [r13+0x0]
     ba0:	4d 8d 6d 08          	lea    r13,[r13+0x8]
     ba4:	4d 8b 75 00          	mov    r14,QWORD PTR [r13+0x0]
     ba8:	4d 8d 6d 08          	lea    r13,[r13+0x8]
     bac:	e9 24 59 00 00       	jmp    0x64d5
     bb1:	49 be 65 83 59 55 55 	movabs r14,0x555555598365
     bb8:	55 00 00 
     bbb:	4d 8d 6d f8          	lea    r13,[r13-0x8]
     bbf:	4d 89 75 00          	mov    QWORD PTR [r13+0x0],r14
     bc3:	e9 ff 64 00 00       	jmp    0x70c7
     bc8:	eb b8                	jmp    0xb82
     bca:	49 be ac 84 59 55 55 	movabs r14,0x5555555984ac
     bd1:	55 00 00 
     bd4:	4d 8d 6d f8          	lea    r13,[r13-0x8]
     bd8:	4d 89 75 00          	mov    QWORD PTR [r13+0x0],r14
     bdc:	e9 4e 65 00 00       	jmp    0x712f
     be1:	90                   	nop
     be2:	90                   	nop
     be3:	49 be ba 84 59 55 55 	movabs r14,0x5555555984ba
     bea:	55 00 00 
     bed:	41 8b 86 4a 1d 1a 00 	mov    eax,DWORD PTR [r14+0x1a1d4a]
     bf4:	85 c0                	test   eax,eax
     bf6:	74 0d                	je     0xc05
     bf8:	4d 8b 75 00          	mov    r14,QWORD PTR [r13+0x0]
     bfc:	4d 8d 6d 08          	lea    r13,[r13+0x8]
     c00:	e9 03 5b 00 00       	jmp    0x6708
     c05:	49 83 ed 08          	sub    r13,0x8
     c09:	49 be c9 84 59 55 55 	movabs r14,0x5555555984c9
     c10:	55 00 00 
     c13:	4d 8d 6d f8          	lea    r13,[r13-0x8]
     c17:	4d 89 75 00          	mov    QWORD PTR [r13+0x0],r14
     c1b:	e9 cf 14 00 00       	jmp    0x20ef
     c20:	48 85 c0             	test   rax,rax
     c23:	75 11                	jne    0xc36
     c25:	49 83 c5 08          	add    r13,0x8
     c29:	4d 8b 75 00          	mov    r14,QWORD PTR [r13+0x0]
     c2d:	4d 8d 6d 08          	lea    r13,[r13+0x8]
     c31:	e9 e1 5a 00 00       	jmp    0x6717
     c36:	49 83 c5 08          	add    r13,0x8
     c3a:	e9 99 14 00 00       	jmp    0x20d8
     c3f:	4d 8d 6d f8          	lea    r13,[r13-0x8]
     c43:	4d 89 65 00          	mov    QWORD PTR [r13+0x0],r12
     c47:	49 89 fc             	mov    r12,rdi
     c4a:	49 be 29 39 5a 55 55 	movabs r14,0x5555555a3929
     c51:	55 00 00 
     c54:	4d 8d 6d f8          	lea    r13,[r13-0x8]
     c58:	4d 89 75 00          	mov    QWORD PTR [r13+0x0],r14
     c5c:	e9 c6 2c 00 00       	jmp    0x3927
     c61:	4c 89 e7             	mov    rdi,r12
     c64:	49 be 31 39 5a 55 55 	movabs r14,0x5555555a3931
     c6b:	55 00 00 
     c6e:	4d 8d 6d f8          	lea    r13,[r13-0x8]
     c72:	4d 89 75 00          	mov    QWORD PTR [r13+0x0],r14
     c76:	e9 ac 2c 00 00       	jmp    0x3927
     c7b:	49 be 39 39 5a 55 55 	movabs r14,0x5555555a3939
     c82:	55 00 00 
     c85:	f0 49 29 86 6f 68 19 	lock sub QWORD PTR [r14+0x19686f],rax
     c8c:	00 
     c8d:	4c 89 e7             	mov    rdi,r12
     c90:	4d 8b 65 00          	mov    r12,QWORD PTR [r13+0x0]
     c94:	4d 8d 6d 08          	lea    r13,[r13+0x8]
     c98:	e9 bd 1b 00 00       	jmp    0x285a
     c9d:	90                   	nop
     c9e:	48 85 ff             	test   rdi,rdi
     ca1:	74 02                	je     0xca5
     ca3:	eb 9a                	jmp    0xc3f
     ca5:	4d 8b 75 00          	mov    r14,QWORD PTR [r13+0x0]
     ca9:	4d 8d 6d 08          	lea    r13,[r13+0x8]
     cad:	e9 2f 5c 00 00       	jmp    0x68e1
     cb2:	48 85 ff             	test   rdi,rdi
     cb5:	0f 88 65 65 00 00    	js     0x7220
     cbb:	48 8b 87 80 00 00 00 	mov    rax,QWORD PTR [rdi+0x80]
     cc2:	48 85 c0             	test   rax,rax
     cc5:	0f 88 55 65 00 00    	js     0x7220
     ccb:	48 83 78 28 00       	cmp    QWORD PTR [rax+0x28],0x0
     cd0:	0f 95 c0             	setne  al
     cd3:	0f b6 c0             	movzx  eax,al
     cd6:	4d 8b 75 00          	mov    r14,QWORD PTR [r13+0x0]
     cda:	4d 8d 6d 08          	lea    r13,[r13+0x8]
     cde:	e9 c9 58 00 00       	jmp    0x65ac
     ce3:	90                   	nop
     ce4:	4d 8d 6d f8          	lea    r13,[r13-0x8]
     ce8:	4c 8b 75 98          	mov    r14,QWORD PTR [rbp-0x68]
     cec:	4d 89 75 00          	mov    QWORD PTR [r13+0x0],r14
     cf0:	45 31 f6             	xor    r14d,r14d
     cf3:	4d 8d 6d f8          	lea    r13,[r13-0x8]
     cf7:	4d 89 65 00          	mov    QWORD PTR [r13+0x0],r12
     cfb:	4d 8d 6d f8          	lea    r13,[r13-0x8]
     cff:	49 89 5d 00          	mov    QWORD PTR [r13+0x0],rbx
     d03:	49 83 ed 20          	sub    r13,0x20
     d07:	49 bf a6 a1 5a 55 55 	movabs r15,0x5555555aa1a6
     d0e:	55 00 00 
     d11:	49 8b bf ca a0 1a 00 	mov    rdi,QWORD PTR [r15+0x1aa0ca]
     d18:	4c 8b 7d 88          	mov    r15,QWORD PTR [rbp-0x78]
     d1c:	49 8b 47 28          	mov    rax,QWORD PTR [r15+0x28]
     d20:	49 89 45 18          	mov    QWORD PTR [r13+0x18],rax
     d24:	31 c0                	xor    eax,eax
     d26:	4c 89 eb             	mov    rbx,r13
     d29:	48 89 de             	mov    rsi,rbx
     d2c:	4c 89 75 98          	mov    QWORD PTR [rbp-0x68],r14
     d30:	49 be c1 a1 5a 55 55 	movabs r14,0x5555555aa1c1
     d37:	55 00 00 
     d3a:	4d 8d 6d f8          	lea    r13,[r13-0x8]
     d3e:	4d 89 75 00          	mov    QWORD PTR [r13+0x0],r14
     d42:	e9 91 f4 ff ff       	jmp    0x1d8
     d47:	90                   	nop
     d48:	48 89 df             	mov    rdi,rbx
     d4b:	49 be d0 a1 5a 55 55 	movabs r14,0x5555555aa1d0
     d52:	55 00 00 
     d55:	4d 8d 6d f8          	lea    r13,[r13-0x8]
     d59:	4d 89 75 00          	mov    QWORD PTR [r13+0x0],r14
     d5d:	e9 ac f4 ff ff       	jmp    0x20e
     d62:	49 89 c4             	mov    r12,rax
     d65:	48 85 c0             	test   rax,rax
     d68:	0f 84 a3 00 00 00    	je     0xe11
     d6e:	49 8b 7c 24 10       	mov    rdi,QWORD PTR [r12+0x10]
     d73:	48 85 ff             	test   rdi,rdi
     d76:	0f 88 a4 64 00 00    	js     0x7220
     d7c:	48 8b 87 b0 00 00 00 	mov    rax,QWORD PTR [rdi+0xb0]
     d83:	a9 00 00 00 10       	test   eax,0x10000000
     d88:	75 be                	jne    0xd48
     d8a:	80 e4 fb             	and    ah,0xfb
     d8d:	4c 8b 75 98          	mov    r14,QWORD PTR [rbp-0x68]
     d91:	41 83 c6 01          	add    r14d,0x1
     d95:	48 85 ff             	test   rdi,rdi
     d98:	0f 88 82 64 00 00    	js     0x7220
     d9e:	48 89 87 b0 00 00 00 	mov    QWORD PTR [rdi+0xb0],rax
     da5:	49 bf fd a1 5a 55 55 	movabs r15,0x5555555aa1fd
     dac:	55 00 00 
     daf:	4d 8d 6d f8          	lea    r13,[r13-0x8]
     db3:	4d 89 7d 00          	mov    QWORD PTR [r13+0x0],r15
     db7:	4c 89 75 98          	mov    QWORD PTR [rbp-0x68],r14
     dbb:	e9 b5 61 00 00       	jmp    0x6f75
     dc0:	49 be 04 a2 5a 55 55 	movabs r14,0x5555555aa204
     dc7:	55 00 00 
     dca:	49 8b be 6c a0 1a 00 	mov    rdi,QWORD PTR [r14+0x1aa06c]
     dd1:	4c 89 e6             	mov    rsi,r12
     dd4:	49 be 0c a2 5a 55 55 	movabs r14,0x5555555aa20c
     ddb:	55 00 00 
     dde:	4d 8d 6d f8          	lea    r13,[r13-0x8]
     de2:	4d 89 75 00          	mov    QWORD PTR [r13+0x0],r14
     de6:	e9 e0 f2 ff ff       	jmp    0xcb
     deb:	48 89 df             	mov    rdi,rbx
     dee:	49 be 14 a2 5a 55 55 	movabs r14,0x5555555aa214
     df5:	55 00 00 
     df8:	4d 8d 6d f8          	lea    r13,[r13-0x8]
     dfc:	4d 89 75 00          	mov    QWORD PTR [r13+0x0],r14
     e00:	e9 09 f4 ff ff       	jmp    0x20e
     e05:	49 89 c4             	mov    r12,rax
     e08:	48 85 c0             	test   rax,rax
     e0b:	0f 85 5d ff ff ff    	jne    0xd6e
     e11:	49 8b 45 18          	mov    rax,QWORD PTR [r13+0x18]
     e15:	4c 8b 75 88          	mov    r14,QWORD PTR [rbp-0x78]
     e19:	49 33 46 28          	xor    rax,QWORD PTR [r14+0x28]
     e1d:	75 37                	jne    0xe56
     e1f:	49 83 c5 20          	add    r13,0x20
     e23:	4c 8b 75 98          	mov    r14,QWORD PTR [rbp-0x68]
     e27:	44 89 f0             	mov    eax,r14d
     e2a:	49 8b 5d 00          	mov    rbx,QWORD PTR [r13+0x0]
     e2e:	4d 8d 6d 08          	lea    r13,[r13+0x8]
     e32:	4d 8b 65 00          	mov    r12,QWORD PTR [r13+0x0]
     e36:	4d 8d 6d 08          	lea    r13,[r13+0x8]
     e3a:	4d 8b 75 00          	mov    r14,QWORD PTR [r13+0x0]
     e3e:	4d 8d 6d 08          	lea    r13,[r13+0x8]
     e42:	4d 8b 7d 00          	mov    r15,QWORD PTR [r13+0x0]
     e46:	4d 8d 6d 08          	lea    r13,[r13+0x8]
     e4a:	4c 89 75 98          	mov    QWORD PTR [rbp-0x68],r14
     e4e:	4d 89 fe             	mov    r14,r15
     e51:	e9 5b 58 00 00       	jmp    0x66b1
     e56:	49 be 3d a2 5a 55 55 	movabs r14,0x5555555aa23d
     e5d:	55 00 00 
     e60:	4d 8d 6d f8          	lea    r13,[r13-0x8]
     e64:	4d 89 75 00          	mov    QWORD PTR [r13+0x0],r14
     e68:	e9 c2 62 00 00       	jmp    0x712f
     e6d:	90                   	nop
     e6e:	90                   	nop
     e6f:	49 83 ed 18          	sub    r13,0x18
     e73:	49 89 7d 08          	mov    QWORD PTR [r13+0x8],rdi
     e77:	49 be 52 a2 5a 55 55 	movabs r14,0x5555555aa252
     e7e:	55 00 00 
     e81:	4d 8d 6d f8          	lea    r13,[r13-0x8]
     e85:	4d 89 75 00          	mov    QWORD PTR [r13+0x0],r14
     e89:	e9 d1 61 00 00       	jmp    0x705f
     e8e:	49 8d 75 08          	lea    rsi,[r13+0x8]
     e92:	ba 08 00 00 00       	mov    edx,0x8
     e97:	49 be 63 a2 5a 55 55 	movabs r14,0x5555555aa263
     e9e:	55 00 00 
     ea1:	49 8b be 4d a0 1a 00 	mov    rdi,QWORD PTR [r14+0x1aa04d]
     ea8:	49 89 45 08          	mov    QWORD PTR [r13+0x8],rax
     eac:	49 be 6d a2 5a 55 55 	movabs r14,0x5555555aa26d
     eb3:	55 00 00 
     eb6:	4d 8d 6d f8          	lea    r13,[r13-0x8]
     eba:	4d 89 75 00          	mov    QWORD PTR [r13+0x0],r14
     ebe:	e9 28 5e 00 00       	jmp    0x6ceb
     ec3:	ba 00 00 00 00       	mov    edx,0x0
     ec8:	49 be 79 a2 5a 55 55 	movabs r14,0x5555555aa279
     ecf:	55 00 00 
     ed2:	49 39 86 bf f7 18 00 	cmp    QWORD PTR [r14+0x18f7bf],rax
     ed9:	48 0f 44 c2          	cmove  rax,rdx
     edd:	49 83 c5 18          	add    r13,0x18
     ee1:	4d 8b 75 00          	mov    r14,QWORD PTR [r13+0x0]
     ee5:	4d 8d 6d 08          	lea    r13,[r13+0x8]
     ee9:	e9 a1 57 00 00       	jmp    0x668f
     eee:	90                   	nop
     eef:	4d 8d 6d f8          	lea    r13,[r13-0x8]
     ef3:	4c 8b 75 b0          	mov    r14,QWORD PTR [rbp-0x50]
     ef7:	4d 89 75 00          	mov    QWORD PTR [r13+0x0],r14
     efb:	4d 8d 6d f8          	lea    r13,[r13-0x8]
     eff:	4c 8b 7d a8          	mov    r15,QWORD PTR [rbp-0x58]
     f03:	4d 89 7d 00          	mov    QWORD PTR [r13+0x0],r15
     f07:	4d 8d 6d f8          	lea    r13,[r13-0x8]
     f0b:	4c 89 75 b0          	mov    QWORD PTR [rbp-0x50],r14
     f0f:	4c 8b 75 a0          	mov    r14,QWORD PTR [rbp-0x60]
     f13:	4d 89 75 00          	mov    QWORD PTR [r13+0x0],r14
     f17:	41 89 f6             	mov    r14d,esi
     f1a:	4d 8d 6d f8          	lea    r13,[r13-0x8]
     f1e:	4c 89 75 a0          	mov    QWORD PTR [rbp-0x60],r14
     f22:	4c 8b 75 98          	mov    r14,QWORD PTR [rbp-0x68]
     f26:	4d 89 75 00          	mov    QWORD PTR [r13+0x0],r14
     f2a:	4d 8d 6d f8          	lea    r13,[r13-0x8]
     f2e:	4d 89 65 00          	mov    QWORD PTR [r13+0x0],r12
     f32:	49 89 fc             	mov    r12,rdi
     f35:	4d 8d 6d f8          	lea    r13,[r13-0x8]
     f39:	49 89 5d 00          	mov    QWORD PTR [r13+0x0],rbx
     f3d:	49 83 ed 08          	sub    r13,0x8
     f41:	4c 89 75 98          	mov    QWORD PTR [rbp-0x68],r14
     f45:	49 be b1 a2 5a 55 55 	movabs r14,0x5555555aa2b1
     f4c:	55 00 00 
     f4f:	f0 49 83 86 3f a3 1a 	lock add QWORD PTR [r14+0x1aa33f],0x1
     f56:	00 01 
     f58:	31 db                	xor    ebx,ebx
     f5a:	4c 8b 75 98          	mov    r14,QWORD PTR [rbp-0x68]
     f5e:	4c 8d b7 58 02 00 00 	lea    r14,[rdi+0x258]
     f65:	90                   	nop
     f66:	4c 89 7d a8          	mov    QWORD PTR [rbp-0x58],r15
     f6a:	4c 89 75 98          	mov    QWORD PTR [rbp-0x68],r14
     f6e:	49 63 94 24 54 02 00 	movsxd rdx,DWORD PTR [r12+0x254]
     f75:	00 
     f76:	85 d2                	test   edx,edx
     f78:	0f 85 c0 01 00 00    	jne    0x113e
     f7e:	4c 89 e7             	mov    rdi,r12
     f81:	49 be d7 a2 5a 55 55 	movabs r14,0x5555555aa2d7
     f88:	55 00 00 
     f8b:	4d 8d 6d f8          	lea    r13,[r13-0x8]
     f8f:	4d 89 75 00          	mov    QWORD PTR [r13+0x0],r14
     f93:	e9 1a fd ff ff       	jmp    0xcb2
     f98:	85 c0                	test   eax,eax
     f9a:	0f 84 05 01 00 00    	je     0x10a5
     fa0:	49 8b bc 24 80 00 00 	mov    rdi,QWORD PTR [r12+0x80]
     fa7:	00 
     fa8:	48 85 ff             	test   rdi,rdi
     fab:	0f 88 6f 62 00 00    	js     0x7220
     fb1:	48 8b 37             	mov    rsi,QWORD PTR [rdi]
     fb4:	4c 8b 75 b0          	mov    r14,QWORD PTR [rbp-0x50]
     fb8:	48 85 f6             	test   rsi,rsi
     fbb:	0f 88 5f 62 00 00    	js     0x7220
     fc1:	4c 8b 76 10          	mov    r14,QWORD PTR [rsi+0x10]
     fc5:	4c 8b 7d a8          	mov    r15,QWORD PTR [rbp-0x58]
     fc9:	4d 85 f6             	test   r14,r14
     fcc:	0f 88 4e 62 00 00    	js     0x7220
     fd2:	4d 8b 7e 08          	mov    r15,QWORD PTR [r14+0x8]
     fd6:	4d 85 ff             	test   r15,r15
     fd9:	4c 89 7d a8          	mov    QWORD PTR [rbp-0x58],r15
     fdd:	4c 89 75 b0          	mov    QWORD PTR [rbp-0x50],r14
     fe1:	0f 84 2a 02 00 00    	je     0x1211
     fe7:	49 8b 84 24 90 00 00 	mov    rax,QWORD PTR [r12+0x90]
     fee:	00 
     fef:	49 8b 7c 24 08       	mov    rdi,QWORD PTR [r12+0x8]
     ff4:	4c 8b 75 a8          	mov    r14,QWORD PTR [rbp-0x58]
     ff8:	4c 89 f2             	mov    rdx,r14
     ffb:	48 29 c2             	sub    rdx,rax
     ffe:	4c 8b 7d b0          	mov    r15,QWORD PTR [rbp-0x50]
    1002:	49 8d 74 07 10       	lea    rsi,[r15+rax*1+0x10]
    1007:	48 85 ff             	test   rdi,rdi
    100a:	0f 88 10 62 00 00    	js     0x7220
    1010:	48 8b 07             	mov    rax,QWORD PTR [rdi]
    1013:	4c 89 75 a8          	mov    QWORD PTR [rbp-0x58],r14
    1017:	49 be 16 a3 5a 55 55 	movabs r14,0x5555555aa316
    101e:	55 00 00 
    1021:	4d 8d 6d f8          	lea    r13,[r13-0x8]
    1025:	4d 89 75 00          	mov    QWORD PTR [r13+0x0],r14
    1029:	48 85 c0             	test   rax,rax
    102c:	0f 88 ee 61 00 00    	js     0x7220
    1032:	4c 8b 70 10          	mov    r14,QWORD PTR [rax+0x10]
    1036:	4c 89 7d b0          	mov    QWORD PTR [rbp-0x50],r15
    103a:	e9 23 56 00 00       	jmp    0x6662
    103f:	48 98                	cdqe   
    1041:	48 85 c0             	test   rax,rax
    1044:	0f 8e d8 02 00 00    	jle    0x1322
    104a:	49 8b 94 24 90 00 00 	mov    rdx,QWORD PTR [r12+0x90]
    1051:	00 
    1052:	48 01 c3             	add    rbx,rax
    1055:	48 01 c2             	add    rdx,rax
    1058:	49 89 94 24 90 00 00 	mov    QWORD PTR [r12+0x90],rdx
    105f:	00 
    1060:	4c 8b 75 a8          	mov    r14,QWORD PTR [rbp-0x58]
    1064:	4c 39 f2             	cmp    rdx,r14
    1067:	4c 89 75 a8          	mov    QWORD PTR [rbp-0x58],r14
    106b:	0f 84 d8 01 00 00    	je     0x1249
    1071:	48 81 fb 00 00 01 00 	cmp    rbx,0x10000
    1078:	0f 8e f0 fe ff ff    	jle    0xf6e
    107e:	49 be 53 a3 5a 55 55 	movabs r14,0x5555555aa353
    1085:	55 00 00 
    1088:	49 83 be 95 a8 1a 00 	cmp    QWORD PTR [r14+0x1aa895],0x0
    108f:	00 
    1090:	0f 85 48 01 00 00    	jne    0x11de
    1096:	41 f6 84 24 b0 00 00 	test   BYTE PTR [r12+0xb0],0x1
    109d:	00 01 
    109f:	0f 85 c9 fe ff ff    	jne    0xf6e
    10a5:	49 be 6e a3 5a 55 55 	movabs r14,0x5555555aa36e
    10ac:	55 00 00 
    10af:	f0 49 01 9e 22 a2 1a 	lock add QWORD PTR [r14+0x1aa222],rbx
    10b6:	00 
    10b7:	48 85 db             	test   rbx,rbx
    10ba:	74 0f                	je     0x10cb
    10bc:	41 f6 84 24 b0 00 00 	test   BYTE PTR [r12+0xb0],0x2
    10c3:	00 02 
    10c5:	0f 84 ca 03 00 00    	je     0x1495
    10cb:	41 8b 84 24 54 02 00 	mov    eax,DWORD PTR [r12+0x254]
    10d2:	00 
    10d3:	85 c0                	test   eax,eax
    10d5:	0f 84 13 03 00 00    	je     0x13ee
    10db:	31 c0                	xor    eax,eax
    10dd:	49 83 c5 08          	add    r13,0x8
    10e1:	49 8b 5d 00          	mov    rbx,QWORD PTR [r13+0x0]
    10e5:	4d 8d 6d 08          	lea    r13,[r13+0x8]
    10e9:	4d 8b 65 00          	mov    r12,QWORD PTR [r13+0x0]
    10ed:	4d 8d 6d 08          	lea    r13,[r13+0x8]
    10f1:	4c 8b 75 98          	mov    r14,QWORD PTR [rbp-0x68]
    10f5:	4d 8b 75 00          	mov    r14,QWORD PTR [r13+0x0]
    10f9:	4d 8d 6d 08          	lea    r13,[r13+0x8]
    10fd:	4c 8b 7d a0          	mov    r15,QWORD PTR [rbp-0x60]
    1101:	4d 8b 7d 00          	mov    r15,QWORD PTR [r13+0x0]
    1105:	4d 8d 6d 08          	lea    r13,[r13+0x8]
    1109:	4c 89 75 98          	mov    QWORD PTR [rbp-0x68],r14
    110d:	4c 8b 75 a8          	mov    r14,QWORD PTR [rbp-0x58]
    1111:	4d 8b 75 00          	mov    r14,QWORD PTR [r13+0x0]
    1115:	4d 8d 6d 08          	lea    r13,[r13+0x8]
    1119:	4c 89 75 a8          	mov    QWORD PTR [rbp-0x58],r14
    111d:	4c 8b 75 b0          	mov    r14,QWORD PTR [rbp-0x50]
    1121:	4d 8b 75 00          	mov    r14,QWORD PTR [r13+0x0]
    1125:	4d 8d 6d 08          	lea    r13,[r13+0x8]
    1129:	4c 89 75 b0          	mov    QWORD PTR [rbp-0x50],r14
    112d:	4d 8b 75 00          	mov    r14,QWORD PTR [r13+0x0]
    1131:	4d 8d 6d 08          	lea    r13,[r13+0x8]
    1135:	4c 89 7d a0          	mov    QWORD PTR [rbp-0x60],r15
    1139:	e9 fc 52 00 00       	jmp    0x643a
    113e:	0f 8e 5c fe ff ff    	jle    0xfa0
    1144:	49 8b 7c 24 08       	mov    rdi,QWORD PTR [r12+0x8]
    1149:	49 8b b4 24 90 00 00 	mov    rsi,QWORD PTR [r12+0x90]
    1150:	00 
    1151:	48 85 ff             	test   rdi,rdi
    1154:	0f 88 c6 60 00 00    	js     0x7220
    115a:	48 8b 07             	mov    rax,QWORD PTR [rdi]
    115d:	48 29 f2             	sub    rdx,rsi
    1160:	4c 8b 75 98          	mov    r14,QWORD PTR [rbp-0x68]
    1164:	4c 01 f6             	add    rsi,r14
    1167:	49 bf bd a3 5a 55 55 	movabs r15,0x5555555aa3bd
    116e:	55 00 00 
    1171:	4d 8d 6d f8          	lea    r13,[r13-0x8]
    1175:	4d 89 7d 00          	mov    QWORD PTR [r13+0x0],r15
    1179:	48 85 c0             	test   rax,rax
    117c:	0f 88 9e 60 00 00    	js     0x7220
    1182:	4c 8b 78 10          	mov    r15,QWORD PTR [rax+0x10]
    1186:	4c 89 75 98          	mov    QWORD PTR [rbp-0x68],r14
    118a:	4d 89 fe             	mov    r14,r15
    118d:	e9 64 52 00 00       	jmp    0x63f6
    1192:	48 98                	cdqe   
    1194:	48 85 c0             	test   rax,rax
    1197:	0f 8e 85 01 00 00    	jle    0x1322
    119d:	49 8b 94 24 90 00 00 	mov    rdx,QWORD PTR [r12+0x90]
    11a4:	00 
    11a5:	48 01 c3             	add    rbx,rax
    11a8:	48 01 c2             	add    rdx,rax
    11ab:	49 89 94 24 90 00 00 	mov    QWORD PTR [r12+0x90],rdx
    11b2:	00 
    11b3:	41 39 94 24 54 02 00 	cmp    DWORD PTR [r12+0x254],edx
    11ba:	00 
    11bb:	0f 85 b0 fe ff ff    	jne    0x1071
    11c1:	41 c7 84 24 54 02 00 	mov    DWORD PTR [r12+0x254],0x0
    11c8:	00 00 00 00 00 
    11cd:	49 c7 84 24 90 00 00 	mov    QWORD PTR [r12+0x90],0x0
    11d4:	00 00 00 00 00 
    11d9:	e9 93 fe ff ff       	jmp    0x1071
    11de:	49 be 0d a4 5a 55 55 	movabs r14,0x5555555aa40d
    11e5:	55 00 00 
    11e8:	4d 8d 6d f8          	lea    r13,[r13-0x8]
    11ec:	4d 89 75 00          	mov    QWORD PTR [r13+0x0],r14
    11f0:	e9 14 5c 00 00       	jmp    0x6e09
    11f5:	49 be 14 a4 5a 55 55 	movabs r14,0x5555555aa414
    11fc:	55 00 00 
    11ff:	49 3b 86 d4 a7 1a 00 	cmp    rax,QWORD PTR [r14+0x1aa7d4]
    1206:	0f 82 8a fe ff ff    	jb     0x1096
    120c:	e9 5d fd ff ff       	jmp    0xf6e
    1211:	4c 8b 75 b0          	mov    r14,QWORD PTR [rbp-0x50]
    1215:	4d 85 f6             	test   r14,r14
    1218:	0f 88 02 60 00 00    	js     0x7220
    121e:	49 8b 06             	mov    rax,QWORD PTR [r14]
    1221:	49 29 84 24 88 00 00 	sub    QWORD PTR [r12+0x88],rax
    1228:	00 
    1229:	49 bf 2f a4 5a 55 55 	movabs r15,0x5555555aa42f
    1230:	55 00 00 
    1233:	4d 8d 6d f8          	lea    r13,[r13-0x8]
    1237:	4d 89 7d 00          	mov    QWORD PTR [r13+0x0],r15
    123b:	4c 89 75 b0          	mov    QWORD PTR [rbp-0x50],r14
    123f:	e9 87 ee ff ff       	jmp    0xcb
    1244:	e9 25 fd ff ff       	jmp    0xf6e
    1249:	4c 8b 75 b0          	mov    r14,QWORD PTR [rbp-0x50]
    124d:	4d 85 f6             	test   r14,r14
    1250:	0f 88 ca 5f 00 00    	js     0x7220
    1256:	49 8b 06             	mov    rax,QWORD PTR [r14]
    1259:	49 8b bc 24 80 00 00 	mov    rdi,QWORD PTR [r12+0x80]
    1260:	00 
    1261:	49 29 84 24 88 00 00 	sub    QWORD PTR [r12+0x88],rax
    1268:	00 
    1269:	48 85 ff             	test   rdi,rdi
    126c:	0f 88 ae 5f 00 00    	js     0x7220
    1272:	48 8b 37             	mov    rsi,QWORD PTR [rdi]
    1275:	49 bf 51 a4 5a 55 55 	movabs r15,0x5555555aa451
    127c:	55 00 00 
    127f:	4d 8d 6d f8          	lea    r13,[r13-0x8]
    1283:	4d 89 7d 00          	mov    QWORD PTR [r13+0x0],r15
    1287:	4c 89 75 b0          	mov    QWORD PTR [rbp-0x50],r14
    128b:	e9 3b ee ff ff       	jmp    0xcb
    1290:	49 8b 84 24 80 00 00 	mov    rax,QWORD PTR [r12+0x80]
    1297:	00 
    1298:	49 c7 84 24 90 00 00 	mov    QWORD PTR [r12+0x90],0x0
    129f:	00 00 00 00 00 
    12a4:	48 85 c0             	test   rax,rax
    12a7:	0f 88 73 5f 00 00    	js     0x7220
    12ad:	48 83 78 28 00       	cmp    QWORD PTR [rax+0x28],0x0
    12b2:	0f 85 b9 fd ff ff    	jne    0x1071
    12b8:	49 83 bc 24 88 00 00 	cmp    QWORD PTR [r12+0x88],0x0
    12bf:	00 00 
    12c1:	0f 84 aa fd ff ff    	je     0x1071
    12c7:	49 be 83 a4 5a 55 55 	movabs r14,0x5555555aa483
    12ce:	55 00 00 
    12d1:	49 8d be 7d 73 12 00 	lea    rdi,[r14+0x12737d]
    12d8:	ba 4f 05 00 00       	mov    edx,0x54f
    12dd:	49 be 8f a4 5a 55 55 	movabs r14,0x5555555aa48f
    12e4:	55 00 00 
    12e7:	49 8d b6 dd 72 12 00 	lea    rsi,[r14+0x1272dd]
    12ee:	49 be 94 a4 5a 55 55 	movabs r14,0x5555555aa494
    12f5:	55 00 00 
    12f8:	4d 8d 6d f8          	lea    r13,[r13-0x8]
    12fc:	4d 89 75 00          	mov    QWORD PTR [r13+0x0],r14
    1300:	e9 40 5d 00 00       	jmp    0x7045
    1305:	bf 01 00 00 00       	mov    edi,0x1
    130a:	49 be 9e a4 5a 55 55 	movabs r14,0x5555555aa49e
    1311:	55 00 00 
    1314:	4d 8d 6d f8          	lea    r13,[r13-0x8]
    1318:	4d 89 75 00          	mov    QWORD PTR [r13+0x0],r14
    131c:	e9 b8 5b 00 00       	jmp    0x6ed9
    1321:	90                   	nop
    1322:	49 be a8 a4 5a 55 55 	movabs r14,0x5555555aa4a8
    1329:	55 00 00 
    132c:	f0 49 01 9e e8 a0 1a 	lock add QWORD PTR [r14+0x1aa0e8],rbx
    1333:	00 
    1334:	48 83 f8 ff          	cmp    rax,0xffffffffffffffff
    1338:	0f 85 79 fd ff ff    	jne    0x10b7
    133e:	49 8b 7c 24 08       	mov    rdi,QWORD PTR [r12+0x8]
    1343:	49 be bb a4 5a 55 55 	movabs r14,0x5555555aa4bb
    134a:	55 00 00 
    134d:	4d 8d 6d f8          	lea    r13,[r13-0x8]
    1351:	4d 89 75 00          	mov    QWORD PTR [r13+0x0],r14
    1355:	e9 77 59 00 00       	jmp    0x6cd1
    135a:	83 f8 03             	cmp    eax,0x3
    135d:	0f 84 54 fd ff ff    	je     0x10b7
    1363:	49 8b 7c 24 08       	mov    rdi,QWORD PTR [r12+0x8]
    1368:	48 85 ff             	test   rdi,rdi
    136b:	0f 88 af 5e 00 00    	js     0x7220
    1371:	48 8b 07             	mov    rax,QWORD PTR [rdi]
    1374:	49 be ce a4 5a 55 55 	movabs r14,0x5555555aa4ce
    137b:	55 00 00 
    137e:	4d 8d 6d f8          	lea    r13,[r13-0x8]
    1382:	4d 89 75 00          	mov    QWORD PTR [r13+0x0],r14
    1386:	48 85 c0             	test   rax,rax
    1389:	0f 88 91 5e 00 00    	js     0x7220
    138f:	4c 8b 70 40          	mov    r14,QWORD PTR [rax+0x40]
    1393:	e9 d9 52 00 00       	jmp    0x6671
    1398:	49 be d5 a4 5a 55 55 	movabs r14,0x5555555aa4d5
    139f:	55 00 00 
    13a2:	49 8d b6 3f 73 12 00 	lea    rsi,[r14+0x12733f]
    13a9:	bf 01 00 00 00       	mov    edi,0x1
    13ae:	48 89 c2             	mov    rdx,rax
    13b1:	31 c0                	xor    eax,eax
    13b3:	49 be e4 a4 5a 55 55 	movabs r14,0x5555555aa4e4
    13ba:	55 00 00 
    13bd:	4d 8d 6d f8          	lea    r13,[r13-0x8]
    13c1:	4d 89 75 00          	mov    QWORD PTR [r13+0x0],r14
    13c5:	e9 25 5a 00 00       	jmp    0x6def
    13ca:	4c 89 e7             	mov    rdi,r12
    13cd:	49 be ec a4 5a 55 55 	movabs r14,0x5555555aa4ec
    13d4:	55 00 00 
    13d7:	4d 8d 6d f8          	lea    r13,[r13-0x8]
    13db:	4d 89 75 00          	mov    QWORD PTR [r13+0x0],r14
    13df:	e9 47 5c 00 00       	jmp    0x702b
    13e4:	b8 ff ff ff ff       	mov    eax,0xffffffff
    13e9:	e9 ef fc ff ff       	jmp    0x10dd
    13ee:	4c 89 e7             	mov    rdi,r12
    13f1:	49 be 08 a5 5a 55 55 	movabs r14,0x5555555aa508
    13f8:	55 00 00 
    13fb:	4d 8d 6d f8          	lea    r13,[r13-0x8]
    13ff:	4d 89 75 00          	mov    QWORD PTR [r13+0x0],r14
    1403:	e9 aa f8 ff ff       	jmp    0xcb2
    1408:	85 c0                	test   eax,eax
    140a:	0f 85 cb fc ff ff    	jne    0x10db
    1410:	49 c7 84 24 90 00 00 	mov    QWORD PTR [r12+0x90],0x0
    1417:	00 00 00 00 00 
    141c:	4c 8b 75 a0          	mov    r14,QWORD PTR [rbp-0x60]
    1420:	45 85 f6             	test   r14d,r14d
    1423:	4c 89 75 a0          	mov    QWORD PTR [rbp-0x60],r14
    1427:	74 39                	je     0x1462
    1429:	49 8b 7c 24 08       	mov    rdi,QWORD PTR [r12+0x8]
    142e:	31 d2                	xor    edx,edx
    1430:	31 f6                	xor    esi,esi
    1432:	48 85 ff             	test   rdi,rdi
    1435:	0f 88 e5 5d 00 00    	js     0x7220
    143b:	48 8b 07             	mov    rax,QWORD PTR [rdi]
    143e:	49 be 2e a5 5a 55 55 	movabs r14,0x5555555aa52e
    1445:	55 00 00 
    1448:	4d 8d 6d f8          	lea    r13,[r13-0x8]
    144c:	4d 89 75 00          	mov    QWORD PTR [r13+0x0],r14
    1450:	48 85 c0             	test   rax,rax
    1453:	0f 88 c7 5d 00 00    	js     0x7220
    1459:	4c 8b 70 30          	mov    r14,QWORD PTR [rax+0x30]
    145d:	e9 1e 52 00 00       	jmp    0x6680
    1462:	41 f6 84 24 b0 00 00 	test   BYTE PTR [r12+0xb0],0x40
    1469:	00 40 
    146b:	0f 84 6a fc ff ff    	je     0x10db
    1471:	4c 89 e7             	mov    rdi,r12
    1474:	49 be 43 a5 5a 55 55 	movabs r14,0x5555555aa543
    147b:	55 00 00 
    147e:	4d 8d 6d f8          	lea    r13,[r13-0x8]
    1482:	4d 89 75 00          	mov    QWORD PTR [r13+0x0],r14
    1486:	e9 a0 5b 00 00       	jmp    0x702b
    148b:	b8 ff ff ff ff       	mov    eax,0xffffffff
    1490:	e9 48 fc ff ff       	jmp    0x10dd
    1495:	49 be 57 a5 5a 55 55 	movabs r14,0x5555555aa557
    149c:	55 00 00 
    149f:	49 8b 86 59 a7 1a 00 	mov    rax,QWORD PTR [r14+0x1aa759]
    14a6:	49 89 84 24 a0 00 00 	mov    QWORD PTR [r12+0xa0],rax
    14ad:	00 
    14ae:	41 8b 84 24 54 02 00 	mov    eax,DWORD PTR [r12+0x254]
    14b5:	00 
    14b6:	85 c0                	test   eax,eax
    14b8:	0f 84 30 ff ff ff    	je     0x13ee
    14be:	e9 18 fc ff ff       	jmp    0x10db
    14c3:	48 89 df             	mov    rdi,rbx
    14c6:	49 be d8 a5 5a 55 55 	movabs r14,0x5555555aa5d8
    14cd:	55 00 00 
    14d0:	4d 8d 6d f8          	lea    r13,[r13-0x8]
    14d4:	4d 89 75 00          	mov    QWORD PTR [r13+0x0],r14
    14d8:	e9 31 ed ff ff       	jmp    0x20e
    14dd:	48 89 c6             	mov    rsi,rax
    14e0:	48 85 c0             	test   rax,rax
    14e3:	0f 84 59 01 00 00    	je     0x1642
    14e9:	48 85 f6             	test   rsi,rsi
    14ec:	0f 88 2e 5d 00 00    	js     0x7220
    14f2:	4c 8b 66 10          	mov    r12,QWORD PTR [rsi+0x10]
    14f6:	49 be ef a5 5a 55 55 	movabs r14,0x5555555aa5ef
    14fd:	55 00 00 
    1500:	49 8b be 89 9c 1a 00 	mov    rdi,QWORD PTR [r14+0x1a9c89]
    1507:	49 81 a4 24 b0 00 00 	and    QWORD PTR [r12+0xb0],0xffffffffffdfffff
    150e:	00 ff ff df ff 
    1513:	49 be ff a5 5a 55 55 	movabs r14,0x5555555aa5ff
    151a:	55 00 00 
    151d:	4d 8d 6d f8          	lea    r13,[r13-0x8]
    1521:	4d 89 75 00          	mov    QWORD PTR [r13+0x0],r14
    1525:	e9 a1 eb ff ff       	jmp    0xcb
    152a:	41 f6 84 24 b3 00 00 	test   BYTE PTR [r12+0xb3],0x10
    1531:	00 10 
    1533:	75 8e                	jne    0x14c3
    1535:	31 f6                	xor    esi,esi
    1537:	4c 89 e7             	mov    rdi,r12
    153a:	49 be 12 a6 5a 55 55 	movabs r14,0x5555555aa612
    1541:	55 00 00 
    1544:	4d 8d 6d f8          	lea    r13,[r13-0x8]
    1548:	4d 89 75 00          	mov    QWORD PTR [r13+0x0],r14
    154c:	e9 9d f9 ff ff       	jmp    0xeee
    1551:	83 f8 ff             	cmp    eax,0xffffffff
    1554:	0f 84 69 ff ff ff    	je     0x14c3
    155a:	41 8b 84 24 54 02 00 	mov    eax,DWORD PTR [r12+0x254]
    1561:	00 
    1562:	85 c0                	test   eax,eax
    1564:	75 22                	jne    0x1588
    1566:	4c 89 e7             	mov    rdi,r12
    1569:	49 be 29 a6 5a 55 55 	movabs r14,0x5555555aa629
    1570:	55 00 00 
    1573:	4d 8d 6d f8          	lea    r13,[r13-0x8]
    1577:	4d 89 75 00          	mov    QWORD PTR [r13+0x0],r14
    157b:	e9 32 f7 ff ff       	jmp    0xcb2
    1580:	85 c0                	test   eax,eax
    1582:	0f 84 3b ff ff ff    	je     0x14c3
    1588:	31 d2                	xor    edx,edx
    158a:	49 be 36 a6 5a 55 55 	movabs r14,0x5555555aa636
    1591:	55 00 00 
    1594:	41 83 be 2e a2 1a 00 	cmp    DWORD PTR [r14+0x1aa22e],0x1
    159b:	01 
    159c:	75 17                	jne    0x15b5
    159e:	31 d2                	xor    edx,edx
    15a0:	49 be 41 a6 5a 55 55 	movabs r14,0x5555555aa641
    15a7:	55 00 00 
    15aa:	41 83 be 27 a2 1a 00 	cmp    DWORD PTR [r14+0x1aa227],0x1
    15b1:	01 
    15b2:	0f 94 c2             	sete   dl
    15b5:	49 8b 7c 24 08       	mov    rdi,QWORD PTR [r12+0x8]
    15ba:	4c 8b 75 98          	mov    r14,QWORD PTR [rbp-0x68]
    15be:	4c 89 f6             	mov    rsi,r14
    15c1:	48 85 ff             	test   rdi,rdi
    15c4:	0f 88 56 5c 00 00    	js     0x7220
    15ca:	48 8b 07             	mov    rax,QWORD PTR [rdi]
    15cd:	49 bf 51 a6 5a 55 55 	movabs r15,0x5555555aa651
    15d4:	55 00 00 
    15d7:	4d 8d 6d f8          	lea    r13,[r13-0x8]
    15db:	4d 89 7d 00          	mov    QWORD PTR [r13+0x0],r15
    15df:	48 85 c0             	test   rax,rax
    15e2:	0f 88 38 5c 00 00    	js     0x7220
    15e8:	4c 8b 78 30          	mov    r15,QWORD PTR [rax+0x30]
    15ec:	4c 89 75 98          	mov    QWORD PTR [rbp-0x68],r14
    15f0:	4d 89 fe             	mov    r14,r15
    15f3:	e9 4e 52 00 00       	jmp    0x6846
    15f8:	83 f8 ff             	cmp    eax,0xffffffff
    15fb:	0f 85 c2 fe ff ff    	jne    0x14c3
    1601:	4c 89 e7             	mov    rdi,r12
    1604:	49 be 62 a6 5a 55 55 	movabs r14,0x5555555aa662
    160b:	55 00 00 
    160e:	4d 8d 6d f8          	lea    r13,[r13-0x8]
    1612:	4d 89 75 00          	mov    QWORD PTR [r13+0x0],r14
    1616:	e9 10 5a 00 00       	jmp    0x702b
    161b:	48 89 df             	mov    rdi,rbx
    161e:	49 be 6a a6 5a 55 55 	movabs r14,0x5555555aa66a
    1625:	55 00 00 
    1628:	4d 8d 6d f8          	lea    r13,[r13-0x8]
    162c:	4d 89 75 00          	mov    QWORD PTR [r13+0x0],r14
    1630:	e9 d9 eb ff ff       	jmp    0x20e
    1635:	48 89 c6             	mov    rsi,rax
    1638:	48 85 c0             	test   rax,rax
    163b:	0f 85 a8 fe ff ff    	jne    0x14e9
    1641:	90                   	nop
    1642:	49 8b 45 18          	mov    rax,QWORD PTR [r13+0x18]
    1646:	4c 8b 75 88          	mov    r14,QWORD PTR [rbp-0x78]
    164a:	49 33 46 28          	xor    rax,QWORD PTR [r14+0x28]
    164e:	75 44                	jne    0x1694
    1650:	49 83 c5 28          	add    r13,0x28
    1654:	4c 8b 75 a0          	mov    r14,QWORD PTR [rbp-0x60]
    1658:	44 89 f0             	mov    eax,r14d
    165b:	49 8b 5d 00          	mov    rbx,QWORD PTR [r13+0x0]
    165f:	4d 8d 6d 08          	lea    r13,[r13+0x8]
    1663:	4d 8b 65 00          	mov    r12,QWORD PTR [r13+0x0]
    1667:	4d 8d 6d 08          	lea    r13,[r13+0x8]
    166b:	4c 8b 7d 98          	mov    r15,QWORD PTR [rbp-0x68]
    166f:	4d 8b 7d 00          	mov    r15,QWORD PTR [r13+0x0]
    1673:	4d 8d 6d 08          	lea    r13,[r13+0x8]
    1677:	4d 8b 75 00          	mov    r14,QWORD PTR [r13+0x0]
    167b:	4d 8d 6d 08          	lea    r13,[r13+0x8]
    167f:	4c 89 75 a0          	mov    QWORD PTR [rbp-0x60],r14
    1683:	4d 8b 75 00          	mov    r14,QWORD PTR [r13+0x0]
    1687:	4d 8d 6d 08          	lea    r13,[r13+0x8]
    168b:	4c 89 7d 98          	mov    QWORD PTR [rbp-0x68],r15
    168f:	e9 85 4e 00 00       	jmp    0x6519
    1694:	49 be a3 a6 5a 55 55 	movabs r14,0x5555555aa6a3
    169b:	55 00 00 
    169e:	4d 8d 6d f8          	lea    r13,[r13-0x8]
    16a2:	4d 89 75 00          	mov    QWORD PTR [r13+0x0],r14
    16a6:	e9 84 5a 00 00       	jmp    0x712f
    16ab:	90                   	nop
    16ac:	90                   	nop
    16ad:	90                   	nop
    16ae:	4d 8d 6d f8          	lea    r13,[r13-0x8]
    16b2:	4d 89 65 00          	mov    QWORD PTR [r13+0x0],r12
    16b6:	4d 8d 6d f8          	lea    r13,[r13-0x8]
    16ba:	49 89 5d 00          	mov    QWORD PTR [r13+0x0],rbx
    16be:	48 89 fb             	mov    rbx,rdi
    16c1:	49 83 ed 08          	sub    r13,0x8
    16c5:	48 85 ff             	test   rdi,rdi
    16c8:	0f 88 52 5b 00 00    	js     0x7220
    16ce:	48 8b 47 58          	mov    rax,QWORD PTR [rdi+0x58]
    16d2:	48 85 c0             	test   rax,rax
    16d5:	0f 84 0d 01 00 00    	je     0x17e8
    16db:	48 85 c0             	test   rax,rax
    16de:	0f 88 3c 5b 00 00    	js     0x7220
    16e4:	4c 8b 60 08          	mov    r12,QWORD PTR [rax+0x8]
    16e8:	49 be d3 a6 5a 55 55 	movabs r14,0x5555555aa6d3
    16ef:	55 00 00 
    16f2:	4d 8d 6d f8          	lea    r13,[r13-0x8]
    16f6:	4d 89 75 00          	mov    QWORD PTR [r13+0x0],r14
    16fa:	e9 f4 57 00 00       	jmp    0x6ef3
    16ff:	48 85 db             	test   rbx,rbx
    1702:	0f 88 18 5b 00 00    	js     0x7220
    1708:	48 8b 83 b0 00 00 00 	mov    rax,QWORD PTR [rbx+0xb0]
    170f:	49 be e1 a6 5a 55 55 	movabs r14,0x5555555aa6e1
    1716:	55 00 00 
    1719:	49 8d 8e 2f 38 00 00 	lea    rcx,[r14+0x382f]
    1720:	48 85 db             	test   rbx,rbx
    1723:	0f 88 f7 5a 00 00    	js     0x7220
    1729:	48 c7 43 70 00 00 00 	mov    QWORD PTR [rbx+0x70],0x0
    1730:	00 
    1731:	48 85 db             	test   rbx,rbx
    1734:	0f 88 e6 5a 00 00    	js     0x7220
    173a:	48 c7 43 78 ff ff ff 	mov    QWORD PTR [rbx+0x78],0xffffffffffffffff
    1741:	ff 
    1742:	48 89 c2             	mov    rdx,rax
    1745:	48 c1 ea 03          	shr    rdx,0x3
    1749:	48 83 f2 01          	xor    rdx,0x1
    174d:	83 e2 01             	and    edx,0x1
    1750:	49 39 cc             	cmp    r12,rcx
    1753:	0f 95 c1             	setne  cl
    1756:	49 be 0c a7 5a 55 55 	movabs r14,0x5555555aa70c
    175d:	55 00 00 
    1760:	4d 3b a6 04 68 18 00 	cmp    r12,QWORD PTR [r14+0x186804]
    1767:	74 15                	je     0x177e
    1769:	84 d2                	test   dl,dl
    176b:	74 23                	je     0x1790
    176d:	48 89 c2             	mov    rdx,rax
    1770:	80 e4 fd             	and    ah,0xfd
    1773:	48 c1 ea 03          	shr    rdx,0x3
    1777:	48 83 f2 01          	xor    rdx,0x1
    177b:	83 e2 01             	and    edx,0x1
    177e:	84 d2                	test   dl,dl
    1780:	74 0e                	je     0x1790
    1782:	48 89 c2             	mov    rdx,rax
    1785:	48 0f ba f0 24       	btr    rax,0x24
    178a:	84 c9                	test   cl,cl
    178c:	48 0f 44 c2          	cmove  rax,rdx
    1790:	48 89 c1             	mov    rcx,rax
    1793:	48 89 c2             	mov    rdx,rax
    1796:	48 81 e1 ff ff 7f fe 	and    rcx,0xfffffffffe7fffff
    179d:	48 81 e2 ff ff ff fe 	and    rdx,0xfffffffffeffffff
    17a4:	48 81 c9 00 00 00 01 	or     rcx,0x1000000
    17ab:	a9 00 00 80 00       	test   eax,0x800000
    17b0:	48 89 c8             	mov    rax,rcx
    17b3:	48 0f 44 c2          	cmove  rax,rdx
    17b7:	48 85 db             	test   rbx,rbx
    17ba:	0f 88 60 5a 00 00    	js     0x7220
    17c0:	48 89 83 b0 00 00 00 	mov    QWORD PTR [rbx+0xb0],rax
    17c7:	49 83 c5 08          	add    r13,0x8
    17cb:	49 8b 5d 00          	mov    rbx,QWORD PTR [r13+0x0]
    17cf:	4d 8d 6d 08          	lea    r13,[r13+0x8]
    17d3:	4d 8b 65 00          	mov    r12,QWORD PTR [r13+0x0]
    17d7:	4d 8d 6d 08          	lea    r13,[r13+0x8]
    17db:	4d 8b 75 00          	mov    r14,QWORD PTR [r13+0x0]
    17df:	4d 8d 6d 08          	lea    r13,[r13+0x8]
    17e3:	e9 4f 50 00 00       	jmp    0x6837
    17e8:	49 be 75 a7 5a 55 55 	movabs r14,0x5555555aa775
    17ef:	55 00 00 
    17f2:	4d 8d 6d f8          	lea    r13,[r13-0x8]
    17f6:	4d 89 75 00          	mov    QWORD PTR [r13+0x0],r14
    17fa:	e9 f4 56 00 00       	jmp    0x6ef3
    17ff:	48 85 db             	test   rbx,rbx
    1802:	0f 88 18 5a 00 00    	js     0x7220
    1808:	48 8b 83 b0 00 00 00 	mov    rax,QWORD PTR [rbx+0xb0]
    180f:	48 85 db             	test   rbx,rbx
    1812:	0f 88 08 5a 00 00    	js     0x7220
    1818:	48 c7 43 70 00 00 00 	mov    QWORD PTR [rbx+0x70],0x0
    181f:	00 
    1820:	48 85 db             	test   rbx,rbx
    1823:	0f 88 f7 59 00 00    	js     0x7220
    1829:	48 c7 43 78 ff ff ff 	mov    QWORD PTR [rbx+0x78],0xffffffffffffffff
    1830:	ff 
    1831:	a8 08                	test   al,0x8
    1833:	0f 85 57 ff ff ff    	jne    0x1790
    1839:	48 89 c2             	mov    rdx,rax
    183c:	b9 01 00 00 00       	mov    ecx,0x1
    1841:	80 e4 fd             	and    ah,0xfd
    1844:	48 c1 ea 03          	shr    rdx,0x3
    1848:	48 83 f2 01          	xor    rdx,0x1
    184c:	83 e2 01             	and    edx,0x1
    184f:	e9 2a ff ff ff       	jmp    0x177e
    1854:	4d 8d 6d f8          	lea    r13,[r13-0x8]
    1858:	4c 8b 75 a0          	mov    r14,QWORD PTR [rbp-0x60]
    185c:	4d 89 75 00          	mov    QWORD PTR [r13+0x0],r14
    1860:	4d 8d 6d f8          	lea    r13,[r13-0x8]
    1864:	4c 8b 7d 98          	mov    r15,QWORD PTR [rbp-0x68]
    1868:	4d 89 7d 00          	mov    QWORD PTR [r13+0x0],r15
    186c:	4d 8d 6d f8          	lea    r13,[r13-0x8]
    1870:	4d 89 65 00          	mov    QWORD PTR [r13+0x0],r12
    1874:	4d 8d 6d f8          	lea    r13,[r13-0x8]
    1878:	49 89 5d 00          	mov    QWORD PTR [r13+0x0],rbx
    187c:	49 83 ed 28          	sub    r13,0x28
    1880:	4c 89 75 a0          	mov    QWORD PTR [rbp-0x60],r14
    1884:	49 be d1 fc 5a 55 55 	movabs r14,0x5555555afcd1
    188b:	55 00 00 
    188e:	49 8b be af 45 1a 00 	mov    rdi,QWORD PTR [r14+0x1a45af]
    1895:	4c 8b 75 88          	mov    r14,QWORD PTR [rbp-0x78]
    1899:	49 8b 46 28          	mov    rax,QWORD PTR [r14+0x28]
    189d:	49 89 45 18          	mov    QWORD PTR [r13+0x18],rax
    18a1:	31 c0                	xor    eax,eax
    18a3:	48 85 ff             	test   rdi,rdi
    18a6:	0f 88 74 59 00 00    	js     0x7220
    18ac:	48 8b 5f 28          	mov    rbx,QWORD PTR [rdi+0x28]
    18b0:	85 db                	test   ebx,ebx
    18b2:	4c 89 7d 98          	mov    QWORD PTR [rbp-0x68],r15
    18b6:	0f 84 7e 03 00 00    	je     0x1c3a
    18bc:	49 be f3 fc 5a 55 55 	movabs r14,0x5555555afcf3
    18c3:	55 00 00 
    18c6:	41 8b 96 0d a5 18 00 	mov    edx,DWORD PTR [r14+0x18a50d]
    18cd:	85 d2                	test   edx,edx
    18cf:	0f 85 ba 03 00 00    	jne    0x1c8f
    18d5:	4d 89 ec             	mov    r12,r13
    18d8:	4c 8b 75 98          	mov    r14,QWORD PTR [rbp-0x68]
    18dc:	45 31 f6             	xor    r14d,r14d
    18df:	49 bf 08 fd 5a 55 55 	movabs r15,0x5555555afd08
    18e6:	55 00 00 
    18e9:	4c 89 75 98          	mov    QWORD PTR [rbp-0x68],r14
    18ed:	4c 8b 75 a0          	mov    r14,QWORD PTR [rbp-0x60]
    18f1:	4d 8d b7 38 6a 1a 00 	lea    r14,[r15+0x1a6a38]
    18f8:	4c 89 e6             	mov    rsi,r12
    18fb:	49 bf 10 fd 5a 55 55 	movabs r15,0x5555555afd10
    1902:	55 00 00 
    1905:	4d 8d 6d f8          	lea    r13,[r13-0x8]
    1909:	4d 89 7d 00          	mov    QWORD PTR [r13+0x0],r15
    190d:	4c 89 75 a0          	mov    QWORD PTR [rbp-0x60],r14
    1911:	e9 c2 e8 ff ff       	jmp    0x1d8
    1916:	eb 5d                	jmp    0x1975
    1918:	48 85 c0             	test   rax,rax
    191b:	0f 88 ff 58 00 00    	js     0x7220
    1921:	48 8b 70 10          	mov    rsi,QWORD PTR [rax+0x10]
    1925:	4c 8b 75 98          	mov    r14,QWORD PTR [rbp-0x68]
    1929:	44 89 f0             	mov    eax,r14d
    192c:	41 83 c6 01          	add    r14d,0x1
    1930:	99                   	cdq    
    1931:	49 bf 2a fd 5a 55 55 	movabs r15,0x5555555afd2a
    1938:	55 00 00 
    193b:	41 f7 bf b6 46 1a 00 	idiv   DWORD PTR [r15+0x1a46b6]
    1942:	48 63 d2             	movsxd rdx,edx
    1945:	4c 8b 7d a0          	mov    r15,QWORD PTR [rbp-0x60]
    1949:	4d 85 ff             	test   r15,r15
    194c:	0f 88 ce 58 00 00    	js     0x7220
    1952:	49 8b 3c d7          	mov    rdi,QWORD PTR [r15+rdx*8]
    1956:	4c 89 75 98          	mov    QWORD PTR [rbp-0x68],r14
    195a:	49 be 37 fd 5a 55 55 	movabs r14,0x5555555afd37
    1961:	55 00 00 
    1964:	4d 8d 6d f8          	lea    r13,[r13-0x8]
    1968:	4d 89 75 00          	mov    QWORD PTR [r13+0x0],r14
    196c:	4c 89 7d a0          	mov    QWORD PTR [rbp-0x60],r15
    1970:	e9 38 57 00 00       	jmp    0x70ad
    1975:	4c 89 e7             	mov    rdi,r12
    1978:	49 be 3f fd 5a 55 55 	movabs r14,0x5555555afd3f
    197f:	55 00 00 
    1982:	4d 8d 6d f8          	lea    r13,[r13-0x8]
    1986:	4d 89 75 00          	mov    QWORD PTR [r13+0x0],r14
    198a:	e9 7f e8 ff ff       	jmp    0x20e
    198f:	48 85 c0             	test   rax,rax
    1992:	75 84                	jne    0x1918
    1994:	49 be 4b fd 5a 55 55 	movabs r14,0x5555555afd4b
    199b:	55 00 00 
    199e:	41 83 be 95 46 1a 00 	cmp    DWORD PTR [r14+0x1a4695],0x1
    19a5:	01 
    19a6:	b8 01 00 00 00       	mov    eax,0x1
    19ab:	49 be 5a fd 5a 55 55 	movabs r14,0x5555555afd5a
    19b2:	55 00 00 
    19b5:	41 c7 86 c6 55 1a 00 	mov    DWORD PTR [r14+0x1a55c6],0x0
    19bc:	00 00 00 00 
    19c0:	49 be 61 fd 5a 55 55 	movabs r14,0x5555555afd61
    19c7:	55 00 00 
    19ca:	49 8d b6 df 69 1a 00 	lea    rsi,[r14+0x1a69df]
    19d1:	49 be 68 fd 5a 55 55 	movabs r14,0x5555555afd68
    19d8:	55 00 00 
    19db:	49 8d 8e d8 6d 1a 00 	lea    rcx,[r14+0x1a6dd8]
    19e2:	7e 42                	jle    0x1a26
    19e4:	90                   	nop
    19e5:	48 85 f6             	test   rsi,rsi
    19e8:	0f 88 32 58 00 00    	js     0x7220
    19ee:	48 8b 14 c6          	mov    rdx,QWORD PTR [rsi+rax*8]
    19f2:	48 85 d2             	test   rdx,rdx
    19f5:	0f 88 25 58 00 00    	js     0x7220
    19fb:	48 63 52 28          	movsxd rdx,DWORD PTR [rdx+0x28]
    19ff:	48 85 c9             	test   rcx,rcx
    1a02:	0f 88 18 58 00 00    	js     0x7220
    1a08:	48 89 14 c1          	mov    QWORD PTR [rcx+rax*8],rdx
    1a0c:	48 83 c0 01          	add    rax,0x1
    1a10:	0f ae f0             	mfence 
    1a13:	49 be 89 fd 5a 55 55 	movabs r14,0x5555555afd89
    1a1a:	55 00 00 
    1a1d:	41 39 86 57 46 1a 00 	cmp    DWORD PTR [r14+0x1a4657],eax
    1a24:	7f bf                	jg     0x19e5
    1a26:	49 be 92 fd 5a 55 55 	movabs r14,0x5555555afd92
    1a2d:	55 00 00 
    1a30:	49 8b be ae 69 1a 00 	mov    rdi,QWORD PTR [r14+0x1a69ae]
    1a37:	4c 89 e6             	mov    rsi,r12
    1a3a:	49 be 9a fd 5a 55 55 	movabs r14,0x5555555afd9a
    1a41:	55 00 00 
    1a44:	4d 8d 6d f8          	lea    r13,[r13-0x8]
    1a48:	4d 89 75 00          	mov    QWORD PTR [r13+0x0],r14
    1a4c:	e9 87 e7 ff ff       	jmp    0x1d8
    1a51:	eb 31                	jmp    0x1a84
    1a53:	48 85 c0             	test   rax,rax
    1a56:	0f 88 c4 57 00 00    	js     0x7220
    1a5c:	48 8b 40 10          	mov    rax,QWORD PTR [rax+0x10]
    1a60:	48 85 c0             	test   rax,rax
    1a63:	0f 88 b7 57 00 00    	js     0x7220
    1a69:	48 8b 78 08          	mov    rdi,QWORD PTR [rax+0x8]
    1a6d:	49 be ad fd 5a 55 55 	movabs r14,0x5555555afdad
    1a74:	55 00 00 
    1a77:	4d 8d 6d f8          	lea    r13,[r13-0x8]
    1a7b:	4d 89 75 00          	mov    QWORD PTR [r13+0x0],r14
    1a7f:	e9 3b 54 00 00       	jmp    0x6ebf
    1a84:	4c 89 e7             	mov    rdi,r12
    1a87:	49 be b5 fd 5a 55 55 	movabs r14,0x5555555afdb5
    1a8e:	55 00 00 
    1a91:	4d 8d 6d f8          	lea    r13,[r13-0x8]
    1a95:	4d 89 75 00          	mov    QWORD PTR [r13+0x0],r14
    1a99:	e9 70 e7 ff ff       	jmp    0x20e
    1a9e:	48 85 c0             	test   rax,rax
    1aa1:	75 b0                	jne    0x1a53
    1aa3:	49 be c1 fd 5a 55 55 	movabs r14,0x5555555afdc1
    1aaa:	55 00 00 
    1aad:	49 8b be 7f 69 1a 00 	mov    rdi,QWORD PTR [r14+0x1a697f]
    1ab4:	49 be c6 fd 5a 55 55 	movabs r14,0x5555555afdc6
    1abb:	55 00 00 
    1abe:	4d 8d 6d f8          	lea    r13,[r13-0x8]
    1ac2:	4d 89 75 00          	mov    QWORD PTR [r13+0x0],r14
    1ac6:	e9 12 55 00 00       	jmp    0x6fdd
    1acb:	49 be cc fd 5a 55 55 	movabs r14,0x5555555afdcc
    1ad2:	55 00 00 
    1ad5:	41 8b b6 14 46 1a 00 	mov    esi,DWORD PTR [r14+0x1a4614]
    1adc:	90                   	nop
    1add:	83 fe 01             	cmp    esi,0x1
    1ae0:	7e 4b                	jle    0x1b2d
    1ae2:	49 be dc fd 5a 55 55 	movabs r14,0x5555555afddc
    1ae9:	55 00 00 
    1aec:	49 8d 96 6c 6d 1a 00 	lea    rdx,[r14+0x1a6d6c]
    1af3:	31 c9                	xor    ecx,ecx
    1af5:	b8 01 00 00 00       	mov    eax,0x1
    1afa:	90                   	nop
    1afb:	83 c0 01             	add    eax,0x1
    1afe:	48 83 c2 08          	add    rdx,0x8
    1b02:	48 85 d2             	test   rdx,rdx
    1b05:	0f 88 15 57 00 00    	js     0x7220
    1b0b:	48 8b 72 f8          	mov    rsi,QWORD PTR [rdx-0x8]
    1b0f:	48 01 f1             	add    rcx,rsi
    1b12:	49 be fc fd 5a 55 55 	movabs r14,0x5555555afdfc
    1b19:	55 00 00 
    1b1c:	41 8b b6 e4 45 1a 00 	mov    esi,DWORD PTR [r14+0x1a45e4]
    1b23:	39 f0                	cmp    eax,esi
    1b25:	7c d4                	jl     0x1afb
    1b27:	48 85 c9             	test   rcx,rcx
    1b2a:	75 b1                	jne    0x1add
    1b2c:	90                   	nop
    1b2d:	49 be 0e fe 5a 55 55 	movabs r14,0x5555555afe0e
    1b34:	55 00 00 
    1b37:	41 8b 86 f2 a3 18 00 	mov    eax,DWORD PTR [r14+0x18a3f2]
    1b3e:	85 c0                	test   eax,eax
    1b40:	0f 85 8e 01 00 00    	jne    0x1cd4
    1b46:	49 be 1d fe 5a 55 55 	movabs r14,0x5555555afe1d
    1b4d:	55 00 00 
    1b50:	49 8b be 63 44 1a 00 	mov    rdi,QWORD PTR [r14+0x1a4463]
    1b57:	48 85 ff             	test   rdi,rdi
    1b5a:	0f 88 c0 56 00 00    	js     0x7220
    1b60:	48 83 7f 28 00       	cmp    QWORD PTR [rdi+0x28],0x0
    1b65:	0f 84 bb 00 00 00    	je     0x1c26
    1b6b:	48 85 ff             	test   rdi,rdi
    1b6e:	0f 88 ac 56 00 00    	js     0x7220
    1b74:	48 8b 37             	mov    rsi,QWORD PTR [rdi]
    1b77:	48 85 f6             	test   rsi,rsi
    1b7a:	0f 88 a0 56 00 00    	js     0x7220
    1b80:	4c 8b 66 10          	mov    r12,QWORD PTR [rsi+0x10]
    1b84:	49 81 a4 24 b0 00 00 	and    QWORD PTR [r12+0xb0],0xffffffffdfffffff
    1b8b:	00 ff ff ff df 
    1b90:	49 be 3b fe 5a 55 55 	movabs r14,0x5555555afe3b
    1b97:	55 00 00 
    1b9a:	4d 8d 6d f8          	lea    r13,[r13-0x8]
    1b9e:	4d 89 75 00          	mov    QWORD PTR [r13+0x0],r14
    1ba2:	e9 24 e5 ff ff       	jmp    0xcb
    1ba7:	49 8b 84 24 b0 00 00 	mov    rax,QWORD PTR [r12+0xb0]
    1bae:	00 
    1baf:	a9 00 00 00 40       	test   eax,0x40000000
    1bb4:	74 31                	je     0x1be7
    1bb6:	48 25 ff ff ff bf    	and    rax,0xffffffffbfffffff
    1bbc:	4c 89 e7             	mov    rdi,r12
    1bbf:	49 89 84 24 b0 00 00 	mov    QWORD PTR [r12+0xb0],rax
    1bc6:	00 
    1bc7:	49 be 5e fe 5a 55 55 	movabs r14,0x5555555afe5e
    1bce:	55 00 00 
    1bd1:	4d 8d 6d f8          	lea    r13,[r13-0x8]
    1bd5:	4d 89 75 00          	mov    QWORD PTR [r13+0x0],r14
    1bd9:	e9 fe 55 00 00       	jmp    0x71dc
    1bde:	83 f8 ff             	cmp    eax,0xffffffff
    1be1:	0f 84 5f ff ff ff    	je     0x1b46
    1be7:	4c 89 e7             	mov    rdi,r12
    1bea:	49 be 6b fe 5a 55 55 	movabs r14,0x5555555afe6b
    1bf1:	55 00 00 
    1bf4:	4d 8d 6d f8          	lea    r13,[r13-0x8]
    1bf8:	4d 89 75 00          	mov    QWORD PTR [r13+0x0],r14
    1bfc:	e9 f6 53 00 00       	jmp    0x6ff7
    1c01:	49 be 72 fe 5a 55 55 	movabs r14,0x5555555afe72
    1c08:	55 00 00 
    1c0b:	49 8b be 0e 44 1a 00 	mov    rdi,QWORD PTR [r14+0x1a440e]
    1c12:	48 85 ff             	test   rdi,rdi
    1c15:	0f 88 05 56 00 00    	js     0x7220
    1c1b:	48 83 7f 28 00       	cmp    QWORD PTR [rdi+0x28],0x0
    1c20:	0f 85 45 ff ff ff    	jne    0x1b6b
    1c26:	48 63 c3             	movsxd rax,ebx
    1c29:	49 be 83 fe 5a 55 55 	movabs r14,0x5555555afe83
    1c30:	55 00 00 
    1c33:	49 01 86 55 47 1a 00 	add    QWORD PTR [r14+0x1a4755],rax
    1c3a:	49 8b 45 18          	mov    rax,QWORD PTR [r13+0x18]
    1c3e:	4c 8b 75 88          	mov    r14,QWORD PTR [rbp-0x78]
    1c42:	49 33 46 28          	xor    rax,QWORD PTR [r14+0x28]
    1c46:	0f 85 bc 00 00 00    	jne    0x1d08
    1c4c:	49 83 c5 28          	add    r13,0x28
    1c50:	89 d8                	mov    eax,ebx
    1c52:	49 8b 5d 00          	mov    rbx,QWORD PTR [r13+0x0]
    1c56:	4d 8d 6d 08          	lea    r13,[r13+0x8]
    1c5a:	4d 8b 65 00          	mov    r12,QWORD PTR [r13+0x0]
    1c5e:	4d 8d 6d 08          	lea    r13,[r13+0x8]
    1c62:	4c 8b 75 98          	mov    r14,QWORD PTR [rbp-0x68]
    1c66:	4d 8b 75 00          	mov    r14,QWORD PTR [r13+0x0]
    1c6a:	4d 8d 6d 08          	lea    r13,[r13+0x8]
    1c6e:	4c 8b 7d a0          	mov    r15,QWORD PTR [rbp-0x60]
    1c72:	4d 8b 7d 00          	mov    r15,QWORD PTR [r13+0x0]
    1c76:	4d 8d 6d 08          	lea    r13,[r13+0x8]
    1c7a:	4c 89 75 98          	mov    QWORD PTR [rbp-0x68],r14
    1c7e:	4d 8b 75 00          	mov    r14,QWORD PTR [r13+0x0]
    1c82:	4d 8d 6d 08          	lea    r13,[r13+0x8]
    1c86:	4c 89 7d a0          	mov    QWORD PTR [rbp-0x60],r15
    1c8a:	e9 6b 4f 00 00       	jmp    0x6bfa
    1c8f:	bf 01 00 00 00       	mov    edi,0x1
    1c94:	89 da                	mov    edx,ebx
    1c96:	49 be ae fe 5a 55 55 	movabs r14,0x5555555afeae
    1c9d:	55 00 00 
    1ca0:	49 8d b6 2a 34 12 00 	lea    rsi,[r14+0x12342a]
    1ca7:	49 be b3 fe 5a 55 55 	movabs r14,0x5555555afeb3
    1cae:	55 00 00 
    1cb1:	4d 8d 6d f8          	lea    r13,[r13-0x8]
    1cb5:	4d 89 75 00          	mov    QWORD PTR [r13+0x0],r14
    1cb9:	e9 fd 50 00 00       	jmp    0x6dbb
    1cbe:	49 be ba fe 5a 55 55 	movabs r14,0x5555555afeba
    1cc5:	55 00 00 
    1cc8:	49 8b be c6 43 1a 00 	mov    rdi,QWORD PTR [r14+0x1a43c6]
    1ccf:	e9 01 fc ff ff       	jmp    0x18d5
    1cd4:	49 be c6 fe 5a 55 55 	movabs r14,0x5555555afec6
    1cdb:	55 00 00 
    1cde:	49 8d b6 1c 1c 12 00 	lea    rsi,[r14+0x121c1c]
    1ce5:	bf 01 00 00 00       	mov    edi,0x1
    1cea:	31 c0                	xor    eax,eax
    1cec:	49 be d2 fe 5a 55 55 	movabs r14,0x5555555afed2
    1cf3:	55 00 00 
    1cf6:	4d 8d 6d f8          	lea    r13,[r13-0x8]
    1cfa:	4d 89 75 00          	mov    QWORD PTR [r13+0x0],r14
    1cfe:	e9 b8 50 00 00       	jmp    0x6dbb
    1d03:	e9 3e fe ff ff       	jmp    0x1b46
    1d08:	49 be dc fe 5a 55 55 	movabs r14,0x5555555afedc
    1d0f:	55 00 00 
    1d12:	4d 8d 6d f8          	lea    r13,[r13-0x8]
    1d16:	4d 89 75 00          	mov    QWORD PTR [r13+0x0],r14
    1d1a:	e9 10 54 00 00       	jmp    0x712f
    1d1f:	90                   	nop
    1d20:	90                   	nop
    1d21:	4d 8d 6d f8          	lea    r13,[r13-0x8]
    1d25:	4d 89 65 00          	mov    QWORD PTR [r13+0x0],r12
    1d29:	4d 8d 6d f8          	lea    r13,[r13-0x8]
    1d2d:	49 89 5d 00          	mov    QWORD PTR [r13+0x0],rbx
    1d31:	49 83 ed 08          	sub    r13,0x8
    1d35:	49 be f0 fe 5a 55 55 	movabs r14,0x5555555afef0
    1d3c:	55 00 00 
    1d3f:	41 8b b6 f8 44 1a 00 	mov    esi,DWORD PTR [r14+0x1a44f8]
    1d46:	85 f6                	test   esi,esi
    1d48:	74 2c                	je     0x1d76
    1d4a:	49 be fa fe 5a 55 55 	movabs r14,0x5555555afefa
    1d51:	55 00 00 
    1d54:	41 8b 8e ea 44 1a 00 	mov    ecx,DWORD PTR [r14+0x1a44ea]
    1d5b:	85 c9                	test   ecx,ecx
    1d5d:	74 17                	je     0x1d76
    1d5f:	49 be 03 ff 5a 55 55 	movabs r14,0x5555555aff03
    1d66:	55 00 00 
    1d69:	4d 8d 6d f8          	lea    r13,[r13-0x8]
    1d6d:	4d 89 75 00          	mov    QWORD PTR [r13+0x0],r14
    1d71:	e9 de fa ff ff       	jmp    0x1854
    1d76:	49 be 09 ff 5a 55 55 	movabs r14,0x5555555aff09
    1d7d:	55 00 00 
    1d80:	41 8b 96 f7 a2 18 00 	mov    edx,DWORD PTR [r14+0x18a2f7]
    1d87:	85 d2                	test   edx,edx
    1d89:	0f 85 aa 00 00 00    	jne    0x1e39
    1d8f:	49 be 13 ff 5a 55 55 	movabs r14,0x5555555aff13
    1d96:	55 00 00 
    1d99:	41 8b 9e d5 44 1a 00 	mov    ebx,DWORD PTR [r14+0x1a44d5]
    1da0:	83 fb 01             	cmp    ebx,0x1
    1da3:	0f 85 70 01 00 00    	jne    0x1f19
    1da9:	49 be 23 ff 5a 55 55 	movabs r14,0x5555555aff23
    1db0:	55 00 00 
    1db3:	41 83 be bd 44 1a 00 	cmp    DWORD PTR [r14+0x1a44bd],0x1
    1dba:	01 
    1dbb:	49 be 2a ff 5a 55 55 	movabs r14,0x5555555aff2a
    1dc2:	55 00 00 
    1dc5:	4d 8d a6 3e 54 1a 00 	lea    r12,[r14+0x1a543e]
    1dcc:	7e 35                	jle    0x1e03
    1dce:	90                   	nop
    1dcf:	4c 89 e7             	mov    rdi,r12
    1dd2:	83 c3 01             	add    ebx,0x1
    1dd5:	49 83 c4 28          	add    r12,0x28
    1dd9:	49 be 3f ff 5a 55 55 	movabs r14,0x5555555aff3f
    1de0:	55 00 00 
    1de3:	4d 8d 6d f8          	lea    r13,[r13-0x8]
    1de7:	4d 89 75 00          	mov    QWORD PTR [r13+0x0],r14
    1deb:	e9 ad e2 ff ff       	jmp    0x9d
    1df0:	49 be 45 ff 5a 55 55 	movabs r14,0x5555555aff45
    1df7:	55 00 00 
    1dfa:	41 3b 9e 9b 44 1a 00 	cmp    ebx,DWORD PTR [r14+0x1a449b]
    1e01:	7c cc                	jl     0x1dcf
    1e03:	49 be 51 ff 5a 55 55 	movabs r14,0x5555555aff51
    1e0a:	55 00 00 
    1e0d:	41 c7 86 97 44 1a 00 	mov    DWORD PTR [r14+0x1a4497],0x0
    1e14:	00 00 00 00 
    1e18:	49 83 c5 08          	add    r13,0x8
    1e1c:	49 8b 5d 00          	mov    rbx,QWORD PTR [r13+0x0]
    1e20:	4d 8d 6d 08          	lea    r13,[r13+0x8]
    1e24:	4d 8b 65 00          	mov    r12,QWORD PTR [r13+0x0]
    1e28:	4d 8d 6d 08          	lea    r13,[r13+0x8]
    1e2c:	4d 8b 75 00          	mov    r14,QWORD PTR [r13+0x0]
    1e30:	4d 8d 6d 08          	lea    r13,[r13+0x8]
    1e34:	e9 e3 4d 00 00       	jmp    0x6c1c
    1e39:	49 be 67 ff 5a 55 55 	movabs r14,0x5555555aff67
    1e40:	55 00 00 
    1e43:	49 8d b6 3b 41 13 00 	lea    rsi,[r14+0x13413b]
    1e4a:	bf 01 00 00 00       	mov    edi,0x1
    1e4f:	31 c0                	xor    eax,eax
    1e51:	49 be 73 ff 5a 55 55 	movabs r14,0x5555555aff73
    1e58:	55 00 00 
    1e5b:	4d 8d 6d f8          	lea    r13,[r13-0x8]
    1e5f:	4d 89 75 00          	mov    QWORD PTR [r13+0x0],r14
    1e63:	e9 53 4f 00 00       	jmp    0x6dbb
    1e68:	49 be 7a ff 5a 55 55 	movabs r14,0x5555555aff7a
    1e6f:	55 00 00 
    1e72:	49 8b be 2e a0 18 00 	mov    rdi,QWORD PTR [r14+0x18a02e]
    1e79:	49 be 7f ff 5a 55 55 	movabs r14,0x5555555aff7f
    1e80:	55 00 00 
    1e83:	4d 8d 6d f8          	lea    r13,[r13-0x8]
    1e87:	4d 89 75 00          	mov    QWORD PTR [r13+0x0],r14
    1e8b:	e9 b1 50 00 00       	jmp    0x6f41
    1e90:	49 be 85 ff 5a 55 55 	movabs r14,0x5555555aff85
    1e97:	55 00 00 
    1e9a:	41 8b 86 7b a2 18 00 	mov    eax,DWORD PTR [r14+0x18a27b]
    1ea1:	85 c0                	test   eax,eax
    1ea3:	0f 84 e6 fe ff ff    	je     0x1d8f
    1ea9:	49 be 90 ff 5a 55 55 	movabs r14,0x5555555aff90
    1eb0:	55 00 00 
    1eb3:	49 8b 86 e8 42 1a 00 	mov    rax,QWORD PTR [r14+0x1a42e8]
    1eba:	49 be 97 ff 5a 55 55 	movabs r14,0x5555555aff97
    1ec1:	55 00 00 
    1ec4:	49 8d b6 61 33 12 00 	lea    rsi,[r14+0x123361]
    1ecb:	bf 01 00 00 00       	mov    edi,0x1
    1ed0:	48 85 c0             	test   rax,rax
    1ed3:	0f 88 47 53 00 00    	js     0x7220
    1ed9:	48 8b 48 28          	mov    rcx,QWORD PTR [rax+0x28]
    1edd:	49 be a7 ff 5a 55 55 	movabs r14,0x5555555affa7
    1ee4:	55 00 00 
    1ee7:	49 8b 86 d9 42 1a 00 	mov    rax,QWORD PTR [r14+0x1a42d9]
    1eee:	48 85 c0             	test   rax,rax
    1ef1:	0f 88 29 53 00 00    	js     0x7220
    1ef7:	48 8b 50 28          	mov    rdx,QWORD PTR [rax+0x28]
    1efb:	31 c0                	xor    eax,eax
    1efd:	49 be b2 ff 5a 55 55 	movabs r14,0x5555555affb2
    1f04:	55 00 00 
    1f07:	4d 8d 6d f8          	lea    r13,[r13-0x8]
    1f0b:	4d 89 75 00          	mov    QWORD PTR [r13+0x0],r14
    1f0f:	e9 a7 4e 00 00       	jmp    0x6dbb
    1f14:	e9 76 fe ff ff       	jmp    0x1d8f
    1f19:	49 be be ff 5a 55 55 	movabs r14,0x5555555affbe
    1f20:	55 00 00 
    1f23:	49 8d be 42 1b 12 00 	lea    rdi,[r14+0x121b42]
    1f2a:	ba e1 0b 00 00       	mov    edx,0xbe1
    1f2f:	49 be ca ff 5a 55 55 	movabs r14,0x5555555affca
    1f36:	55 00 00 
    1f39:	49 8d b6 a2 17 12 00 	lea    rsi,[r14+0x1217a2]
    1f40:	49 be cf ff 5a 55 55 	movabs r14,0x5555555affcf
    1f47:	55 00 00 
    1f4a:	4d 8d 6d f8          	lea    r13,[r13-0x8]
    1f4e:	4d 89 75 00          	mov    QWORD PTR [r13+0x0],r14
    1f52:	e9 ee 50 00 00       	jmp    0x7045
    1f57:	bf 01 00 00 00       	mov    edi,0x1
    1f5c:	49 be d9 ff 5a 55 55 	movabs r14,0x5555555affd9
    1f63:	55 00 00 
    1f66:	4d 8d 6d f8          	lea    r13,[r13-0x8]
    1f6a:	4d 89 75 00          	mov    QWORD PTR [r13+0x0],r14
    1f6e:	e9 66 4f 00 00       	jmp    0x6ed9
    1f73:	90                   	nop
    1f74:	90                   	nop
    1f75:	49 be eb ff 5a 55 55 	movabs r14,0x5555555affeb
    1f7c:	55 00 00 
    1f7f:	49 8b 86 8d 42 1a 00 	mov    rax,QWORD PTR [r14+0x1a428d]
    1f86:	48 85 c0             	test   rax,rax
    1f89:	0f 88 91 52 00 00    	js     0x7220
    1f8f:	48 8b 50 28          	mov    rdx,QWORD PTR [rax+0x28]
    1f93:	49 be f5 ff 5a 55 55 	movabs r14,0x5555555afff5
    1f9a:	55 00 00 
    1f9d:	41 8b 86 eb 43 1a 00 	mov    eax,DWORD PTR [r14+0x1a43eb]
    1fa4:	83 f8 01             	cmp    eax,0x1
    1fa7:	74 27                	je     0x1fd0
    1fa9:	8d 0c 45 00 00 00 00 	lea    ecx,[rax*2+0x0]
    1fb0:	31 c0                	xor    eax,eax
    1fb2:	39 d1                	cmp    ecx,edx
    1fb4:	7e 1a                	jle    0x1fd0
    1fb6:	49 be 09 00 5b 55 55 	movabs r14,0x5555555b0009
    1fbd:	55 00 00 
    1fc0:	41 8b 96 df 43 1a 00 	mov    edx,DWORD PTR [r14+0x1a43df]
    1fc7:	b8 01 00 00 00       	mov    eax,0x1
    1fcc:	85 d2                	test   edx,edx
    1fce:	75 0d                	jne    0x1fdd
    1fd0:	4d 8b 75 00          	mov    r14,QWORD PTR [r13+0x0]
    1fd4:	4d 8d 6d 08          	lea    r13,[r13+0x8]
    1fd8:	e9 61 4c 00 00       	jmp    0x6c3e
    1fdd:	49 83 ed 18          	sub    r13,0x18
    1fe1:	41 89 45 0c          	mov    DWORD PTR [r13+0xc],eax
    1fe5:	49 be 25 00 5b 55 55 	movabs r14,0x5555555b0025
    1fec:	55 00 00 
    1fef:	4d 8d 6d f8          	lea    r13,[r13-0x8]
    1ff3:	4d 89 75 00          	mov    QWORD PTR [r13+0x0],r14
    1ff7:	e9 19 51 00 00       	jmp    0x7115
    1ffc:	41 8b 45 0c          	mov    eax,DWORD PTR [r13+0xc]
    2000:	49 83 c5 18          	add    r13,0x18
    2004:	4d 8b 75 00          	mov    r14,QWORD PTR [r13+0x0]
    2008:	4d 8d 6d 08          	lea    r13,[r13+0x8]
    200c:	e9 4f 4c 00 00       	jmp    0x6c60
    2011:	49 8b 45 18          	mov    rax,QWORD PTR [r13+0x18]
    2015:	4c 8b 75 88          	mov    r14,QWORD PTR [rbp-0x78]
    2019:	49 33 46 28          	xor    rax,QWORD PTR [r14+0x28]
    201d:	75 61                	jne    0x2080
    201f:	49 83 c5 20          	add    r13,0x20
    2023:	4c 8b 75 98          	mov    r14,QWORD PTR [rbp-0x68]
    2027:	44 89 f0             	mov    eax,r14d
    202a:	49 8b 5d 00          	mov    rbx,QWORD PTR [r13+0x0]
    202e:	4d 8d 6d 08          	lea    r13,[r13+0x8]
    2032:	4d 8b 65 00          	mov    r12,QWORD PTR [r13+0x0]
    2036:	4d 8d 6d 08          	lea    r13,[r13+0x8]
    203a:	4d 8b 75 00          	mov    r14,QWORD PTR [r13+0x0]
    203e:	4d 8d 6d 08          	lea    r13,[r13+0x8]
    2042:	4c 8b 7d a0          	mov    r15,QWORD PTR [rbp-0x60]
    2046:	4d 8b 7d 00          	mov    r15,QWORD PTR [r13+0x0]
    204a:	4d 8d 6d 08          	lea    r13,[r13+0x8]
    204e:	4c 89 75 98          	mov    QWORD PTR [rbp-0x68],r14
    2052:	4c 8b 75 a8          	mov    r14,QWORD PTR [rbp-0x58]
    2056:	4d 8b 75 00          	mov    r14,QWORD PTR [r13+0x0]
    205a:	4d 8d 6d 08          	lea    r13,[r13+0x8]
    205e:	4c 89 75 a8          	mov    QWORD PTR [rbp-0x58],r14
    2062:	4d 8b 75 00          	mov    r14,QWORD PTR [r13+0x0]
    2066:	4d 8d 6d 08          	lea    r13,[r13+0x8]
    206a:	4c 89 7d a0          	mov    QWORD PTR [rbp-0x60],r15
    206e:	e9 40 44 00 00       	jmp    0x64b3
    2073:	4c 8b 75 98          	mov    r14,QWORD PTR [rbp-0x68]
    2077:	41 89 c6             	mov    r14d,eax
    207a:	4c 89 75 98          	mov    QWORD PTR [rbp-0x68],r14
    207e:	eb 91                	jmp    0x2011
    2080:	49 be c4 02 5b 55 55 	movabs r14,0x5555555b02c4
    2087:	55 00 00 
    208a:	4d 8d 6d f8          	lea    r13,[r13-0x8]
    208e:	4d 89 75 00          	mov    QWORD PTR [r13+0x0],r14
    2092:	e9 98 50 00 00       	jmp    0x712f
    2097:	90                   	nop
    2098:	90                   	nop
    2099:	90                   	nop
    209a:	49 be da 02 5b 55 55 	movabs r14,0x5555555b02da
    20a1:	55 00 00 
    20a4:	41 8b 96 0e 41 1a 00 	mov    edx,DWORD PTR [r14+0x1a410e]
    20ab:	85 d2                	test   edx,edx
    20ad:	74 1a                	je     0x20c9
    20af:	49 be e4 02 5b 55 55 	movabs r14,0x5555555b02e4
    20b6:	55 00 00 
    20b9:	41 8b 86 00 41 1a 00 	mov    eax,DWORD PTR [r14+0x1a4100]
    20c0:	85 c0                	test   eax,eax
    20c2:	74 05                	je     0x20c9
    20c4:	e9 8b f7 ff ff       	jmp    0x1854
    20c9:	31 c0                	xor    eax,eax
    20cb:	4d 8b 75 00          	mov    r14,QWORD PTR [r13+0x0]
    20cf:	4d 8d 6d 08          	lea    r13,[r13+0x8]
    20d3:	e9 13 4b 00 00       	jmp    0x6beb
    20d8:	90                   	nop
    20d9:	49 be cb 91 61 55 55 	movabs r14,0x5555556191cb
    20e0:	55 00 00 
    20e3:	49 8d be 35 6a 12 00 	lea    rdi,[r14+0x126a35]
    20ea:	e9 ae df ff ff       	jmp    0x9d
    20ef:	90                   	nop
    20f0:	49 be fb ac 61 55 55 	movabs r14,0x55555561acfb
    20f7:	55 00 00 
    20fa:	49 8b 96 6d 4f 12 00 	mov    rdx,QWORD PTR [r14+0x124f6d]
    2101:	48 85 d2             	test   rdx,rdx
    2104:	0f 88 16 51 00 00    	js     0x7220
    210a:	48 8b 42 48          	mov    rax,QWORD PTR [rdx+0x48]
    210e:	48 85 d2             	test   rdx,rdx
    2111:	0f 88 09 51 00 00    	js     0x7220
    2117:	48 03 42 28          	add    rax,QWORD PTR [rdx+0x28]
    211b:	4d 8b 75 00          	mov    r14,QWORD PTR [r13+0x0]
    211f:	4d 8d 6d 08          	lea    r13,[r13+0x8]
    2123:	e9 ab 45 00 00       	jmp    0x66d3
    2128:	90                   	nop
    2129:	4d 8d 6d f8          	lea    r13,[r13-0x8]
    212d:	4d 89 65 00          	mov    QWORD PTR [r13+0x0],r12
    2131:	49 89 fc             	mov    r12,rdi
    2134:	4d 8d 6d f8          	lea    r13,[r13-0x8]
    2138:	49 89 5d 00          	mov    QWORD PTR [r13+0x0],rbx
    213c:	49 83 ed 08          	sub    r13,0x8
    2140:	48 85 ff             	test   rdi,rdi
    2143:	0f 88 d7 50 00 00    	js     0x7220
    2149:	8b 7f 38             	mov    edi,DWORD PTR [rdi+0x38]
    214c:	49 be 55 44 63 55 55 	movabs r14,0x555555634455
    2153:	55 00 00 
    2156:	4d 8d 6d f8          	lea    r13,[r13-0x8]
    215a:	4d 89 75 00          	mov    QWORD PTR [r13+0x0],r14
    215e:	e9 51 df ff ff       	jmp    0xb4
    2163:	48 89 c3             	mov    rbx,rax
    2166:	85 c0                	test   eax,eax
    2168:	78 23                	js     0x218d
    216a:	49 83 c5 08          	add    r13,0x8
    216e:	89 d8                	mov    eax,ebx
    2170:	49 8b 5d 00          	mov    rbx,QWORD PTR [r13+0x0]
    2174:	4d 8d 6d 08          	lea    r13,[r13+0x8]
    2178:	4d 8b 65 00          	mov    r12,QWORD PTR [r13+0x0]
    217c:	4d 8d 6d 08          	lea    r13,[r13+0x8]
    2180:	4d 8b 75 00          	mov    r14,QWORD PTR [r13+0x0]
    2184:	4d 8d 6d 08          	lea    r13,[r13+0x8]
    2188:	e9 8b 42 00 00       	jmp    0x6418
    218d:	49 be 6d 44 63 55 55 	movabs r14,0x55555563446d
    2194:	55 00 00 
    2197:	4d 8d 6d f8          	lea    r13,[r13-0x8]
    219b:	4d 89 75 00          	mov    QWORD PTR [r13+0x0],r14
    219f:	e9 a5 4f 00 00       	jmp    0x7149
    21a4:	48 85 c0             	test   rax,rax
    21a7:	0f 88 73 50 00 00    	js     0x7220
    21ad:	8b 00                	mov    eax,DWORD PTR [rax]
    21af:	83 f8 0b             	cmp    eax,0xb
    21b2:	74 b6                	je     0x216a
    21b4:	41 89 44 24 10       	mov    DWORD PTR [r12+0x10],eax
    21b9:	89 d8                	mov    eax,ebx
    21bb:	41 c7 44 24 08 05 00 	mov    DWORD PTR [r12+0x8],0x5
    21c2:	00 00 
    21c4:	49 83 c5 08          	add    r13,0x8
    21c8:	49 8b 5d 00          	mov    rbx,QWORD PTR [r13+0x0]
    21cc:	4d 8d 6d 08          	lea    r13,[r13+0x8]
    21d0:	4d 8b 65 00          	mov    r12,QWORD PTR [r13+0x0]
    21d4:	4d 8d 6d 08          	lea    r13,[r13+0x8]
    21d8:	4d 8b 75 00          	mov    r14,QWORD PTR [r13+0x0]
    21dc:	4d 8d 6d 08          	lea    r13,[r13+0x8]
    21e0:	e9 ed 46 00 00       	jmp    0x68d2
    21e5:	4d 8d 6d f8          	lea    r13,[r13-0x8]
    21e9:	4c 8b 75 a8          	mov    r14,QWORD PTR [rbp-0x58]
    21ed:	4d 89 75 00          	mov    QWORD PTR [r13+0x0],r14
    21f1:	48 8d 57 28          	lea    rdx,[rdi+0x28]
    21f5:	4d 8d 6d f8          	lea    r13,[r13-0x8]
    21f9:	4c 8b 7d a0          	mov    r15,QWORD PTR [rbp-0x60]
    21fd:	4d 89 7d 00          	mov    QWORD PTR [r13+0x0],r15
    2201:	4d 8d 6d f8          	lea    r13,[r13-0x8]
    2205:	4c 89 75 a8          	mov    QWORD PTR [rbp-0x58],r14
    2209:	4c 8b 75 98          	mov    r14,QWORD PTR [rbp-0x68]
    220d:	4d 89 75 00          	mov    QWORD PTR [r13+0x0],r14
    2211:	49 89 fe             	mov    r14,rdi
    2214:	4d 8d 6d f8          	lea    r13,[r13-0x8]
    2218:	4d 89 65 00          	mov    QWORD PTR [r13+0x0],r12
    221c:	49 89 f4             	mov    r12,rsi
    221f:	4d 8d 6d f8          	lea    r13,[r13-0x8]
    2223:	49 89 5d 00          	mov    QWORD PTR [r13+0x0],rbx
    2227:	49 81 ed 10 03 00 00 	sub    r13,0x310
    222e:	4c 89 75 98          	mov    QWORD PTR [rbp-0x68],r14
    2232:	4c 8b 75 88          	mov    r14,QWORD PTR [rbp-0x78]
    2236:	49 8b 46 28          	mov    rax,QWORD PTR [r14+0x28]
    223a:	49 89 85 08 03 00 00 	mov    QWORD PTR [r13+0x308],rax
    2241:	31 c0                	xor    eax,eax
    2243:	48 85 ff             	test   rdi,rdi
    2246:	4c 89 7d a0          	mov    QWORD PTR [rbp-0x60],r15
    224a:	0f 84 f3 00 00 00    	je     0x2343
    2250:	4c 89 e3             	mov    rbx,r12
    2253:	4c 8b 75 a0          	mov    r14,QWORD PTR [rbp-0x60]
    2257:	4d 89 e6             	mov    r14,r12
    225a:	48 c1 eb 1a          	shr    rbx,0x1a
    225e:	49 81 e6 00 00 00 c0 	and    r14,0xffffffffc0000000
    2265:	81 e3 f0 00 00 00    	and    ebx,0xf0
    226b:	48 8d 34 13          	lea    rsi,[rbx+rdx*1]
    226f:	48 85 f6             	test   rsi,rsi
    2272:	0f 88 a8 4f 00 00    	js     0x7220
    2278:	48 8b 06             	mov    rax,QWORD PTR [rsi]
    227b:	49 39 c6             	cmp    r14,rax
    227e:	4c 89 75 a0          	mov    QWORD PTR [rbp-0x60],r14
    2282:	0f 85 e0 00 00 00    	jne    0x2368
    2288:	4c 89 e0             	mov    rax,r12
    228b:	48 c1 e8 09          	shr    rax,0x9
    228f:	25 f8 ff 1f 00       	and    eax,0x1ffff8
    2294:	48 85 f6             	test   rsi,rsi
    2297:	0f 88 83 4f 00 00    	js     0x7220
    229d:	48 03 46 08          	add    rax,QWORD PTR [rsi+0x8]
    22a1:	48 85 c0             	test   rax,rax
    22a4:	0f 88 76 4f 00 00    	js     0x7220
    22aa:	48 8b 00             	mov    rax,QWORD PTR [rax]
    22ad:	a8 01                	test   al,0x1
    22af:	0f 84 43 01 00 00    	je     0x23f8
    22b5:	4c 89 e6             	mov    rsi,r12
    22b8:	4c 8b 75 98          	mov    r14,QWORD PTR [rbp-0x68]
    22bc:	4c 89 f7             	mov    rdi,r14
    22bf:	49 bf 0a c2 65 55 55 	movabs r15,0x55555565c20a
    22c6:	55 00 00 
    22c9:	4d 8d 6d f8          	lea    r13,[r13-0x8]
    22cd:	4d 89 7d 00          	mov    QWORD PTR [r13+0x0],r15
    22d1:	4c 89 75 98          	mov    QWORD PTR [rbp-0x68],r14
    22d5:	e9 07 4e 00 00       	jmp    0x70e1
    22da:	49 8b 85 08 03 00 00 	mov    rax,QWORD PTR [r13+0x308]
    22e1:	4c 8b 75 88          	mov    r14,QWORD PTR [rbp-0x78]
    22e5:	49 33 46 28          	xor    rax,QWORD PTR [r14+0x28]
    22e9:	0f 85 d7 04 00 00    	jne    0x27c6
    22ef:	49 81 c5 10 03 00 00 	add    r13,0x310
    22f6:	49 8b 5d 00          	mov    rbx,QWORD PTR [r13+0x0]
    22fa:	4d 8d 6d 08          	lea    r13,[r13+0x8]
    22fe:	4d 8b 65 00          	mov    r12,QWORD PTR [r13+0x0]
    2302:	4d 8d 6d 08          	lea    r13,[r13+0x8]
    2306:	4c 8b 75 98          	mov    r14,QWORD PTR [rbp-0x68]
    230a:	4d 8b 75 00          	mov    r14,QWORD PTR [r13+0x0]
    230e:	4d 8d 6d 08          	lea    r13,[r13+0x8]
    2312:	4c 8b 7d a0          	mov    r15,QWORD PTR [rbp-0x60]
    2316:	4d 8b 7d 00          	mov    r15,QWORD PTR [r13+0x0]
    231a:	4d 8d 6d 08          	lea    r13,[r13+0x8]
    231e:	4c 89 75 98          	mov    QWORD PTR [rbp-0x68],r14
    2322:	4c 8b 75 a8          	mov    r14,QWORD PTR [rbp-0x58]
    2326:	4d 8b 75 00          	mov    r14,QWORD PTR [r13+0x0]
    232a:	4d 8d 6d 08          	lea    r13,[r13+0x8]
    232e:	4c 89 75 a8          	mov    QWORD PTR [rbp-0x58],r14
    2332:	4d 8b 75 00          	mov    r14,QWORD PTR [r13+0x0]
    2336:	4d 8d 6d 08          	lea    r13,[r13+0x8]
    233a:	4c 89 7d a0          	mov    QWORD PTR [rbp-0x60],r15
    233e:	e9 bf 47 00 00       	jmp    0x6b02
    2343:	4c 89 eb             	mov    rbx,r13
    2346:	48 89 df             	mov    rdi,rbx
    2349:	49 be 43 c2 65 55 55 	movabs r14,0x55555565c243
    2350:	55 00 00 
    2353:	4d 8d 6d f8          	lea    r13,[r13-0x8]
    2357:	4d 89 75 00          	mov    QWORD PTR [r13+0x0],r14
    235b:	e9 f7 4a 00 00       	jmp    0x6e57
    2360:	48 89 da             	mov    rdx,rbx
    2363:	e9 e8 fe ff ff       	jmp    0x2250
    2368:	4c 8b 75 a0          	mov    r14,QWORD PTR [rbp-0x60]
    236c:	48 85 d2             	test   rdx,rdx
    236f:	0f 88 ab 4e 00 00    	js     0x7220
    2375:	4c 3b b2 00 01 00 00 	cmp    r14,QWORD PTR [rdx+0x100]
    237c:	4c 89 75 a0          	mov    QWORD PTR [rbp-0x60],r14
    2380:	0f 85 cb 01 00 00    	jne    0x2551
    2386:	48 85 d2             	test   rdx,rdx
    2389:	0f 88 91 4e 00 00    	js     0x7220
    238f:	48 8b 8a 08 01 00 00 	mov    rcx,QWORD PTR [rdx+0x108]
    2396:	48 85 d2             	test   rdx,rdx
    2399:	0f 88 81 4e 00 00    	js     0x7220
    239f:	48 89 82 00 01 00 00 	mov    QWORD PTR [rdx+0x100],rax
    23a6:	4c 89 e0             	mov    rax,r12
    23a9:	48 85 f6             	test   rsi,rsi
    23ac:	0f 88 6e 4e 00 00    	js     0x7220
    23b2:	4c 8b 5e 08          	mov    r11,QWORD PTR [rsi+0x8]
    23b6:	48 c1 e8 09          	shr    rax,0x9
    23ba:	25 f8 ff 1f 00       	and    eax,0x1ffff8
    23bf:	48 85 d2             	test   rdx,rdx
    23c2:	0f 88 58 4e 00 00    	js     0x7220
    23c8:	4c 89 9a 08 01 00 00 	mov    QWORD PTR [rdx+0x108],r11
    23cf:	48 01 c8             	add    rax,rcx
    23d2:	4c 8b 75 a0          	mov    r14,QWORD PTR [rbp-0x60]
    23d6:	48 85 f6             	test   rsi,rsi
    23d9:	0f 88 41 4e 00 00    	js     0x7220
    23df:	4c 89 36             	mov    QWORD PTR [rsi],r14
    23e2:	48 85 f6             	test   rsi,rsi
    23e5:	0f 88 35 4e 00 00    	js     0x7220
    23eb:	48 89 4e 08          	mov    QWORD PTR [rsi+0x8],rcx
    23ef:	4c 89 75 a0          	mov    QWORD PTR [rbp-0x60],r14
    23f3:	e9 a9 fe ff ff       	jmp    0x22a1
    23f8:	4c 8b 75 a8          	mov    r14,QWORD PTR [rbp-0x58]
    23fc:	4c 8b 7d 98          	mov    r15,QWORD PTR [rbp-0x68]
    2400:	4d 8d 77 28          	lea    r14,[r15+0x28]
    2404:	4d 85 ff             	test   r15,r15
    2407:	4c 89 7d 98          	mov    QWORD PTR [rbp-0x68],r15
    240b:	4c 89 75 a8          	mov    QWORD PTR [rbp-0x58],r14
    240f:	74 73                	je     0x2484
    2411:	4c 8b 75 a8          	mov    r14,QWORD PTR [rbp-0x58]
    2415:	4c 01 f3             	add    rbx,r14
    2418:	48 85 db             	test   rbx,rbx
    241b:	0f 88 ff 4d 00 00    	js     0x7220
    2421:	4c 8b 03             	mov    r8,QWORD PTR [rbx]
    2424:	4c 8b 7d a0          	mov    r15,QWORD PTR [rbp-0x60]
    2428:	4d 39 c7             	cmp    r15,r8
    242b:	4c 89 7d a0          	mov    QWORD PTR [rbp-0x60],r15
    242f:	4c 89 75 a8          	mov    QWORD PTR [rbp-0x58],r14
    2433:	75 7d                	jne    0x24b2
    2435:	49 c1 ec 09          	shr    r12,0x9
    2439:	41 81 e4 f8 ff 1f 00 	and    r12d,0x1ffff8
    2440:	48 85 db             	test   rbx,rbx
    2443:	0f 88 d7 4d 00 00    	js     0x7220
    2449:	4c 03 63 08          	add    r12,QWORD PTR [rbx+0x8]
    244d:	49 8b 34 24          	mov    rsi,QWORD PTR [r12]
    2451:	4c 8b 75 98          	mov    r14,QWORD PTR [rbp-0x68]
    2455:	4c 89 f7             	mov    rdi,r14
    2458:	48 c1 e6 10          	shl    rsi,0x10
    245c:	48 c1 fe 10          	sar    rsi,0x10
    2460:	48 83 e6 fe          	and    rsi,0xfffffffffffffffe
    2464:	49 bf d3 c2 65 55 55 	movabs r15,0x55555565c2d3
    246b:	55 00 00 
    246e:	4d 8d 6d f8          	lea    r13,[r13-0x8]
    2472:	4d 89 7d 00          	mov    QWORD PTR [r13+0x0],r15
    2476:	4c 89 75 98          	mov    QWORD PTR [rbp-0x68],r14
    247a:	e9 30 23 00 00       	jmp    0x47af
    247f:	e9 56 fe ff ff       	jmp    0x22da
    2484:	4c 8b 75 a8          	mov    r14,QWORD PTR [rbp-0x58]
    2488:	4d 8d b5 80 01 00 00 	lea    r14,[r13+0x180]
    248f:	4c 89 f7             	mov    rdi,r14
    2492:	49 bf e8 c2 65 55 55 	movabs r15,0x55555565c2e8
    2499:	55 00 00 
    249c:	4d 8d 6d f8          	lea    r13,[r13-0x8]
    24a0:	4d 89 7d 00          	mov    QWORD PTR [r13+0x0],r15
    24a4:	4c 89 75 a8          	mov    QWORD PTR [rbp-0x58],r14
    24a8:	e9 aa 49 00 00       	jmp    0x6e57
    24ad:	e9 5f ff ff ff       	jmp    0x2411
    24b2:	4c 8b 75 a8          	mov    r14,QWORD PTR [rbp-0x58]
    24b6:	4c 8b 7d a0          	mov    r15,QWORD PTR [rbp-0x60]
    24ba:	4d 85 f6             	test   r14,r14
    24bd:	0f 88 5d 4d 00 00    	js     0x7220
    24c3:	4d 3b be 00 01 00 00 	cmp    r15,QWORD PTR [r14+0x100]
    24ca:	4c 89 7d a0          	mov    QWORD PTR [rbp-0x60],r15
    24ce:	4c 89 75 a8          	mov    QWORD PTR [rbp-0x58],r14
    24d2:	0f 85 18 02 00 00    	jne    0x26f0
    24d8:	4c 8b 75 a8          	mov    r14,QWORD PTR [rbp-0x58]
    24dc:	4d 85 f6             	test   r14,r14
    24df:	0f 88 3b 4d 00 00    	js     0x7220
    24e5:	4d 89 86 00 01 00 00 	mov    QWORD PTR [r14+0x100],r8
    24ec:	48 85 db             	test   rbx,rbx
    24ef:	0f 88 2b 4d 00 00    	js     0x7220
    24f5:	4c 8b 43 08          	mov    r8,QWORD PTR [rbx+0x8]
    24f9:	4d 85 f6             	test   r14,r14
    24fc:	0f 88 1e 4d 00 00    	js     0x7220
    2502:	4d 8b 8e 08 01 00 00 	mov    r9,QWORD PTR [r14+0x108]
    2509:	4d 85 f6             	test   r14,r14
    250c:	0f 88 0e 4d 00 00    	js     0x7220
    2512:	4d 89 86 08 01 00 00 	mov    QWORD PTR [r14+0x108],r8
    2519:	4c 89 75 a8          	mov    QWORD PTR [rbp-0x58],r14
    251d:	49 c1 ec 09          	shr    r12,0x9
    2521:	4c 8b 75 a0          	mov    r14,QWORD PTR [rbp-0x60]
    2525:	48 85 db             	test   rbx,rbx
    2528:	0f 88 f2 4c 00 00    	js     0x7220
    252e:	4c 89 33             	mov    QWORD PTR [rbx],r14
    2531:	41 81 e4 f8 ff 1f 00 	and    r12d,0x1ffff8
    2538:	48 85 db             	test   rbx,rbx
    253b:	0f 88 df 4c 00 00    	js     0x7220
    2541:	4c 89 4b 08          	mov    QWORD PTR [rbx+0x8],r9
    2545:	4d 01 cc             	add    r12,r9
    2548:	4c 89 75 a0          	mov    QWORD PTR [rbp-0x60],r14
    254c:	e9 fc fe ff ff       	jmp    0x244d
    2551:	bf 01 00 00 00       	mov    edi,0x1
    2556:	4c 8b 75 a0          	mov    r14,QWORD PTR [rbp-0x60]
    255a:	48 85 d2             	test   rdx,rdx
    255d:	0f 88 bd 4c 00 00    	js     0x7220
    2563:	4c 3b b2 10 01 00 00 	cmp    r14,QWORD PTR [rdx+0x110]
    256a:	4c 89 75 a0          	mov    QWORD PTR [rbp-0x60],r14
    256e:	75 69                	jne    0x25d9
    2570:	41 89 f8             	mov    r8d,edi
    2573:	83 ef 01             	sub    edi,0x1
    2576:	49 c1 e0 04          	shl    r8,0x4
    257a:	48 c1 e7 04          	shl    rdi,0x4
    257e:	49 01 d0             	add    r8,rdx
    2581:	48 01 fa             	add    rdx,rdi
    2584:	48 85 d2             	test   rdx,rdx
    2587:	0f 88 93 4c 00 00    	js     0x7220
    258d:	4c 8b 8a 00 01 00 00 	mov    r9,QWORD PTR [rdx+0x100]
    2594:	4d 85 c0             	test   r8,r8
    2597:	0f 88 83 4c 00 00    	js     0x7220
    259d:	49 8b 88 08 01 00 00 	mov    rcx,QWORD PTR [r8+0x108]
    25a4:	4d 85 c0             	test   r8,r8
    25a7:	0f 88 73 4c 00 00    	js     0x7220
    25ad:	4d 89 88 00 01 00 00 	mov    QWORD PTR [r8+0x100],r9
    25b4:	48 85 d2             	test   rdx,rdx
    25b7:	0f 88 63 4c 00 00    	js     0x7220
    25bd:	4c 8b 92 08 01 00 00 	mov    r10,QWORD PTR [rdx+0x108]
    25c4:	4d 85 c0             	test   r8,r8
    25c7:	0f 88 53 4c 00 00    	js     0x7220
    25cd:	4d 89 90 08 01 00 00 	mov    QWORD PTR [r8+0x108],r10
    25d4:	e9 bd fd ff ff       	jmp    0x2396
    25d9:	bf 02 00 00 00       	mov    edi,0x2
    25de:	4c 8b 75 a0          	mov    r14,QWORD PTR [rbp-0x60]
    25e2:	48 85 d2             	test   rdx,rdx
    25e5:	0f 88 35 4c 00 00    	js     0x7220
    25eb:	4c 3b b2 20 01 00 00 	cmp    r14,QWORD PTR [rdx+0x120]
    25f2:	4c 89 75 a0          	mov    QWORD PTR [rbp-0x60],r14
    25f6:	0f 84 74 ff ff ff    	je     0x2570
    25fc:	bf 03 00 00 00       	mov    edi,0x3
    2601:	4c 8b 75 a0          	mov    r14,QWORD PTR [rbp-0x60]
    2605:	48 85 d2             	test   rdx,rdx
    2608:	0f 88 12 4c 00 00    	js     0x7220
    260e:	4c 3b b2 30 01 00 00 	cmp    r14,QWORD PTR [rdx+0x130]
    2615:	4c 89 75 a0          	mov    QWORD PTR [rbp-0x60],r14
    2619:	0f 84 51 ff ff ff    	je     0x2570
    261f:	bf 04 00 00 00       	mov    edi,0x4
    2624:	4c 8b 75 a0          	mov    r14,QWORD PTR [rbp-0x60]
    2628:	48 85 d2             	test   rdx,rdx
    262b:	0f 88 ef 4b 00 00    	js     0x7220
    2631:	4c 3b b2 40 01 00 00 	cmp    r14,QWORD PTR [rdx+0x140]
    2638:	4c 89 75 a0          	mov    QWORD PTR [rbp-0x60],r14
    263c:	0f 84 2e ff ff ff    	je     0x2570
    2642:	bf 05 00 00 00       	mov    edi,0x5
    2647:	4c 8b 75 a0          	mov    r14,QWORD PTR [rbp-0x60]
    264b:	48 85 d2             	test   rdx,rdx
    264e:	0f 88 cc 4b 00 00    	js     0x7220
    2654:	4c 3b b2 50 01 00 00 	cmp    r14,QWORD PTR [rdx+0x150]
    265b:	4c 89 75 a0          	mov    QWORD PTR [rbp-0x60],r14
    265f:	0f 84 0b ff ff ff    	je     0x2570
    2665:	bf 06 00 00 00       	mov    edi,0x6
    266a:	4c 8b 75 a0          	mov    r14,QWORD PTR [rbp-0x60]
    266e:	48 85 d2             	test   rdx,rdx
    2671:	0f 88 a9 4b 00 00    	js     0x7220
    2677:	4c 3b b2 60 01 00 00 	cmp    r14,QWORD PTR [rdx+0x160]
    267e:	4c 89 75 a0          	mov    QWORD PTR [rbp-0x60],r14
    2682:	0f 84 e8 fe ff ff    	je     0x2570
    2688:	4c 8b 75 a0          	mov    r14,QWORD PTR [rbp-0x60]
    268c:	48 85 d2             	test   rdx,rdx
    268f:	0f 88 8b 4b 00 00    	js     0x7220
    2695:	4c 3b b2 70 01 00 00 	cmp    r14,QWORD PTR [rdx+0x170]
    269c:	4c 89 75 a0          	mov    QWORD PTR [rbp-0x60],r14
    26a0:	75 0a                	jne    0x26ac
    26a2:	bf 07 00 00 00       	mov    edi,0x7
    26a7:	e9 c4 fe ff ff       	jmp    0x2570
    26ac:	45 31 c9             	xor    r9d,r9d
    26af:	41 b8 01 00 00 00    	mov    r8d,0x1
    26b5:	4c 89 e1             	mov    rcx,r12
    26b8:	4c 8b 75 98          	mov    r14,QWORD PTR [rbp-0x68]
    26bc:	4c 89 f7             	mov    rdi,r14
    26bf:	49 bf e6 c3 65 55 55 	movabs r15,0x55555565c3e6
    26c6:	55 00 00 
    26c9:	49 8d b7 5a 9b 10 00 	lea    rsi,[r15+0x109b5a]
    26d0:	49 bf eb c3 65 55 55 	movabs r15,0x55555565c3eb
    26d7:	55 00 00 
    26da:	4d 8d 6d f8          	lea    r13,[r13-0x8]
    26de:	4d 89 7d 00          	mov    QWORD PTR [r13+0x0],r15
    26e2:	4c 89 75 98          	mov    QWORD PTR [rbp-0x68],r14
    26e6:	e9 22 48 00 00       	jmp    0x6f0d
    26eb:	e9 b1 fb ff ff       	jmp    0x22a1
    26f0:	ba 01 00 00 00       	mov    edx,0x1
    26f5:	48 89 d7             	mov    rdi,rdx
    26f8:	89 d6                	mov    esi,edx
    26fa:	48 c1 e7 04          	shl    rdi,0x4
    26fe:	4c 8b 75 a8          	mov    r14,QWORD PTR [rbp-0x58]
    2702:	4c 8b 7d a0          	mov    r15,QWORD PTR [rbp-0x60]
    2706:	4d 85 f6             	test   r14,r14
    2709:	0f 88 11 4b 00 00    	js     0x7220
    270f:	48 85 ff             	test   rdi,rdi
    2712:	0f 88 08 4b 00 00    	js     0x7220
    2718:	4d 3b bc 3e 00 01 00 	cmp    r15,QWORD PTR [r14+rdi*1+0x100]
    271f:	00 
    2720:	4c 89 7d a0          	mov    QWORD PTR [rbp-0x60],r15
    2724:	4c 89 75 a8          	mov    QWORD PTR [rbp-0x58],r14
    2728:	0f 85 af 00 00 00    	jne    0x27dd
    272e:	83 ee 01             	sub    esi,0x1
    2731:	4c 8b 75 a8          	mov    r14,QWORD PTR [rbp-0x58]
    2735:	4c 01 f7             	add    rdi,r14
    2738:	48 c1 e6 04          	shl    rsi,0x4
    273c:	48 85 ff             	test   rdi,rdi
    273f:	0f 88 db 4a 00 00    	js     0x7220
    2745:	4c 8b 8f 08 01 00 00 	mov    r9,QWORD PTR [rdi+0x108]
    274c:	4d 8d 14 36          	lea    r10,[r14+rsi*1]
    2750:	4d 85 d2             	test   r10,r10
    2753:	0f 88 c7 4a 00 00    	js     0x7220
    2759:	49 8b 8a 00 01 00 00 	mov    rcx,QWORD PTR [r10+0x100]
    2760:	48 85 ff             	test   rdi,rdi
    2763:	0f 88 b7 4a 00 00    	js     0x7220
    2769:	48 89 8f 00 01 00 00 	mov    QWORD PTR [rdi+0x100],rcx
    2770:	4d 85 d2             	test   r10,r10
    2773:	0f 88 a7 4a 00 00    	js     0x7220
    2779:	4d 8b 9a 08 01 00 00 	mov    r11,QWORD PTR [r10+0x108]
    2780:	48 85 ff             	test   rdi,rdi
    2783:	0f 88 97 4a 00 00    	js     0x7220
    2789:	4c 89 9f 08 01 00 00 	mov    QWORD PTR [rdi+0x108],r11
    2790:	4d 85 d2             	test   r10,r10
    2793:	0f 88 87 4a 00 00    	js     0x7220
    2799:	4d 89 82 00 01 00 00 	mov    QWORD PTR [r10+0x100],r8
    27a0:	48 85 db             	test   rbx,rbx
    27a3:	0f 88 77 4a 00 00    	js     0x7220
    27a9:	48 8b 43 08          	mov    rax,QWORD PTR [rbx+0x8]
    27ad:	4d 85 d2             	test   r10,r10
    27b0:	0f 88 6a 4a 00 00    	js     0x7220
    27b6:	49 89 82 08 01 00 00 	mov    QWORD PTR [r10+0x108],rax
    27bd:	4c 89 75 a8          	mov    QWORD PTR [rbp-0x58],r14
    27c1:	e9 57 fd ff ff       	jmp    0x251d
    27c6:	49 be 55 c4 65 55 55 	movabs r14,0x55555565c455
    27cd:	55 00 00 
    27d0:	4d 8d 6d f8          	lea    r13,[r13-0x8]
    27d4:	4d 89 75 00          	mov    QWORD PTR [r13+0x0],r14
    27d8:	e9 52 49 00 00       	jmp    0x712f
    27dd:	48 83 c2 01          	add    rdx,0x1
    27e1:	48 83 fa 08          	cmp    rdx,0x8
    27e5:	0f 85 0a ff ff ff    	jne    0x26f5
    27eb:	4c 89 e1             	mov    rcx,r12
    27ee:	45 31 c9             	xor    r9d,r9d
    27f1:	41 b8 01 00 00 00    	mov    r8d,0x1
    27f7:	4c 8b 75 a8          	mov    r14,QWORD PTR [rbp-0x58]
    27fb:	4c 89 f2             	mov    rdx,r14
    27fe:	49 bf 75 c4 65 55 55 	movabs r15,0x55555565c475
    2805:	55 00 00 
    2808:	49 8d b7 cb 9a 10 00 	lea    rsi,[r15+0x109acb]
    280f:	4c 8b 7d 98          	mov    r15,QWORD PTR [rbp-0x68]
    2813:	4c 89 ff             	mov    rdi,r15
    2816:	4c 89 75 a8          	mov    QWORD PTR [rbp-0x58],r14
    281a:	49 be 7d c4 65 55 55 	movabs r14,0x55555565c47d
    2821:	55 00 00 
    2824:	4d 8d 6d f8          	lea    r13,[r13-0x8]
    2828:	4d 89 75 00          	mov    QWORD PTR [r13+0x0],r14
    282c:	4c 89 7d 98          	mov    QWORD PTR [rbp-0x68],r15
    2830:	e9 d8 46 00 00       	jmp    0x6f0d
    2835:	49 89 c4             	mov    r12,rax
    2838:	e9 10 fc ff ff       	jmp    0x244d
    283d:	48 85 ff             	test   rdi,rdi
    2840:	0f 88 da 49 00 00    	js     0x7220
    2846:	89 37                	mov    DWORD PTR [rdi],esi
    2848:	b8 01 00 00 00       	mov    eax,0x1
    284d:	4d 8b 75 00          	mov    r14,QWORD PTR [r13+0x0]
    2851:	4d 8d 6d 08          	lea    r13,[r13+0x8]
    2855:	e9 43 40 00 00       	jmp    0x689d
    285a:	90                   	nop
    285b:	48 85 ff             	test   rdi,rdi
    285e:	0f 84 d5 04 00 00    	je     0x2d39
    2864:	4d 8d 6d f8          	lea    r13,[r13-0x8]
    2868:	4c 8b 75 b0          	mov    r14,QWORD PTR [rbp-0x50]
    286c:	4d 89 75 00          	mov    QWORD PTR [r13+0x0],r14
    2870:	4d 8d 6d f8          	lea    r13,[r13-0x8]
    2874:	4c 8b 7d a8          	mov    r15,QWORD PTR [rbp-0x58]
    2878:	4d 89 7d 00          	mov    QWORD PTR [r13+0x0],r15
    287c:	4d 8d 6d f8          	lea    r13,[r13-0x8]
    2880:	4c 89 75 b0          	mov    QWORD PTR [rbp-0x50],r14
    2884:	4c 8b 75 a0          	mov    r14,QWORD PTR [rbp-0x60]
    2888:	4d 89 75 00          	mov    QWORD PTR [r13+0x0],r14
    288c:	4d 8d 6d f8          	lea    r13,[r13-0x8]
    2890:	4c 89 75 a0          	mov    QWORD PTR [rbp-0x60],r14
    2894:	4c 8b 75 98          	mov    r14,QWORD PTR [rbp-0x68]
    2898:	4d 89 75 00          	mov    QWORD PTR [r13+0x0],r14
    289c:	49 89 fe             	mov    r14,rdi
    289f:	4d 8d 6d f8          	lea    r13,[r13-0x8]
    28a3:	4d 89 65 00          	mov    QWORD PTR [r13+0x0],r12
    28a7:	4d 8d 6d f8          	lea    r13,[r13-0x8]
    28ab:	49 89 5d 00          	mov    QWORD PTR [r13+0x0],rbx
    28af:	49 83 ed 18          	sub    r13,0x18
    28b3:	4c 89 75 98          	mov    QWORD PTR [rbp-0x68],r14
    28b7:	49 be e5 1c 66 55 55 	movabs r14,0x555555661ce5
    28be:	55 00 00 
    28c1:	49 8b 86 1b f2 0c 00 	mov    rax,QWORD PTR [r14+0xcf21b]
    28c8:	4c 8b 75 88          	mov    r14,QWORD PTR [rbp-0x78]
    28cc:	4d 8b 26             	mov    r12,QWORD PTR [r14]
    28cf:	49 01 c4             	add    r12,rax
    28d2:	48 85 c0             	test   rax,rax
    28d5:	0f 88 45 49 00 00    	js     0x7220
    28db:	41 80 3c 06 00       	cmp    BYTE PTR [r14+rax*1],0x0
    28e0:	4c 89 7d a8          	mov    QWORD PTR [rbp-0x58],r15
    28e4:	0f 85 c6 01 00 00    	jne    0x2ab0
    28ea:	4c 8b 75 98          	mov    r14,QWORD PTR [rbp-0x68]
    28ee:	4c 89 f3             	mov    rbx,r14
    28f1:	4c 8b 7d a8          	mov    r15,QWORD PTR [rbp-0x58]
    28f5:	4d 89 f7             	mov    r15,r14
    28f8:	4c 89 75 98          	mov    QWORD PTR [rbp-0x68],r14
    28fc:	4c 8b 75 a0          	mov    r14,QWORD PTR [rbp-0x60]
    2900:	4d 8d b4 24 c0 01 00 	lea    r14,[r12+0x1c0]
    2907:	00 
    2908:	48 c1 eb 1a          	shr    rbx,0x1a
    290c:	49 81 e7 00 00 00 c0 	and    r15,0xffffffffc0000000
    2913:	4c 89 75 a0          	mov    QWORD PTR [rbp-0x60],r14
    2917:	4c 8b 75 b0          	mov    r14,QWORD PTR [rbp-0x50]
    291b:	4d 8d 74 24 28       	lea    r14,[r12+0x28]
    2920:	81 e3 f0 00 00 00    	and    ebx,0xf0
    2926:	4c 01 e3             	add    rbx,r12
    2929:	48 85 db             	test   rbx,rbx
    292c:	0f 88 ee 48 00 00    	js     0x7220
    2932:	4c 8b 43 28          	mov    r8,QWORD PTR [rbx+0x28]
    2936:	4d 39 c7             	cmp    r15,r8
    2939:	4c 89 7d a8          	mov    QWORD PTR [rbp-0x58],r15
    293d:	4c 89 75 b0          	mov    QWORD PTR [rbp-0x50],r14
    2941:	0f 85 d3 04 00 00    	jne    0x2e1a
    2947:	4c 8b 75 98          	mov    r14,QWORD PTR [rbp-0x68]
    294b:	4c 89 f0             	mov    rax,r14
    294e:	48 c1 e8 09          	shr    rax,0x9
    2952:	25 f8 ff 1f 00       	and    eax,0x1ffff8
    2957:	48 85 db             	test   rbx,rbx
    295a:	0f 88 c0 48 00 00    	js     0x7220
    2960:	48 03 43 30          	add    rax,QWORD PTR [rbx+0x30]
    2964:	4c 89 75 98          	mov    QWORD PTR [rbp-0x68],r14
    2968:	48 85 c0             	test   rax,rax
    296b:	0f 88 af 48 00 00    	js     0x7220
    2971:	4c 8b 00             	mov    r8,QWORD PTR [rax]
    2974:	49 be 47 1d 66 55 55 	movabs r14,0x555555661d47
    297b:	55 00 00 
    297e:	49 8d b6 f9 12 09 00 	lea    rsi,[r14+0x912f9]
    2985:	4c 89 c2             	mov    rdx,r8
    2988:	48 c1 ea 30          	shr    rdx,0x30
    298c:	89 d7                	mov    edi,edx
    298e:	48 85 f6             	test   rsi,rsi
    2991:	0f 88 89 48 00 00    	js     0x7220
    2997:	4c 8b 0c fe          	mov    r9,QWORD PTR [rsi+rdi*8]
    299b:	4d 01 4c 24 18       	add    QWORD PTR [r12+0x18],r9
    29a0:	41 83 e0 01          	and    r8d,0x1
    29a4:	0f 84 9c 03 00 00    	je     0x2d46
    29aa:	4c 8d 14 7f          	lea    r10,[rdi+rdi*2]
    29ae:	49 be 6d 1d 66 55 55 	movabs r14,0x555555661d6d
    29b5:	55 00 00 
    29b8:	4d 8b 9e fb 42 30 00 	mov    r11,QWORD PTR [r14+0x3042fb]
    29bf:	4c 8b 75 b0          	mov    r14,QWORD PTR [rbp-0x50]
    29c3:	4f 8d 34 d4          	lea    r14,[r12+r10*8]
    29c7:	4d 85 f6             	test   r14,r14
    29ca:	0f 88 50 48 00 00    	js     0x7220
    29d0:	45 8b 86 d4 01 00 00 	mov    r8d,DWORD PTR [r14+0x1d4]
    29d7:	4d 85 db             	test   r11,r11
    29da:	0f 88 40 48 00 00    	js     0x7220
    29e0:	45 3b 04 93          	cmp    r8d,DWORD PTR [r11+rdx*4]
    29e4:	4c 89 75 b0          	mov    QWORD PTR [rbp-0x50],r14
    29e8:	0f 84 d9 04 00 00    	je     0x2ec7
    29ee:	48 8d 14 7f          	lea    rdx,[rdi+rdi*2]
    29f2:	41 83 c0 01          	add    r8d,0x1
    29f6:	4c 8b 75 a8          	mov    r14,QWORD PTR [rbp-0x58]
    29fa:	4d 8d 34 d4          	lea    r14,[r12+rdx*8]
    29fe:	4d 85 f6             	test   r14,r14
    2a01:	0f 88 19 48 00 00    	js     0x7220
    2a07:	45 89 86 d4 01 00 00 	mov    DWORD PTR [r14+0x1d4],r8d
    2a0e:	4d 85 f6             	test   r14,r14
    2a11:	0f 88 09 48 00 00    	js     0x7220
    2a17:	4d 8b 8e e0 01 00 00 	mov    r9,QWORD PTR [r14+0x1e0]
    2a1e:	4d 63 c0             	movsxd r8,r8d
    2a21:	49 c1 e0 03          	shl    r8,0x3
    2a25:	4d 29 c1             	sub    r9,r8
    2a28:	4c 89 75 a8          	mov    QWORD PTR [rbp-0x58],r14
    2a2c:	4c 8b 75 98          	mov    r14,QWORD PTR [rbp-0x68]
    2a30:	4d 85 c9             	test   r9,r9
    2a33:	0f 88 e7 47 00 00    	js     0x7220
    2a39:	4d 89 31             	mov    QWORD PTR [r9],r14
    2a3c:	41 83 ac 24 c8 01 00 	sub    DWORD PTR [r12+0x1c8],0x1
    2a43:	00 01 
    2a45:	4c 89 75 98          	mov    QWORD PTR [rbp-0x68],r14
    2a49:	0f 88 44 04 00 00    	js     0x2e93
    2a4f:	49 83 c5 18          	add    r13,0x18
    2a53:	49 8b 5d 00          	mov    rbx,QWORD PTR [r13+0x0]
    2a57:	4d 8d 6d 08          	lea    r13,[r13+0x8]
    2a5b:	4d 8b 65 00          	mov    r12,QWORD PTR [r13+0x0]
    2a5f:	4d 8d 6d 08          	lea    r13,[r13+0x8]
    2a63:	4c 8b 75 98          	mov    r14,QWORD PTR [rbp-0x68]
    2a67:	4d 8b 75 00          	mov    r14,QWORD PTR [r13+0x0]
    2a6b:	4d 8d 6d 08          	lea    r13,[r13+0x8]
    2a6f:	4c 8b 7d a0          	mov    r15,QWORD PTR [rbp-0x60]
    2a73:	4d 8b 7d 00          	mov    r15,QWORD PTR [r13+0x0]
    2a77:	4d 8d 6d 08          	lea    r13,[r13+0x8]
    2a7b:	4c 89 75 98          	mov    QWORD PTR [rbp-0x68],r14
    2a7f:	4c 8b 75 a8          	mov    r14,QWORD PTR [rbp-0x58]
    2a83:	4d 8b 75 00          	mov    r14,QWORD PTR [r13+0x0]
    2a87:	4d 8d 6d 08          	lea    r13,[r13+0x8]
    2a8b:	4c 89 75 a8          	mov    QWORD PTR [rbp-0x58],r14
    2a8f:	4c 8b 75 b0          	mov    r14,QWORD PTR [rbp-0x50]
    2a93:	4d 8b 75 00          	mov    r14,QWORD PTR [r13+0x0]
    2a97:	4d 8d 6d 08          	lea    r13,[r13+0x8]
    2a9b:	4c 89 75 b0          	mov    QWORD PTR [rbp-0x50],r14
    2a9f:	4d 8b 75 00          	mov    r14,QWORD PTR [r13+0x0]
    2aa3:	4d 8d 6d 08          	lea    r13,[r13+0x8]
    2aa7:	4c 89 7d a0          	mov    QWORD PTR [rbp-0x60],r15
    2aab:	e9 82 3f 00 00       	jmp    0x6a32
    2ab0:	4c 89 e7             	mov    rdi,r12
    2ab3:	be 01 00 00 00       	mov    esi,0x1
    2ab8:	49 be dd 1d 66 55 55 	movabs r14,0x555555661ddd
    2abf:	55 00 00 
    2ac2:	4d 8d 6d f8          	lea    r13,[r13-0x8]
    2ac6:	4d 89 75 00          	mov    QWORD PTR [r13+0x0],r14
    2aca:	e9 aa 45 00 00       	jmp    0x7079
    2acf:	48 85 c0             	test   rax,rax
    2ad2:	0f 88 48 47 00 00    	js     0x7220
    2ad8:	80 38 00             	cmp    BYTE PTR [rax],0x0
    2adb:	49 89 c4             	mov    r12,rax
    2ade:	0f 84 06 fe ff ff    	je     0x28ea
    2ae4:	48 85 c0             	test   rax,rax
    2ae7:	0f 88 33 47 00 00    	js     0x7220
    2aed:	80 78 02 00          	cmp    BYTE PTR [rax+0x2],0x0
    2af1:	0f 85 ba 04 00 00    	jne    0x2fb1
    2af7:	48 85 c0             	test   rax,rax
    2afa:	0f 88 20 47 00 00    	js     0x7220
    2b00:	80 78 01 00          	cmp    BYTE PTR [rax+0x1],0x0
    2b04:	0f 84 a7 04 00 00    	je     0x2fb1
    2b0a:	4c 8b 75 a0          	mov    r14,QWORD PTR [rbp-0x60]
    2b0e:	4c 8d b0 c0 01 00 00 	lea    r14,[rax+0x1c0]
    2b15:	4c 89 75 a0          	mov    QWORD PTR [rbp-0x60],r14
    2b19:	4c 8b 75 98          	mov    r14,QWORD PTR [rbp-0x68]
    2b1d:	4c 89 f3             	mov    rbx,r14
    2b20:	4c 8b 7d a8          	mov    r15,QWORD PTR [rbp-0x58]
    2b24:	4d 89 f7             	mov    r15,r14
    2b27:	4c 89 75 98          	mov    QWORD PTR [rbp-0x68],r14
    2b2b:	4c 8b 75 b0          	mov    r14,QWORD PTR [rbp-0x50]
    2b2f:	4d 8d 74 24 28       	lea    r14,[r12+0x28]
    2b34:	48 c1 eb 1a          	shr    rbx,0x1a
    2b38:	49 81 e7 00 00 00 c0 	and    r15,0xffffffffc0000000
    2b3f:	81 e3 f0 00 00 00    	and    ebx,0xf0
    2b45:	4c 01 e3             	add    rbx,r12
    2b48:	48 85 db             	test   rbx,rbx
    2b4b:	0f 88 cf 46 00 00    	js     0x7220
    2b51:	48 8b 4b 28          	mov    rcx,QWORD PTR [rbx+0x28]
    2b55:	49 39 cf             	cmp    r15,rcx
    2b58:	4c 89 7d a8          	mov    QWORD PTR [rbp-0x58],r15
    2b5c:	4c 89 75 b0          	mov    QWORD PTR [rbp-0x50],r14
    2b60:	0f 85 ba 04 00 00    	jne    0x3020
    2b66:	4c 8b 75 98          	mov    r14,QWORD PTR [rbp-0x68]
    2b6a:	4c 89 f0             	mov    rax,r14
    2b6d:	48 c1 e8 09          	shr    rax,0x9
    2b71:	25 f8 ff 1f 00       	and    eax,0x1ffff8
    2b76:	48 85 db             	test   rbx,rbx
    2b79:	0f 88 a1 46 00 00    	js     0x7220
    2b7f:	48 03 43 30          	add    rax,QWORD PTR [rbx+0x30]
    2b83:	4c 89 75 98          	mov    QWORD PTR [rbp-0x68],r14
    2b87:	48 85 c0             	test   rax,rax
    2b8a:	0f 88 90 46 00 00    	js     0x7220
    2b90:	48 8b 08             	mov    rcx,QWORD PTR [rax]
    2b93:	49 be 49 1e 66 55 55 	movabs r14,0x555555661e49
    2b9a:	55 00 00 
    2b9d:	49 8d b6 f7 11 09 00 	lea    rsi,[r14+0x911f7]
    2ba4:	48 89 ca             	mov    rdx,rcx
    2ba7:	48 c1 ea 30          	shr    rdx,0x30
    2bab:	89 d0                	mov    eax,edx
    2bad:	48 85 f6             	test   rsi,rsi
    2bb0:	0f 88 6a 46 00 00    	js     0x7220
    2bb6:	48 8b 34 c6          	mov    rsi,QWORD PTR [rsi+rax*8]
    2bba:	49 01 74 24 18       	add    QWORD PTR [r12+0x18],rsi
    2bbf:	4c 8b 75 a0          	mov    r14,QWORD PTR [rbp-0x60]
    2bc3:	4d 85 f6             	test   r14,r14
    2bc6:	4c 89 75 a0          	mov    QWORD PTR [rbp-0x60],r14
    2bca:	0f 84 f1 03 00 00    	je     0x2fc1
    2bd0:	83 e1 01             	and    ecx,0x1
    2bd3:	0f 84 c0 04 00 00    	je     0x3099
    2bd9:	49 be 73 1e 66 55 55 	movabs r14,0x555555661e73
    2be0:	55 00 00 
    2be3:	41 80 be b4 de 0d 00 	cmp    BYTE PTR [r14+0xddeb4],0x0
    2bea:	00 
    2beb:	0f 85 cd 06 00 00    	jne    0x32be
    2bf1:	4c 8d 0c 45 00 00 00 	lea    r9,[rax*2+0x0]
    2bf8:	00 
    2bf9:	4c 8b 75 a8          	mov    r14,QWORD PTR [rbp-0x58]
    2bfd:	49 bf 84 1e 66 55 55 	movabs r15,0x555555661e84
    2c04:	55 00 00 
    2c07:	4d 8b b7 e4 41 30 00 	mov    r14,QWORD PTR [r15+0x3041e4]
    2c0e:	4c 8b 7d a0          	mov    r15,QWORD PTR [rbp-0x60]
    2c12:	4b 8d 1c cf          	lea    rbx,[r15+r9*8]
    2c16:	48 85 db             	test   rbx,rbx
    2c19:	0f 88 01 46 00 00    	js     0x7220
    2c1f:	44 8b 43 14          	mov    r8d,DWORD PTR [rbx+0x14]
    2c23:	4d 85 f6             	test   r14,r14
    2c26:	0f 88 f4 45 00 00    	js     0x7220
    2c2c:	45 3b 04 96          	cmp    r8d,DWORD PTR [r14+rdx*4]
    2c30:	4c 89 7d a0          	mov    QWORD PTR [rbp-0x60],r15
    2c34:	4c 89 75 a8          	mov    QWORD PTR [rbp-0x58],r14
    2c38:	0f 84 24 06 00 00    	je     0x3262
    2c3e:	4c 8d 1c 45 00 00 00 	lea    r11,[rax*2+0x0]
    2c45:	00 
    2c46:	41 83 c0 01          	add    r8d,0x1
    2c4a:	4c 8b 75 a0          	mov    r14,QWORD PTR [rbp-0x60]
    2c4e:	4b 8d 3c de          	lea    rdi,[r14+r11*8]
    2c52:	49 63 c8             	movsxd rcx,r8d
    2c55:	48 85 ff             	test   rdi,rdi
    2c58:	0f 88 c2 45 00 00    	js     0x7220
    2c5e:	48 8b 77 20          	mov    rsi,QWORD PTR [rdi+0x20]
    2c62:	48 c1 e1 03          	shl    rcx,0x3
    2c66:	48 85 ff             	test   rdi,rdi
    2c69:	0f 88 b1 45 00 00    	js     0x7220
    2c6f:	44 89 47 14          	mov    DWORD PTR [rdi+0x14],r8d
    2c73:	48 29 ce             	sub    rsi,rcx
    2c76:	4c 8b 7d 98          	mov    r15,QWORD PTR [rbp-0x68]
    2c7a:	48 85 f6             	test   rsi,rsi
    2c7d:	0f 88 9d 45 00 00    	js     0x7220
    2c83:	4c 89 3e             	mov    QWORD PTR [rsi],r15
    2c86:	4d 85 f6             	test   r14,r14
    2c89:	0f 88 91 45 00 00    	js     0x7220
    2c8f:	41 83 6e 08 01       	sub    DWORD PTR [r14+0x8],0x1
    2c94:	4c 89 7d 98          	mov    QWORD PTR [rbp-0x68],r15
    2c98:	4c 89 75 a0          	mov    QWORD PTR [rbp-0x60],r14
    2c9c:	0f 89 ad fd ff ff    	jns    0x2a4f
    2ca2:	4c 8b 75 a0          	mov    r14,QWORD PTR [rbp-0x60]
    2ca6:	4d 85 f6             	test   r14,r14
    2ca9:	0f 88 71 45 00 00    	js     0x7220
    2caf:	41 8b 76 0c          	mov    esi,DWORD PTR [r14+0xc]
    2cb3:	49 8d 7e 08          	lea    rdi,[r14+0x8]
    2cb7:	49 bf d1 1e 66 55 55 	movabs r15,0x555555661ed1
    2cbe:	55 00 00 
    2cc1:	4d 8d 6d f8          	lea    r13,[r13-0x8]
    2cc5:	4d 89 7d 00          	mov    QWORD PTR [r13+0x0],r15
    2cc9:	4c 89 75 a0          	mov    QWORD PTR [rbp-0x60],r14
    2ccd:	e9 6b fb ff ff       	jmp    0x283d
    2cd2:	84 c0                	test   al,al
    2cd4:	0f 84 75 fd ff ff    	je     0x2a4f
    2cda:	49 83 c5 18          	add    r13,0x18
    2cde:	4c 8b 75 a0          	mov    r14,QWORD PTR [rbp-0x60]
    2ce2:	4c 89 f6             	mov    rsi,r14
    2ce5:	4c 89 e7             	mov    rdi,r12
    2ce8:	49 8b 5d 00          	mov    rbx,QWORD PTR [r13+0x0]
    2cec:	4d 8d 6d 08          	lea    r13,[r13+0x8]
    2cf0:	4d 8b 65 00          	mov    r12,QWORD PTR [r13+0x0]
    2cf4:	4d 8d 6d 08          	lea    r13,[r13+0x8]
    2cf8:	4c 8b 7d 98          	mov    r15,QWORD PTR [rbp-0x68]
    2cfc:	4d 8b 7d 00          	mov    r15,QWORD PTR [r13+0x0]
    2d00:	4d 8d 6d 08          	lea    r13,[r13+0x8]
    2d04:	4d 8b 75 00          	mov    r14,QWORD PTR [r13+0x0]
    2d08:	4d 8d 6d 08          	lea    r13,[r13+0x8]
    2d0c:	4c 89 75 a0          	mov    QWORD PTR [rbp-0x60],r14
    2d10:	4c 8b 75 a8          	mov    r14,QWORD PTR [rbp-0x58]
    2d14:	4d 8b 75 00          	mov    r14,QWORD PTR [r13+0x0]
    2d18:	4d 8d 6d 08          	lea    r13,[r13+0x8]
    2d1c:	4c 89 75 a8          	mov    QWORD PTR [rbp-0x58],r14
    2d20:	4c 8b 75 b0          	mov    r14,QWORD PTR [rbp-0x50]
    2d24:	4d 8b 75 00          	mov    r14,QWORD PTR [r13+0x0]
    2d28:	4d 8d 6d 08          	lea    r13,[r13+0x8]
    2d2c:	4c 89 7d 98          	mov    QWORD PTR [rbp-0x68],r15
    2d30:	4c 89 75 b0          	mov    QWORD PTR [rbp-0x50],r14
    2d34:	e9 fc 2f 00 00       	jmp    0x5d35
    2d39:	4d 8b 75 00          	mov    r14,QWORD PTR [r13+0x0]
    2d3d:	4d 8d 6d 08          	lea    r13,[r13+0x8]
    2d41:	e9 6f 3c 00 00       	jmp    0x69b5
    2d46:	49 be 06 1f 66 55 55 	movabs r14,0x555555661f06
    2d4d:	55 00 00 
    2d50:	41 3b 96 52 41 30 00 	cmp    edx,DWORD PTR [r14+0x304152]
    2d57:	0f 82 c9 01 00 00    	jb     0x2f26
    2d5d:	4c 8b 75 a0          	mov    r14,QWORD PTR [rbp-0x60]
    2d61:	48 85 db             	test   rbx,rbx
    2d64:	0f 88 b6 44 00 00    	js     0x7220
    2d6a:	4c 8b 73 28          	mov    r14,QWORD PTR [rbx+0x28]
    2d6e:	4c 8b 7d a8          	mov    r15,QWORD PTR [rbp-0x58]
    2d72:	4d 39 f7             	cmp    r15,r14
    2d75:	4c 89 7d a8          	mov    QWORD PTR [rbp-0x58],r15
    2d79:	4c 89 75 a0          	mov    QWORD PTR [rbp-0x60],r14
    2d7d:	0f 85 eb 05 00 00    	jne    0x336e
    2d83:	48 85 db             	test   rbx,rbx
    2d86:	0f 88 94 44 00 00    	js     0x7220
    2d8c:	48 8b 43 30          	mov    rax,QWORD PTR [rbx+0x30]
    2d90:	4c 8b 75 98          	mov    r14,QWORD PTR [rbp-0x68]
    2d94:	49 c1 ee 09          	shr    r14,0x9
    2d98:	41 81 e6 f8 ff 1f 00 	and    r14d,0x1ffff8
    2d9f:	4c 01 f0             	add    rax,r14
    2da2:	4c 89 75 98          	mov    QWORD PTR [rbp-0x68],r14
    2da6:	48 85 c0             	test   rax,rax
    2da9:	0f 88 71 44 00 00    	js     0x7220
    2daf:	48 8b 30             	mov    rsi,QWORD PTR [rax]
    2db2:	49 83 c5 18          	add    r13,0x18
    2db6:	4c 89 e7             	mov    rdi,r12
    2db9:	49 8b 5d 00          	mov    rbx,QWORD PTR [r13+0x0]
    2dbd:	4d 8d 6d 08          	lea    r13,[r13+0x8]
    2dc1:	4d 8b 65 00          	mov    r12,QWORD PTR [r13+0x0]
    2dc5:	4d 8d 6d 08          	lea    r13,[r13+0x8]
    2dc9:	48 c1 e6 10          	shl    rsi,0x10
    2dcd:	4c 8b 75 98          	mov    r14,QWORD PTR [rbp-0x68]
    2dd1:	4d 8b 75 00          	mov    r14,QWORD PTR [r13+0x0]
    2dd5:	4d 8d 6d 08          	lea    r13,[r13+0x8]
    2dd9:	4c 8b 7d a0          	mov    r15,QWORD PTR [rbp-0x60]
    2ddd:	4d 8b 7d 00          	mov    r15,QWORD PTR [r13+0x0]
    2de1:	4d 8d 6d 08          	lea    r13,[r13+0x8]
    2de5:	48 c1 fe 10          	sar    rsi,0x10
    2de9:	4c 89 75 98          	mov    QWORD PTR [rbp-0x68],r14
    2ded:	4c 8b 75 a8          	mov    r14,QWORD PTR [rbp-0x58]
    2df1:	4d 8b 75 00          	mov    r14,QWORD PTR [r13+0x0]
    2df5:	4d 8d 6d 08          	lea    r13,[r13+0x8]
    2df9:	4c 89 75 a8          	mov    QWORD PTR [rbp-0x58],r14
    2dfd:	4c 8b 75 b0          	mov    r14,QWORD PTR [rbp-0x50]
    2e01:	4d 8b 75 00          	mov    r14,QWORD PTR [r13+0x0]
    2e05:	4d 8d 6d 08          	lea    r13,[r13+0x8]
    2e09:	48 83 e6 fe          	and    rsi,0xfffffffffffffffe
    2e0d:	4c 89 7d a0          	mov    QWORD PTR [rbp-0x60],r15
    2e11:	4c 89 75 b0          	mov    QWORD PTR [rbp-0x50],r14
    2e15:	e9 95 19 00 00       	jmp    0x47af
    2e1a:	4c 8b 75 a8          	mov    r14,QWORD PTR [rbp-0x58]
    2e1e:	4d 3b b4 24 28 01 00 	cmp    r14,QWORD PTR [r12+0x128]
    2e25:	00 
    2e26:	4c 89 75 a8          	mov    QWORD PTR [rbp-0x58],r14
    2e2a:	0f 85 7f 03 00 00    	jne    0x31af
    2e30:	4d 89 84 24 28 01 00 	mov    QWORD PTR [r12+0x128],r8
    2e37:	00 
    2e38:	48 85 db             	test   rbx,rbx
    2e3b:	0f 88 df 43 00 00    	js     0x7220
    2e41:	48 8b 4b 30          	mov    rcx,QWORD PTR [rbx+0x30]
    2e45:	49 8b 94 24 30 01 00 	mov    rdx,QWORD PTR [r12+0x130]
    2e4c:	00 
    2e4d:	49 89 8c 24 30 01 00 	mov    QWORD PTR [r12+0x130],rcx
    2e54:	00 
    2e55:	4c 8b 75 98          	mov    r14,QWORD PTR [rbp-0x68]
    2e59:	4c 89 f0             	mov    rax,r14
    2e5c:	4c 8b 7d a8          	mov    r15,QWORD PTR [rbp-0x58]
    2e60:	48 85 db             	test   rbx,rbx
    2e63:	0f 88 b7 43 00 00    	js     0x7220
    2e69:	4c 89 7b 28          	mov    QWORD PTR [rbx+0x28],r15
    2e6d:	48 c1 e8 09          	shr    rax,0x9
    2e71:	48 85 db             	test   rbx,rbx
    2e74:	0f 88 a6 43 00 00    	js     0x7220
    2e7a:	48 89 53 30          	mov    QWORD PTR [rbx+0x30],rdx
    2e7e:	25 f8 ff 1f 00       	and    eax,0x1ffff8
    2e83:	48 01 d0             	add    rax,rdx
    2e86:	4c 89 7d a8          	mov    QWORD PTR [rbp-0x58],r15
    2e8a:	4c 89 75 98          	mov    QWORD PTR [rbp-0x68],r14
    2e8e:	e9 d5 fa ff ff       	jmp    0x2968
    2e93:	41 8b b4 24 cc 01 00 	mov    esi,DWORD PTR [r12+0x1cc]
    2e9a:	00 
    2e9b:	49 8d bc 24 c8 01 00 	lea    rdi,[r12+0x1c8]
    2ea2:	00 
    2ea3:	49 be aa 1f 66 55 55 	movabs r14,0x555555661faa
    2eaa:	55 00 00 
    2ead:	4d 8d 6d f8          	lea    r13,[r13-0x8]
    2eb1:	4d 89 75 00          	mov    QWORD PTR [r13+0x0],r14
    2eb5:	e9 83 f9 ff ff       	jmp    0x283d
    2eba:	84 c0                	test   al,al
    2ebc:	0f 84 8d fb ff ff    	je     0x2a4f
    2ec2:	e9 13 fe ff ff       	jmp    0x2cda
    2ec7:	48 8d 1c 55 00 00 00 	lea    rbx,[rdx*2+0x0]
    2ece:	00 
    2ecf:	49 89 7d 00          	mov    QWORD PTR [r13+0x0],rdi
    2ed3:	41 d1 f8             	sar    r8d,1
    2ed6:	89 d1                	mov    ecx,edx
    2ed8:	4c 8b 75 a0          	mov    r14,QWORD PTR [rbp-0x60]
    2edc:	49 8d 44 de 10       	lea    rax,[r14+rbx*8+0x10]
    2ee1:	4c 89 e7             	mov    rdi,r12
    2ee4:	4c 89 f6             	mov    rsi,r14
    2ee7:	48 89 c2             	mov    rdx,rax
    2eea:	49 bf e0 1f 66 55 55 	movabs r15,0x555555661fe0
    2ef1:	55 00 00 
    2ef4:	4d 8d 6d f8          	lea    r13,[r13-0x8]
    2ef8:	4d 89 7d 00          	mov    QWORD PTR [r13+0x0],r15
    2efc:	4c 89 75 a0          	mov    QWORD PTR [rbp-0x60],r14
    2f00:	e9 0c 1e 00 00       	jmp    0x4d11
    2f05:	4c 8b 75 b0          	mov    r14,QWORD PTR [rbp-0x50]
    2f09:	4d 85 f6             	test   r14,r14
    2f0c:	0f 88 0e 43 00 00    	js     0x7220
    2f12:	45 8b 86 d4 01 00 00 	mov    r8d,DWORD PTR [r14+0x1d4]
    2f19:	49 8b 7d 00          	mov    rdi,QWORD PTR [r13+0x0]
    2f1d:	4c 89 75 b0          	mov    QWORD PTR [rbp-0x50],r14
    2f21:	e9 c8 fa ff ff       	jmp    0x29ee
    2f26:	8d 5a d9             	lea    ebx,[rdx-0x27]
    2f29:	49 be fa 1f 66 55 55 	movabs r14,0x555555661ffa
    2f30:	55 00 00 
    2f33:	49 8b be 6e 40 30 00 	mov    rdi,QWORD PTR [r14+0x30406e]
    2f3a:	48 8d 04 5d 00 00 00 	lea    rax,[rbx*2+0x0]
    2f41:	00 
    2f42:	48 c1 e0 03          	shl    rax,0x3
    2f46:	4c 8b 75 a8          	mov    r14,QWORD PTR [rbp-0x58]
    2f4a:	4e 8d 34 20          	lea    r14,[rax+r12*1]
    2f4e:	4d 85 f6             	test   r14,r14
    2f51:	0f 88 c9 42 00 00    	js     0x7220
    2f57:	41 8b 8e e4 05 00 00 	mov    ecx,DWORD PTR [r14+0x5e4]
    2f5e:	48 85 ff             	test   rdi,rdi
    2f61:	0f 88 b9 42 00 00    	js     0x7220
    2f67:	3b 0c 97             	cmp    ecx,DWORD PTR [rdi+rdx*4]
    2f6a:	4c 89 75 a8          	mov    QWORD PTR [rbp-0x58],r14
    2f6e:	0f 84 ae 03 00 00    	je     0x3322
    2f74:	4c 8d 04 5d 00 00 00 	lea    r8,[rbx*2+0x0]
    2f7b:	00 
    2f7c:	83 c1 01             	add    ecx,0x1
    2f7f:	4b 8d 34 c4          	lea    rsi,[r12+r8*8]
    2f83:	48 85 f6             	test   rsi,rsi
    2f86:	0f 88 94 42 00 00    	js     0x7220
    2f8c:	89 8e e4 05 00 00    	mov    DWORD PTR [rsi+0x5e4],ecx
    2f92:	48 85 f6             	test   rsi,rsi
    2f95:	0f 88 85 42 00 00    	js     0x7220
    2f9b:	4c 8b 8e f0 05 00 00 	mov    r9,QWORD PTR [rsi+0x5f0]
    2fa2:	48 63 c9             	movsxd rcx,ecx
    2fa5:	48 c1 e1 03          	shl    rcx,0x3
    2fa9:	49 29 c9             	sub    r9,rcx
    2fac:	e9 7b fa ff ff       	jmp    0x2a2c
    2fb1:	4c 8b 75 a0          	mov    r14,QWORD PTR [rbp-0x60]
    2fb5:	45 31 f6             	xor    r14d,r14d
    2fb8:	4c 89 75 a0          	mov    QWORD PTR [rbp-0x60],r14
    2fbc:	e9 58 fb ff ff       	jmp    0x2b19
    2fc1:	49 83 c5 18          	add    r13,0x18
    2fc5:	4c 8b 75 98          	mov    r14,QWORD PTR [rbp-0x68]
    2fc9:	4c 89 f6             	mov    rsi,r14
    2fcc:	4c 89 e7             	mov    rdi,r12
    2fcf:	49 8b 5d 00          	mov    rbx,QWORD PTR [r13+0x0]
    2fd3:	4d 8d 6d 08          	lea    r13,[r13+0x8]
    2fd7:	4d 8b 65 00          	mov    r12,QWORD PTR [r13+0x0]
    2fdb:	4d 8d 6d 08          	lea    r13,[r13+0x8]
    2fdf:	4d 8b 75 00          	mov    r14,QWORD PTR [r13+0x0]
    2fe3:	4d 8d 6d 08          	lea    r13,[r13+0x8]
    2fe7:	4c 8b 7d a0          	mov    r15,QWORD PTR [rbp-0x60]
    2feb:	4d 8b 7d 00          	mov    r15,QWORD PTR [r13+0x0]
    2fef:	4d 8d 6d 08          	lea    r13,[r13+0x8]
    2ff3:	4c 89 75 98          	mov    QWORD PTR [rbp-0x68],r14
    2ff7:	4c 8b 75 a8          	mov    r14,QWORD PTR [rbp-0x58]
    2ffb:	4d 8b 75 00          	mov    r14,QWORD PTR [r13+0x0]
    2fff:	4d 8d 6d 08          	lea    r13,[r13+0x8]
    3003:	4c 89 75 a8          	mov    QWORD PTR [rbp-0x58],r14
    3007:	4c 8b 75 b0          	mov    r14,QWORD PTR [rbp-0x50]
    300b:	4d 8b 75 00          	mov    r14,QWORD PTR [r13+0x0]
    300f:	4d 8d 6d 08          	lea    r13,[r13+0x8]
    3013:	4c 89 7d a0          	mov    QWORD PTR [rbp-0x60],r15
    3017:	4c 89 75 b0          	mov    QWORD PTR [rbp-0x50],r14
    301b:	e9 c5 f1 ff ff       	jmp    0x21e5
    3020:	4c 8b 75 a8          	mov    r14,QWORD PTR [rbp-0x58]
    3024:	4d 3b b4 24 28 01 00 	cmp    r14,QWORD PTR [r12+0x128]
    302b:	00 
    302c:	4c 89 75 a8          	mov    QWORD PTR [rbp-0x58],r14
    3030:	0f 85 fc 04 00 00    	jne    0x3532
    3036:	49 89 8c 24 28 01 00 	mov    QWORD PTR [r12+0x128],rcx
    303d:	00 
    303e:	48 85 db             	test   rbx,rbx
    3041:	0f 88 d9 41 00 00    	js     0x7220
    3047:	48 8b 43 30          	mov    rax,QWORD PTR [rbx+0x30]
    304b:	49 8b bc 24 30 01 00 	mov    rdi,QWORD PTR [r12+0x130]
    3052:	00 
    3053:	49 89 84 24 30 01 00 	mov    QWORD PTR [r12+0x130],rax
    305a:	00 
    305b:	4c 8b 75 98          	mov    r14,QWORD PTR [rbp-0x68]
    305f:	4c 89 f0             	mov    rax,r14
    3062:	48 c1 e8 09          	shr    rax,0x9
    3066:	4c 8b 7d a8          	mov    r15,QWORD PTR [rbp-0x58]
    306a:	48 85 db             	test   rbx,rbx
    306d:	0f 88 ad 41 00 00    	js     0x7220
    3073:	4c 89 7b 28          	mov    QWORD PTR [rbx+0x28],r15
    3077:	25 f8 ff 1f 00       	and    eax,0x1ffff8
    307c:	48 85 db             	test   rbx,rbx
    307f:	0f 88 9b 41 00 00    	js     0x7220
    3085:	48 89 7b 30          	mov    QWORD PTR [rbx+0x30],rdi
    3089:	48 01 f8             	add    rax,rdi
    308c:	4c 89 7d a8          	mov    QWORD PTR [rbp-0x58],r15
    3090:	4c 89 75 98          	mov    QWORD PTR [rbp-0x68],r14
    3094:	e9 ee fa ff ff       	jmp    0x2b87
    3099:	49 be a9 20 66 55 55 	movabs r14,0x5555556620a9
    30a0:	55 00 00 
    30a3:	41 3b 96 af 3f 30 00 	cmp    edx,DWORD PTR [r14+0x303faf]
    30aa:	0f 83 3e 03 00 00    	jae    0x33ee
    30b0:	49 be b6 20 66 55 55 	movabs r14,0x5555556620b6
    30b7:	55 00 00 
    30ba:	41 80 be 71 dc 0d 00 	cmp    BYTE PTR [r14+0xddc71],0x0
    30c1:	00 
    30c2:	0f 85 cd 05 00 00    	jne    0x3695
    30c8:	8d 5a d9             	lea    ebx,[rdx-0x27]
    30cb:	49 be c6 20 66 55 55 	movabs r14,0x5555556620c6
    30d2:	55 00 00 
    30d5:	4d 8b 96 a2 3f 30 00 	mov    r10,QWORD PTR [r14+0x303fa2]
    30dc:	4c 8b 75 a8          	mov    r14,QWORD PTR [rbp-0x58]
    30e0:	4c 8d 34 5d 00 00 00 	lea    r14,[rbx*2+0x0]
    30e7:	00 
    30e8:	4c 8b 7d a0          	mov    r15,QWORD PTR [rbp-0x60]
    30ec:	4d 85 ff             	test   r15,r15
    30ef:	0f 88 2b 41 00 00    	js     0x7220
    30f5:	43 8b 84 f7 24 04 00 	mov    eax,DWORD PTR [r15+r14*8+0x424]
    30fc:	00 
    30fd:	4d 85 d2             	test   r10,r10
    3100:	0f 88 1a 41 00 00    	js     0x7220
    3106:	41 3b 04 92          	cmp    eax,DWORD PTR [r10+rdx*4]
    310a:	4c 89 7d a0          	mov    QWORD PTR [rbp-0x60],r15
    310e:	4c 89 75 a8          	mov    QWORD PTR [rbp-0x58],r14
    3112:	0f 84 11 05 00 00    	je     0x3629
    3118:	4c 8d 1c 5d 00 00 00 	lea    r11,[rbx*2+0x0]
    311f:	00 
    3120:	83 c0 01             	add    eax,0x1
    3123:	4c 8b 75 a0          	mov    r14,QWORD PTR [rbp-0x60]
    3127:	4b 8d 3c de          	lea    rdi,[r14+r11*8]
    312b:	48 85 ff             	test   rdi,rdi
    312e:	0f 88 ec 40 00 00    	js     0x7220
    3134:	89 87 24 04 00 00    	mov    DWORD PTR [rdi+0x424],eax
    313a:	48 85 ff             	test   rdi,rdi
    313d:	0f 88 dd 40 00 00    	js     0x7220
    3143:	48 8b 8f 30 04 00 00 	mov    rcx,QWORD PTR [rdi+0x430]
    314a:	48 98                	cdqe   
    314c:	48 c1 e0 03          	shl    rax,0x3
    3150:	48 29 c1             	sub    rcx,rax
    3153:	4c 8b 7d 98          	mov    r15,QWORD PTR [rbp-0x68]
    3157:	48 85 c9             	test   rcx,rcx
    315a:	0f 88 c0 40 00 00    	js     0x7220
    3160:	4c 89 39             	mov    QWORD PTR [rcx],r15
    3163:	4d 85 f6             	test   r14,r14
    3166:	0f 88 b4 40 00 00    	js     0x7220
    316c:	41 83 6e 08 01       	sub    DWORD PTR [r14+0x8],0x1
    3171:	4c 89 7d 98          	mov    QWORD PTR [rbp-0x68],r15
    3175:	4c 89 75 a0          	mov    QWORD PTR [rbp-0x60],r14
    3179:	0f 89 d0 f8 ff ff    	jns    0x2a4f
    317f:	4c 8b 75 a0          	mov    r14,QWORD PTR [rbp-0x60]
    3183:	49 8d 7e 08          	lea    rdi,[r14+0x8]
    3187:	49 bf 15 21 66 55 55 	movabs r15,0x555555662115
    318e:	55 00 00 
    3191:	4d 8d 6d f8          	lea    r13,[r13-0x8]
    3195:	4d 89 7d 00          	mov    QWORD PTR [r13+0x0],r15
    3199:	4c 89 75 a0          	mov    QWORD PTR [rbp-0x60],r14
    319d:	e9 cf 3c 00 00       	jmp    0x6e71
    31a2:	84 c0                	test   al,al
    31a4:	0f 84 a5 f8 ff ff    	je     0x2a4f
    31aa:	e9 2b fb ff ff       	jmp    0x2cda
    31af:	41 b9 01 00 00 00    	mov    r9d,0x1
    31b5:	4c 8b 75 a8          	mov    r14,QWORD PTR [rbp-0x58]
    31b9:	4d 3b b4 24 38 01 00 	cmp    r14,QWORD PTR [r12+0x138]
    31c0:	00 
    31c1:	4c 89 75 a8          	mov    QWORD PTR [rbp-0x58],r14
    31c5:	0f 85 6f 02 00 00    	jne    0x343a
    31cb:	45 89 ca             	mov    r10d,r9d
    31ce:	41 83 e9 01          	sub    r9d,0x1
    31d2:	49 c1 e1 04          	shl    r9,0x4
    31d6:	49 c1 e2 04          	shl    r10,0x4
    31da:	4d 01 e1             	add    r9,r12
    31dd:	4d 01 e2             	add    r10,r12
    31e0:	4d 85 c9             	test   r9,r9
    31e3:	0f 88 37 40 00 00    	js     0x7220
    31e9:	49 8b 81 28 01 00 00 	mov    rax,QWORD PTR [r9+0x128]
    31f0:	4d 85 d2             	test   r10,r10
    31f3:	0f 88 27 40 00 00    	js     0x7220
    31f9:	49 8b 92 30 01 00 00 	mov    rdx,QWORD PTR [r10+0x130]
    3200:	4d 85 d2             	test   r10,r10
    3203:	0f 88 17 40 00 00    	js     0x7220
    3209:	49 89 82 28 01 00 00 	mov    QWORD PTR [r10+0x128],rax
    3210:	4d 85 c9             	test   r9,r9
    3213:	0f 88 07 40 00 00    	js     0x7220
    3219:	4d 8b 99 30 01 00 00 	mov    r11,QWORD PTR [r9+0x130]
    3220:	4d 85 d2             	test   r10,r10
    3223:	0f 88 f7 3f 00 00    	js     0x7220
    3229:	4d 89 9a 30 01 00 00 	mov    QWORD PTR [r10+0x130],r11
    3230:	4d 85 c9             	test   r9,r9
    3233:	0f 88 e7 3f 00 00    	js     0x7220
    3239:	4d 89 81 28 01 00 00 	mov    QWORD PTR [r9+0x128],r8
    3240:	48 85 db             	test   rbx,rbx
    3243:	0f 88 d7 3f 00 00    	js     0x7220
    3249:	48 8b 7b 30          	mov    rdi,QWORD PTR [rbx+0x30]
    324d:	4d 85 c9             	test   r9,r9
    3250:	0f 88 ca 3f 00 00    	js     0x7220
    3256:	49 89 b9 30 01 00 00 	mov    QWORD PTR [r9+0x130],rdi
    325d:	e9 f3 fb ff ff       	jmp    0x2e55
    3262:	4c 8d 14 55 00 00 00 	lea    r10,[rdx*2+0x0]
    3269:	00 
    326a:	41 d1 f8             	sar    r8d,1
    326d:	89 d1                	mov    ecx,edx
    326f:	4c 8b 75 a0          	mov    r14,QWORD PTR [rbp-0x60]
    3273:	4c 89 f6             	mov    rsi,r14
    3276:	4c 8b 7d b0          	mov    r15,QWORD PTR [rbp-0x50]
    327a:	4f 8d 7c d6 10       	lea    r15,[r14+r10*8+0x10]
    327f:	4c 89 e7             	mov    rdi,r12
    3282:	49 89 45 00          	mov    QWORD PTR [r13+0x0],rax
    3286:	4c 89 fa             	mov    rdx,r15
    3289:	4c 89 75 a0          	mov    QWORD PTR [rbp-0x60],r14
    328d:	49 be aa 21 66 55 55 	movabs r14,0x5555556621aa
    3294:	55 00 00 
    3297:	4d 8d 6d f8          	lea    r13,[r13-0x8]
    329b:	4d 89 75 00          	mov    QWORD PTR [r13+0x0],r14
    329f:	4c 89 7d b0          	mov    QWORD PTR [rbp-0x50],r15
    32a3:	e9 69 1a 00 00       	jmp    0x4d11
    32a8:	48 85 db             	test   rbx,rbx
    32ab:	0f 88 6f 3f 00 00    	js     0x7220
    32b1:	44 8b 43 14          	mov    r8d,DWORD PTR [rbx+0x14]
    32b5:	49 8b 45 00          	mov    rax,QWORD PTR [r13+0x0]
    32b9:	e9 80 f9 ff ff       	jmp    0x2c3e
    32be:	4c 8d 04 92          	lea    r8,[rdx+rdx*4]
    32c2:	49 89 55 00          	mov    QWORD PTR [r13+0x0],rdx
    32c6:	49 be c6 21 66 55 55 	movabs r14,0x5555556621c6
    32cd:	55 00 00 
    32d0:	49 8d 96 7a f1 08 00 	lea    rdx,[r14+0x8f17a]
    32d7:	4c 8b 75 98          	mov    r14,QWORD PTR [rbp-0x68]
    32db:	4c 89 f7             	mov    rdi,r14
    32de:	49 89 45 08          	mov    QWORD PTR [r13+0x8],rax
    32e2:	4a 8d 34 c2          	lea    rsi,[rdx+r8*8]
    32e6:	49 bf d8 21 66 55 55 	movabs r15,0x5555556621d8
    32ed:	55 00 00 
    32f0:	4d 8d 6d f8          	lea    r13,[r13-0x8]
    32f4:	4d 89 7d 00          	mov    QWORD PTR [r13+0x0],r15
    32f8:	4c 89 75 98          	mov    QWORD PTR [rbp-0x68],r14
    32fc:	49 be d8 21 66 55 55 	movabs r14,0x5555556621d8
    3303:	55 00 00 
    3306:	4d 8b be 88 b5 0c 00 	mov    r15,QWORD PTR [r14+0xcb588]
    330d:	4d 89 fe             	mov    r14,r15
    3310:	e9 52 37 00 00       	jmp    0x6a67
    3315:	49 8b 45 08          	mov    rax,QWORD PTR [r13+0x8]
    3319:	49 8b 55 00          	mov    rdx,QWORD PTR [r13+0x0]
    331d:	e9 cf f8 ff ff       	jmp    0x2bf1
    3322:	d1 f9                	sar    ecx,1
    3324:	4c 8b 75 a0          	mov    r14,QWORD PTR [rbp-0x60]
    3328:	49 8d b4 06 20 04 00 	lea    rsi,[r14+rax*1+0x420]
    332f:	00 
    3330:	4d 89 f0             	mov    r8,r14
    3333:	4c 89 e7             	mov    rdi,r12
    3336:	49 bf fb 21 66 55 55 	movabs r15,0x5555556621fb
    333d:	55 00 00 
    3340:	4d 8d 6d f8          	lea    r13,[r13-0x8]
    3344:	4d 89 7d 00          	mov    QWORD PTR [r13+0x0],r15
    3348:	4c 89 75 a0          	mov    QWORD PTR [rbp-0x60],r14
    334c:	e9 d2 3a 00 00       	jmp    0x6e23
    3351:	4c 8b 75 a8          	mov    r14,QWORD PTR [rbp-0x58]
    3355:	4d 85 f6             	test   r14,r14
    3358:	0f 88 c2 3e 00 00    	js     0x7220
    335e:	41 8b 8e e4 05 00 00 	mov    ecx,DWORD PTR [r14+0x5e4]
    3365:	4c 89 75 a8          	mov    QWORD PTR [rbp-0x58],r14
    3369:	e9 06 fc ff ff       	jmp    0x2f74
    336e:	4c 8b 75 a8          	mov    r14,QWORD PTR [rbp-0x58]
    3372:	4d 3b b4 24 28 01 00 	cmp    r14,QWORD PTR [r12+0x128]
    3379:	00 
    337a:	4c 89 75 a8          	mov    QWORD PTR [rbp-0x58],r14
    337e:	0f 85 54 03 00 00    	jne    0x36d8
    3384:	49 8b 84 24 30 01 00 	mov    rax,QWORD PTR [r12+0x130]
    338b:	00 
    338c:	4c 8b 75 a0          	mov    r14,QWORD PTR [rbp-0x60]
    3390:	4d 89 b4 24 28 01 00 	mov    QWORD PTR [r12+0x128],r14
    3397:	00 
    3398:	4c 8b 7d 98          	mov    r15,QWORD PTR [rbp-0x68]
    339c:	49 c1 ef 09          	shr    r15,0x9
    33a0:	48 85 db             	test   rbx,rbx
    33a3:	0f 88 77 3e 00 00    	js     0x7220
    33a9:	4c 8b 5b 30          	mov    r11,QWORD PTR [rbx+0x30]
    33ad:	41 81 e7 f8 ff 1f 00 	and    r15d,0x1ffff8
    33b4:	4d 89 9c 24 30 01 00 	mov    QWORD PTR [r12+0x130],r11
    33bb:	00 
    33bc:	48 85 db             	test   rbx,rbx
    33bf:	0f 88 5b 3e 00 00    	js     0x7220
    33c5:	48 89 43 30          	mov    QWORD PTR [rbx+0x30],rax
    33c9:	4c 01 f8             	add    rax,r15
    33cc:	4c 89 75 a0          	mov    QWORD PTR [rbp-0x60],r14
    33d0:	4c 8b 75 a8          	mov    r14,QWORD PTR [rbp-0x58]
    33d4:	48 85 db             	test   rbx,rbx
    33d7:	0f 88 43 3e 00 00    	js     0x7220
    33dd:	4c 89 73 28          	mov    QWORD PTR [rbx+0x28],r14
    33e1:	4c 89 7d 98          	mov    QWORD PTR [rbp-0x68],r15
    33e5:	4c 89 75 a8          	mov    QWORD PTR [rbp-0x58],r14
    33e9:	e9 b8 f9 ff ff       	jmp    0x2da6
    33ee:	4c 8b 75 a0          	mov    r14,QWORD PTR [rbp-0x60]
    33f2:	48 85 db             	test   rbx,rbx
    33f5:	0f 88 25 3e 00 00    	js     0x7220
    33fb:	4c 8b 73 28          	mov    r14,QWORD PTR [rbx+0x28]
    33ff:	4c 8b 7d a8          	mov    r15,QWORD PTR [rbp-0x58]
    3403:	4d 39 f7             	cmp    r15,r14
    3406:	4c 89 7d a8          	mov    QWORD PTR [rbp-0x58],r15
    340a:	4c 89 75 a0          	mov    QWORD PTR [rbp-0x60],r14
    340e:	0f 85 cb 03 00 00    	jne    0x37df
    3414:	4c 8b 75 98          	mov    r14,QWORD PTR [rbp-0x68]
    3418:	4c 89 f0             	mov    rax,r14
    341b:	48 c1 e8 09          	shr    rax,0x9
    341f:	25 f8 ff 1f 00       	and    eax,0x1ffff8
    3424:	48 85 db             	test   rbx,rbx
    3427:	0f 88 f3 3d 00 00    	js     0x7220
    342d:	48 03 43 30          	add    rax,QWORD PTR [rbx+0x30]
    3431:	4c 89 75 98          	mov    QWORD PTR [rbp-0x68],r14
    3435:	e9 6c f9 ff ff       	jmp    0x2da6
    343a:	41 b9 02 00 00 00    	mov    r9d,0x2
    3440:	4c 8b 75 a8          	mov    r14,QWORD PTR [rbp-0x58]
    3444:	4d 3b b4 24 48 01 00 	cmp    r14,QWORD PTR [r12+0x148]
    344b:	00 
    344c:	4c 89 75 a8          	mov    QWORD PTR [rbp-0x58],r14
    3450:	0f 84 75 fd ff ff    	je     0x31cb
    3456:	41 b9 03 00 00 00    	mov    r9d,0x3
    345c:	4c 8b 75 a8          	mov    r14,QWORD PTR [rbp-0x58]
    3460:	4d 3b b4 24 58 01 00 	cmp    r14,QWORD PTR [r12+0x158]
    3467:	00 
    3468:	4c 89 75 a8          	mov    QWORD PTR [rbp-0x58],r14
    346c:	0f 84 59 fd ff ff    	je     0x31cb
    3472:	41 b9 04 00 00 00    	mov    r9d,0x4
    3478:	4c 8b 75 a8          	mov    r14,QWORD PTR [rbp-0x58]
    347c:	4d 3b b4 24 68 01 00 	cmp    r14,QWORD PTR [r12+0x168]
    3483:	00 
    3484:	4c 89 75 a8          	mov    QWORD PTR [rbp-0x58],r14
    3488:	0f 84 3d fd ff ff    	je     0x31cb
    348e:	41 b9 05 00 00 00    	mov    r9d,0x5
    3494:	4c 8b 75 a8          	mov    r14,QWORD PTR [rbp-0x58]
    3498:	4d 3b b4 24 78 01 00 	cmp    r14,QWORD PTR [r12+0x178]
    349f:	00 
    34a0:	4c 89 75 a8          	mov    QWORD PTR [rbp-0x58],r14
    34a4:	0f 84 21 fd ff ff    	je     0x31cb
    34aa:	41 b9 06 00 00 00    	mov    r9d,0x6
    34b0:	4c 8b 75 a8          	mov    r14,QWORD PTR [rbp-0x58]
    34b4:	4d 3b b4 24 88 01 00 	cmp    r14,QWORD PTR [r12+0x188]
    34bb:	00 
    34bc:	4c 89 75 a8          	mov    QWORD PTR [rbp-0x58],r14
    34c0:	0f 84 05 fd ff ff    	je     0x31cb
    34c6:	4c 8b 75 a8          	mov    r14,QWORD PTR [rbp-0x58]
    34ca:	4d 3b b4 24 98 01 00 	cmp    r14,QWORD PTR [r12+0x198]
    34d1:	00 
    34d2:	4c 89 75 a8          	mov    QWORD PTR [rbp-0x58],r14
    34d6:	75 0b                	jne    0x34e3
    34d8:	41 b9 07 00 00 00    	mov    r9d,0x7
    34de:	e9 e8 fc ff ff       	jmp    0x31cb
    34e3:	45 31 c9             	xor    r9d,r9d
    34e6:	41 b8 01 00 00 00    	mov    r8d,0x1
    34ec:	4c 8b 75 98          	mov    r14,QWORD PTR [rbp-0x68]
    34f0:	4c 89 f1             	mov    rcx,r14
    34f3:	4c 8b 7d b0          	mov    r15,QWORD PTR [rbp-0x50]
    34f7:	4c 89 fa             	mov    rdx,r15
    34fa:	4c 89 75 98          	mov    QWORD PTR [rbp-0x68],r14
    34fe:	49 be f6 22 66 55 55 	movabs r14,0x5555556622f6
    3505:	55 00 00 
    3508:	49 8d b6 4a 3c 10 00 	lea    rsi,[r14+0x103c4a]
    350f:	4c 89 e7             	mov    rdi,r12
    3512:	49 be fe 22 66 55 55 	movabs r14,0x5555556622fe
    3519:	55 00 00 
    351c:	4d 8d 6d f8          	lea    r13,[r13-0x8]
    3520:	4d 89 75 00          	mov    QWORD PTR [r13+0x0],r14
    3524:	4c 89 7d b0          	mov    QWORD PTR [rbp-0x50],r15
    3528:	e9 e0 39 00 00       	jmp    0x6f0d
    352d:	e9 36 f4 ff ff       	jmp    0x2968
    3532:	bf 01 00 00 00       	mov    edi,0x1
    3537:	48 89 fe             	mov    rsi,rdi
    353a:	89 fa                	mov    edx,edi
    353c:	48 c1 e6 04          	shl    rsi,0x4
    3540:	4c 8b 75 a8          	mov    r14,QWORD PTR [rbp-0x58]
    3544:	48 85 f6             	test   rsi,rsi
    3547:	0f 88 d3 3c 00 00    	js     0x7220
    354d:	4d 3b b4 34 28 01 00 	cmp    r14,QWORD PTR [r12+rsi*1+0x128]
    3554:	00 
    3555:	4c 89 75 a8          	mov    QWORD PTR [rbp-0x58],r14
    3559:	0f 85 d0 02 00 00    	jne    0x382f
    355f:	83 ea 01             	sub    edx,0x1
    3562:	4c 01 e6             	add    rsi,r12
    3565:	4c 8b 75 98          	mov    r14,QWORD PTR [rbp-0x68]
    3569:	4d 89 f3             	mov    r11,r14
    356c:	48 c1 e2 04          	shl    rdx,0x4
    3570:	48 85 f6             	test   rsi,rsi
    3573:	0f 88 a7 3c 00 00    	js     0x7220
    3579:	48 8b 86 30 01 00 00 	mov    rax,QWORD PTR [rsi+0x130]
    3580:	49 c1 eb 09          	shr    r11,0x9
    3584:	4c 01 e2             	add    rdx,r12
    3587:	41 81 e3 f8 ff 1f 00 	and    r11d,0x1ffff8
    358e:	48 85 d2             	test   rdx,rdx
    3591:	0f 88 89 3c 00 00    	js     0x7220
    3597:	4c 8b 82 28 01 00 00 	mov    r8,QWORD PTR [rdx+0x128]
    359e:	48 85 f6             	test   rsi,rsi
    35a1:	0f 88 79 3c 00 00    	js     0x7220
    35a7:	4c 89 86 28 01 00 00 	mov    QWORD PTR [rsi+0x128],r8
    35ae:	48 85 d2             	test   rdx,rdx
    35b1:	0f 88 69 3c 00 00    	js     0x7220
    35b7:	4c 8b 8a 30 01 00 00 	mov    r9,QWORD PTR [rdx+0x130]
    35be:	48 85 f6             	test   rsi,rsi
    35c1:	0f 88 59 3c 00 00    	js     0x7220
    35c7:	4c 89 8e 30 01 00 00 	mov    QWORD PTR [rsi+0x130],r9
    35ce:	48 85 d2             	test   rdx,rdx
    35d1:	0f 88 49 3c 00 00    	js     0x7220
    35d7:	48 89 8a 28 01 00 00 	mov    QWORD PTR [rdx+0x128],rcx
    35de:	48 85 db             	test   rbx,rbx
    35e1:	0f 88 39 3c 00 00    	js     0x7220
    35e7:	4c 8b 53 30          	mov    r10,QWORD PTR [rbx+0x30]
    35eb:	48 85 d2             	test   rdx,rdx
    35ee:	0f 88 2c 3c 00 00    	js     0x7220
    35f4:	4c 89 92 30 01 00 00 	mov    QWORD PTR [rdx+0x130],r10
    35fb:	48 85 db             	test   rbx,rbx
    35fe:	0f 88 1c 3c 00 00    	js     0x7220
    3604:	48 89 43 30          	mov    QWORD PTR [rbx+0x30],rax
    3608:	4c 01 d8             	add    rax,r11
    360b:	4c 8b 7d a8          	mov    r15,QWORD PTR [rbp-0x58]
    360f:	48 85 db             	test   rbx,rbx
    3612:	0f 88 08 3c 00 00    	js     0x7220
    3618:	4c 89 7b 28          	mov    QWORD PTR [rbx+0x28],r15
    361c:	4c 89 7d a8          	mov    QWORD PTR [rbp-0x58],r15
    3620:	4c 89 75 98          	mov    QWORD PTR [rbp-0x68],r14
    3624:	e9 5e f5 ff ff       	jmp    0x2b87
    3629:	4c 8b 75 b0          	mov    r14,QWORD PTR [rbp-0x50]
    362d:	4c 6b f3 18          	imul   r14,rbx,0x18
    3631:	d1 f8                	sar    eax,1
    3633:	4c 8b 7d a0          	mov    r15,QWORD PTR [rbp-0x60]
    3637:	4d 89 f8             	mov    r8,r15
    363a:	4c 89 e7             	mov    rdi,r12
    363d:	89 c1                	mov    ecx,eax
    363f:	4b 8d b4 37 20 04 00 	lea    rsi,[r15+r14*1+0x420]
    3646:	00 
    3647:	4c 89 75 b0          	mov    QWORD PTR [rbp-0x50],r14
    364b:	49 be 9a 23 66 55 55 	movabs r14,0x55555566239a
    3652:	55 00 00 
    3655:	4d 8d 6d f8          	lea    r13,[r13-0x8]
    3659:	4d 89 75 00          	mov    QWORD PTR [r13+0x0],r14
    365d:	4c 89 7d a0          	mov    QWORD PTR [rbp-0x60],r15
    3661:	e9 bd 37 00 00       	jmp    0x6e23
    3666:	4c 8b 75 b0          	mov    r14,QWORD PTR [rbp-0x50]
    366a:	4c 8b 7d a0          	mov    r15,QWORD PTR [rbp-0x60]
    366e:	4d 85 ff             	test   r15,r15
    3671:	0f 88 a9 3b 00 00    	js     0x7220
    3677:	4d 85 f6             	test   r14,r14
    367a:	0f 88 a0 3b 00 00    	js     0x7220
    3680:	43 8b 84 37 24 04 00 	mov    eax,DWORD PTR [r15+r14*1+0x424]
    3687:	00 
    3688:	4c 89 7d a0          	mov    QWORD PTR [rbp-0x60],r15
    368c:	4c 89 75 b0          	mov    QWORD PTR [rbp-0x50],r14
    3690:	e9 83 fa ff ff       	jmp    0x3118
    3695:	49 89 55 00          	mov    QWORD PTR [r13+0x0],rdx
    3699:	4c 8b 75 98          	mov    r14,QWORD PTR [rbp-0x68]
    369d:	4c 89 f7             	mov    rdi,r14
    36a0:	49 bf b4 23 66 55 55 	movabs r15,0x5555556623b4
    36a7:	55 00 00 
    36aa:	4d 8d 6d f8          	lea    r13,[r13-0x8]
    36ae:	4d 89 7d 00          	mov    QWORD PTR [r13+0x0],r15
    36b2:	4c 89 75 98          	mov    QWORD PTR [rbp-0x68],r14
    36b6:	49 be b4 23 66 55 55 	movabs r14,0x5555556623b4
    36bd:	55 00 00 
    36c0:	4d 8b be 5c e1 0c 00 	mov    r15,QWORD PTR [r14+0xce15c]
    36c7:	4d 89 fe             	mov    r14,r15
    36ca:	e9 a7 33 00 00       	jmp    0x6a76
    36cf:	49 8b 55 00          	mov    rdx,QWORD PTR [r13+0x0]
    36d3:	e9 f0 f9 ff ff       	jmp    0x30c8
    36d8:	41 ba 01 00 00 00    	mov    r10d,0x1
    36de:	4d 89 d1             	mov    r9,r10
    36e1:	45 89 d0             	mov    r8d,r10d
    36e4:	49 c1 e1 04          	shl    r9,0x4
    36e8:	4c 8b 75 a8          	mov    r14,QWORD PTR [rbp-0x58]
    36ec:	4d 85 c9             	test   r9,r9
    36ef:	0f 88 2b 3b 00 00    	js     0x7220
    36f5:	4f 3b b4 21 28 01 00 	cmp    r14,QWORD PTR [r9+r12*1+0x128]
    36fc:	00 
    36fd:	4c 89 75 a8          	mov    QWORD PTR [rbp-0x58],r14
    3701:	0f 85 85 01 00 00    	jne    0x388c
    3707:	41 83 e8 01          	sub    r8d,0x1
    370b:	4d 01 e1             	add    r9,r12
    370e:	49 c1 e0 04          	shl    r8,0x4
    3712:	4d 85 c9             	test   r9,r9
    3715:	0f 88 05 3b 00 00    	js     0x7220
    371b:	49 8b 81 30 01 00 00 	mov    rax,QWORD PTR [r9+0x130]
    3722:	4d 01 e0             	add    r8,r12
    3725:	4c 8b 75 b0          	mov    r14,QWORD PTR [rbp-0x50]
    3729:	4d 85 c0             	test   r8,r8
    372c:	0f 88 ee 3a 00 00    	js     0x7220
    3732:	4d 8b b0 28 01 00 00 	mov    r14,QWORD PTR [r8+0x128]
    3739:	4d 85 c9             	test   r9,r9
    373c:	0f 88 de 3a 00 00    	js     0x7220
    3742:	4d 89 b1 28 01 00 00 	mov    QWORD PTR [r9+0x128],r14
    3749:	4d 85 c0             	test   r8,r8
    374c:	0f 88 ce 3a 00 00    	js     0x7220
    3752:	49 8b 90 30 01 00 00 	mov    rdx,QWORD PTR [r8+0x130]
    3759:	4d 85 c9             	test   r9,r9
    375c:	0f 88 be 3a 00 00    	js     0x7220
    3762:	49 89 91 30 01 00 00 	mov    QWORD PTR [r9+0x130],rdx
    3769:	4c 8b 7d a0          	mov    r15,QWORD PTR [rbp-0x60]
    376d:	4d 85 c0             	test   r8,r8
    3770:	0f 88 aa 3a 00 00    	js     0x7220
    3776:	4d 89 b8 28 01 00 00 	mov    QWORD PTR [r8+0x128],r15
    377d:	48 85 db             	test   rbx,rbx
    3780:	0f 88 9a 3a 00 00    	js     0x7220
    3786:	4c 8b 7b 30          	mov    r15,QWORD PTR [rbx+0x30]
    378a:	4d 85 c0             	test   r8,r8
    378d:	0f 88 8d 3a 00 00    	js     0x7220
    3793:	4d 89 b8 30 01 00 00 	mov    QWORD PTR [r8+0x130],r15
    379a:	4c 89 7d a0          	mov    QWORD PTR [rbp-0x60],r15
    379e:	4c 89 75 b0          	mov    QWORD PTR [rbp-0x50],r14
    37a2:	4c 8b 75 98          	mov    r14,QWORD PTR [rbp-0x68]
    37a6:	49 c1 ee 09          	shr    r14,0x9
    37aa:	48 85 db             	test   rbx,rbx
    37ad:	0f 88 6d 3a 00 00    	js     0x7220
    37b3:	48 89 43 30          	mov    QWORD PTR [rbx+0x30],rax
    37b7:	41 81 e6 f8 ff 1f 00 	and    r14d,0x1ffff8
    37be:	4c 8b 7d a8          	mov    r15,QWORD PTR [rbp-0x58]
    37c2:	48 85 db             	test   rbx,rbx
    37c5:	0f 88 55 3a 00 00    	js     0x7220
    37cb:	4c 89 7b 28          	mov    QWORD PTR [rbx+0x28],r15
    37cf:	4c 01 f0             	add    rax,r14
    37d2:	4c 89 7d a8          	mov    QWORD PTR [rbp-0x58],r15
    37d6:	4c 89 75 98          	mov    QWORD PTR [rbp-0x68],r14
    37da:	e9 c7 f5 ff ff       	jmp    0x2da6
    37df:	4c 8b 75 a8          	mov    r14,QWORD PTR [rbp-0x58]
    37e3:	4d 3b b4 24 28 01 00 	cmp    r14,QWORD PTR [r12+0x128]
    37ea:	00 
    37eb:	4c 89 75 a8          	mov    QWORD PTR [rbp-0x58],r14
    37ef:	0f 85 f4 00 00 00    	jne    0x38e9
    37f5:	4c 8b 75 a0          	mov    r14,QWORD PTR [rbp-0x60]
    37f9:	4d 89 b4 24 28 01 00 	mov    QWORD PTR [r12+0x128],r14
    3800:	00 
    3801:	4c 8b 7d b0          	mov    r15,QWORD PTR [rbp-0x50]
    3805:	48 85 db             	test   rbx,rbx
    3808:	0f 88 12 3a 00 00    	js     0x7220
    380e:	4c 8b 7b 30          	mov    r15,QWORD PTR [rbx+0x30]
    3812:	49 8b 84 24 30 01 00 	mov    rax,QWORD PTR [r12+0x130]
    3819:	00 
    381a:	4d 89 bc 24 30 01 00 	mov    QWORD PTR [r12+0x130],r15
    3821:	00 
    3822:	4c 89 7d b0          	mov    QWORD PTR [rbp-0x50],r15
    3826:	4c 89 75 a0          	mov    QWORD PTR [rbp-0x60],r14
    382a:	e9 73 ff ff ff       	jmp    0x37a2
    382f:	48 83 c7 01          	add    rdi,0x1
    3833:	48 83 ff 08          	cmp    rdi,0x8
    3837:	0f 85 fa fc ff ff    	jne    0x3537
    383d:	45 31 c9             	xor    r9d,r9d
    3840:	41 b8 01 00 00 00    	mov    r8d,0x1
    3846:	4c 8b 75 98          	mov    r14,QWORD PTR [rbp-0x68]
    384a:	4c 89 f1             	mov    rcx,r14
    384d:	4c 8b 7d b0          	mov    r15,QWORD PTR [rbp-0x50]
    3851:	4c 89 fa             	mov    rdx,r15
    3854:	4c 89 75 98          	mov    QWORD PTR [rbp-0x68],r14
    3858:	49 be 81 24 66 55 55 	movabs r14,0x555555662481
    385f:	55 00 00 
    3862:	49 8d b6 bf 3a 10 00 	lea    rsi,[r14+0x103abf]
    3869:	4c 89 e7             	mov    rdi,r12
    386c:	49 be 89 24 66 55 55 	movabs r14,0x555555662489
    3873:	55 00 00 
    3876:	4d 8d 6d f8          	lea    r13,[r13-0x8]
    387a:	4d 89 75 00          	mov    QWORD PTR [r13+0x0],r14
    387e:	4c 89 7d b0          	mov    QWORD PTR [rbp-0x50],r15
    3882:	e9 86 36 00 00       	jmp    0x6f0d
    3887:	e9 fb f2 ff ff       	jmp    0x2b87
    388c:	49 83 c2 01          	add    r10,0x1
    3890:	49 83 fa 08          	cmp    r10,0x8
    3894:	0f 85 44 fe ff ff    	jne    0x36de
    389a:	45 31 c9             	xor    r9d,r9d
    389d:	41 b8 01 00 00 00    	mov    r8d,0x1
    38a3:	4c 8b 75 98          	mov    r14,QWORD PTR [rbp-0x68]
    38a7:	4c 89 f1             	mov    rcx,r14
    38aa:	4c 8b 7d b0          	mov    r15,QWORD PTR [rbp-0x50]
    38ae:	4c 89 fa             	mov    rdx,r15
    38b1:	4c 89 75 98          	mov    QWORD PTR [rbp-0x68],r14
    38b5:	49 be b2 24 66 55 55 	movabs r14,0x5555556624b2
    38bc:	55 00 00 
    38bf:	49 8d b6 8e 3a 10 00 	lea    rsi,[r14+0x103a8e]
    38c6:	4c 89 e7             	mov    rdi,r12
    38c9:	49 be ba 24 66 55 55 	movabs r14,0x5555556624ba
    38d0:	55 00 00 
    38d3:	4d 8d 6d f8          	lea    r13,[r13-0x8]
    38d7:	4d 89 75 00          	mov    QWORD PTR [r13+0x0],r14
    38db:	4c 89 7d b0          	mov    QWORD PTR [rbp-0x50],r15
    38df:	e9 29 36 00 00       	jmp    0x6f0d
    38e4:	e9 bd f4 ff ff       	jmp    0x2da6
    38e9:	ba 01 00 00 00       	mov    edx,0x1
    38ee:	49 89 d1             	mov    r9,rdx
    38f1:	41 89 d0             	mov    r8d,edx
    38f4:	49 c1 e1 04          	shl    r9,0x4
    38f8:	4c 8b 75 a8          	mov    r14,QWORD PTR [rbp-0x58]
    38fc:	4d 85 c9             	test   r9,r9
    38ff:	0f 88 1b 39 00 00    	js     0x7220
    3905:	4f 3b b4 21 28 01 00 	cmp    r14,QWORD PTR [r9+r12*1+0x128]
    390c:	00 
    390d:	4c 89 75 a8          	mov    QWORD PTR [rbp-0x58],r14
    3911:	0f 84 f0 fd ff ff    	je     0x3707
    3917:	48 83 c2 01          	add    rdx,0x1
    391b:	48 83 fa 08          	cmp    rdx,0x8
    391f:	0f 84 75 ff ff ff    	je     0x389a
    3925:	eb c7                	jmp    0x38ee
    3927:	90                   	nop
    3928:	4d 8d 6d f8          	lea    r13,[r13-0x8]
    392c:	4c 8b 75 98          	mov    r14,QWORD PTR [rbp-0x68]
    3930:	4d 89 75 00          	mov    QWORD PTR [r13+0x0],r14
    3934:	49 89 fe             	mov    r14,rdi
    3937:	4d 8d 6d f8          	lea    r13,[r13-0x8]
    393b:	49 89 5d 00          	mov    QWORD PTR [r13+0x0],rbx
    393f:	49 81 ed 98 01 00 00 	sub    r13,0x198
    3946:	4c 8b 7d 88          	mov    r15,QWORD PTR [rbp-0x78]
    394a:	49 8b 47 28          	mov    rax,QWORD PTR [r15+0x28]
    394e:	49 89 85 88 01 00 00 	mov    QWORD PTR [r13+0x188],rax
    3955:	31 c0                	xor    eax,eax
    3957:	4c 89 75 98          	mov    QWORD PTR [rbp-0x68],r14
    395b:	49 be 8b 67 66 55 55 	movabs r14,0x55555566678b
    3962:	55 00 00 
    3965:	41 80 be 8d 9b 0d 00 	cmp    BYTE PTR [r14+0xd9b8d],0x0
    396c:	00 
    396d:	0f 84 16 01 00 00    	je     0x3a89
    3973:	49 be 98 67 66 55 55 	movabs r14,0x555555666798
    397a:	55 00 00 
    397d:	49 8b be 68 a7 0c 00 	mov    rdi,QWORD PTR [r14+0xca768]
    3984:	4c 8b 75 88          	mov    r14,QWORD PTR [rbp-0x78]
    3988:	48 85 ff             	test   rdi,rdi
    398b:	0f 88 8f 38 00 00    	js     0x7220
    3991:	41 80 3c 3e 00       	cmp    BYTE PTR [r14+rdi*1],0x0
    3996:	0f 85 a1 01 00 00    	jne    0x3b3d
    399c:	4c 8b 75 98          	mov    r14,QWORD PTR [rbp-0x68]
    39a0:	4d 85 f6             	test   r14,r14
    39a3:	4c 89 75 98          	mov    QWORD PTR [rbp-0x68],r14
    39a7:	0f 84 05 01 00 00    	je     0x3ab2
    39ad:	4c 8b 75 88          	mov    r14,QWORD PTR [rbp-0x78]
    39b1:	49 03 3e             	add    rdi,QWORD PTR [r14]
    39b4:	48 8d 5f 28          	lea    rbx,[rdi+0x28]
    39b8:	4c 8b 75 98          	mov    r14,QWORD PTR [rbp-0x68]
    39bc:	4c 89 f6             	mov    rsi,r14
    39bf:	4c 89 f1             	mov    rcx,r14
    39c2:	48 c1 ee 1a          	shr    rsi,0x1a
    39c6:	48 81 e1 00 00 00 c0 	and    rcx,0xffffffffc0000000
    39cd:	81 e6 f0 00 00 00    	and    esi,0xf0
    39d3:	48 01 de             	add    rsi,rbx
    39d6:	48 85 f6             	test   rsi,rsi
    39d9:	0f 88 41 38 00 00    	js     0x7220
    39df:	4c 8b 06             	mov    r8,QWORD PTR [rsi]
    39e2:	4c 39 c1             	cmp    rcx,r8
    39e5:	4c 89 75 98          	mov    QWORD PTR [rbp-0x68],r14
    39e9:	0f 85 c7 00 00 00    	jne    0x3ab6
    39ef:	4c 8b 75 98          	mov    r14,QWORD PTR [rbp-0x68]
    39f3:	49 c1 ee 09          	shr    r14,0x9
    39f7:	41 81 e6 f8 ff 1f 00 	and    r14d,0x1ffff8
    39fe:	48 85 f6             	test   rsi,rsi
    3a01:	0f 88 19 38 00 00    	js     0x7220
    3a07:	4c 03 76 08          	add    r14,QWORD PTR [rsi+0x8]
    3a0b:	4c 89 75 98          	mov    QWORD PTR [rbp-0x68],r14
    3a0f:	4c 8b 75 98          	mov    r14,QWORD PTR [rbp-0x68]
    3a13:	4d 85 f6             	test   r14,r14
    3a16:	0f 88 04 38 00 00    	js     0x7220
    3a1c:	49 8b 0e             	mov    rcx,QWORD PTR [r14]
    3a1f:	49 bf f4 67 66 55 55 	movabs r15,0x5555556667f4
    3a26:	55 00 00 
    3a29:	49 8d b7 4c c8 08 00 	lea    rsi,[r15+0x8c84c]
    3a30:	48 c1 e9 30          	shr    rcx,0x30
    3a34:	48 85 f6             	test   rsi,rsi
    3a37:	0f 88 e3 37 00 00    	js     0x7220
    3a3d:	48 8b 04 ce          	mov    rax,QWORD PTR [rsi+rcx*8]
    3a41:	4c 89 75 98          	mov    QWORD PTR [rbp-0x68],r14
    3a45:	49 8b 95 88 01 00 00 	mov    rdx,QWORD PTR [r13+0x188]
    3a4c:	4c 8b 75 88          	mov    r14,QWORD PTR [rbp-0x78]
    3a50:	49 33 56 28          	xor    rdx,QWORD PTR [r14+0x28]
    3a54:	0f 85 d1 02 00 00    	jne    0x3d2b
    3a5a:	49 81 c5 98 01 00 00 	add    r13,0x198
    3a61:	49 8b 5d 00          	mov    rbx,QWORD PTR [r13+0x0]
    3a65:	4d 8d 6d 08          	lea    r13,[r13+0x8]
    3a69:	4c 8b 75 98          	mov    r14,QWORD PTR [rbp-0x68]
    3a6d:	4d 8b 75 00          	mov    r14,QWORD PTR [r13+0x0]
    3a71:	4d 8d 6d 08          	lea    r13,[r13+0x8]
    3a75:	4d 8b 7d 00          	mov    r15,QWORD PTR [r13+0x0]
    3a79:	4d 8d 6d 08          	lea    r13,[r13+0x8]
    3a7d:	4c 89 75 98          	mov    QWORD PTR [rbp-0x68],r14
    3a81:	4d 89 fe             	mov    r14,r15
    3a84:	e9 f7 2e 00 00       	jmp    0x6980
    3a89:	48 85 ff             	test   rdi,rdi
    3a8c:	74 24                	je     0x3ab2
    3a8e:	4c 89 eb             	mov    rbx,r13
    3a91:	48 89 df             	mov    rdi,rbx
    3a94:	49 be 30 68 66 55 55 	movabs r14,0x555555666830
    3a9b:	55 00 00 
    3a9e:	4d 8d 6d f8          	lea    r13,[r13-0x8]
    3aa2:	4d 89 75 00          	mov    QWORD PTR [r13+0x0],r14
    3aa6:	e9 ac 33 00 00       	jmp    0x6e57
    3aab:	31 ff                	xor    edi,edi
    3aad:	e9 06 ff ff ff       	jmp    0x39b8
    3ab2:	31 c0                	xor    eax,eax
    3ab4:	eb 8f                	jmp    0x3a45
    3ab6:	48 85 db             	test   rbx,rbx
    3ab9:	0f 88 61 37 00 00    	js     0x7220
    3abf:	48 3b 8b 00 01 00 00 	cmp    rcx,QWORD PTR [rbx+0x100]
    3ac6:	0f 85 b3 00 00 00    	jne    0x3b7f
    3acc:	48 85 db             	test   rbx,rbx
    3acf:	0f 88 4b 37 00 00    	js     0x7220
    3ad5:	4c 89 83 00 01 00 00 	mov    QWORD PTR [rbx+0x100],r8
    3adc:	48 85 f6             	test   rsi,rsi
    3adf:	0f 88 3b 37 00 00    	js     0x7220
    3ae5:	4c 8b 56 08          	mov    r10,QWORD PTR [rsi+0x8]
    3ae9:	48 85 db             	test   rbx,rbx
    3aec:	0f 88 2e 37 00 00    	js     0x7220
    3af2:	48 8b 83 08 01 00 00 	mov    rax,QWORD PTR [rbx+0x108]
    3af9:	48 85 db             	test   rbx,rbx
    3afc:	0f 88 1e 37 00 00    	js     0x7220
    3b02:	4c 89 93 08 01 00 00 	mov    QWORD PTR [rbx+0x108],r10
    3b09:	4c 8b 75 98          	mov    r14,QWORD PTR [rbp-0x68]
    3b0d:	49 c1 ee 09          	shr    r14,0x9
    3b11:	48 85 f6             	test   rsi,rsi
    3b14:	0f 88 06 37 00 00    	js     0x7220
    3b1a:	48 89 0e             	mov    QWORD PTR [rsi],rcx
    3b1d:	41 81 e6 f8 ff 1f 00 	and    r14d,0x1ffff8
    3b24:	48 85 f6             	test   rsi,rsi
    3b27:	0f 88 f3 36 00 00    	js     0x7220
    3b2d:	48 89 46 08          	mov    QWORD PTR [rsi+0x8],rax
    3b31:	49 01 c6             	add    r14,rax
    3b34:	4c 89 75 98          	mov    QWORD PTR [rbp-0x68],r14
    3b38:	e9 d2 fe ff ff       	jmp    0x3a0f
    3b3d:	4c 8b 75 88          	mov    r14,QWORD PTR [rbp-0x78]
    3b41:	49 03 3e             	add    rdi,QWORD PTR [r14]
    3b44:	31 f6                	xor    esi,esi
    3b46:	49 bf 98 68 66 55 55 	movabs r15,0x555555666898
    3b4d:	55 00 00 
    3b50:	4d 8d 6d f8          	lea    r13,[r13-0x8]
    3b54:	4d 89 7d 00          	mov    QWORD PTR [r13+0x0],r15
    3b58:	e9 1c 35 00 00       	jmp    0x7079
    3b5d:	48 89 c7             	mov    rdi,rax
    3b60:	4c 8b 75 98          	mov    r14,QWORD PTR [rbp-0x68]
    3b64:	4d 85 f6             	test   r14,r14
    3b67:	4c 89 75 98          	mov    QWORD PTR [rbp-0x68],r14
    3b6b:	0f 84 41 ff ff ff    	je     0x3ab2
    3b71:	48 85 c0             	test   rax,rax
    3b74:	0f 85 3a fe ff ff    	jne    0x39b4
    3b7a:	e9 0f ff ff ff       	jmp    0x3a8e
    3b7f:	41 ba 01 00 00 00    	mov    r10d,0x1
    3b85:	48 85 db             	test   rbx,rbx
    3b88:	0f 88 92 36 00 00    	js     0x7220
    3b8e:	48 3b 8b 10 01 00 00 	cmp    rcx,QWORD PTR [rbx+0x110]
    3b95:	0f 85 98 00 00 00    	jne    0x3c33
    3b9b:	41 8d 7a ff          	lea    edi,[r10-0x1]
    3b9f:	45 89 d1             	mov    r9d,r10d
    3ba2:	48 c1 e7 04          	shl    rdi,0x4
    3ba6:	49 c1 e1 04          	shl    r9,0x4
    3baa:	48 8d 14 3b          	lea    rdx,[rbx+rdi*1]
    3bae:	49 01 d9             	add    r9,rbx
    3bb1:	48 85 d2             	test   rdx,rdx
    3bb4:	0f 88 66 36 00 00    	js     0x7220
    3bba:	4c 8b 9a 00 01 00 00 	mov    r11,QWORD PTR [rdx+0x100]
    3bc1:	4d 85 c9             	test   r9,r9
    3bc4:	0f 88 56 36 00 00    	js     0x7220
    3bca:	49 8b 81 08 01 00 00 	mov    rax,QWORD PTR [r9+0x108]
    3bd1:	4d 85 c9             	test   r9,r9
    3bd4:	0f 88 46 36 00 00    	js     0x7220
    3bda:	4d 89 99 00 01 00 00 	mov    QWORD PTR [r9+0x100],r11
    3be1:	48 85 d2             	test   rdx,rdx
    3be4:	0f 88 36 36 00 00    	js     0x7220
    3bea:	48 8b 9a 08 01 00 00 	mov    rbx,QWORD PTR [rdx+0x108]
    3bf1:	4d 85 c9             	test   r9,r9
    3bf4:	0f 88 26 36 00 00    	js     0x7220
    3bfa:	49 89 99 08 01 00 00 	mov    QWORD PTR [r9+0x108],rbx
    3c01:	48 85 d2             	test   rdx,rdx
    3c04:	0f 88 16 36 00 00    	js     0x7220
    3c0a:	4c 89 82 00 01 00 00 	mov    QWORD PTR [rdx+0x100],r8
    3c11:	48 85 f6             	test   rsi,rsi
    3c14:	0f 88 06 36 00 00    	js     0x7220
    3c1a:	4c 8b 46 08          	mov    r8,QWORD PTR [rsi+0x8]
    3c1e:	48 85 d2             	test   rdx,rdx
    3c21:	0f 88 f9 35 00 00    	js     0x7220
    3c27:	4c 89 82 08 01 00 00 	mov    QWORD PTR [rdx+0x108],r8
    3c2e:	e9 d6 fe ff ff       	jmp    0x3b09
    3c33:	41 ba 02 00 00 00    	mov    r10d,0x2
    3c39:	48 85 db             	test   rbx,rbx
    3c3c:	0f 88 de 35 00 00    	js     0x7220
    3c42:	48 39 8b 20 01 00 00 	cmp    QWORD PTR [rbx+0x120],rcx
    3c49:	0f 84 4c ff ff ff    	je     0x3b9b
    3c4f:	41 ba 03 00 00 00    	mov    r10d,0x3
    3c55:	48 85 db             	test   rbx,rbx
    3c58:	0f 88 c2 35 00 00    	js     0x7220
    3c5e:	48 39 8b 30 01 00 00 	cmp    QWORD PTR [rbx+0x130],rcx
    3c65:	0f 84 30 ff ff ff    	je     0x3b9b
    3c6b:	41 ba 04 00 00 00    	mov    r10d,0x4
    3c71:	48 85 db             	test   rbx,rbx
    3c74:	0f 88 a6 35 00 00    	js     0x7220
    3c7a:	48 3b 8b 40 01 00 00 	cmp    rcx,QWORD PTR [rbx+0x140]
    3c81:	0f 84 14 ff ff ff    	je     0x3b9b
    3c87:	41 ba 05 00 00 00    	mov    r10d,0x5
    3c8d:	48 85 db             	test   rbx,rbx
    3c90:	0f 88 8a 35 00 00    	js     0x7220
    3c96:	48 3b 8b 50 01 00 00 	cmp    rcx,QWORD PTR [rbx+0x150]
    3c9d:	0f 84 f8 fe ff ff    	je     0x3b9b
    3ca3:	41 ba 06 00 00 00    	mov    r10d,0x6
    3ca9:	48 85 db             	test   rbx,rbx
    3cac:	0f 88 6e 35 00 00    	js     0x7220
    3cb2:	48 3b 8b 60 01 00 00 	cmp    rcx,QWORD PTR [rbx+0x160]
    3cb9:	0f 84 dc fe ff ff    	je     0x3b9b
    3cbf:	48 85 db             	test   rbx,rbx
    3cc2:	0f 88 58 35 00 00    	js     0x7220
    3cc8:	48 3b 8b 70 01 00 00 	cmp    rcx,QWORD PTR [rbx+0x170]
    3ccf:	75 0b                	jne    0x3cdc
    3cd1:	41 ba 07 00 00 00    	mov    r10d,0x7
    3cd7:	e9 bf fe ff ff       	jmp    0x3b9b
    3cdc:	4c 8b 75 98          	mov    r14,QWORD PTR [rbp-0x68]
    3ce0:	4c 89 f1             	mov    rcx,r14
    3ce3:	45 31 c9             	xor    r9d,r9d
    3ce6:	41 b8 01 00 00 00    	mov    r8d,0x1
    3cec:	48 89 da             	mov    rdx,rbx
    3cef:	49 bf 8e 69 66 55 55 	movabs r15,0x55555566698e
    3cf6:	55 00 00 
    3cf9:	49 8d b7 b2 f5 0f 00 	lea    rsi,[r15+0xff5b2]
    3d00:	49 bf 93 69 66 55 55 	movabs r15,0x555555666993
    3d07:	55 00 00 
    3d0a:	4d 8d 6d f8          	lea    r13,[r13-0x8]
    3d0e:	4d 89 7d 00          	mov    QWORD PTR [r13+0x0],r15
    3d12:	4c 89 75 98          	mov    QWORD PTR [rbp-0x68],r14
    3d16:	e9 f2 31 00 00       	jmp    0x6f0d
    3d1b:	4c 8b 75 98          	mov    r14,QWORD PTR [rbp-0x68]
    3d1f:	49 89 c6             	mov    r14,rax
    3d22:	4c 89 75 98          	mov    QWORD PTR [rbp-0x68],r14
    3d26:	e9 e4 fc ff ff       	jmp    0x3a0f
    3d2b:	49 be a0 69 66 55 55 	movabs r14,0x5555556669a0
    3d32:	55 00 00 
    3d35:	4d 8d 6d f8          	lea    r13,[r13-0x8]
    3d39:	4d 89 75 00          	mov    QWORD PTR [r13+0x0],r14
    3d3d:	e9 ed 33 00 00       	jmp    0x712f
    3d42:	90                   	nop
    3d43:	4d 8d 6d f8          	lea    r13,[r13-0x8]
    3d47:	4c 8b 75 a8          	mov    r14,QWORD PTR [rbp-0x58]
    3d4b:	4d 89 75 00          	mov    QWORD PTR [r13+0x0],r14
    3d4f:	4d 8d 6d f8          	lea    r13,[r13-0x8]
    3d53:	4c 8b 7d a0          	mov    r15,QWORD PTR [rbp-0x60]
    3d57:	4d 89 7d 00          	mov    QWORD PTR [r13+0x0],r15
    3d5b:	4d 8d 6d f8          	lea    r13,[r13-0x8]
    3d5f:	4c 89 75 a8          	mov    QWORD PTR [rbp-0x58],r14
    3d63:	4c 8b 75 98          	mov    r14,QWORD PTR [rbp-0x68]
    3d67:	4d 89 75 00          	mov    QWORD PTR [r13+0x0],r14
    3d6b:	49 89 fe             	mov    r14,rdi
    3d6e:	4d 8d 6d f8          	lea    r13,[r13-0x8]
    3d72:	4d 89 65 00          	mov    QWORD PTR [r13+0x0],r12
    3d76:	4d 89 f4             	mov    r12,r14
    3d79:	4d 8d 6d f8          	lea    r13,[r13-0x8]
    3d7d:	49 89 5d 00          	mov    QWORD PTR [r13+0x0],rbx
    3d81:	4c 89 f3             	mov    rbx,r14
    3d84:	49 81 e4 00 00 00 c0 	and    r12,0xffffffffc0000000
    3d8b:	48 c1 eb 1e          	shr    rbx,0x1e
    3d8f:	83 e3 0f             	and    ebx,0xf
    3d92:	49 81 ed 10 03 00 00 	sub    r13,0x310
    3d99:	4c 89 75 98          	mov    QWORD PTR [rbp-0x68],r14
    3d9d:	4c 8b 75 88          	mov    r14,QWORD PTR [rbp-0x78]
    3da1:	49 8b 46 28          	mov    rax,QWORD PTR [r14+0x28]
    3da5:	49 89 85 08 03 00 00 	mov    QWORD PTR [r13+0x308],rax
    3dac:	31 c0                	xor    eax,eax
    3dae:	4d 89 ef             	mov    r15,r13
    3db1:	4c 89 ff             	mov    rdi,r15
    3db4:	4c 89 75 88          	mov    QWORD PTR [rbp-0x78],r14
    3db8:	49 be e8 69 66 55 55 	movabs r14,0x5555556669e8
    3dbf:	55 00 00 
    3dc2:	4d 8d 6d f8          	lea    r13,[r13-0x8]
    3dc6:	4d 89 75 00          	mov    QWORD PTR [r13+0x0],r14
    3dca:	4c 89 7d a0          	mov    QWORD PTR [rbp-0x60],r15
    3dce:	e9 84 30 00 00       	jmp    0x6e57
    3dd3:	48 89 da             	mov    rdx,rbx
    3dd6:	49 8d 85 10 03 00 00 	lea    rax,[r13+0x310]
    3ddd:	48 c1 e2 04          	shl    rdx,0x4
    3de1:	48 85 d2             	test   rdx,rdx
    3de4:	0f 88 36 34 00 00    	js     0x7220
    3dea:	4e 8b 04 2a          	mov    r8,QWORD PTR [rdx+r13*1]
    3dee:	48 8d 0c 10          	lea    rcx,[rax+rdx*1]
    3df2:	4d 39 c4             	cmp    r12,r8
    3df5:	0f 85 35 03 00 00    	jne    0x4130
    3dfb:	4c 8b 75 98          	mov    r14,QWORD PTR [rbp-0x68]
    3dff:	4c 89 f0             	mov    rax,r14
    3e02:	48 c1 e8 09          	shr    rax,0x9
    3e06:	25 f8 ff 1f 00       	and    eax,0x1ffff8
    3e0b:	48 85 d2             	test   rdx,rdx
    3e0e:	0f 88 0c 34 00 00    	js     0x7220
    3e14:	4a 03 44 2a 08       	add    rax,QWORD PTR [rdx+r13*1+0x8]
    3e19:	4c 89 75 98          	mov    QWORD PTR [rbp-0x68],r14
    3e1d:	48 85 c0             	test   rax,rax
    3e20:	0f 88 fa 33 00 00    	js     0x7220
    3e26:	48 8b 00             	mov    rax,QWORD PTR [rax]
    3e29:	a8 01                	test   al,0x1
    3e2b:	0f 84 f7 02 00 00    	je     0x4128
    3e31:	4c 8b 75 a8          	mov    r14,QWORD PTR [rbp-0x58]
    3e35:	4d 8d b5 80 01 00 00 	lea    r14,[r13+0x180]
    3e3c:	4c 89 f7             	mov    rdi,r14
    3e3f:	49 bf 34 6a 66 55 55 	movabs r15,0x555555666a34
    3e46:	55 00 00 
    3e49:	4d 8d 6d f8          	lea    r13,[r13-0x8]
    3e4d:	4d 89 7d 00          	mov    QWORD PTR [r13+0x0],r15
    3e51:	4c 89 75 a8          	mov    QWORD PTR [rbp-0x58],r14
    3e55:	e9 fd 2f 00 00       	jmp    0x6e57
    3e5a:	49 89 d8             	mov    r8,rbx
    3e5d:	49 8d 8d 10 03 00 00 	lea    rcx,[r13+0x310]
    3e64:	49 c1 e0 04          	shl    r8,0x4
    3e68:	4d 85 c0             	test   r8,r8
    3e6b:	0f 88 af 33 00 00    	js     0x7220
    3e71:	4f 8b 94 28 80 01 00 	mov    r10,QWORD PTR [r8+r13*1+0x180]
    3e78:	00 
    3e79:	4d 8d 0c 08          	lea    r9,[r8+rcx*1]
    3e7d:	4d 39 d4             	cmp    r12,r10
    3e80:	0f 85 18 03 00 00    	jne    0x419e
    3e86:	4c 8b 75 98          	mov    r14,QWORD PTR [rbp-0x68]
    3e8a:	49 c1 ee 09          	shr    r14,0x9
    3e8e:	41 81 e6 f8 ff 1f 00 	and    r14d,0x1ffff8
    3e95:	4d 85 c0             	test   r8,r8
    3e98:	0f 88 82 33 00 00    	js     0x7220
    3e9e:	4f 03 b4 28 88 01 00 	add    r14,QWORD PTR [r8+r13*1+0x188]
    3ea5:	00 
    3ea6:	4c 89 75 98          	mov    QWORD PTR [rbp-0x68],r14
    3eaa:	4c 8b 75 98          	mov    r14,QWORD PTR [rbp-0x68]
    3eae:	4d 85 f6             	test   r14,r14
    3eb1:	0f 88 69 33 00 00    	js     0x7220
    3eb7:	49 8b 1e             	mov    rbx,QWORD PTR [r14]
    3eba:	49 bf 76 6a 66 55 55 	movabs r15,0x555555666a76
    3ec1:	55 00 00 
    3ec4:	4d 8d 87 0a 0c 0f 00 	lea    r8,[r15+0xf0c0a]
    3ecb:	48 c1 e3 10          	shl    rbx,0x10
    3ecf:	48 c1 fb 10          	sar    rbx,0x10
    3ed3:	48 83 e3 fe          	and    rbx,0xfffffffffffffffe
    3ed7:	48 85 db             	test   rbx,rbx
    3eda:	0f 88 40 33 00 00    	js     0x7220
    3ee0:	4c 8b 23             	mov    r12,QWORD PTR [rbx]
    3ee3:	41 81 e4 ff 0f 00 00 	and    r12d,0xfff
    3eea:	4c 8b 7d a0          	mov    r15,QWORD PTR [rbp-0x60]
    3eee:	4d 85 c0             	test   r8,r8
    3ef1:	0f 88 29 33 00 00    	js     0x7220
    3ef7:	4f 8b 3c e0          	mov    r15,QWORD PTR [r8+r12*8]
    3efb:	48 85 db             	test   rbx,rbx
    3efe:	0f 88 1c 33 00 00    	js     0x7220
    3f04:	48 8b 0b             	mov    rcx,QWORD PTR [rbx]
    3f07:	48 c1 e9 12          	shr    rcx,0x12
    3f0b:	44 0f b6 f1          	movzx  r14d,cl
    3f0f:	4d 89 f1             	mov    r9,r14
    3f12:	49 c1 e1 05          	shl    r9,0x5
    3f16:	4d 01 f1             	add    r9,r14
    3f19:	49 c1 e1 03          	shl    r9,0x3
    3f1d:	4c 89 75 98          	mov    QWORD PTR [rbp-0x68],r14
    3f21:	4c 8b 75 a8          	mov    r14,QWORD PTR [rbp-0x58]
    3f25:	4f 8d b4 0f 18 40 00 	lea    r14,[r15+r9*1+0x4018]
    3f2c:	00 
    3f2d:	4f 8d a4 0f d8 3f 00 	lea    r12,[r15+r9*1+0x3fd8]
    3f34:	00 
    3f35:	4c 89 f7             	mov    rdi,r14
    3f38:	4c 89 75 a8          	mov    QWORD PTR [rbp-0x58],r14
    3f3c:	49 be c0 6a 66 55 55 	movabs r14,0x555555666ac0
    3f43:	55 00 00 
    3f46:	4d 8d 6d f8          	lea    r13,[r13-0x8]
    3f4a:	4d 89 75 00          	mov    QWORD PTR [r13+0x0],r14
    3f4e:	4c 89 7d a0          	mov    QWORD PTR [rbp-0x60],r15
    3f52:	e9 e6 2e 00 00       	jmp    0x6e3d
    3f57:	85 c0                	test   eax,eax
    3f59:	0f 85 aa 01 00 00    	jne    0x4109
    3f5f:	49 83 44 24 38 01    	add    QWORD PTR [r12+0x38],0x1
    3f65:	49 83 7c 24 30 00    	cmp    QWORD PTR [r12+0x30],0x0
    3f6b:	74 0f                	je     0x3f7c
    3f6d:	49 83 44 24 28 01    	add    QWORD PTR [r12+0x28],0x1
    3f73:	49 c7 44 24 30 00 00 	mov    QWORD PTR [r12+0x30],0x0
    3f7a:	00 00 
    3f7c:	4c 8b 75 98          	mov    r14,QWORD PTR [rbp-0x68]
    3f80:	4d 89 f2             	mov    r10,r14
    3f83:	45 31 e4             	xor    r12d,r12d
    3f86:	49 c1 e2 05          	shl    r10,0x5
    3f8a:	4d 01 f2             	add    r10,r14
    3f8d:	4c 8b 7d a0          	mov    r15,QWORD PTR [rbp-0x60]
    3f91:	4f 8d 1c d7          	lea    r11,[r15+r10*8]
    3f95:	4d 85 db             	test   r11,r11
    3f98:	0f 88 82 32 00 00    	js     0x7220
    3f9e:	4d 8b bb 40 40 00 00 	mov    r15,QWORD PTR [r11+0x4040]
    3fa5:	4c 39 fb             	cmp    rbx,r15
    3fa8:	4c 89 7d a0          	mov    QWORD PTR [rbp-0x60],r15
    3fac:	4c 89 75 98          	mov    QWORD PTR [rbp-0x68],r14
    3fb0:	0f 84 c5 00 00 00    	je     0x407b
    3fb6:	48 85 db             	test   rbx,rbx
    3fb9:	0f 88 61 32 00 00    	js     0x7220
    3fbf:	48 8b 03             	mov    rax,QWORD PTR [rbx]
    3fc2:	48 c1 e8 1a          	shr    rax,0x1a
    3fc6:	25 ff 03 00 00       	and    eax,0x3ff
    3fcb:	0f 84 aa 00 00 00    	je     0x407b
    3fd1:	4d 85 db             	test   r11,r11
    3fd4:	0f 88 46 32 00 00    	js     0x7220
    3fda:	49 8b 9b 98 40 00 00 	mov    rbx,QWORD PTR [r11+0x4098]
    3fe1:	4c 8b 75 98          	mov    r14,QWORD PTR [rbp-0x68]
    3fe5:	4e 8d 04 b5 00 00 00 	lea    r8,[r14*4+0x0]
    3fec:	00 
    3fed:	49 bf 1e 6b 66 55 55 	movabs r15,0x555555666b1e
    3ff4:	55 00 00 
    3ff7:	49 8d 97 22 a8 08 00 	lea    rdx,[r15+0x8a822]
    3ffe:	4d 85 db             	test   r11,r11
    4001:	0f 88 19 32 00 00    	js     0x7220
    4007:	49 8b b3 70 40 00 00 	mov    rsi,QWORD PTR [r11+0x4070]
    400e:	48 85 d2             	test   rdx,rdx
    4011:	0f 88 09 32 00 00    	js     0x7220
    4017:	46 8b 74 c2 10       	mov    r14d,DWORD PTR [rdx+r8*8+0x10]
    401c:	41 89 d9             	mov    r9d,ebx
    401f:	4c 8b 7d a0          	mov    r15,QWORD PTR [rbp-0x60]
    4023:	4d 85 ff             	test   r15,r15
    4026:	4c 89 7d a0          	mov    QWORD PTR [rbp-0x60],r15
    402a:	4c 89 75 98          	mov    QWORD PTR [rbp-0x68],r14
    402e:	74 32                	je     0x4062
    4030:	4c 8b 75 a0          	mov    r14,QWORD PTR [rbp-0x60]
    4034:	4d 85 f6             	test   r14,r14
    4037:	0f 88 e3 31 00 00    	js     0x7220
    403d:	49 8b 0e             	mov    rcx,QWORD PTR [r14]
    4040:	4c 8b 7d 98          	mov    r15,QWORD PTR [rbp-0x68]
    4044:	44 89 ff             	mov    edi,r15d
    4047:	44 8d 4b ff          	lea    r9d,[rbx-0x1]
    404b:	48 c1 e9 1a          	shr    rcx,0x1a
    404f:	81 e1 ff 03 00 00    	and    ecx,0x3ff
    4055:	29 cf                	sub    edi,ecx
    4057:	48 29 fe             	sub    rsi,rdi
    405a:	4c 89 7d 98          	mov    QWORD PTR [rbp-0x68],r15
    405e:	4c 89 75 a0          	mov    QWORD PTR [rbp-0x60],r14
    4062:	4c 8b 75 98          	mov    r14,QWORD PTR [rbp-0x68]
    4066:	41 29 c6             	sub    r14d,eax
    4069:	45 31 e4             	xor    r12d,r12d
    406c:	45 0f af f1          	imul   r14d,r9d
    4070:	49 39 f6             	cmp    r14,rsi
    4073:	40 0f 96 c5          	setbe  bpl
    4077:	4c 89 75 98          	mov    QWORD PTR [rbp-0x68],r14
    407b:	4c 8b 75 a8          	mov    r14,QWORD PTR [rbp-0x58]
    407f:	4c 89 f7             	mov    rdi,r14
    4082:	49 bf 64 6b 66 55 55 	movabs r15,0x555555666b64
    4089:	55 00 00 
    408c:	4d 8d 6d f8          	lea    r13,[r13-0x8]
    4090:	4d 89 7d 00          	mov    QWORD PTR [r13+0x0],r15
    4094:	4c 89 75 a8          	mov    QWORD PTR [rbp-0x58],r14
    4098:	e9 fa 30 00 00       	jmp    0x7197
    409d:	49 8b 85 08 03 00 00 	mov    rax,QWORD PTR [r13+0x308]
    40a4:	4c 8b 75 88          	mov    r14,QWORD PTR [rbp-0x78]
    40a8:	49 33 46 28          	xor    rax,QWORD PTR [r14+0x28]
    40ac:	0f 85 ce 04 00 00    	jne    0x4580
    40b2:	49 81 c5 10 03 00 00 	add    r13,0x310
    40b9:	44 89 e0             	mov    eax,r12d
    40bc:	49 8b 5d 00          	mov    rbx,QWORD PTR [r13+0x0]
    40c0:	4d 8d 6d 08          	lea    r13,[r13+0x8]
    40c4:	4d 8b 65 00          	mov    r12,QWORD PTR [r13+0x0]
    40c8:	4d 8d 6d 08          	lea    r13,[r13+0x8]
    40cc:	4c 8b 75 98          	mov    r14,QWORD PTR [rbp-0x68]
    40d0:	4d 8b 75 00          	mov    r14,QWORD PTR [r13+0x0]
    40d4:	4d 8d 6d 08          	lea    r13,[r13+0x8]
    40d8:	4c 8b 7d a0          	mov    r15,QWORD PTR [rbp-0x60]
    40dc:	4d 8b 7d 00          	mov    r15,QWORD PTR [r13+0x0]
    40e0:	4d 8d 6d 08          	lea    r13,[r13+0x8]
    40e4:	4c 89 75 98          	mov    QWORD PTR [rbp-0x68],r14
    40e8:	4c 8b 75 a8          	mov    r14,QWORD PTR [rbp-0x58]
    40ec:	4d 8b 75 00          	mov    r14,QWORD PTR [r13+0x0]
    40f0:	4d 8d 6d 08          	lea    r13,[r13+0x8]
    40f4:	4c 89 75 a8          	mov    QWORD PTR [rbp-0x58],r14
    40f8:	4d 8b 75 00          	mov    r14,QWORD PTR [r13+0x0]
    40fc:	4d 8d 6d 08          	lea    r13,[r13+0x8]
    4100:	4c 89 7d a0          	mov    QWORD PTR [rbp-0x60],r15
    4104:	e9 0d 28 00 00       	jmp    0x6916
    4109:	4c 89 e7             	mov    rdi,r12
    410c:	49 be 98 6b 66 55 55 	movabs r14,0x555555666b98
    4113:	55 00 00 
    4116:	4d 8d 6d f8          	lea    r13,[r13-0x8]
    411a:	4d 89 75 00          	mov    QWORD PTR [r13+0x0],r14
    411e:	e9 04 2e 00 00       	jmp    0x6f27
    4123:	e9 37 fe ff ff       	jmp    0x3f5f
    4128:	45 31 e4             	xor    r12d,r12d
    412b:	e9 6d ff ff ff       	jmp    0x409d
    4130:	4d 3b a5 00 01 00 00 	cmp    r12,QWORD PTR [r13+0x100]
    4137:	0f 85 d6 00 00 00    	jne    0x4213
    413d:	48 85 c9             	test   rcx,rcx
    4140:	0f 88 da 30 00 00    	js     0x7220
    4146:	48 8b 81 f8 fc ff ff 	mov    rax,QWORD PTR [rcx-0x308]
    414d:	49 8b 95 08 01 00 00 	mov    rdx,QWORD PTR [r13+0x108]
    4154:	4d 89 85 00 01 00 00 	mov    QWORD PTR [r13+0x100],r8
    415b:	48 85 c9             	test   rcx,rcx
    415e:	0f 88 bc 30 00 00    	js     0x7220
    4164:	4c 89 a1 f0 fc ff ff 	mov    QWORD PTR [rcx-0x310],r12
    416b:	49 89 85 08 01 00 00 	mov    QWORD PTR [r13+0x108],rax
    4172:	4c 8b 75 98          	mov    r14,QWORD PTR [rbp-0x68]
    4176:	4c 89 f0             	mov    rax,r14
    4179:	48 c1 e8 09          	shr    rax,0x9
    417d:	48 85 c9             	test   rcx,rcx
    4180:	0f 88 9a 30 00 00    	js     0x7220
    4186:	48 89 91 f8 fc ff ff 	mov    QWORD PTR [rcx-0x308],rdx
    418d:	25 f8 ff 1f 00       	and    eax,0x1ffff8
    4192:	48 01 d0             	add    rax,rdx
    4195:	4c 89 75 98          	mov    QWORD PTR [rbp-0x68],r14
    4199:	e9 7f fc ff ff       	jmp    0x3e1d
    419e:	4d 3b a5 80 02 00 00 	cmp    r12,QWORD PTR [r13+0x280]
    41a5:	0f 85 4d 01 00 00    	jne    0x42f8
    41ab:	49 8b 9d 88 02 00 00 	mov    rbx,QWORD PTR [r13+0x288]
    41b2:	4c 8b 75 a8          	mov    r14,QWORD PTR [rbp-0x58]
    41b6:	4d 85 c9             	test   r9,r9
    41b9:	0f 88 61 30 00 00    	js     0x7220
    41bf:	4d 8b b1 78 fe ff ff 	mov    r14,QWORD PTR [r9-0x188]
    41c6:	4c 8b 7d 98          	mov    r15,QWORD PTR [rbp-0x68]
    41ca:	49 c1 ef 09          	shr    r15,0x9
    41ce:	4d 89 95 80 02 00 00 	mov    QWORD PTR [r13+0x280],r10
    41d5:	41 81 e7 f8 ff 1f 00 	and    r15d,0x1ffff8
    41dc:	4d 85 c9             	test   r9,r9
    41df:	0f 88 3b 30 00 00    	js     0x7220
    41e5:	4d 89 a1 70 fe ff ff 	mov    QWORD PTR [r9-0x190],r12
    41ec:	4d 89 b5 88 02 00 00 	mov    QWORD PTR [r13+0x288],r14
    41f3:	49 01 df             	add    r15,rbx
    41f6:	4d 85 c9             	test   r9,r9
    41f9:	0f 88 21 30 00 00    	js     0x7220
    41ff:	49 89 99 78 fe ff ff 	mov    QWORD PTR [r9-0x188],rbx
    4206:	4c 89 7d 98          	mov    QWORD PTR [rbp-0x68],r15
    420a:	4c 89 75 a8          	mov    QWORD PTR [rbp-0x58],r14
    420e:	e9 97 fc ff ff       	jmp    0x3eaa
    4213:	41 b9 01 00 00 00    	mov    r9d,0x1
    4219:	4d 3b a5 10 01 00 00 	cmp    r12,QWORD PTR [r13+0x110]
    4220:	0f 85 cd 01 00 00    	jne    0x43f3
    4226:	44 89 ce             	mov    esi,r9d
    4229:	41 83 e9 01          	sub    r9d,0x1
    422d:	4c 8b 75 a8          	mov    r14,QWORD PTR [rbp-0x58]
    4231:	49 89 de             	mov    r14,rbx
    4234:	4c 8b 7d 98          	mov    r15,QWORD PTR [rbp-0x68]
    4238:	4c 89 f8             	mov    rax,r15
    423b:	49 c1 e6 04          	shl    r14,0x4
    423f:	48 83 c6 10          	add    rsi,0x10
    4243:	49 83 c1 10          	add    r9,0x10
    4247:	48 c1 e8 09          	shr    rax,0x9
    424b:	49 c1 e1 04          	shl    r9,0x4
    424f:	48 c1 e6 04          	shl    rsi,0x4
    4253:	4c 89 7d 98          	mov    QWORD PTR [rbp-0x68],r15
    4257:	4c 8b 7d a0          	mov    r15,QWORD PTR [rbp-0x60]
    425b:	4d 85 f6             	test   r14,r14
    425e:	0f 88 bc 2f 00 00    	js     0x7220
    4264:	4f 8b 7c 2e 08       	mov    r15,QWORD PTR [r14+r13*1+0x8]
    4269:	25 f8 ff 1f 00       	and    eax,0x1ffff8
    426e:	48 85 f6             	test   rsi,rsi
    4271:	0f 88 a9 2f 00 00    	js     0x7220
    4277:	4e 8b 54 2e 08       	mov    r10,QWORD PTR [rsi+r13*1+0x8]
    427c:	4d 85 c9             	test   r9,r9
    427f:	0f 88 9b 2f 00 00    	js     0x7220
    4285:	4b 8b 3c 29          	mov    rdi,QWORD PTR [r9+r13*1]
    4289:	4d 85 f6             	test   r14,r14
    428c:	0f 88 8e 2f 00 00    	js     0x7220
    4292:	4f 89 24 2e          	mov    QWORD PTR [r14+r13*1],r12
    4296:	4d 85 c9             	test   r9,r9
    4299:	0f 88 81 2f 00 00    	js     0x7220
    429f:	4f 8b 5c 29 08       	mov    r11,QWORD PTR [r9+r13*1+0x8]
    42a4:	48 85 f6             	test   rsi,rsi
    42a7:	0f 88 73 2f 00 00    	js     0x7220
    42ad:	4a 89 3c 2e          	mov    QWORD PTR [rsi+r13*1],rdi
    42b1:	4c 01 d0             	add    rax,r10
    42b4:	48 85 f6             	test   rsi,rsi
    42b7:	0f 88 63 2f 00 00    	js     0x7220
    42bd:	4e 89 5c 2e 08       	mov    QWORD PTR [rsi+r13*1+0x8],r11
    42c2:	4d 85 c9             	test   r9,r9
    42c5:	0f 88 55 2f 00 00    	js     0x7220
    42cb:	4f 89 04 29          	mov    QWORD PTR [r9+r13*1],r8
    42cf:	4d 85 c9             	test   r9,r9
    42d2:	0f 88 48 2f 00 00    	js     0x7220
    42d8:	4f 89 7c 29 08       	mov    QWORD PTR [r9+r13*1+0x8],r15
    42dd:	4d 85 f6             	test   r14,r14
    42e0:	0f 88 3a 2f 00 00    	js     0x7220
    42e6:	4f 89 54 2e 08       	mov    QWORD PTR [r14+r13*1+0x8],r10
    42eb:	4c 89 7d a0          	mov    QWORD PTR [rbp-0x60],r15
    42ef:	4c 89 75 a8          	mov    QWORD PTR [rbp-0x58],r14
    42f3:	e9 25 fb ff ff       	jmp    0x3e1d
    42f8:	41 bb 01 00 00 00    	mov    r11d,0x1
    42fe:	4d 3b a5 90 02 00 00 	cmp    r12,QWORD PTR [r13+0x290]
    4305:	0f 85 a9 01 00 00    	jne    0x44b4
    430b:	48 c1 e3 04          	shl    rbx,0x4
    430f:	44 89 de             	mov    esi,r11d
    4312:	41 83 eb 01          	sub    r11d,0x1
    4316:	4c 8b 75 98          	mov    r14,QWORD PTR [rbp-0x68]
    431a:	49 c1 ee 09          	shr    r14,0x9
    431e:	48 83 c6 10          	add    rsi,0x10
    4322:	49 83 c3 10          	add    r11,0x10
    4326:	48 85 db             	test   rbx,rbx
    4329:	0f 88 f1 2e 00 00    	js     0x7220
    432f:	4a 8b 84 2b 88 01 00 	mov    rax,QWORD PTR [rbx+r13*1+0x188]
    4336:	00 
    4337:	41 81 e6 f8 ff 1f 00 	and    r14d,0x1ffff8
    433e:	49 c1 e3 04          	shl    r11,0x4
    4342:	48 c1 e6 04          	shl    rsi,0x4
    4346:	48 85 db             	test   rbx,rbx
    4349:	0f 88 d1 2e 00 00    	js     0x7220
    434f:	4e 89 a4 2b 80 01 00 	mov    QWORD PTR [rbx+r13*1+0x180],r12
    4356:	00 
    4357:	4c 8b 7d a0          	mov    r15,QWORD PTR [rbp-0x60]
    435b:	48 85 f6             	test   rsi,rsi
    435e:	0f 88 bc 2e 00 00    	js     0x7220
    4364:	4e 8b bc 2e 88 01 00 	mov    r15,QWORD PTR [rsi+r13*1+0x188]
    436b:	00 
    436c:	4d 85 db             	test   r11,r11
    436f:	0f 88 ab 2e 00 00    	js     0x7220
    4375:	4b 8b bc 2b 80 01 00 	mov    rdi,QWORD PTR [r11+r13*1+0x180]
    437c:	00 
    437d:	4d 85 db             	test   r11,r11
    4380:	0f 88 9a 2e 00 00    	js     0x7220
    4386:	4b 8b 94 2b 88 01 00 	mov    rdx,QWORD PTR [r11+r13*1+0x188]
    438d:	00 
    438e:	48 85 f6             	test   rsi,rsi
    4391:	0f 88 89 2e 00 00    	js     0x7220
    4397:	4a 89 bc 2e 80 01 00 	mov    QWORD PTR [rsi+r13*1+0x180],rdi
    439e:	00 
    439f:	4d 01 fe             	add    r14,r15
    43a2:	48 85 f6             	test   rsi,rsi
    43a5:	0f 88 75 2e 00 00    	js     0x7220
    43ab:	4a 89 94 2e 88 01 00 	mov    QWORD PTR [rsi+r13*1+0x188],rdx
    43b2:	00 
    43b3:	4d 85 db             	test   r11,r11
    43b6:	0f 88 64 2e 00 00    	js     0x7220
    43bc:	4f 89 94 2b 80 01 00 	mov    QWORD PTR [r11+r13*1+0x180],r10
    43c3:	00 
    43c4:	4d 85 db             	test   r11,r11
    43c7:	0f 88 53 2e 00 00    	js     0x7220
    43cd:	4b 89 84 2b 88 01 00 	mov    QWORD PTR [r11+r13*1+0x188],rax
    43d4:	00 
    43d5:	48 85 db             	test   rbx,rbx
    43d8:	0f 88 42 2e 00 00    	js     0x7220
    43de:	4e 89 bc 2b 88 01 00 	mov    QWORD PTR [rbx+r13*1+0x188],r15
    43e5:	00 
    43e6:	4c 89 7d a0          	mov    QWORD PTR [rbp-0x60],r15
    43ea:	4c 89 75 98          	mov    QWORD PTR [rbp-0x68],r14
    43ee:	e9 b7 fa ff ff       	jmp    0x3eaa
    43f3:	41 b9 02 00 00 00    	mov    r9d,0x2
    43f9:	4d 3b a5 20 01 00 00 	cmp    r12,QWORD PTR [r13+0x120]
    4400:	0f 84 20 fe ff ff    	je     0x4226
    4406:	41 b9 03 00 00 00    	mov    r9d,0x3
    440c:	4d 3b a5 30 01 00 00 	cmp    r12,QWORD PTR [r13+0x130]
    4413:	0f 84 0d fe ff ff    	je     0x4226
    4419:	41 b9 04 00 00 00    	mov    r9d,0x4
    441f:	4d 3b a5 40 01 00 00 	cmp    r12,QWORD PTR [r13+0x140]
    4426:	0f 84 fa fd ff ff    	je     0x4226
    442c:	41 b9 05 00 00 00    	mov    r9d,0x5
    4432:	4d 3b a5 50 01 00 00 	cmp    r12,QWORD PTR [r13+0x150]
    4439:	0f 84 e7 fd ff ff    	je     0x4226
    443f:	41 b9 06 00 00 00    	mov    r9d,0x6
    4445:	4d 3b a5 60 01 00 00 	cmp    r12,QWORD PTR [r13+0x160]
    444c:	0f 84 d4 fd ff ff    	je     0x4226
    4452:	4d 3b a5 70 01 00 00 	cmp    r12,QWORD PTR [r13+0x170]
    4459:	75 0b                	jne    0x4466
    445b:	41 b9 07 00 00 00    	mov    r9d,0x7
    4461:	e9 c0 fd ff ff       	jmp    0x4226
    4466:	45 31 c9             	xor    r9d,r9d
    4469:	41 b8 01 00 00 00    	mov    r8d,0x1
    446f:	4c 8b 75 98          	mov    r14,QWORD PTR [rbp-0x68]
    4473:	4c 89 f1             	mov    rcx,r14
    4476:	4c 8b 7d a0          	mov    r15,QWORD PTR [rbp-0x60]
    447a:	4c 89 fa             	mov    rdx,r15
    447d:	4c 89 75 98          	mov    QWORD PTR [rbp-0x68],r14
    4481:	49 be e6 6d 66 55 55 	movabs r14,0x555555666de6
    4488:	55 00 00 
    448b:	49 8d b6 5a f1 0f 00 	lea    rsi,[r14+0xff15a]
    4492:	31 ff                	xor    edi,edi
    4494:	49 be ed 6d 66 55 55 	movabs r14,0x555555666ded
    449b:	55 00 00 
    449e:	4d 8d 6d f8          	lea    r13,[r13-0x8]
    44a2:	4d 89 75 00          	mov    QWORD PTR [r13+0x0],r14
    44a6:	4c 89 7d a0          	mov    QWORD PTR [rbp-0x60],r15
    44aa:	e9 5e 2a 00 00       	jmp    0x6f0d
    44af:	e9 69 f9 ff ff       	jmp    0x3e1d
    44b4:	41 bb 02 00 00 00    	mov    r11d,0x2
    44ba:	4d 3b a5 a0 02 00 00 	cmp    r12,QWORD PTR [r13+0x2a0]
    44c1:	0f 84 44 fe ff ff    	je     0x430b
    44c7:	41 bb 03 00 00 00    	mov    r11d,0x3
    44cd:	4d 3b a5 b0 02 00 00 	cmp    r12,QWORD PTR [r13+0x2b0]
    44d4:	0f 84 31 fe ff ff    	je     0x430b
    44da:	41 bb 04 00 00 00    	mov    r11d,0x4
    44e0:	4d 3b a5 c0 02 00 00 	cmp    r12,QWORD PTR [r13+0x2c0]
    44e7:	0f 84 1e fe ff ff    	je     0x430b
    44ed:	41 bb 05 00 00 00    	mov    r11d,0x5
    44f3:	4d 3b a5 d0 02 00 00 	cmp    r12,QWORD PTR [r13+0x2d0]
    44fa:	0f 84 0b fe ff ff    	je     0x430b
    4500:	41 bb 06 00 00 00    	mov    r11d,0x6
    4506:	4d 3b a5 e0 02 00 00 	cmp    r12,QWORD PTR [r13+0x2e0]
    450d:	0f 84 f8 fd ff ff    	je     0x430b
    4513:	4d 3b a5 f0 02 00 00 	cmp    r12,QWORD PTR [r13+0x2f0]
    451a:	75 0b                	jne    0x4527
    451c:	41 bb 07 00 00 00    	mov    r11d,0x7
    4522:	e9 e4 fd ff ff       	jmp    0x430b
    4527:	4c 8b 75 98          	mov    r14,QWORD PTR [rbp-0x68]
    452b:	4c 89 f1             	mov    rcx,r14
    452e:	45 31 c9             	xor    r9d,r9d
    4531:	41 b8 01 00 00 00    	mov    r8d,0x1
    4537:	4c 8b 7d a8          	mov    r15,QWORD PTR [rbp-0x58]
    453b:	4c 89 fa             	mov    rdx,r15
    453e:	4c 89 75 98          	mov    QWORD PTR [rbp-0x68],r14
    4542:	49 be 86 6e 66 55 55 	movabs r14,0x555555666e86
    4549:	55 00 00 
    454c:	49 8d b6 ba f0 0f 00 	lea    rsi,[r14+0xff0ba]
    4553:	31 ff                	xor    edi,edi
    4555:	49 be 8d 6e 66 55 55 	movabs r14,0x555555666e8d
    455c:	55 00 00 
    455f:	4d 8d 6d f8          	lea    r13,[r13-0x8]
    4563:	4d 89 75 00          	mov    QWORD PTR [r13+0x0],r14
    4567:	4c 89 7d a8          	mov    QWORD PTR [rbp-0x58],r15
    456b:	e9 9d 29 00 00       	jmp    0x6f0d
    4570:	4c 8b 75 98          	mov    r14,QWORD PTR [rbp-0x68]
    4574:	49 89 c6             	mov    r14,rax
    4577:	4c 89 75 98          	mov    QWORD PTR [rbp-0x68],r14
    457b:	e9 2a f9 ff ff       	jmp    0x3eaa
    4580:	49 be 9a 6e 66 55 55 	movabs r14,0x555555666e9a
    4587:	55 00 00 
    458a:	4d 8d 6d f8          	lea    r13,[r13-0x8]
    458e:	4d 89 75 00          	mov    QWORD PTR [r13+0x0],r14
    4592:	e9 98 2b 00 00       	jmp    0x712f
    4597:	90                   	nop
    4598:	4d 8d 6d f8          	lea    r13,[r13-0x8]
    459c:	4c 8b 75 98          	mov    r14,QWORD PTR [rbp-0x68]
    45a0:	4d 89 75 00          	mov    QWORD PTR [r13+0x0],r14
    45a4:	48 8d b7 80 00 00 00 	lea    rsi,[rdi+0x80]
    45ab:	4d 8d 6d f8          	lea    r13,[r13-0x8]
    45af:	4d 89 65 00          	mov    QWORD PTR [r13+0x0],r12
    45b3:	4c 8d a7 90 00 00 00 	lea    r12,[rdi+0x90]
    45ba:	4d 8d 6d f8          	lea    r13,[r13-0x8]
    45be:	49 89 5d 00          	mov    QWORD PTR [r13+0x0],rbx
    45c2:	48 89 fb             	mov    rbx,rdi
    45c5:	4c 89 e7             	mov    rdi,r12
    45c8:	4c 8d 73 78          	lea    r14,[rbx+0x78]
    45cc:	49 83 ed 10          	sub    r13,0x10
    45d0:	4c 8b 7d 88          	mov    r15,QWORD PTR [rbp-0x78]
    45d4:	49 8b 47 28          	mov    rax,QWORD PTR [r15+0x28]
    45d8:	49 89 45 08          	mov    QWORD PTR [r13+0x8],rax
    45dc:	31 c0                	xor    eax,eax
    45de:	4c 89 75 98          	mov    QWORD PTR [rbp-0x68],r14
    45e2:	49 be d5 6e 66 55 55 	movabs r14,0x555555666ed5
    45e9:	55 00 00 
    45ec:	4d 8d 6d f8          	lea    r13,[r13-0x8]
    45f0:	4d 89 75 00          	mov    QWORD PTR [r13+0x0],r14
    45f4:	e9 b0 29 00 00       	jmp    0x6fa9
    45f9:	4c 8b 75 98          	mov    r14,QWORD PTR [rbp-0x68]
    45fd:	4c 89 f6             	mov    rsi,r14
    4600:	4c 89 e7             	mov    rdi,r12
    4603:	49 bf e0 6e 66 55 55 	movabs r15,0x555555666ee0
    460a:	55 00 00 
    460d:	4d 8d 6d f8          	lea    r13,[r13-0x8]
    4611:	4d 89 7d 00          	mov    QWORD PTR [r13+0x0],r15
    4615:	4c 89 75 98          	mov    QWORD PTR [rbp-0x68],r14
    4619:	e9 a7 2b 00 00       	jmp    0x71c5
    461e:	48 85 db             	test   rbx,rbx
    4621:	0f 88 f9 2b 00 00    	js     0x7220
    4627:	48 8b 43 70          	mov    rax,QWORD PTR [rbx+0x70]
    462b:	48 85 c0             	test   rax,rax
    462e:	7f 46                	jg     0x4676
    4630:	49 8b 45 08          	mov    rax,QWORD PTR [r13+0x8]
    4634:	4c 8b 75 88          	mov    r14,QWORD PTR [rbp-0x78]
    4638:	49 33 46 28          	xor    rax,QWORD PTR [r14+0x28]
    463c:	0f 85 3e 01 00 00    	jne    0x4780
    4642:	49 83 c5 10          	add    r13,0x10
    4646:	49 8b 5d 00          	mov    rbx,QWORD PTR [r13+0x0]
    464a:	4d 8d 6d 08          	lea    r13,[r13+0x8]
    464e:	4d 8b 65 00          	mov    r12,QWORD PTR [r13+0x0]
    4652:	4d 8d 6d 08          	lea    r13,[r13+0x8]
    4656:	4c 8b 75 98          	mov    r14,QWORD PTR [rbp-0x68]
    465a:	4d 8b 75 00          	mov    r14,QWORD PTR [r13+0x0]
    465e:	4d 8d 6d 08          	lea    r13,[r13+0x8]
    4662:	4d 8b 7d 00          	mov    r15,QWORD PTR [r13+0x0]
    4666:	4d 8d 6d 08          	lea    r13,[r13+0x8]
    466a:	4c 89 75 98          	mov    QWORD PTR [rbp-0x68],r14
    466e:	4d 89 fe             	mov    r14,r15
    4671:	e9 d5 22 00 00       	jmp    0x694b
    4676:	4c 8b 75 98          	mov    r14,QWORD PTR [rbp-0x68]
    467a:	4c 89 f7             	mov    rdi,r14
    467d:	49 c7 c6 ff ff ff ff 	mov    r14,0xffffffffffffffff
    4684:	49 bf 1f 6f 66 55 55 	movabs r15,0x555555666f1f
    468b:	55 00 00 
    468e:	4d 8d 6d f8          	lea    r13,[r13-0x8]
    4692:	4d 89 7d 00          	mov    QWORD PTR [r13+0x0],r15
    4696:	4c 89 75 98          	mov    QWORD PTR [rbp-0x68],r14
    469a:	e9 24 29 00 00       	jmp    0x6fc3
    469f:	48 8d 50 ff          	lea    rdx,[rax-0x1]
    46a3:	48 89 d1             	mov    rcx,rdx
    46a6:	48 d1 e9             	shr    rcx,1
    46a9:	48 09 ca             	or     rdx,rcx
    46ac:	b9 40 00 00 00       	mov    ecx,0x40
    46b1:	48 89 d6             	mov    rsi,rdx
    46b4:	48 c1 ee 02          	shr    rsi,0x2
    46b8:	48 09 f2             	or     rdx,rsi
    46bb:	48 89 d7             	mov    rdi,rdx
    46be:	48 c1 ef 04          	shr    rdi,0x4
    46c2:	48 09 fa             	or     rdx,rdi
    46c5:	48 bf 4f 81 67 f7 7e 	movabs rdi,0x14057b7ef767814f
    46cc:	7b 05 14 
    46cf:	49 89 d0             	mov    r8,rdx
    46d2:	49 c1 e8 08          	shr    r8,0x8
    46d6:	4c 09 c2             	or     rdx,r8
    46d9:	49 b8 2d 7f 95 4c 2d 	movabs r8,0x5851f42d4c957f2d
    46e0:	f4 51 58 
    46e3:	49 89 d1             	mov    r9,rdx
    46e6:	49 c1 e9 10          	shr    r9,0x10
    46ea:	4c 09 ca             	or     rdx,r9
    46ed:	49 89 d2             	mov    r10,rdx
    46f0:	49 c1 ea 20          	shr    r10,0x20
    46f4:	4c 09 d2             	or     rdx,r10
    46f7:	48 83 c2 01          	add    rdx,0x1
    46fb:	4c 0f bc da          	bsf    r11,rdx
    46ff:	48 85 db             	test   rbx,rbx
    4702:	0f 88 18 2b 00 00    	js     0x7220
    4708:	48 8b 93 88 00 00 00 	mov    rdx,QWORD PTR [rbx+0x88]
    470f:	4c 8b 75 98          	mov    r14,QWORD PTR [rbp-0x68]
    4713:	4d 0f 45 f3          	cmovne r14,r11
    4717:	44 29 f1             	sub    ecx,r14d
    471a:	90                   	nop
    471b:	4c 89 75 98          	mov    QWORD PTR [rbp-0x68],r14
    471f:	49 0f af d0          	imul   rdx,r8
    4723:	48 01 fa             	add    rdx,rdi
    4726:	48 89 d6             	mov    rsi,rdx
    4729:	48 d3 ee             	shr    rsi,cl
    472c:	48 39 f0             	cmp    rax,rsi
    472f:	76 ee                	jbe    0x471f
    4731:	48 85 db             	test   rbx,rbx
    4734:	0f 88 e6 2a 00 00    	js     0x7220
    473a:	48 89 93 88 00 00 00 	mov    QWORD PTR [rbx+0x88],rdx
    4741:	4c 89 eb             	mov    rbx,r13
    4744:	48 89 df             	mov    rdi,rbx
    4747:	49 be b4 6f 66 55 55 	movabs r14,0x555555666fb4
    474e:	55 00 00 
    4751:	4d 8d 6d f8          	lea    r13,[r13-0x8]
    4755:	4d 89 75 00          	mov    QWORD PTR [r13+0x0],r14
    4759:	e9 43 26 00 00       	jmp    0x6da1
    475e:	48 89 de             	mov    rsi,rbx
    4761:	4c 89 e7             	mov    rdi,r12
    4764:	49 be bf 6f 66 55 55 	movabs r14,0x555555666fbf
    476b:	55 00 00 
    476e:	4d 8d 6d f8          	lea    r13,[r13-0x8]
    4772:	4d 89 75 00          	mov    QWORD PTR [r13+0x0],r14
    4776:	e9 4a 2a 00 00       	jmp    0x71c5
    477b:	e9 b0 fe ff ff       	jmp    0x4630
    4780:	49 be c9 6f 66 55 55 	movabs r14,0x555555666fc9
    4787:	55 00 00 
    478a:	4d 8d 6d f8          	lea    r13,[r13-0x8]
    478e:	4d 89 75 00          	mov    QWORD PTR [r13+0x0],r14
    4792:	e9 98 29 00 00       	jmp    0x712f
    4797:	90                   	nop
    4798:	90                   	nop
    4799:	48 85 f6             	test   rsi,rsi
    479c:	0f 88 7e 2a 00 00    	js     0x7220
    47a2:	48 8b 16             	mov    rdx,QWORD PTR [rsi]
    47a5:	be 5a 00 00 00       	mov    esi,0x5a
    47aa:	e9 c0 b8 ff ff       	jmp    0x6f
    47af:	90                   	nop
    47b0:	4d 8d 6d f8          	lea    r13,[r13-0x8]
    47b4:	4c 8b 75 b0          	mov    r14,QWORD PTR [rbp-0x50]
    47b8:	4d 89 75 00          	mov    QWORD PTR [r13+0x0],r14
    47bc:	49 bf 7d 06 6a 55 55 	movabs r15,0x5555556a067d
    47c3:	55 00 00 
    47c6:	49 8d 97 03 70 0b 00 	lea    rdx,[r15+0xb7003]
    47cd:	4d 8d 6d f8          	lea    r13,[r13-0x8]
    47d1:	4c 8b 7d a8          	mov    r15,QWORD PTR [rbp-0x58]
    47d5:	4d 89 7d 00          	mov    QWORD PTR [r13+0x0],r15
    47d9:	4d 8d 6d f8          	lea    r13,[r13-0x8]
    47dd:	4c 89 75 b0          	mov    QWORD PTR [rbp-0x50],r14
    47e1:	4c 8b 75 a0          	mov    r14,QWORD PTR [rbp-0x60]
    47e5:	4d 89 75 00          	mov    QWORD PTR [r13+0x0],r14
    47e9:	49 89 f6             	mov    r14,rsi
    47ec:	4d 8d 6d f8          	lea    r13,[r13-0x8]
    47f0:	4c 89 75 a0          	mov    QWORD PTR [rbp-0x60],r14
    47f4:	4c 8b 75 98          	mov    r14,QWORD PTR [rbp-0x68]
    47f8:	4d 89 75 00          	mov    QWORD PTR [r13+0x0],r14
    47fc:	4d 8d 6d f8          	lea    r13,[r13-0x8]
    4800:	4d 89 65 00          	mov    QWORD PTR [r13+0x0],r12
    4804:	49 89 fc             	mov    r12,rdi
    4807:	49 83 ed 10          	sub    r13,0x10
    480b:	4c 89 75 98          	mov    QWORD PTR [rbp-0x68],r14
    480f:	4c 8b 75 88          	mov    r14,QWORD PTR [rbp-0x78]
    4813:	49 8b 46 28          	mov    rax,QWORD PTR [r14+0x28]
    4817:	49 89 45 08          	mov    QWORD PTR [r13+0x8],rax
    481b:	31 c0                	xor    eax,eax
    481d:	48 85 f6             	test   rsi,rsi
    4820:	0f 88 fa 29 00 00    	js     0x7220
    4826:	48 8b 06             	mov    rax,QWORD PTR [rsi]
    4829:	25 ff 0f 00 00       	and    eax,0xfff
    482e:	4c 89 75 88          	mov    QWORD PTR [rbp-0x78],r14
    4832:	4c 8b 75 98          	mov    r14,QWORD PTR [rbp-0x68]
    4836:	48 85 d2             	test   rdx,rdx
    4839:	0f 88 e1 29 00 00    	js     0x7220
    483f:	4c 8b 34 c2          	mov    r14,QWORD PTR [rdx+rax*8]
    4843:	4d 85 f6             	test   r14,r14
    4846:	0f 88 d4 29 00 00    	js     0x7220
    484c:	49 8b b6 10 68 00 00 	mov    rsi,QWORD PTR [r14+0x6810]
    4853:	4c 89 75 98          	mov    QWORD PTR [rbp-0x68],r14
    4857:	49 be b8 06 6a 55 55 	movabs r14,0x5555556a06b8
    485e:	55 00 00 
    4861:	41 8b 8e 08 6f 0b 00 	mov    ecx,DWORD PTR [r14+0xb6f08]
    4868:	48 85 f6             	test   rsi,rsi
    486b:	0f 88 af 29 00 00    	js     0x7220
    4871:	39 0e                	cmp    DWORD PTR [rsi],ecx
    4873:	4c 89 7d a8          	mov    QWORD PTR [rbp-0x58],r15
    4877:	0f 83 53 01 00 00    	jae    0x49d0
    487d:	49 be c7 06 6a 55 55 	movabs r14,0x5555556a06c7
    4884:	55 00 00 
    4887:	41 80 be 60 f6 09 00 	cmp    BYTE PTR [r14+0x9f660],0x0
    488e:	00 
    488f:	0f 85 92 02 00 00    	jne    0x4b27
    4895:	4c 8b 75 a0          	mov    r14,QWORD PTR [rbp-0x60]
    4899:	4c 89 f2             	mov    rdx,r14
    489c:	4c 8b 7d 98          	mov    r15,QWORD PTR [rbp-0x68]
    48a0:	4c 89 fe             	mov    rsi,r15
    48a3:	4c 89 e7             	mov    rdi,r12
    48a6:	4c 89 75 a0          	mov    QWORD PTR [rbp-0x60],r14
    48aa:	49 be db 06 6a 55 55 	movabs r14,0x5555556a06db
    48b1:	55 00 00 
    48b4:	4d 8d 6d f8          	lea    r13,[r13-0x8]
    48b8:	4d 89 75 00          	mov    QWORD PTR [r13+0x0],r14
    48bc:	4c 89 7d 98          	mov    QWORD PTR [rbp-0x68],r15
    48c0:	e9 9e 28 00 00       	jmp    0x7163
    48c5:	4c 89 ea             	mov    rdx,r13
    48c8:	4c 8b 75 a0          	mov    r14,QWORD PTR [rbp-0x60]
    48cc:	4c 89 f1             	mov    rcx,r14
    48cf:	4c 8b 7d 98          	mov    r15,QWORD PTR [rbp-0x68]
    48d3:	4c 89 fe             	mov    rsi,r15
    48d6:	4c 89 e7             	mov    rdi,r12
    48d9:	49 c7 45 00 00 00 00 	mov    QWORD PTR [r13+0x0],0x0
    48e0:	00 
    48e1:	4c 89 75 a0          	mov    QWORD PTR [rbp-0x60],r14
    48e5:	49 be f4 06 6a 55 55 	movabs r14,0x5555556a06f4
    48ec:	55 00 00 
    48ef:	4d 8d 6d f8          	lea    r13,[r13-0x8]
    48f3:	4d 89 75 00          	mov    QWORD PTR [r13+0x0],r14
    48f7:	4c 89 7d 98          	mov    QWORD PTR [rbp-0x68],r15
    48fb:	e9 39 24 00 00       	jmp    0x6d39
    4900:	4d 85 e4             	test   r12,r12
    4903:	74 60                	je     0x4965
    4905:	4c 8b 75 98          	mov    r14,QWORD PTR [rbp-0x68]
    4909:	4c 8b 7d a0          	mov    r15,QWORD PTR [rbp-0x60]
    490d:	4d 85 f6             	test   r14,r14
    4910:	0f 88 0a 29 00 00    	js     0x7220
    4916:	4d 8b be 10 68 00 00 	mov    r15,QWORD PTR [r14+0x6810]
    491d:	49 8b 8c 24 b8 01 00 	mov    rcx,QWORD PTR [r12+0x1b8]
    4924:	00 
    4925:	4d 85 ff             	test   r15,r15
    4928:	0f 88 f2 28 00 00    	js     0x7220
    492e:	41 8b 37             	mov    esi,DWORD PTR [r15]
    4931:	48 85 c9             	test   rcx,rcx
    4934:	4c 89 7d a0          	mov    QWORD PTR [rbp-0x60],r15
    4938:	4c 89 75 98          	mov    QWORD PTR [rbp-0x68],r14
    493c:	0f 84 b1 02 00 00    	je     0x4bf3
    4942:	89 f2                	mov    edx,esi
    4944:	48 8d 3c d1          	lea    rdi,[rcx+rdx*8]
    4948:	41 3b 74 24 04       	cmp    esi,DWORD PTR [r12+0x4]
    494d:	0f 83 a0 02 00 00    	jae    0x4bf3
    4953:	48 85 ff             	test   rdi,rdi
    4956:	0f 88 c4 28 00 00    	js     0x7220
    495c:	83 2f 01             	sub    DWORD PTR [rdi],0x1
    495f:	0f 88 1f 03 00 00    	js     0x4c84
    4965:	49 8b 45 08          	mov    rax,QWORD PTR [r13+0x8]
    4969:	4c 8b 75 88          	mov    r14,QWORD PTR [rbp-0x78]
    496d:	49 33 46 28          	xor    rax,QWORD PTR [r14+0x28]
    4971:	0f 85 66 03 00 00    	jne    0x4cdd
    4977:	49 83 c5 10          	add    r13,0x10
    497b:	4d 8b 65 00          	mov    r12,QWORD PTR [r13+0x0]
    497f:	4d 8d 6d 08          	lea    r13,[r13+0x8]
    4983:	4c 8b 75 98          	mov    r14,QWORD PTR [rbp-0x68]
    4987:	4d 8b 75 00          	mov    r14,QWORD PTR [r13+0x0]
    498b:	4d 8d 6d 08          	lea    r13,[r13+0x8]
    498f:	4c 8b 7d a0          	mov    r15,QWORD PTR [rbp-0x60]
    4993:	4d 8b 7d 00          	mov    r15,QWORD PTR [r13+0x0]
    4997:	4d 8d 6d 08          	lea    r13,[r13+0x8]
    499b:	4c 89 75 98          	mov    QWORD PTR [rbp-0x68],r14
    499f:	4c 8b 75 a8          	mov    r14,QWORD PTR [rbp-0x58]
    49a3:	4d 8b 75 00          	mov    r14,QWORD PTR [r13+0x0]
    49a7:	4d 8d 6d 08          	lea    r13,[r13+0x8]
    49ab:	4c 89 75 a8          	mov    QWORD PTR [rbp-0x58],r14
    49af:	4c 8b 75 b0          	mov    r14,QWORD PTR [rbp-0x50]
    49b3:	4d 8b 75 00          	mov    r14,QWORD PTR [r13+0x0]
    49b7:	4d 8d 6d 08          	lea    r13,[r13+0x8]
    49bb:	4c 89 75 b0          	mov    QWORD PTR [rbp-0x50],r14
    49bf:	4d 8b 75 00          	mov    r14,QWORD PTR [r13+0x0]
    49c3:	4d 8d 6d 08          	lea    r13,[r13+0x8]
    49c7:	4c 89 7d a0          	mov    QWORD PTR [rbp-0x60],r15
    49cb:	e9 b5 20 00 00       	jmp    0x6a85
    49d0:	4c 8b 75 a8          	mov    r14,QWORD PTR [rbp-0x58]
    49d4:	4c 8b 7d 98          	mov    r15,QWORD PTR [rbp-0x68]
    49d8:	4d 8d b7 50 1c 00 00 	lea    r14,[r15+0x1c50]
    49df:	4c 89 75 a8          	mov    QWORD PTR [rbp-0x58],r14
    49e3:	4c 8b 75 b0          	mov    r14,QWORD PTR [rbp-0x50]
    49e7:	4d 8d b7 10 1c 00 00 	lea    r14,[r15+0x1c10]
    49ee:	4c 89 75 b0          	mov    QWORD PTR [rbp-0x50],r14
    49f2:	4c 8b 75 a8          	mov    r14,QWORD PTR [rbp-0x58]
    49f6:	4c 89 f7             	mov    rdi,r14
    49f9:	4c 89 75 a8          	mov    QWORD PTR [rbp-0x58],r14
    49fd:	49 be 68 07 6a 55 55 	movabs r14,0x5555556a0768
    4a04:	55 00 00 
    4a07:	4d 8d 6d f8          	lea    r13,[r13-0x8]
    4a0b:	4d 89 75 00          	mov    QWORD PTR [r13+0x0],r14
    4a0f:	4c 89 7d 98          	mov    QWORD PTR [rbp-0x68],r15
    4a13:	e9 25 24 00 00       	jmp    0x6e3d
    4a18:	85 c0                	test   eax,eax
    4a1a:	0f 85 fe 01 00 00    	jne    0x4c1e
    4a20:	4c 8b 75 98          	mov    r14,QWORD PTR [rbp-0x68]
    4a24:	4d 85 f6             	test   r14,r14
    4a27:	0f 88 f3 27 00 00    	js     0x7220
    4a2d:	49 83 86 48 1c 00 00 	add    QWORD PTR [r14+0x1c48],0x1
    4a34:	01 
    4a35:	4d 85 f6             	test   r14,r14
    4a38:	0f 88 e2 27 00 00    	js     0x7220
    4a3e:	4d 3b a6 40 1c 00 00 	cmp    r12,QWORD PTR [r14+0x1c40]
    4a45:	4c 89 75 98          	mov    QWORD PTR [rbp-0x68],r14
    4a49:	74 29                	je     0x4a74
    4a4b:	4c 8b 75 98          	mov    r14,QWORD PTR [rbp-0x68]
    4a4f:	4d 85 f6             	test   r14,r14
    4a52:	0f 88 c8 27 00 00    	js     0x7220
    4a58:	49 83 86 38 1c 00 00 	add    QWORD PTR [r14+0x1c38],0x1
    4a5f:	01 
    4a60:	4d 85 f6             	test   r14,r14
    4a63:	0f 88 b7 27 00 00    	js     0x7220
    4a69:	4d 89 a6 40 1c 00 00 	mov    QWORD PTR [r14+0x1c40],r12
    4a70:	4c 89 75 98          	mov    QWORD PTR [rbp-0x68],r14
    4a74:	4c 8b 75 98          	mov    r14,QWORD PTR [rbp-0x68]
    4a78:	4c 8b 7d a0          	mov    r15,QWORD PTR [rbp-0x60]
    4a7c:	4d 85 f6             	test   r14,r14
    4a7f:	0f 88 9b 27 00 00    	js     0x7220
    4a85:	4d 3b be 08 1c 00 00 	cmp    r15,QWORD PTR [r14+0x1c08]
    4a8c:	4c 89 7d a0          	mov    QWORD PTR [rbp-0x60],r15
    4a90:	4c 89 75 98          	mov    QWORD PTR [rbp-0x68],r14
    4a94:	0f 84 ab 01 00 00    	je     0x4c45
    4a9a:	4c 8b 75 a0          	mov    r14,QWORD PTR [rbp-0x60]
    4a9e:	4d 85 f6             	test   r14,r14
    4aa1:	0f 88 79 27 00 00    	js     0x7220
    4aa7:	4d 8b 46 20          	mov    r8,QWORD PTR [r14+0x20]
    4aab:	4d 85 f6             	test   r14,r14
    4aae:	0f 88 6c 27 00 00    	js     0x7220
    4ab4:	4d 8b 4e 18          	mov    r9,QWORD PTR [r14+0x18]
    4ab8:	66 49 0f 6e c6       	movq   xmm0,r14
    4abd:	66 0f 6c c0          	punpcklqdq xmm0,xmm0
    4ac1:	4d 85 c0             	test   r8,r8
    4ac4:	0f 88 56 27 00 00    	js     0x7220
    4aca:	4d 89 48 18          	mov    QWORD PTR [r8+0x18],r9
    4ace:	4d 85 c9             	test   r9,r9
    4ad1:	0f 88 49 27 00 00    	js     0x7220
    4ad7:	4d 89 41 20          	mov    QWORD PTR [r9+0x20],r8
    4adb:	4d 85 f6             	test   r14,r14
    4ade:	0f 88 3c 27 00 00    	js     0x7220
    4ae4:	41 0f 11 46 18       	movups XMMWORD PTR [r14+0x18],xmm0
    4ae9:	4c 89 75 a0          	mov    QWORD PTR [rbp-0x60],r14
    4aed:	4c 8b 75 a8          	mov    r14,QWORD PTR [rbp-0x58]
    4af1:	4c 89 f7             	mov    rdi,r14
    4af4:	49 bf c8 07 6a 55 55 	movabs r15,0x5555556a07c8
    4afb:	55 00 00 
    4afe:	4d 8d 6d f8          	lea    r13,[r13-0x8]
    4b02:	4d 89 7d 00          	mov    QWORD PTR [r13+0x0],r15
    4b06:	4c 89 75 a8          	mov    QWORD PTR [rbp-0x58],r14
    4b0a:	e9 88 26 00 00       	jmp    0x7197
    4b0f:	49 be cf 07 6a 55 55 	movabs r14,0x5555556a07cf
    4b16:	55 00 00 
    4b19:	41 80 be 58 f5 09 00 	cmp    BYTE PTR [r14+0x9f558],0x0
    4b20:	00 
    4b21:	0f 84 6e fd ff ff    	je     0x4895
    4b27:	4c 8b 75 a0          	mov    r14,QWORD PTR [rbp-0x60]
    4b2b:	4d 85 f6             	test   r14,r14
    4b2e:	0f 88 ec 26 00 00    	js     0x7220
    4b34:	4d 8b 16             	mov    r10,QWORD PTR [r14]
    4b37:	49 bf e0 07 6a 55 55 	movabs r15,0x5555556a07e0
    4b3e:	55 00 00 
    4b41:	49 8d 87 60 28 05 00 	lea    rax,[r15+0x52860]
    4b48:	4c 8b 7d a8          	mov    r15,QWORD PTR [rbp-0x58]
    4b4c:	4d 85 f6             	test   r14,r14
    4b4f:	0f 88 cb 26 00 00    	js     0x7220
    4b55:	4d 8b 7e 08          	mov    r15,QWORD PTR [r14+0x8]
    4b59:	49 c1 ea 12          	shr    r10,0x12
    4b5d:	4c 89 75 a0          	mov    QWORD PTR [rbp-0x60],r14
    4b61:	49 be ef 07 6a 55 55 	movabs r14,0x5555556a07ef
    4b68:	55 00 00 
    4b6b:	41 80 be 59 96 09 00 	cmp    BYTE PTR [r14+0x99659],0x0
    4b72:	00 
    4b73:	45 0f b6 da          	movzx  r11d,r10b
    4b77:	4c 8b 75 b0          	mov    r14,QWORD PTR [rbp-0x50]
    4b7b:	48 85 c0             	test   rax,rax
    4b7e:	0f 88 9c 26 00 00    	js     0x7220
    4b84:	4e 8b 34 d8          	mov    r14,QWORD PTR [rax+r11*8]
    4b88:	4c 89 7d a8          	mov    QWORD PTR [rbp-0x58],r15
    4b8c:	4c 89 75 b0          	mov    QWORD PTR [rbp-0x50],r14
    4b90:	75 2a                	jne    0x4bbc
    4b92:	4c 8b 75 a8          	mov    r14,QWORD PTR [rbp-0x58]
    4b96:	4c 89 f7             	mov    rdi,r14
    4b99:	49 bf 01 08 6a 55 55 	movabs r15,0x5555556a0801
    4ba0:	55 00 00 
    4ba3:	4d 8d 6d f8          	lea    r13,[r13-0x8]
    4ba7:	4d 89 7d 00          	mov    QWORD PTR [r13+0x0],r15
    4bab:	4c 89 75 a8          	mov    QWORD PTR [rbp-0x58],r14
    4baf:	e9 51 21 00 00       	jmp    0x6d05
    4bb4:	84 c0                	test   al,al
    4bb6:	0f 84 d9 fc ff ff    	je     0x4895
    4bbc:	4c 8b 75 b0          	mov    r14,QWORD PTR [rbp-0x50]
    4bc0:	4c 89 f2             	mov    rdx,r14
    4bc3:	be 5a 00 00 00       	mov    esi,0x5a
    4bc8:	4c 8b 7d a8          	mov    r15,QWORD PTR [rbp-0x58]
    4bcc:	4c 89 ff             	mov    rdi,r15
    4bcf:	4c 89 75 b0          	mov    QWORD PTR [rbp-0x50],r14
    4bd3:	49 be 19 08 6a 55 55 	movabs r14,0x5555556a0819
    4bda:	55 00 00 
    4bdd:	4d 8d 6d f8          	lea    r13,[r13-0x8]
    4be1:	4d 89 75 00          	mov    QWORD PTR [r13+0x0],r14
    4be5:	4c 89 7d a8          	mov    QWORD PTR [rbp-0x58],r15
    4be9:	e9 81 b4 ff ff       	jmp    0x6f
    4bee:	e9 a2 fc ff ff       	jmp    0x4895
    4bf3:	4c 89 e7             	mov    rdi,r12
    4bf6:	49 be 28 08 6a 55 55 	movabs r14,0x5555556a0828
    4bfd:	55 00 00 
    4c00:	4d 8d 6d f8          	lea    r13,[r13-0x8]
    4c04:	4d 89 75 00          	mov    QWORD PTR [r13+0x0],r14
    4c08:	e9 7e 22 00 00       	jmp    0x6e8b
    4c0d:	48 89 c7             	mov    rdi,rax
    4c10:	48 85 c0             	test   rax,rax
    4c13:	0f 85 3a fd ff ff    	jne    0x4953
    4c19:	e9 47 fd ff ff       	jmp    0x4965
    4c1e:	4c 8b 75 b0          	mov    r14,QWORD PTR [rbp-0x50]
    4c22:	4c 89 f7             	mov    rdi,r14
    4c25:	49 bf 48 08 6a 55 55 	movabs r15,0x5555556a0848
    4c2c:	55 00 00 
    4c2f:	4d 8d 6d f8          	lea    r13,[r13-0x8]
    4c33:	4d 89 7d 00          	mov    QWORD PTR [r13+0x0],r15
    4c37:	4c 89 75 b0          	mov    QWORD PTR [rbp-0x50],r14
    4c3b:	e9 e7 22 00 00       	jmp    0x6f27
    4c40:	e9 db fd ff ff       	jmp    0x4a20
    4c45:	4c 8b 75 a0          	mov    r14,QWORD PTR [rbp-0x60]
    4c49:	4d 85 f6             	test   r14,r14
    4c4c:	0f 88 ce 25 00 00    	js     0x7220
    4c52:	49 8b 7e 18          	mov    rdi,QWORD PTR [r14+0x18]
    4c56:	49 39 fe             	cmp    r14,rdi
    4c59:	4c 89 75 a0          	mov    QWORD PTR [rbp-0x60],r14
    4c5d:	0f 85 91 00 00 00    	jne    0x4cf4
    4c63:	4c 8b 75 98          	mov    r14,QWORD PTR [rbp-0x68]
    4c67:	4d 85 f6             	test   r14,r14
    4c6a:	0f 88 b0 25 00 00    	js     0x7220
    4c70:	49 c7 86 08 1c 00 00 	mov    QWORD PTR [r14+0x1c08],0x0
    4c77:	00 00 00 00 
    4c7b:	4c 89 75 98          	mov    QWORD PTR [rbp-0x68],r14
    4c7f:	e9 69 fe ff ff       	jmp    0x4aed
    4c84:	48 85 ff             	test   rdi,rdi
    4c87:	0f 88 93 25 00 00    	js     0x7220
    4c8d:	8b 77 04             	mov    esi,DWORD PTR [rdi+0x4]
    4c90:	49 be 78 08 6a 55 55 	movabs r14,0x5555556a0878
    4c97:	55 00 00 
    4c9a:	4d 8d 6d f8          	lea    r13,[r13-0x8]
    4c9e:	4d 89 75 00          	mov    QWORD PTR [r13+0x0],r14
    4ca2:	e9 54 24 00 00       	jmp    0x70fb
    4ca7:	84 c0                	test   al,al
    4ca9:	0f 84 b6 fc ff ff    	je     0x4965
    4caf:	31 c9                	xor    ecx,ecx
    4cb1:	31 d2                	xor    edx,edx
    4cb3:	4c 8b 75 98          	mov    r14,QWORD PTR [rbp-0x68]
    4cb7:	4c 89 f6             	mov    rsi,r14
    4cba:	4c 89 e7             	mov    rdi,r12
    4cbd:	49 bf 8f 08 6a 55 55 	movabs r15,0x5555556a088f
    4cc4:	55 00 00 
    4cc7:	4d 8d 6d f8          	lea    r13,[r13-0x8]
    4ccb:	4d 89 7d 00          	mov    QWORD PTR [r13+0x0],r15
    4ccf:	4c 89 75 98          	mov    QWORD PTR [rbp-0x68],r14
    4cd3:	e9 a5 24 00 00       	jmp    0x717d
    4cd8:	e9 88 fc ff ff       	jmp    0x4965
    4cdd:	49 be 99 08 6a 55 55 	movabs r14,0x5555556a0899
    4ce4:	55 00 00 
    4ce7:	4d 8d 6d f8          	lea    r13,[r13-0x8]
    4ceb:	4d 89 75 00          	mov    QWORD PTR [r13+0x0],r14
    4cef:	e9 3b 24 00 00       	jmp    0x712f
    4cf4:	4c 8b 75 98          	mov    r14,QWORD PTR [rbp-0x68]
    4cf8:	4d 85 f6             	test   r14,r14
    4cfb:	0f 88 1f 25 00 00    	js     0x7220
    4d01:	49 89 be 08 1c 00 00 	mov    QWORD PTR [r14+0x1c08],rdi
    4d08:	4c 89 75 98          	mov    QWORD PTR [rbp-0x68],r14
    4d0c:	e9 89 fd ff ff       	jmp    0x4a9a
    4d11:	90                   	nop
    4d12:	4d 8d 6d f8          	lea    r13,[r13-0x8]
    4d16:	4d 89 65 00          	mov    QWORD PTR [r13+0x0],r12
    4d1a:	4d 89 ec             	mov    r12,r13
    4d1d:	4d 8d 6d f8          	lea    r13,[r13-0x8]
    4d21:	4c 8b 75 b0          	mov    r14,QWORD PTR [rbp-0x50]
    4d25:	4d 89 75 00          	mov    QWORD PTR [r13+0x0],r14
    4d29:	49 89 fe             	mov    r14,rdi
    4d2c:	4d 8d 6d f8          	lea    r13,[r13-0x8]
    4d30:	4c 8b 7d a8          	mov    r15,QWORD PTR [rbp-0x58]
    4d34:	4d 89 7d 00          	mov    QWORD PTR [r13+0x0],r15
    4d38:	4d 8d 6d f8          	lea    r13,[r13-0x8]
    4d3c:	4c 89 75 b0          	mov    QWORD PTR [rbp-0x50],r14
    4d40:	4c 8b 75 a0          	mov    r14,QWORD PTR [rbp-0x60]
    4d44:	4d 89 75 00          	mov    QWORD PTR [r13+0x0],r14
    4d48:	49 89 d6             	mov    r14,rdx
    4d4b:	4d 8d 6d f8          	lea    r13,[r13-0x8]
    4d4f:	4c 89 75 a0          	mov    QWORD PTR [rbp-0x60],r14
    4d53:	4c 8b 75 98          	mov    r14,QWORD PTR [rbp-0x68]
    4d57:	4d 89 75 00          	mov    QWORD PTR [r13+0x0],r14
    4d5b:	4d 8d 6d f8          	lea    r13,[r13-0x8]
    4d5f:	49 89 5d 00          	mov    QWORD PTR [r13+0x0],rbx
    4d63:	49 81 ed f8 01 00 00 	sub    r13,0x1f8
    4d6a:	48 85 d2             	test   rdx,rdx
    4d6d:	0f 88 ad 24 00 00    	js     0x7220
    4d73:	8b 52 04             	mov    edx,DWORD PTR [rdx+0x4]
    4d76:	45 89 84 24 f4 fd ff 	mov    DWORD PTR [r12-0x20c],r8d
    4d7d:	ff 
    4d7e:	44 29 c2             	sub    edx,r8d
    4d81:	4c 89 75 98          	mov    QWORD PTR [rbp-0x68],r14
    4d85:	4c 8b 75 88          	mov    r14,QWORD PTR [rbp-0x78]
    4d89:	49 8b 46 28          	mov    rax,QWORD PTR [r14+0x28]
    4d8d:	49 89 44 24 c8       	mov    QWORD PTR [r12-0x38],rax
    4d92:	31 c0                	xor    eax,eax
    4d94:	48 8d 1c d5 0f 00 00 	lea    rbx,[rdx*8+0xf]
    4d9b:	00 
    4d9c:	41 89 94 24 34 fe ff 	mov    DWORD PTR [r12-0x1cc],edx
    4da3:	ff 
    4da4:	4c 89 ea             	mov    rdx,r13
    4da7:	48 c1 eb 04          	shr    rbx,0x4
    4dab:	48 85 f6             	test   rsi,rsi
    4dae:	0f 88 6c 24 00 00    	js     0x7220
    4db4:	48 8b 86 e8 03 00 00 	mov    rax,QWORD PTR [rsi+0x3e8]
    4dbb:	48 c1 e3 04          	shl    rbx,0x4
    4dbf:	48 89 df             	mov    rdi,rbx
    4dc2:	49 89 84 24 20 fe ff 	mov    QWORD PTR [r12-0x1e0],rax
    4dc9:	ff 
    4dca:	48 81 e7 00 f0 ff ff 	and    rdi,0xfffffffffffff000
    4dd1:	48 29 fa             	sub    rdx,rdi
    4dd4:	48 89 d6             	mov    rsi,rdx
    4dd7:	49 39 f5             	cmp    r13,rsi
    4dda:	4c 89 7d a8          	mov    QWORD PTR [rbp-0x58],r15
    4dde:	74 14                	je     0x4df4
    4de0:	49 81 ed 00 10 00 00 	sub    r13,0x1000
    4de7:	49 83 8d f8 0f 00 00 	or     QWORD PTR [r13+0xff8],0x0
    4dee:	00 
    4def:	49 39 f5             	cmp    r13,rsi
    4df2:	75 ec                	jne    0x4de0
    4df4:	81 e3 ff 0f 00 00    	and    ebx,0xfff
    4dfa:	49 29 dd             	sub    r13,rbx
    4dfd:	48 85 db             	test   rbx,rbx
    4e00:	0f 85 df 0c 00 00    	jne    0x5ae5
    4e06:	89 c9                	mov    ecx,ecx
    4e08:	45 8b 94 24 34 fe ff 	mov    r10d,DWORD PTR [r12-0x1cc]
    4e0f:	ff 
    4e10:	4c 8b 75 a8          	mov    r14,QWORD PTR [rbp-0x58]
    4e14:	4d 89 ee             	mov    r14,r13
    4e17:	49 89 c8             	mov    r8,rcx
    4e1a:	49 89 8c 24 e8 fd ff 	mov    QWORD PTR [r12-0x218],rcx
    4e21:	ff 
    4e22:	49 c1 e0 05          	shl    r8,0x5
    4e26:	49 01 c8             	add    r8,rcx
    4e29:	49 c1 e0 03          	shl    r8,0x3
    4e2d:	4d 8d 88 d8 3f 00 00 	lea    r9,[r8+0x3fd8]
    4e34:	49 81 c0 18 40 00 00 	add    r8,0x4018
    4e3b:	4d 89 8c 24 08 fe ff 	mov    QWORD PTR [r12-0x1f8],r9
    4e42:	ff 
    4e43:	4d 89 84 24 00 fe ff 	mov    QWORD PTR [r12-0x200],r8
    4e4a:	ff 
    4e4b:	45 85 d2             	test   r10d,r10d
    4e4e:	4c 89 75 a8          	mov    QWORD PTR [rbp-0x58],r14
    4e52:	0f 84 69 0b 00 00    	je     0x59c1
    4e58:	4c 8b 75 b0          	mov    r14,QWORD PTR [rbp-0x50]
    4e5c:	4d 85 f6             	test   r14,r14
    4e5f:	49 8d 56 28          	lea    rdx,[r14+0x28]
    4e63:	4c 8b 7d a8          	mov    r15,QWORD PTR [rbp-0x58]
    4e67:	49 8d 47 f8          	lea    rax,[r15-0x8]
    4e6b:	4c 89 fb             	mov    rbx,r15
    4e6e:	4d 8d 9c 24 40 fe ff 	lea    r11,[r12-0x1c0]
    4e75:	ff 
    4e76:	4c 89 75 b0          	mov    QWORD PTR [rbp-0x50],r14
    4e7a:	4c 8b 75 98          	mov    r14,QWORD PTR [rbp-0x68]
    4e7e:	45 8b b4 24 34 fe ff 	mov    r14d,DWORD PTR [r12-0x1cc]
    4e85:	ff 
    4e86:	4d 89 bc 24 38 fe ff 	mov    QWORD PTR [r12-0x1c8],r15
    4e8d:	ff 
    4e8e:	4d 89 9c 24 28 fe ff 	mov    QWORD PTR [r12-0x1d8],r11
    4e95:	ff 
    4e96:	49 0f 44 d3          	cmove  rdx,r11
    4e9a:	41 83 ee 01          	sub    r14d,0x1
    4e9e:	4f 8d 74 f7 08       	lea    r14,[r15+r14*8+0x8]
    4ea3:	49 89 c7             	mov    r15,rax
    4ea6:	90                   	nop
    4ea7:	4c 89 7d a8          	mov    QWORD PTR [rbp-0x58],r15
    4eab:	4c 89 75 98          	mov    QWORD PTR [rbp-0x68],r14
    4eaf:	4c 8b 75 a0          	mov    r14,QWORD PTR [rbp-0x60]
    4eb3:	4d 85 f6             	test   r14,r14
    4eb6:	0f 88 64 23 00 00    	js     0x7220
    4ebc:	49 8b 76 10          	mov    rsi,QWORD PTR [r14+0x10]
    4ec0:	4c 8b 7d a8          	mov    r15,QWORD PTR [rbp-0x58]
    4ec4:	4c 89 ff             	mov    rdi,r15
    4ec7:	48 29 df             	sub    rdi,rbx
    4eca:	48 85 ff             	test   rdi,rdi
    4ecd:	0f 88 4d 23 00 00    	js     0x7220
    4ed3:	48 85 f6             	test   rsi,rsi
    4ed6:	0f 88 44 23 00 00    	js     0x7220
    4edc:	48 8b 0c 37          	mov    rcx,QWORD PTR [rdi+rsi*1]
    4ee0:	4c 89 75 a0          	mov    QWORD PTR [rbp-0x60],r14
    4ee4:	4c 8b 75 b0          	mov    r14,QWORD PTR [rbp-0x50]
    4ee8:	4d 85 f6             	test   r14,r14
    4eeb:	4c 89 7d a8          	mov    QWORD PTR [rbp-0x58],r15
    4eef:	4c 89 75 b0          	mov    QWORD PTR [rbp-0x50],r14
    4ef3:	0f 84 18 09 00 00    	je     0x5811
    4ef9:	48 89 c8             	mov    rax,rcx
    4efc:	48 89 ce             	mov    rsi,rcx
    4eff:	48 c1 e8 1a          	shr    rax,0x1a
    4f03:	48 81 e6 00 00 00 c0 	and    rsi,0xffffffffc0000000
    4f0a:	25 f0 00 00 00       	and    eax,0xf0
    4f0f:	48 01 d0             	add    rax,rdx
    4f12:	48 85 c0             	test   rax,rax
    4f15:	0f 88 05 23 00 00    	js     0x7220
    4f1b:	48 8b 38             	mov    rdi,QWORD PTR [rax]
    4f1e:	48 39 fe             	cmp    rsi,rdi
    4f21:	0f 85 69 08 00 00    	jne    0x5790
    4f27:	48 c1 e9 09          	shr    rcx,0x9
    4f2b:	81 e1 f8 ff 1f 00    	and    ecx,0x1ffff8
    4f31:	48 85 c0             	test   rax,rax
    4f34:	0f 88 e6 22 00 00    	js     0x7220
    4f3a:	48 03 48 08          	add    rcx,QWORD PTR [rax+0x8]
    4f3e:	48 85 c9             	test   rcx,rcx
    4f41:	0f 88 d9 22 00 00    	js     0x7220
    4f47:	48 8b 09             	mov    rcx,QWORD PTR [rcx]
    4f4a:	48 83 c3 08          	add    rbx,0x8
    4f4e:	48 c1 e1 10          	shl    rcx,0x10
    4f52:	48 c1 f9 10          	sar    rcx,0x10
    4f56:	48 83 e1 fe          	and    rcx,0xfffffffffffffffe
    4f5a:	48 85 db             	test   rbx,rbx
    4f5d:	0f 88 bd 22 00 00    	js     0x7220
    4f63:	48 89 4b f8          	mov    QWORD PTR [rbx-0x8],rcx
    4f67:	4c 8b 75 98          	mov    r14,QWORD PTR [rbp-0x68]
    4f6b:	49 39 de             	cmp    r14,rbx
    4f6e:	4c 89 75 98          	mov    QWORD PTR [rbp-0x68],r14
    4f72:	0f 85 37 ff ff ff    	jne    0x4eaf
    4f78:	49 8b 94 24 e8 fd ff 	mov    rdx,QWORD PTR [r12-0x218]
    4f7f:	ff 
    4f80:	4c 8b 75 98          	mov    r14,QWORD PTR [rbp-0x68]
    4f84:	4d 8b b4 24 20 fe ff 	mov    r14,QWORD PTR [r12-0x1e0]
    4f8b:	ff 
    4f8c:	41 c6 84 24 33 fe ff 	mov    BYTE PTR [r12-0x1cd],0x0
    4f93:	ff 00 
    4f95:	49 bf e2 35 6c 55 55 	movabs r15,0x5555556c35e2
    4f9c:	55 00 00 
    4f9f:	4d 8d 87 9e 40 09 00 	lea    r8,[r15+0x9409e]
    4fa6:	4c 8b 7d a8          	mov    r15,QWORD PTR [rbp-0x58]
    4faa:	4d 8b bc 24 38 fe ff 	mov    r15,QWORD PTR [r12-0x1c8]
    4fb1:	ff 
    4fb2:	4c 89 75 98          	mov    QWORD PTR [rbp-0x68],r14
    4fb6:	4c 8b 75 b0          	mov    r14,QWORD PTR [rbp-0x50]
    4fba:	4d 89 b4 24 38 fe ff 	mov    QWORD PTR [r12-0x1c8],r14
    4fc1:	ff 
    4fc2:	48 89 d3             	mov    rbx,rdx
    4fc5:	48 c1 e3 05          	shl    rbx,0x5
    4fc9:	48 01 d3             	add    rbx,rdx
    4fcc:	4c 89 75 b0          	mov    QWORD PTR [rbp-0x50],r14
    4fd0:	4c 8b 75 98          	mov    r14,QWORD PTR [rbp-0x68]
    4fd4:	49 8d 34 de          	lea    rsi,[r14+rbx*8]
    4fd8:	49 89 b4 24 f8 fd ff 	mov    QWORD PTR [r12-0x208],rsi
    4fdf:	ff 
    4fe0:	90                   	nop
    4fe1:	4c 89 7d a8          	mov    QWORD PTR [rbp-0x58],r15
    4fe5:	4c 89 75 98          	mov    QWORD PTR [rbp-0x68],r14
    4fe9:	4c 8b 75 a8          	mov    r14,QWORD PTR [rbp-0x58]
    4fed:	4c 8b 7d b0          	mov    r15,QWORD PTR [rbp-0x50]
    4ff1:	4d 85 f6             	test   r14,r14
    4ff4:	0f 88 26 22 00 00    	js     0x7220
    4ffa:	4d 8b 3e             	mov    r15,QWORD PTR [r14]
    4ffd:	4d 85 ff             	test   r15,r15
    5000:	0f 88 1a 22 00 00    	js     0x7220
    5006:	49 8b 07             	mov    rax,QWORD PTR [r15]
    5009:	25 ff 0f 00 00       	and    eax,0xfff
    500e:	4d 85 c0             	test   r8,r8
    5011:	0f 88 09 22 00 00    	js     0x7220
    5017:	4d 8b 3c c0          	mov    r15,QWORD PTR [r8+rax*8]
    501b:	49 8b bc 24 00 fe ff 	mov    rdi,QWORD PTR [r12-0x200]
    5022:	ff 
    5023:	4d 8b 84 24 08 fe ff 	mov    r8,QWORD PTR [r12-0x1f8]
    502a:	ff 
    502b:	4c 01 ff             	add    rdi,r15
    502e:	4b 8d 1c 07          	lea    rbx,[r15+r8*1]
    5032:	49 89 bc 24 28 fe ff 	mov    QWORD PTR [r12-0x1d8],rdi
    5039:	ff 
    503a:	4c 89 75 a8          	mov    QWORD PTR [rbp-0x58],r14
    503e:	49 be 38 36 6c 55 55 	movabs r14,0x5555556c3638
    5045:	55 00 00 
    5048:	4d 8d 6d f8          	lea    r13,[r13-0x8]
    504c:	4d 89 75 00          	mov    QWORD PTR [r13+0x0],r14
    5050:	4c 89 7d b0          	mov    QWORD PTR [rbp-0x50],r15
    5054:	e9 e4 1d 00 00       	jmp    0x6e3d
    5059:	49 be 3f 36 6c 55 55 	movabs r14,0x5555556c363f
    5060:	55 00 00 
    5063:	4d 8d 8e 41 40 09 00 	lea    r9,[r14+0x94041]
    506a:	85 c0                	test   eax,eax
    506c:	0f 85 40 06 00 00    	jne    0x56b2
    5072:	48 85 db             	test   rbx,rbx
    5075:	0f 88 a5 21 00 00    	js     0x7220
    507b:	48 83 43 38 01       	add    QWORD PTR [rbx+0x38],0x1
    5080:	4d 8b 9c 24 38 fe ff 	mov    r11,QWORD PTR [r12-0x1c8]
    5087:	ff 
    5088:	48 85 db             	test   rbx,rbx
    508b:	0f 88 8f 21 00 00    	js     0x7220
    5091:	4c 3b 5b 30          	cmp    r11,QWORD PTR [rbx+0x30]
    5095:	74 1b                	je     0x50b2
    5097:	48 85 db             	test   rbx,rbx
    509a:	0f 88 80 21 00 00    	js     0x7220
    50a0:	48 83 43 28 01       	add    QWORD PTR [rbx+0x28],0x1
    50a5:	48 85 db             	test   rbx,rbx
    50a8:	0f 88 72 21 00 00    	js     0x7220
    50ae:	4c 89 5b 30          	mov    QWORD PTR [rbx+0x30],r11
    50b2:	4c 8b 75 b0          	mov    r14,QWORD PTR [rbp-0x50]
    50b6:	4d 39 b4 24 20 fe ff 	cmp    QWORD PTR [r12-0x1e0],r14
    50bd:	ff 
    50be:	4c 89 75 b0          	mov    QWORD PTR [rbp-0x50],r14
    50c2:	0f 84 1a 06 00 00    	je     0x56e2
    50c8:	41 8b 94 24 34 fe ff 	mov    edx,DWORD PTR [r12-0x1cc]
    50cf:	ff 
    50d0:	85 d2                	test   edx,edx
    50d2:	0f 84 72 06 00 00    	je     0x574a
    50d8:	83 ea 01             	sub    edx,0x1
    50db:	49 c7 c2 f8 ff ff ff 	mov    r10,0xfffffffffffffff8
    50e2:	48 c7 c3 f8 ff ff ff 	mov    rbx,0xfffffffffffffff8
    50e9:	4c 8b 75 98          	mov    r14,QWORD PTR [rbp-0x68]
    50ed:	45 31 f6             	xor    r14d,r14d
    50f0:	48 f7 da             	neg    rdx
    50f3:	4c 89 d0             	mov    rax,r10
    50f6:	4c 8d 1c d5 f0 ff ff 	lea    r11,[rdx*8-0x10]
    50fd:	ff 
    50fe:	4c 29 d8             	sub    rax,r11
    5101:	a8 08                	test   al,0x8
    5103:	4c 89 75 98          	mov    QWORD PTR [rbp-0x68],r14
    5107:	0f 84 bc 00 00 00    	je     0x51c9
    510d:	4c 8b 75 a8          	mov    r14,QWORD PTR [rbp-0x58]
    5111:	4d 85 f6             	test   r14,r14
    5114:	0f 88 06 21 00 00    	js     0x7220
    511a:	49 8b 16             	mov    rdx,QWORD PTR [r14]
    511d:	4c 8b 7d a0          	mov    r15,QWORD PTR [rbp-0x60]
    5121:	4d 85 ff             	test   r15,r15
    5124:	0f 88 f6 20 00 00    	js     0x7220
    512a:	49 8b 77 10          	mov    rsi,QWORD PTR [r15+0x10]
    512e:	48 85 d2             	test   rdx,rdx
    5131:	0f 88 e9 20 00 00    	js     0x7220
    5137:	4c 8b 02             	mov    r8,QWORD PTR [rdx]
    513a:	48 85 f6             	test   rsi,rsi
    513d:	0f 88 dd 20 00 00    	js     0x7220
    5143:	48 8b 4e f8          	mov    rcx,QWORD PTR [rsi-0x8]
    5147:	41 81 e0 ff 0f 00 00 	and    r8d,0xfff
    514e:	4d 85 c9             	test   r9,r9
    5151:	0f 88 c9 20 00 00    	js     0x7220
    5157:	4b 8b 3c c1          	mov    rdi,QWORD PTR [r9+r8*8]
    515b:	4c 89 75 a8          	mov    QWORD PTR [rbp-0x58],r14
    515f:	4c 8b 75 b0          	mov    r14,QWORD PTR [rbp-0x50]
    5163:	49 39 fe             	cmp    r14,rdi
    5166:	4c 89 7d a0          	mov    QWORD PTR [rbp-0x60],r15
    516a:	4c 89 75 b0          	mov    QWORD PTR [rbp-0x50],r14
    516e:	0f 84 f6 07 00 00    	je     0x596a
    5174:	4c 8b 75 a0          	mov    r14,QWORD PTR [rbp-0x60]
    5178:	4d 85 f6             	test   r14,r14
    517b:	0f 88 9f 20 00 00    	js     0x7220
    5181:	49 8b 5e 10          	mov    rbx,QWORD PTR [r14+0x10]
    5185:	4c 8b 7d a8          	mov    r15,QWORD PTR [rbp-0x58]
    5189:	4d 85 ff             	test   r15,r15
    518c:	0f 88 8e 20 00 00    	js     0x7220
    5192:	49 89 17             	mov    QWORD PTR [r15],rdx
    5195:	4c 89 75 a0          	mov    QWORD PTR [rbp-0x60],r14
    5199:	4c 8b 75 98          	mov    r14,QWORD PTR [rbp-0x68]
    519d:	41 be 01 00 00 00    	mov    r14d,0x1
    51a3:	48 85 db             	test   rbx,rbx
    51a6:	0f 88 74 20 00 00    	js     0x7220
    51ac:	48 89 4b f8          	mov    QWORD PTR [rbx-0x8],rcx
    51b0:	4c 89 7d a8          	mov    QWORD PTR [rbp-0x58],r15
    51b4:	4c 89 75 98          	mov    QWORD PTR [rbp-0x68],r14
    51b8:	48 c7 c3 f0 ff ff ff 	mov    rbx,0xfffffffffffffff0
    51bf:	49 83 fb f0          	cmp    r11,0xfffffffffffffff0
    51c3:	0f 84 59 02 00 00    	je     0x5422
    51c9:	4c 8b 75 a8          	mov    r14,QWORD PTR [rbp-0x58]
    51cd:	4c 89 f1             	mov    rcx,r14
    51d0:	4c 8b 7d b0          	mov    r15,QWORD PTR [rbp-0x50]
    51d4:	4d 89 fe             	mov    r14,r15
    51d7:	49 89 cf             	mov    r15,rcx
    51da:	4c 89 7d b0          	mov    QWORD PTR [rbp-0x50],r15
    51de:	4c 89 75 a8          	mov    QWORD PTR [rbp-0x58],r14
    51e2:	e9 4b 01 00 00       	jmp    0x5332
    51e7:	4c 8b 75 98          	mov    r14,QWORD PTR [rbp-0x68]
    51eb:	44 89 f0             	mov    eax,r14d
    51ee:	4c 8b 7d a0          	mov    r15,QWORD PTR [rbp-0x60]
    51f2:	4d 85 ff             	test   r15,r15
    51f5:	0f 88 25 20 00 00    	js     0x7220
    51fb:	4d 8b 47 10          	mov    r8,QWORD PTR [r15+0x10]
    51ff:	4c 89 d6             	mov    rsi,r10
    5202:	41 83 c6 01          	add    r14d,0x1
    5206:	48 8d 3c c5 00 00 00 	lea    rdi,[rax*8+0x0]
    520d:	00 
    520e:	4c 89 75 98          	mov    QWORD PTR [rbp-0x68],r14
    5212:	4c 8b 75 b0          	mov    r14,QWORD PTR [rbp-0x50]
    5216:	4d 85 f6             	test   r14,r14
    5219:	0f 88 01 20 00 00    	js     0x7220
    521f:	49 89 14 c6          	mov    QWORD PTR [r14+rax*8],rdx
    5223:	48 29 fe             	sub    rsi,rdi
    5226:	4d 85 c0             	test   r8,r8
    5229:	0f 88 f1 1f 00 00    	js     0x7220
    522f:	48 85 f6             	test   rsi,rsi
    5232:	0f 88 e8 1f 00 00    	js     0x7220
    5238:	49 89 0c 30          	mov    QWORD PTR [r8+rsi*1],rcx
    523c:	4c 89 7d a0          	mov    QWORD PTR [rbp-0x60],r15
    5240:	4c 89 75 b0          	mov    QWORD PTR [rbp-0x50],r14
    5244:	4c 8b 75 a0          	mov    r14,QWORD PTR [rbp-0x60]
    5248:	4d 85 f6             	test   r14,r14
    524b:	0f 88 cf 1f 00 00    	js     0x7220
    5251:	49 8b 4e 10          	mov    rcx,QWORD PTR [r14+0x10]
    5255:	4c 8d 43 f8          	lea    r8,[rbx-0x8]
    5259:	48 85 db             	test   rbx,rbx
    525c:	0f 88 be 1f 00 00    	js     0x7220
    5262:	48 85 c9             	test   rcx,rcx
    5265:	0f 88 b5 1f 00 00    	js     0x7220
    526b:	48 8b 4c 0b f8       	mov    rcx,QWORD PTR [rbx+rcx*1-0x8]
    5270:	4c 89 c3             	mov    rbx,r8
    5273:	48 f7 db             	neg    rbx
    5276:	4c 8b 7d b0          	mov    r15,QWORD PTR [rbp-0x50]
    527a:	4d 85 ff             	test   r15,r15
    527d:	0f 88 9d 1f 00 00    	js     0x7220
    5283:	48 85 db             	test   rbx,rbx
    5286:	0f 88 94 1f 00 00    	js     0x7220
    528c:	49 8b 54 1f f8       	mov    rdx,QWORD PTR [r15+rbx*1-0x8]
    5291:	48 85 d2             	test   rdx,rdx
    5294:	0f 88 86 1f 00 00    	js     0x7220
    529a:	48 8b 02             	mov    rax,QWORD PTR [rdx]
    529d:	25 ff 0f 00 00       	and    eax,0xfff
    52a2:	4d 85 c9             	test   r9,r9
    52a5:	0f 88 75 1f 00 00    	js     0x7220
    52ab:	49 8b 3c c1          	mov    rdi,QWORD PTR [r9+rax*8]
    52af:	4c 89 75 a0          	mov    QWORD PTR [rbp-0x60],r14
    52b3:	4c 8b 75 a8          	mov    r14,QWORD PTR [rbp-0x58]
    52b7:	49 39 fe             	cmp    r14,rdi
    52ba:	4c 89 7d b0          	mov    QWORD PTR [rbp-0x50],r15
    52be:	4c 89 75 a8          	mov    QWORD PTR [rbp-0x58],r14
    52c2:	0f 84 83 03 00 00    	je     0x564b
    52c8:	4c 8b 75 98          	mov    r14,QWORD PTR [rbp-0x68]
    52cc:	44 89 f0             	mov    eax,r14d
    52cf:	4c 89 d7             	mov    rdi,r10
    52d2:	41 83 c6 01          	add    r14d,0x1
    52d6:	48 8d 1c c5 00 00 00 	lea    rbx,[rax*8+0x0]
    52dd:	00 
    52de:	4c 8b 7d b0          	mov    r15,QWORD PTR [rbp-0x50]
    52e2:	4d 85 ff             	test   r15,r15
    52e5:	0f 88 35 1f 00 00    	js     0x7220
    52eb:	49 89 14 c7          	mov    QWORD PTR [r15+rax*8],rdx
    52ef:	48 29 df             	sub    rdi,rbx
    52f2:	4c 89 75 98          	mov    QWORD PTR [rbp-0x68],r14
    52f6:	4c 8b 75 a0          	mov    r14,QWORD PTR [rbp-0x60]
    52fa:	4d 85 f6             	test   r14,r14
    52fd:	0f 88 1d 1f 00 00    	js     0x7220
    5303:	49 8b 5e 10          	mov    rbx,QWORD PTR [r14+0x10]
    5307:	48 85 db             	test   rbx,rbx
    530a:	0f 88 10 1f 00 00    	js     0x7220
    5310:	48 85 ff             	test   rdi,rdi
    5313:	0f 88 07 1f 00 00    	js     0x7220
    5319:	48 89 0c 3b          	mov    QWORD PTR [rbx+rdi*1],rcx
    531d:	4c 89 7d b0          	mov    QWORD PTR [rbp-0x50],r15
    5321:	4c 89 75 a0          	mov    QWORD PTR [rbp-0x60],r14
    5325:	49 8d 58 f8          	lea    rbx,[r8-0x8]
    5329:	49 39 db             	cmp    r11,rbx
    532c:	0f 84 d7 00 00 00    	je     0x5409
    5332:	4c 8b 75 a0          	mov    r14,QWORD PTR [rbp-0x60]
    5336:	4d 85 f6             	test   r14,r14
    5339:	0f 88 e1 1e 00 00    	js     0x7220
    533f:	49 8b 56 10          	mov    rdx,QWORD PTR [r14+0x10]
    5343:	48 89 d8             	mov    rax,rbx
    5346:	48 f7 d8             	neg    rax
    5349:	48 85 db             	test   rbx,rbx
    534c:	0f 88 ce 1e 00 00    	js     0x7220
    5352:	48 85 d2             	test   rdx,rdx
    5355:	0f 88 c5 1e 00 00    	js     0x7220
    535b:	48 8b 0c 13          	mov    rcx,QWORD PTR [rbx+rdx*1]
    535f:	4c 8b 7d b0          	mov    r15,QWORD PTR [rbp-0x50]
    5363:	4d 85 ff             	test   r15,r15
    5366:	0f 88 b4 1e 00 00    	js     0x7220
    536c:	48 85 c0             	test   rax,rax
    536f:	0f 88 ab 1e 00 00    	js     0x7220
    5375:	49 8b 54 07 f8       	mov    rdx,QWORD PTR [r15+rax*1-0x8]
    537a:	48 85 d2             	test   rdx,rdx
    537d:	0f 88 9d 1e 00 00    	js     0x7220
    5383:	48 8b 32             	mov    rsi,QWORD PTR [rdx]
    5386:	81 e6 ff 0f 00 00    	and    esi,0xfff
    538c:	4d 85 c9             	test   r9,r9
    538f:	0f 88 8b 1e 00 00    	js     0x7220
    5395:	4d 8b 04 f1          	mov    r8,QWORD PTR [r9+rsi*8]
    5399:	4c 89 75 a0          	mov    QWORD PTR [rbp-0x60],r14
    539d:	4c 8b 75 a8          	mov    r14,QWORD PTR [rbp-0x58]
    53a1:	4d 39 c6             	cmp    r14,r8
    53a4:	4c 89 7d b0          	mov    QWORD PTR [rbp-0x50],r15
    53a8:	4c 89 75 a8          	mov    QWORD PTR [rbp-0x58],r14
    53ac:	0f 85 35 fe ff ff    	jne    0x51e7
    53b2:	49 8b bc 24 38 fe ff 	mov    rdi,QWORD PTR [r12-0x1c8]
    53b9:	ff 
    53ba:	4c 8b 75 a8          	mov    r14,QWORD PTR [rbp-0x58]
    53be:	4c 89 f6             	mov    rsi,r14
    53c1:	4d 89 9c 24 18 fe ff 	mov    QWORD PTR [r12-0x1e8],r11
    53c8:	ff 
    53c9:	49 bf af 37 6c 55 55 	movabs r15,0x5555556c37af
    53d0:	55 00 00 
    53d3:	4d 8d 6d f8          	lea    r13,[r13-0x8]
    53d7:	4d 89 7d 00          	mov    QWORD PTR [r13+0x0],r15
    53db:	4c 89 75 a8          	mov    QWORD PTR [rbp-0x58],r14
    53df:	e9 ca 1d 00 00       	jmp    0x71ae
    53e4:	4d 8b 9c 24 18 fe ff 	mov    r11,QWORD PTR [r12-0x1e8]
    53eb:	ff 
    53ec:	49 be bd 37 6c 55 55 	movabs r14,0x5555556c37bd
    53f3:	55 00 00 
    53f6:	4d 8d 8e c3 3e 09 00 	lea    r9,[r14+0x93ec3]
    53fd:	49 c7 c2 f8 ff ff ff 	mov    r10,0xfffffffffffffff8
    5404:	e9 3b fe ff ff       	jmp    0x5244
    5409:	4c 8b 75 b0          	mov    r14,QWORD PTR [rbp-0x50]
    540d:	4c 89 f2             	mov    rdx,r14
    5410:	4c 8b 7d a8          	mov    r15,QWORD PTR [rbp-0x58]
    5414:	4d 89 fe             	mov    r14,r15
    5417:	49 89 d7             	mov    r15,rdx
    541a:	4c 89 7d a8          	mov    QWORD PTR [rbp-0x58],r15
    541e:	4c 89 75 b0          	mov    QWORD PTR [rbp-0x50],r14
    5422:	49 8b bc 24 28 fe ff 	mov    rdi,QWORD PTR [r12-0x1d8]
    5429:	ff 
    542a:	49 be e5 37 6c 55 55 	movabs r14,0x5555556c37e5
    5431:	55 00 00 
    5434:	4d 8d 6d f8          	lea    r13,[r13-0x8]
    5438:	4d 89 75 00          	mov    QWORD PTR [r13+0x0],r14
    543c:	e9 56 1d 00 00       	jmp    0x7197
    5441:	41 8b 9c 24 34 fe ff 	mov    ebx,DWORD PTR [r12-0x1cc]
    5448:	ff 
    5449:	49 be f2 37 6c 55 55 	movabs r14,0x5555556c37f2
    5450:	55 00 00 
    5453:	4d 8d 86 8e 3e 09 00 	lea    r8,[r14+0x93e8e]
    545a:	4c 8b 75 98          	mov    r14,QWORD PTR [rbp-0x68]
    545e:	44 29 f3             	sub    ebx,r14d
    5461:	49 83 bc 24 38 fe ff 	cmp    QWORD PTR [r12-0x1c8],0x0
    5468:	ff 00 
    546a:	4c 89 75 98          	mov    QWORD PTR [rbp-0x68],r14
    546e:	0f 84 ae 04 00 00    	je     0x5922
    5474:	4c 8b 75 98          	mov    r14,QWORD PTR [rbp-0x68]
    5478:	45 89 b4 24 34 fe ff 	mov    DWORD PTR [r12-0x1cc],r14d
    547f:	ff 
    5480:	4c 89 75 98          	mov    QWORD PTR [rbp-0x68],r14
    5484:	49 8b 8c 24 38 fe ff 	mov    rcx,QWORD PTR [r12-0x1c8]
    548b:	ff 
    548c:	4c 8b 75 b0          	mov    r14,QWORD PTR [rbp-0x50]
    5490:	4c 8b 7d 98          	mov    r15,QWORD PTR [rbp-0x68]
    5494:	4d 85 f6             	test   r14,r14
    5497:	0f 88 83 1d 00 00    	js     0x7220
    549d:	4d 8b be 10 68 00 00 	mov    r15,QWORD PTR [r14+0x6810]
    54a4:	48 85 c9             	test   rcx,rcx
    54a7:	0f 88 73 1d 00 00    	js     0x7220
    54ad:	48 8b 81 b8 01 00 00 	mov    rax,QWORD PTR [rcx+0x1b8]
    54b4:	4d 85 ff             	test   r15,r15
    54b7:	0f 88 63 1d 00 00    	js     0x7220
    54bd:	41 8b 37             	mov    esi,DWORD PTR [r15]
    54c0:	48 85 c0             	test   rax,rax
    54c3:	4c 89 7d 98          	mov    QWORD PTR [rbp-0x68],r15
    54c7:	4c 89 75 b0          	mov    QWORD PTR [rbp-0x50],r14
    54cb:	0f 84 84 03 00 00    	je     0x5855
    54d1:	4d 8b 9c 24 38 fe ff 	mov    r11,QWORD PTR [r12-0x1c8]
    54d8:	ff 
    54d9:	89 f7                	mov    edi,esi
    54db:	48 8d 3c f8          	lea    rdi,[rax+rdi*8]
    54df:	4d 85 db             	test   r11,r11
    54e2:	0f 88 38 1d 00 00    	js     0x7220
    54e8:	41 3b 73 04          	cmp    esi,DWORD PTR [r11+0x4]
    54ec:	0f 83 45 04 00 00    	jae    0x5937
    54f2:	48 85 ff             	test   rdi,rdi
    54f5:	0f 88 25 1d 00 00    	js     0x7220
    54fb:	29 1f                	sub    DWORD PTR [rdi],ebx
    54fd:	0f 88 9f 03 00 00    	js     0x58a2
    5503:	41 8b b4 24 34 fe ff 	mov    esi,DWORD PTR [r12-0x1cc]
    550a:	ff 
    550b:	85 f6                	test   esi,esi
    550d:	0f 85 d6 fa ff ff    	jne    0x4fe9
    5513:	41 80 bc 24 33 fe ff 	cmp    BYTE PTR [r12-0x1cd],0x0
    551a:	ff 00 
    551c:	4c 8b 75 b0          	mov    r14,QWORD PTR [rbp-0x50]
    5520:	4d 8b b4 24 38 fe ff 	mov    r14,QWORD PTR [r12-0x1c8]
    5527:	ff 
    5528:	4c 89 75 b0          	mov    QWORD PTR [rbp-0x50],r14
    552c:	0f 84 8f 04 00 00    	je     0x59c1
    5532:	41 8b 94 24 f4 fd ff 	mov    edx,DWORD PTR [r12-0x20c]
    5539:	ff 
    553a:	4c 8b 75 a0          	mov    r14,QWORD PTR [rbp-0x60]
    553e:	4d 85 f6             	test   r14,r14
    5541:	0f 88 d9 1c 00 00    	js     0x7220
    5547:	49 8b 7e 10          	mov    rdi,QWORD PTR [r14+0x10]
    554b:	4d 85 f6             	test   r14,r14
    554e:	0f 88 cc 1c 00 00    	js     0x7220
    5554:	4d 63 5e 04          	movsxd r11,DWORD PTR [r14+0x4]
    5558:	4c 8b 7d b0          	mov    r15,QWORD PTR [rbp-0x50]
    555c:	49 89 d7             	mov    r15,rdx
    555f:	48 89 fe             	mov    rsi,rdi
    5562:	48 c1 e2 03          	shl    rdx,0x3
    5566:	49 c1 e3 03          	shl    r11,0x3
    556a:	48 29 d7             	sub    rdi,rdx
    556d:	4c 29 de             	sub    rsi,r11
    5570:	4c 89 75 a0          	mov    QWORD PTR [rbp-0x60],r14
    5574:	49 be 94 38 6c 55 55 	movabs r14,0x5555556c3894
    557b:	55 00 00 
    557e:	4d 8d 6d f8          	lea    r13,[r13-0x8]
    5582:	4d 89 75 00          	mov    QWORD PTR [r13+0x0],r14
    5586:	4c 89 7d b0          	mov    QWORD PTR [rbp-0x50],r15
    558a:	e9 04 1b 00 00       	jmp    0x7093
    558f:	4c 8b 75 b0          	mov    r14,QWORD PTR [rbp-0x50]
    5593:	4c 8b 7d a0          	mov    r15,QWORD PTR [rbp-0x60]
    5597:	4d 85 ff             	test   r15,r15
    559a:	0f 88 80 1c 00 00    	js     0x7220
    55a0:	45 89 77 04          	mov    DWORD PTR [r15+0x4],r14d
    55a4:	4d 85 ff             	test   r15,r15
    55a7:	0f 88 73 1c 00 00    	js     0x7220
    55ad:	45 3b 37             	cmp    r14d,DWORD PTR [r15]
    55b0:	4c 89 7d a0          	mov    QWORD PTR [rbp-0x60],r15
    55b4:	4c 89 75 b0          	mov    QWORD PTR [rbp-0x50],r14
    55b8:	7d 1c                	jge    0x55d6
    55ba:	4c 8b 75 b0          	mov    r14,QWORD PTR [rbp-0x50]
    55be:	4c 8b 7d a0          	mov    r15,QWORD PTR [rbp-0x60]
    55c2:	4d 85 ff             	test   r15,r15
    55c5:	0f 88 55 1c 00 00    	js     0x7220
    55cb:	45 89 37             	mov    DWORD PTR [r15],r14d
    55ce:	4c 89 7d a0          	mov    QWORD PTR [rbp-0x60],r15
    55d2:	4c 89 75 b0          	mov    QWORD PTR [rbp-0x50],r14
    55d6:	49 8b 44 24 c8       	mov    rax,QWORD PTR [r12-0x38]
    55db:	4c 8b 75 88          	mov    r14,QWORD PTR [rbp-0x78]
    55df:	49 33 46 28          	xor    rax,QWORD PTR [r14+0x28]
    55e3:	0f 85 23 06 00 00    	jne    0x5c0c
    55e9:	4d 8d 6c 24 d8       	lea    r13,[r12-0x28]
    55ee:	49 8b 5d 00          	mov    rbx,QWORD PTR [r13+0x0]
    55f2:	4d 8d 6d 08          	lea    r13,[r13+0x8]
    55f6:	4c 8b 75 98          	mov    r14,QWORD PTR [rbp-0x68]
    55fa:	4d 8b 75 00          	mov    r14,QWORD PTR [r13+0x0]
    55fe:	4d 8d 6d 08          	lea    r13,[r13+0x8]
    5602:	4c 8b 7d a0          	mov    r15,QWORD PTR [rbp-0x60]
    5606:	4d 8b 7d 00          	mov    r15,QWORD PTR [r13+0x0]
    560a:	4d 8d 6d 08          	lea    r13,[r13+0x8]
    560e:	4c 89 75 98          	mov    QWORD PTR [rbp-0x68],r14
    5612:	4c 8b 75 a8          	mov    r14,QWORD PTR [rbp-0x58]
    5616:	4d 8b 75 00          	mov    r14,QWORD PTR [r13+0x0]
    561a:	4d 8d 6d 08          	lea    r13,[r13+0x8]
    561e:	4c 89 75 a8          	mov    QWORD PTR [rbp-0x58],r14
    5622:	4c 8b 75 b0          	mov    r14,QWORD PTR [rbp-0x50]
    5626:	4d 8b 75 00          	mov    r14,QWORD PTR [r13+0x0]
    562a:	4d 8d 6d 08          	lea    r13,[r13+0x8]
    562e:	4d 8b 65 00          	mov    r12,QWORD PTR [r13+0x0]
    5632:	4d 8d 6d 08          	lea    r13,[r13+0x8]
    5636:	4c 89 75 b0          	mov    QWORD PTR [rbp-0x50],r14
    563a:	4d 8b 75 00          	mov    r14,QWORD PTR [r13+0x0]
    563e:	4d 8d 6d 08          	lea    r13,[r13+0x8]
    5642:	4c 89 7d a0          	mov    QWORD PTR [rbp-0x60],r15
    5646:	e9 9f 13 00 00       	jmp    0x69ea
    564b:	49 8b bc 24 38 fe ff 	mov    rdi,QWORD PTR [r12-0x1c8]
    5652:	ff 
    5653:	4c 8b 75 a8          	mov    r14,QWORD PTR [rbp-0x58]
    5657:	4c 89 f6             	mov    rsi,r14
    565a:	4d 89 9c 24 10 fe ff 	mov    QWORD PTR [r12-0x1f0],r11
    5661:	ff 
    5662:	4d 89 84 24 18 fe ff 	mov    QWORD PTR [r12-0x1e8],r8
    5669:	ff 
    566a:	49 bf e5 38 6c 55 55 	movabs r15,0x5555556c38e5
    5671:	55 00 00 
    5674:	4d 8d 6d f8          	lea    r13,[r13-0x8]
    5678:	4d 89 7d 00          	mov    QWORD PTR [r13+0x0],r15
    567c:	4c 89 75 a8          	mov    QWORD PTR [rbp-0x58],r14
    5680:	e9 29 1b 00 00       	jmp    0x71ae
    5685:	4d 8b 9c 24 10 fe ff 	mov    r11,QWORD PTR [r12-0x1f0]
    568c:	ff 
    568d:	4d 8b 84 24 18 fe ff 	mov    r8,QWORD PTR [r12-0x1e8]
    5694:	ff 
    5695:	49 c7 c2 f8 ff ff ff 	mov    r10,0xfffffffffffffff8
    569c:	49 be 01 39 6c 55 55 	movabs r14,0x5555556c3901
    56a3:	55 00 00 
    56a6:	4d 8d 8e 7f 3d 09 00 	lea    r9,[r14+0x93d7f]
    56ad:	e9 73 fc ff ff       	jmp    0x5325
    56b2:	48 89 df             	mov    rdi,rbx
    56b5:	49 be 18 39 6c 55 55 	movabs r14,0x5555556c3918
    56bc:	55 00 00 
    56bf:	4d 8d 6d f8          	lea    r13,[r13-0x8]
    56c3:	4d 89 75 00          	mov    QWORD PTR [r13+0x0],r14
    56c7:	e9 5b 18 00 00       	jmp    0x6f27
    56cc:	49 be 1f 39 6c 55 55 	movabs r14,0x5555556c391f
    56d3:	55 00 00 
    56d6:	4d 8d 8e 61 3d 09 00 	lea    r9,[r14+0x93d61]
    56dd:	e9 90 f9 ff ff       	jmp    0x5072
    56e2:	4d 8b 94 24 f8 fd ff 	mov    r10,QWORD PTR [r12-0x208]
    56e9:	ff 
    56ea:	41 8b 94 24 34 fe ff 	mov    edx,DWORD PTR [r12-0x1cc]
    56f1:	ff 
    56f2:	41 c6 84 24 33 fe ff 	mov    BYTE PTR [r12-0x1cd],0x1
    56f9:	ff 01 
    56fb:	4c 8b 75 a0          	mov    r14,QWORD PTR [rbp-0x60]
    56ff:	4d 85 f6             	test   r14,r14
    5702:	0f 88 18 1b 00 00    	js     0x7220
    5708:	49 8b 4e 08          	mov    rcx,QWORD PTR [r14+0x8]
    570c:	4d 85 d2             	test   r10,r10
    570f:	0f 88 0b 1b 00 00    	js     0x7220
    5715:	49 83 82 80 40 00 00 	add    QWORD PTR [r10+0x4080],0x1
    571c:	01 
    571d:	4d 85 d2             	test   r10,r10
    5720:	0f 88 fa 1a 00 00    	js     0x7220
    5726:	49 01 8a 68 40 00 00 	add    QWORD PTR [r10+0x4068],rcx
    572d:	4d 85 f6             	test   r14,r14
    5730:	0f 88 ea 1a 00 00    	js     0x7220
    5736:	49 c7 46 08 00 00 00 	mov    QWORD PTR [r14+0x8],0x0
    573d:	00 
    573e:	85 d2                	test   edx,edx
    5740:	4c 89 75 a0          	mov    QWORD PTR [rbp-0x60],r14
    5744:	0f 85 8e f9 ff ff    	jne    0x50d8
    574a:	49 8b bc 24 28 fe ff 	mov    rdi,QWORD PTR [r12-0x1d8]
    5751:	ff 
    5752:	49 be 6b 39 6c 55 55 	movabs r14,0x5555556c396b
    5759:	55 00 00 
    575c:	4d 8d 6d f8          	lea    r13,[r13-0x8]
    5760:	4d 89 75 00          	mov    QWORD PTR [r13+0x0],r14
    5764:	e9 2e 1a 00 00       	jmp    0x7197
    5769:	49 83 bc 24 38 fe ff 	cmp    QWORD PTR [r12-0x1c8],0x0
    5770:	ff 00 
    5772:	49 be 7a 39 6c 55 55 	movabs r14,0x5555556c397a
    5779:	55 00 00 
    577c:	4d 8d 86 06 3d 09 00 	lea    r8,[r14+0x93d06]
    5783:	0f 84 8a fd ff ff    	je     0x5513
    5789:	31 db                	xor    ebx,ebx
    578b:	e9 f4 fc ff ff       	jmp    0x5484
    5790:	48 85 d2             	test   rdx,rdx
    5793:	0f 88 87 1a 00 00    	js     0x7220
    5799:	4c 8b 82 00 01 00 00 	mov    r8,QWORD PTR [rdx+0x100]
    57a0:	4c 39 c6             	cmp    rsi,r8
    57a3:	0f 85 6f 03 00 00    	jne    0x5b18
    57a9:	48 85 d2             	test   rdx,rdx
    57ac:	0f 88 6e 1a 00 00    	js     0x7220
    57b2:	4c 8b 9a 08 01 00 00 	mov    r11,QWORD PTR [rdx+0x108]
    57b9:	48 85 d2             	test   rdx,rdx
    57bc:	0f 88 5e 1a 00 00    	js     0x7220
    57c2:	48 89 ba 00 01 00 00 	mov    QWORD PTR [rdx+0x100],rdi
    57c9:	48 c1 e9 09          	shr    rcx,0x9
    57cd:	48 85 c0             	test   rax,rax
    57d0:	0f 88 4a 1a 00 00    	js     0x7220
    57d6:	4c 8b 50 08          	mov    r10,QWORD PTR [rax+0x8]
    57da:	81 e1 f8 ff 1f 00    	and    ecx,0x1ffff8
    57e0:	4c 01 d9             	add    rcx,r11
    57e3:	48 85 d2             	test   rdx,rdx
    57e6:	0f 88 34 1a 00 00    	js     0x7220
    57ec:	4c 89 92 08 01 00 00 	mov    QWORD PTR [rdx+0x108],r10
    57f3:	48 85 c0             	test   rax,rax
    57f6:	0f 88 24 1a 00 00    	js     0x7220
    57fc:	48 89 30             	mov    QWORD PTR [rax],rsi
    57ff:	48 85 c0             	test   rax,rax
    5802:	0f 88 18 1a 00 00    	js     0x7220
    5808:	4c 89 58 08          	mov    QWORD PTR [rax+0x8],r11
    580c:	e9 2d f7 ff ff       	jmp    0x4f3e
    5811:	49 8b bc 24 28 fe ff 	mov    rdi,QWORD PTR [r12-0x1d8]
    5818:	ff 
    5819:	49 89 94 24 10 fe ff 	mov    QWORD PTR [r12-0x1f0],rdx
    5820:	ff 
    5821:	49 89 8c 24 18 fe ff 	mov    QWORD PTR [r12-0x1e8],rcx
    5828:	ff 
    5829:	49 be f2 39 6c 55 55 	movabs r14,0x5555556c39f2
    5830:	55 00 00 
    5833:	4d 8d 6d f8          	lea    r13,[r13-0x8]
    5837:	4d 89 75 00          	mov    QWORD PTR [r13+0x0],r14
    583b:	e9 17 16 00 00       	jmp    0x6e57
    5840:	49 8b 94 24 10 fe ff 	mov    rdx,QWORD PTR [r12-0x1f0]
    5847:	ff 
    5848:	49 8b 8c 24 18 fe ff 	mov    rcx,QWORD PTR [r12-0x1e8]
    584f:	ff 
    5850:	e9 a4 f6 ff ff       	jmp    0x4ef9
    5855:	49 8b bc 24 38 fe ff 	mov    rdi,QWORD PTR [r12-0x1c8]
    585c:	ff 
    585d:	49 be 11 3a 6c 55 55 	movabs r14,0x5555556c3a11
    5864:	55 00 00 
    5867:	4d 8d 6d f8          	lea    r13,[r13-0x8]
    586b:	4d 89 75 00          	mov    QWORD PTR [r13+0x0],r14
    586f:	e9 17 16 00 00       	jmp    0x6e8b
    5874:	49 be 18 3a 6c 55 55 	movabs r14,0x5555556c3a18
    587b:	55 00 00 
    587e:	4d 8d 86 68 3c 09 00 	lea    r8,[r14+0x93c68]
    5885:	48 89 c7             	mov    rdi,rax
    5888:	48 85 ff             	test   rdi,rdi
    588b:	0f 84 72 fc ff ff    	je     0x5503
    5891:	48 85 ff             	test   rdi,rdi
    5894:	0f 88 86 19 00 00    	js     0x7220
    589a:	29 1f                	sub    DWORD PTR [rdi],ebx
    589c:	0f 89 61 fc ff ff    	jns    0x5503
    58a2:	48 85 ff             	test   rdi,rdi
    58a5:	0f 88 75 19 00 00    	js     0x7220
    58ab:	8b 77 04             	mov    esi,DWORD PTR [rdi+0x4]
    58ae:	49 be 34 3a 6c 55 55 	movabs r14,0x5555556c3a34
    58b5:	55 00 00 
    58b8:	4d 8d 6d f8          	lea    r13,[r13-0x8]
    58bc:	4d 89 75 00          	mov    QWORD PTR [r13+0x0],r14
    58c0:	e9 8e 14 00 00       	jmp    0x6d53
    58c5:	49 be 3b 3a 6c 55 55 	movabs r14,0x5555556c3a3b
    58cc:	55 00 00 
    58cf:	4d 8d 86 45 3c 09 00 	lea    r8,[r14+0x93c45]
    58d6:	84 c0                	test   al,al
    58d8:	0f 84 25 fc ff ff    	je     0x5503
    58de:	49 8b bc 24 38 fe ff 	mov    rdi,QWORD PTR [r12-0x1c8]
    58e5:	ff 
    58e6:	31 c9                	xor    ecx,ecx
    58e8:	31 d2                	xor    edx,edx
    58ea:	4c 8b 75 b0          	mov    r14,QWORD PTR [rbp-0x50]
    58ee:	4c 89 f6             	mov    rsi,r14
    58f1:	49 bf 56 3a 6c 55 55 	movabs r15,0x5555556c3a56
    58f8:	55 00 00 
    58fb:	4d 8d 6d f8          	lea    r13,[r13-0x8]
    58ff:	4d 89 7d 00          	mov    QWORD PTR [r13+0x0],r15
    5903:	4c 89 75 b0          	mov    QWORD PTR [rbp-0x50],r14
    5907:	e9 71 18 00 00       	jmp    0x717d
    590c:	49 be 5d 3a 6c 55 55 	movabs r14,0x5555556c3a5d
    5913:	55 00 00 
    5916:	4d 8d 86 23 3c 09 00 	lea    r8,[r14+0x93c23]
    591d:	e9 e1 fb ff ff       	jmp    0x5503
    5922:	4c 8b 75 98          	mov    r14,QWORD PTR [rbp-0x68]
    5926:	45 89 b4 24 34 fe ff 	mov    DWORD PTR [r12-0x1cc],r14d
    592d:	ff 
    592e:	4c 89 75 98          	mov    QWORD PTR [rbp-0x68],r14
    5932:	e9 cc fb ff ff       	jmp    0x5503
    5937:	4c 89 df             	mov    rdi,r11
    593a:	49 be 76 3a 6c 55 55 	movabs r14,0x5555556c3a76
    5941:	55 00 00 
    5944:	4d 8d 6d f8          	lea    r13,[r13-0x8]
    5948:	4d 89 75 00          	mov    QWORD PTR [r13+0x0],r14
    594c:	e9 3a 15 00 00       	jmp    0x6e8b
    5951:	49 be 7d 3a 6c 55 55 	movabs r14,0x5555556c3a7d
    5958:	55 00 00 
    595b:	4d 8d 86 03 3c 09 00 	lea    r8,[r14+0x93c03]
    5962:	48 89 c7             	mov    rdi,rax
    5965:	e9 1e ff ff ff       	jmp    0x5888
    596a:	49 8b bc 24 38 fe ff 	mov    rdi,QWORD PTR [r12-0x1c8]
    5971:	ff 
    5972:	4c 8b 75 b0          	mov    r14,QWORD PTR [rbp-0x50]
    5976:	4c 89 f6             	mov    rsi,r14
    5979:	4d 89 9c 24 18 fe ff 	mov    QWORD PTR [r12-0x1e8],r11
    5980:	ff 
    5981:	49 bf 98 3a 6c 55 55 	movabs r15,0x5555556c3a98
    5988:	55 00 00 
    598b:	4d 8d 6d f8          	lea    r13,[r13-0x8]
    598f:	4d 89 7d 00          	mov    QWORD PTR [r13+0x0],r15
    5993:	4c 89 75 b0          	mov    QWORD PTR [rbp-0x50],r14
    5997:	e9 12 18 00 00       	jmp    0x71ae
    599c:	4d 8b 9c 24 18 fe ff 	mov    r11,QWORD PTR [r12-0x1e8]
    59a3:	ff 
    59a4:	49 c7 c2 f8 ff ff ff 	mov    r10,0xfffffffffffffff8
    59ab:	49 be ad 3a 6c 55 55 	movabs r14,0x5555556c3aad
    59b2:	55 00 00 
    59b5:	4d 8d 8e d3 3b 09 00 	lea    r9,[r14+0x93bd3]
    59bc:	e9 f7 f7 ff ff       	jmp    0x51b8
    59c1:	4d 8b 94 24 20 fe ff 	mov    r10,QWORD PTR [r12-0x1e0]
    59c8:	ff 
    59c9:	4c 8b 75 a8          	mov    r14,QWORD PTR [rbp-0x58]
    59cd:	4d 8b b4 24 00 fe ff 	mov    r14,QWORD PTR [r12-0x200]
    59d4:	ff 
    59d5:	49 8b 9c 24 08 fe ff 	mov    rbx,QWORD PTR [r12-0x1f8]
    59dc:	ff 
    59dd:	4d 01 d6             	add    r14,r10
    59e0:	4c 89 f7             	mov    rdi,r14
    59e3:	4c 01 d3             	add    rbx,r10
    59e6:	49 bf d5 3a 6c 55 55 	movabs r15,0x5555556c3ad5
    59ed:	55 00 00 
    59f0:	4d 8d 6d f8          	lea    r13,[r13-0x8]
    59f4:	4d 89 7d 00          	mov    QWORD PTR [r13+0x0],r15
    59f8:	4c 89 75 a8          	mov    QWORD PTR [rbp-0x58],r14
    59fc:	e9 3c 14 00 00       	jmp    0x6e3d
    5a01:	85 c0                	test   eax,eax
    5a03:	0f 85 f0 00 00 00    	jne    0x5af9
    5a09:	48 85 db             	test   rbx,rbx
    5a0c:	0f 88 0e 18 00 00    	js     0x7220
    5a12:	48 83 43 38 01       	add    QWORD PTR [rbx+0x38],0x1
    5a17:	4c 8b 75 b0          	mov    r14,QWORD PTR [rbp-0x50]
    5a1b:	48 85 db             	test   rbx,rbx
    5a1e:	0f 88 fc 17 00 00    	js     0x7220
    5a24:	4c 3b 73 30          	cmp    r14,QWORD PTR [rbx+0x30]
    5a28:	4c 89 75 b0          	mov    QWORD PTR [rbp-0x50],r14
    5a2c:	74 23                	je     0x5a51
    5a2e:	48 85 db             	test   rbx,rbx
    5a31:	0f 88 e9 17 00 00    	js     0x7220
    5a37:	48 83 43 28 01       	add    QWORD PTR [rbx+0x28],0x1
    5a3c:	4c 8b 75 b0          	mov    r14,QWORD PTR [rbp-0x50]
    5a40:	48 85 db             	test   rbx,rbx
    5a43:	0f 88 d7 17 00 00    	js     0x7220
    5a49:	4c 89 73 30          	mov    QWORD PTR [rbx+0x30],r14
    5a4d:	4c 89 75 b0          	mov    QWORD PTR [rbp-0x50],r14
    5a51:	4d 8b 8c 24 e8 fd ff 	mov    r9,QWORD PTR [r12-0x218]
    5a58:	ff 
    5a59:	49 8b 94 24 20 fe ff 	mov    rdx,QWORD PTR [r12-0x1e0]
    5a60:	ff 
    5a61:	4c 8b 75 a8          	mov    r14,QWORD PTR [rbp-0x58]
    5a65:	4c 89 f7             	mov    rdi,r14
    5a68:	4c 8b 7d a0          	mov    r15,QWORD PTR [rbp-0x60]
    5a6c:	4d 85 ff             	test   r15,r15
    5a6f:	0f 88 ab 17 00 00    	js     0x7220
    5a75:	49 8b 47 08          	mov    rax,QWORD PTR [r15+0x8]
    5a79:	4c 89 75 a8          	mov    QWORD PTR [rbp-0x58],r14
    5a7d:	4c 8b 75 98          	mov    r14,QWORD PTR [rbp-0x68]
    5a81:	4d 89 ce             	mov    r14,r9
    5a84:	49 c1 e6 05          	shl    r14,0x5
    5a88:	4d 01 ce             	add    r14,r9
    5a8b:	4a 8d 0c f2          	lea    rcx,[rdx+r14*8]
    5a8f:	48 85 c9             	test   rcx,rcx
    5a92:	0f 88 88 17 00 00    	js     0x7220
    5a98:	48 83 81 80 40 00 00 	add    QWORD PTR [rcx+0x4080],0x1
    5a9f:	01 
    5aa0:	48 85 c9             	test   rcx,rcx
    5aa3:	0f 88 77 17 00 00    	js     0x7220
    5aa9:	48 01 81 68 40 00 00 	add    QWORD PTR [rcx+0x4068],rax
    5ab0:	4d 85 ff             	test   r15,r15
    5ab3:	0f 88 67 17 00 00    	js     0x7220
    5ab9:	49 c7 47 08 00 00 00 	mov    QWORD PTR [r15+0x8],0x0
    5ac0:	00 
    5ac1:	4c 89 75 98          	mov    QWORD PTR [rbp-0x68],r14
    5ac5:	49 be 2c 3b 6c 55 55 	movabs r14,0x5555556c3b2c
    5acc:	55 00 00 
    5acf:	4d 8d 6d f8          	lea    r13,[r13-0x8]
    5ad3:	4d 89 75 00          	mov    QWORD PTR [r13+0x0],r14
    5ad7:	4c 89 7d a0          	mov    QWORD PTR [rbp-0x60],r15
    5adb:	e9 b7 16 00 00       	jmp    0x7197
    5ae0:	e9 4d fa ff ff       	jmp    0x5532
    5ae5:	48 85 db             	test   rbx,rbx
    5ae8:	0f 88 32 17 00 00    	js     0x7220
    5aee:	4a 83 4c 2b f8 00    	or     QWORD PTR [rbx+r13*1-0x8],0x0
    5af4:	e9 0d f3 ff ff       	jmp    0x4e06
    5af9:	48 89 df             	mov    rdi,rbx
    5afc:	49 be 44 3b 6c 55 55 	movabs r14,0x5555556c3b44
    5b03:	55 00 00 
    5b06:	4d 8d 6d f8          	lea    r13,[r13-0x8]
    5b0a:	4d 89 75 00          	mov    QWORD PTR [r13+0x0],r14
    5b0e:	e9 14 14 00 00       	jmp    0x6f27
    5b13:	e9 f1 fe ff ff       	jmp    0x5a09
    5b18:	48 85 d2             	test   rdx,rdx
    5b1b:	0f 88 ff 16 00 00    	js     0x7220
    5b21:	4c 8b 92 10 01 00 00 	mov    r10,QWORD PTR [rdx+0x110]
    5b28:	45 31 c9             	xor    r9d,r9d
    5b2b:	41 bb 01 00 00 00    	mov    r11d,0x1
    5b31:	4c 39 d6             	cmp    rsi,r10
    5b34:	0f 85 a9 00 00 00    	jne    0x5be3
    5b3a:	49 c1 e3 04          	shl    r11,0x4
    5b3e:	48 c1 e9 09          	shr    rcx,0x9
    5b42:	49 01 d3             	add    r11,rdx
    5b45:	81 e1 f8 ff 1f 00    	and    ecx,0x1ffff8
    5b4b:	4d 85 db             	test   r11,r11
    5b4e:	0f 88 cc 16 00 00    	js     0x7220
    5b54:	4d 89 83 00 01 00 00 	mov    QWORD PTR [r11+0x100],r8
    5b5b:	45 89 c8             	mov    r8d,r9d
    5b5e:	4d 85 db             	test   r11,r11
    5b61:	0f 88 b9 16 00 00    	js     0x7220
    5b67:	4d 8b 93 08 01 00 00 	mov    r10,QWORD PTR [r11+0x108]
    5b6e:	49 c1 e0 04          	shl    r8,0x4
    5b72:	49 01 d0             	add    r8,rdx
    5b75:	4c 01 d1             	add    rcx,r10
    5b78:	4d 85 c0             	test   r8,r8
    5b7b:	0f 88 9f 16 00 00    	js     0x7220
    5b81:	4d 8b 88 08 01 00 00 	mov    r9,QWORD PTR [r8+0x108]
    5b88:	4d 85 db             	test   r11,r11
    5b8b:	0f 88 8f 16 00 00    	js     0x7220
    5b91:	4d 89 8b 08 01 00 00 	mov    QWORD PTR [r11+0x108],r9
    5b98:	4d 85 c0             	test   r8,r8
    5b9b:	0f 88 7f 16 00 00    	js     0x7220
    5ba1:	49 89 b8 00 01 00 00 	mov    QWORD PTR [r8+0x100],rdi
    5ba8:	48 85 c0             	test   rax,rax
    5bab:	0f 88 6f 16 00 00    	js     0x7220
    5bb1:	48 8b 78 08          	mov    rdi,QWORD PTR [rax+0x8]
    5bb5:	4d 85 c0             	test   r8,r8
    5bb8:	0f 88 62 16 00 00    	js     0x7220
    5bbe:	49 89 b8 08 01 00 00 	mov    QWORD PTR [r8+0x108],rdi
    5bc5:	48 85 c0             	test   rax,rax
    5bc8:	0f 88 52 16 00 00    	js     0x7220
    5bce:	48 89 30             	mov    QWORD PTR [rax],rsi
    5bd1:	48 85 c0             	test   rax,rax
    5bd4:	0f 88 46 16 00 00    	js     0x7220
    5bda:	4c 89 50 08          	mov    QWORD PTR [rax+0x8],r10
    5bde:	e9 5b f3 ff ff       	jmp    0x4f3e
    5be3:	48 85 d2             	test   rdx,rdx
    5be6:	0f 88 34 16 00 00    	js     0x7220
    5bec:	4c 8b 82 20 01 00 00 	mov    r8,QWORD PTR [rdx+0x120]
    5bf3:	49 39 f0             	cmp    r8,rsi
    5bf6:	75 2b                	jne    0x5c23
    5bf8:	4d 89 d0             	mov    r8,r10
    5bfb:	41 b9 01 00 00 00    	mov    r9d,0x1
    5c01:	41 bb 02 00 00 00    	mov    r11d,0x2
    5c07:	e9 2e ff ff ff       	jmp    0x5b3a
    5c0c:	49 be d5 3b 6c 55 55 	movabs r14,0x5555556c3bd5
    5c13:	55 00 00 
    5c16:	4d 8d 6d f8          	lea    r13,[r13-0x8]
    5c1a:	4d 89 75 00          	mov    QWORD PTR [r13+0x0],r14
    5c1e:	e9 0c 15 00 00       	jmp    0x712f
    5c23:	48 85 d2             	test   rdx,rdx
    5c26:	0f 88 f4 15 00 00    	js     0x7220
    5c2c:	4c 8b 92 30 01 00 00 	mov    r10,QWORD PTR [rdx+0x130]
    5c33:	41 b9 02 00 00 00    	mov    r9d,0x2
    5c39:	41 bb 03 00 00 00    	mov    r11d,0x3
    5c3f:	4c 39 d6             	cmp    rsi,r10
    5c42:	0f 84 f2 fe ff ff    	je     0x5b3a
    5c48:	48 85 d2             	test   rdx,rdx
    5c4b:	0f 88 cf 15 00 00    	js     0x7220
    5c51:	4c 8b 82 40 01 00 00 	mov    r8,QWORD PTR [rdx+0x140]
    5c58:	4c 39 c6             	cmp    rsi,r8
    5c5b:	75 14                	jne    0x5c71
    5c5d:	4d 89 d0             	mov    r8,r10
    5c60:	41 b9 03 00 00 00    	mov    r9d,0x3
    5c66:	41 bb 04 00 00 00    	mov    r11d,0x4
    5c6c:	e9 c9 fe ff ff       	jmp    0x5b3a
    5c71:	48 85 d2             	test   rdx,rdx
    5c74:	0f 88 a6 15 00 00    	js     0x7220
    5c7a:	4c 8b 92 50 01 00 00 	mov    r10,QWORD PTR [rdx+0x150]
    5c81:	41 b9 04 00 00 00    	mov    r9d,0x4
    5c87:	41 bb 05 00 00 00    	mov    r11d,0x5
    5c8d:	4c 39 d6             	cmp    rsi,r10
    5c90:	0f 84 a4 fe ff ff    	je     0x5b3a
    5c96:	48 85 d2             	test   rdx,rdx
    5c99:	0f 88 81 15 00 00    	js     0x7220
    5c9f:	4c 8b 82 60 01 00 00 	mov    r8,QWORD PTR [rdx+0x160]
    5ca6:	4c 39 c6             	cmp    rsi,r8
    5ca9:	75 14                	jne    0x5cbf
    5cab:	4d 89 d0             	mov    r8,r10
    5cae:	41 b9 05 00 00 00    	mov    r9d,0x5
    5cb4:	41 bb 06 00 00 00    	mov    r11d,0x6
    5cba:	e9 7b fe ff ff       	jmp    0x5b3a
    5cbf:	41 b9 06 00 00 00    	mov    r9d,0x6
    5cc5:	41 bb 07 00 00 00    	mov    r11d,0x7
    5ccb:	48 85 d2             	test   rdx,rdx
    5cce:	0f 88 4c 15 00 00    	js     0x7220
    5cd4:	48 3b b2 70 01 00 00 	cmp    rsi,QWORD PTR [rdx+0x170]
    5cdb:	0f 84 59 fe ff ff    	je     0x5b3a
    5ce1:	45 31 c9             	xor    r9d,r9d
    5ce4:	41 b8 01 00 00 00    	mov    r8d,0x1
    5cea:	4c 8b 75 b0          	mov    r14,QWORD PTR [rbp-0x50]
    5cee:	4c 89 f7             	mov    rdi,r14
    5cf1:	49 89 94 24 18 fe ff 	mov    QWORD PTR [r12-0x1e8],rdx
    5cf8:	ff 
    5cf9:	49 bf 80 3c 6c 55 55 	movabs r15,0x5555556c3c80
    5d00:	55 00 00 
    5d03:	49 8d b7 c0 22 0a 00 	lea    rsi,[r15+0xa22c0]
    5d0a:	49 bf 85 3c 6c 55 55 	movabs r15,0x5555556c3c85
    5d11:	55 00 00 
    5d14:	4d 8d 6d f8          	lea    r13,[r13-0x8]
    5d18:	4d 89 7d 00          	mov    QWORD PTR [r13+0x0],r15
    5d1c:	4c 89 75 b0          	mov    QWORD PTR [rbp-0x50],r14
    5d20:	e9 e8 11 00 00       	jmp    0x6f0d
    5d25:	49 8b 94 24 18 fe ff 	mov    rdx,QWORD PTR [r12-0x1e8]
    5d2c:	ff 
    5d2d:	48 89 c1             	mov    rcx,rax
    5d30:	e9 09 f2 ff ff       	jmp    0x4f3e
    5d35:	90                   	nop
    5d36:	4d 8d 6d f8          	lea    r13,[r13-0x8]
    5d3a:	4c 8b 75 98          	mov    r14,QWORD PTR [rbp-0x68]
    5d3e:	4d 89 75 00          	mov    QWORD PTR [r13+0x0],r14
    5d42:	4d 8d 6d f8          	lea    r13,[r13-0x8]
    5d46:	4d 89 65 00          	mov    QWORD PTR [r13+0x0],r12
    5d4a:	4d 8d 6d f8          	lea    r13,[r13-0x8]
    5d4e:	49 89 5d 00          	mov    QWORD PTR [r13+0x0],rbx
    5d52:	48 85 f6             	test   rsi,rsi
    5d55:	0f 88 c5 14 00 00    	js     0x7220
    5d5b:	8b 96 f0 03 00 00    	mov    edx,DWORD PTR [rsi+0x3f0]
    5d61:	48 89 f3             	mov    rbx,rsi
    5d64:	83 fa 26             	cmp    edx,0x26
    5d67:	4c 89 75 98          	mov    QWORD PTR [rbp-0x68],r14
    5d6b:	0f 87 c6 01 00 00    	ja     0x5f37
    5d71:	4c 8b 75 98          	mov    r14,QWORD PTR [rbp-0x68]
    5d75:	41 89 d6             	mov    r14d,edx
    5d78:	4a 8d 0c 75 00 00 00 	lea    rcx,[r14*2+0x0]
    5d7f:	00 
    5d80:	48 c1 e1 03          	shl    rcx,0x3
    5d84:	4c 8d 64 31 10       	lea    r12,[rcx+rsi*1+0x10]
    5d89:	48 01 f1             	add    rcx,rsi
    5d8c:	48 85 c9             	test   rcx,rcx
    5d8f:	0f 88 8b 14 00 00    	js     0x7220
    5d95:	44 8b 41 10          	mov    r8d,DWORD PTR [rcx+0x10]
    5d99:	45 85 c0             	test   r8d,r8d
    5d9c:	4c 89 75 98          	mov    QWORD PTR [rbp-0x68],r14
    5da0:	0f 8e 29 01 00 00    	jle    0x5ecf
    5da6:	48 85 c9             	test   rcx,rcx
    5da9:	0f 88 71 14 00 00    	js     0x7220
    5daf:	44 8b 49 14          	mov    r9d,DWORD PTR [rcx+0x14]
    5db3:	89 d1                	mov    ecx,edx
    5db5:	4c 89 e2             	mov    rdx,r12
    5db8:	45 29 c1             	sub    r9d,r8d
    5dbb:	41 c1 f8 02          	sar    r8d,0x2
    5dbf:	45 01 c8             	add    r8d,r9d
    5dc2:	49 be 5e 47 6c 55 55 	movabs r14,0x5555556c475e
    5dc9:	55 00 00 
    5dcc:	4d 8d 6d f8          	lea    r13,[r13-0x8]
    5dd0:	4d 89 75 00          	mov    QWORD PTR [r13+0x0],r14
    5dd4:	e9 38 ef ff ff       	jmp    0x4d11
    5dd9:	49 be 65 47 6c 55 55 	movabs r14,0x5555556c4765
    5de0:	55 00 00 
    5de3:	4d 8b 96 03 19 2a 00 	mov    r10,QWORD PTR [r14+0x2a1903]
    5dea:	4c 8b 75 98          	mov    r14,QWORD PTR [rbp-0x68]
    5dee:	4d 85 f6             	test   r14,r14
    5df1:	0f 88 29 14 00 00    	js     0x7220
    5df7:	48 85 db             	test   rbx,rbx
    5dfa:	0f 88 20 14 00 00    	js     0x7220
    5e00:	41 0f b6 94 1e f4 03 	movzx  edx,BYTE PTR [r14+rbx*1+0x3f4]
    5e07:	00 00 
    5e09:	4d 85 d2             	test   r10,r10
    5e0c:	0f 88 0e 14 00 00    	js     0x7220
    5e12:	47 8b 1c b2          	mov    r11d,DWORD PTR [r10+r14*4]
    5e16:	8d 4a 01             	lea    ecx,[rdx+0x1]
    5e19:	41 d3 fb             	sar    r11d,cl
    5e1c:	45 85 db             	test   r11d,r11d
    5e1f:	4c 89 75 98          	mov    QWORD PTR [rbp-0x68],r14
    5e23:	0f 8e fa 00 00 00    	jle    0x5f23
    5e29:	83 c2 01             	add    edx,0x1
    5e2c:	4c 8b 75 98          	mov    r14,QWORD PTR [rbp-0x68]
    5e30:	4d 85 f6             	test   r14,r14
    5e33:	0f 88 e7 13 00 00    	js     0x7220
    5e39:	48 85 db             	test   rbx,rbx
    5e3c:	0f 88 de 13 00 00    	js     0x7220
    5e42:	41 88 94 1e f4 03 00 	mov    BYTE PTR [r14+rbx*1+0x3f4],dl
    5e49:	00 
    5e4a:	48 85 db             	test   rbx,rbx
    5e4d:	0f 88 cd 13 00 00    	js     0x7220
    5e53:	8b 93 f0 03 00 00    	mov    edx,DWORD PTR [rbx+0x3f0]
    5e59:	90                   	nop
    5e5a:	4c 89 75 98          	mov    QWORD PTR [rbp-0x68],r14
    5e5e:	41 8b 44 24 04       	mov    eax,DWORD PTR [r12+0x4]
    5e63:	83 c2 01             	add    edx,0x1
    5e66:	49 be 9c 47 6c 55 55 	movabs r14,0x5555556c479c
    5e6d:	55 00 00 
    5e70:	41 3b 96 bc 18 2a 00 	cmp    edx,DWORD PTR [r14+0x2a18bc]
    5e77:	41 89 04 24          	mov    DWORD PTR [r12],eax
    5e7b:	48 85 db             	test   rbx,rbx
    5e7e:	0f 88 9c 13 00 00    	js     0x7220
    5e84:	89 93 f0 03 00 00    	mov    DWORD PTR [rbx+0x3f0],edx
    5e8a:	75 13                	jne    0x5e9f
    5e8c:	48 85 db             	test   rbx,rbx
    5e8f:	0f 88 8b 13 00 00    	js     0x7220
    5e95:	c7 83 f0 03 00 00 00 	mov    DWORD PTR [rbx+0x3f0],0x0
    5e9c:	00 00 00 
    5e9f:	49 8b 5d 00          	mov    rbx,QWORD PTR [r13+0x0]
    5ea3:	4d 8d 6d 08          	lea    r13,[r13+0x8]
    5ea7:	4d 8b 65 00          	mov    r12,QWORD PTR [r13+0x0]
    5eab:	4d 8d 6d 08          	lea    r13,[r13+0x8]
    5eaf:	4c 8b 75 98          	mov    r14,QWORD PTR [rbp-0x68]
    5eb3:	4d 8b 75 00          	mov    r14,QWORD PTR [r13+0x0]
    5eb7:	4d 8d 6d 08          	lea    r13,[r13+0x8]
    5ebb:	4d 8b 7d 00          	mov    r15,QWORD PTR [r13+0x0]
    5ebf:	4d 8d 6d 08          	lea    r13,[r13+0x8]
    5ec3:	4c 89 75 98          	mov    QWORD PTR [rbp-0x68],r14
    5ec7:	4d 89 fe             	mov    r14,r15
    5eca:	e9 fe 0b 00 00       	jmp    0x6acd
    5ecf:	74 8d                	je     0x5e5e
    5ed1:	4c 8b 75 98          	mov    r14,QWORD PTR [rbp-0x68]
    5ed5:	4d 85 f6             	test   r14,r14
    5ed8:	0f 88 42 13 00 00    	js     0x7220
    5ede:	48 85 f6             	test   rsi,rsi
    5ee1:	0f 88 39 13 00 00    	js     0x7220
    5ee7:	41 0f b6 bc 36 f4 03 	movzx  edi,BYTE PTR [r14+rsi*1+0x3f4]
    5eee:	00 00 
    5ef0:	40 80 ff 01          	cmp    dil,0x1
    5ef4:	4c 89 75 98          	mov    QWORD PTR [rbp-0x68],r14
    5ef8:	0f 86 60 ff ff ff    	jbe    0x5e5e
    5efe:	83 ef 01             	sub    edi,0x1
    5f01:	4c 8b 75 98          	mov    r14,QWORD PTR [rbp-0x68]
    5f05:	4d 85 f6             	test   r14,r14
    5f08:	0f 88 12 13 00 00    	js     0x7220
    5f0e:	48 85 f6             	test   rsi,rsi
    5f11:	0f 88 09 13 00 00    	js     0x7220
    5f17:	41 88 bc 36 f4 03 00 	mov    BYTE PTR [r14+rsi*1+0x3f4],dil
    5f1e:	00 
    5f1f:	4c 89 75 98          	mov    QWORD PTR [rbp-0x68],r14
    5f23:	48 85 db             	test   rbx,rbx
    5f26:	0f 88 f4 12 00 00    	js     0x7220
    5f2c:	8b 93 f0 03 00 00    	mov    edx,DWORD PTR [rbx+0x3f0]
    5f32:	e9 27 ff ff ff       	jmp    0x5e5e
    5f37:	8d 42 d9             	lea    eax,[rdx-0x27]
    5f3a:	48 8d 34 45 00 00 00 	lea    rsi,[rax*2+0x0]
    5f41:	00 
    5f42:	48 c1 e6 03          	shl    rsi,0x3
    5f46:	4c 8d a4 33 20 04 00 	lea    r12,[rbx+rsi*1+0x420]
    5f4d:	00 
    5f4e:	48 01 de             	add    rsi,rbx
    5f51:	48 85 f6             	test   rsi,rsi
    5f54:	0f 88 c6 12 00 00    	js     0x7220
    5f5a:	8b 8e 20 04 00 00    	mov    ecx,DWORD PTR [rsi+0x420]
    5f60:	85 c9                	test   ecx,ecx
    5f62:	0f 8e f6 fe ff ff    	jle    0x5e5e
    5f68:	48 85 f6             	test   rsi,rsi
    5f6b:	0f 88 af 12 00 00    	js     0x7220
    5f71:	44 8b 86 24 04 00 00 	mov    r8d,DWORD PTR [rsi+0x424]
    5f78:	4c 89 e6             	mov    rsi,r12
    5f7b:	41 29 c8             	sub    r8d,ecx
    5f7e:	c1 f9 02             	sar    ecx,0x2
    5f81:	44 01 c1             	add    ecx,r8d
    5f84:	49 89 d8             	mov    r8,rbx
    5f87:	49 be 23 48 6c 55 55 	movabs r14,0x5555556c4823
    5f8e:	55 00 00 
    5f91:	4d 8d 6d f8          	lea    r13,[r13-0x8]
    5f95:	4d 89 75 00          	mov    QWORD PTR [r13+0x0],r14
    5f99:	e9 85 0e 00 00       	jmp    0x6e23
    5f9e:	48 85 db             	test   rbx,rbx
    5fa1:	0f 88 79 12 00 00    	js     0x7220
    5fa7:	8b 93 f0 03 00 00    	mov    edx,DWORD PTR [rbx+0x3f0]
    5fad:	e9 ac fe ff ff       	jmp    0x5e5e
    5fb2:	90                   	nop
    5fb3:	4c 8b 75 88          	mov    r14,QWORD PTR [rbp-0x78]
    5fb7:	41 8b 86 08 03 00 00 	mov    eax,DWORD PTR [r14+0x308]
    5fbe:	41 89 c3             	mov    r11d,eax
    5fc1:	41 83 cb 02          	or     r11d,0x2
    5fc5:	41 39 c3             	cmp    r11d,eax
    5fc8:	74 19                	je     0x5fe3
    5fca:	4c 8b 75 88          	mov    r14,QWORD PTR [rbp-0x78]
    5fce:	f0 45 0f b1 9e 08 03 	lock cmpxchg DWORD PTR [r14+0x308],r11d
    5fd5:	00 00 
    5fd7:	75 e5                	jne    0x5fbe
    5fd9:	41 83 e3 bb          	and    r11d,0xffffffbb
    5fdd:	41 83 fb 0a          	cmp    r11d,0xa
    5fe1:	74 0d                	je     0x5ff0
    5fe3:	4d 8b 75 00          	mov    r14,QWORD PTR [r13+0x0]
    5fe7:	4d 8d 6d 08          	lea    r13,[r13+0x8]
    5feb:	e9 92 0c 00 00       	jmp    0x6c82
    5ff0:	49 83 ed 08          	sub    r13,0x8
    5ff4:	4c 8b 75 88          	mov    r14,QWORD PTR [rbp-0x78]
    5ff8:	49 c7 86 30 06 00 00 	mov    QWORD PTR [r14+0x630],0xffffffffffffffff
    5fff:	ff ff ff ff 
    6003:	f0 41 83 8e 08 03 00 	lock or DWORD PTR [r14+0x308],0x10
    600a:	00 10 
    600c:	49 8b be 00 03 00 00 	mov    rdi,QWORD PTR [r14+0x300]
    6013:	49 bf b9 57 ce f7 ff 	movabs r15,0x7ffff7ce57b9
    601a:	7f 00 00 
    601d:	4d 8d 6d f8          	lea    r13,[r13-0x8]
    6021:	4d 89 7d 00          	mov    QWORD PTR [r13+0x0],r15
    6025:	e9 c9 11 00 00       	jmp    0x71f3
    602a:	f4                   	hlt    
    602b:	90                   	nop
    602c:	41 89 ca             	mov    r10d,ecx
    602f:	4c 8b 75 88          	mov    r14,QWORD PTR [rbp-0x78]
    6033:	41 8b 46 18          	mov    eax,DWORD PTR [r14+0x18]
    6037:	85 c0                	test   eax,eax
    6039:	75 2d                	jne    0x6068
    603b:	b8 e8 00 00 00       	mov    eax,0xe8
    6040:	49 be f8 03 d7 f7 ff 	movabs r14,0x7ffff7d703f8
    6047:	7f 00 00 
    604a:	e9 bb 11 00 00       	jmp    0x720a
    604f:	48 3d 00 f0 ff ff    	cmp    rax,0xfffffffffffff000
    6055:	0f 87 9a 00 00 00    	ja     0x60f5
    605b:	4d 8b 75 00          	mov    r14,QWORD PTR [r13+0x0]
    605f:	4d 8d 6d 08          	lea    r13,[r13+0x8]
    6063:	e9 4b 0c 00 00       	jmp    0x6cb3
    6068:	49 83 ed 28          	sub    r13,0x28
    606c:	41 89 55 18          	mov    DWORD PTR [r13+0x18],edx
    6070:	49 89 75 10          	mov    QWORD PTR [r13+0x10],rsi
    6074:	41 89 7d 0c          	mov    DWORD PTR [r13+0xc],edi
    6078:	41 89 4d 1c          	mov    DWORD PTR [r13+0x1c],ecx
    607c:	49 be 22 04 d7 f7 ff 	movabs r14,0x7ffff7d70422
    6083:	7f 00 00 
    6086:	4d 8d 6d f8          	lea    r13,[r13-0x8]
    608a:	4d 89 75 00          	mov    QWORD PTR [r13+0x0],r14
    608e:	e9 1f ff ff ff       	jmp    0x5fb2
    6093:	45 8b 55 1c          	mov    r10d,DWORD PTR [r13+0x1c]
    6097:	41 8b 55 18          	mov    edx,DWORD PTR [r13+0x18]
    609b:	41 89 c0             	mov    r8d,eax
    609e:	49 8b 75 10          	mov    rsi,QWORD PTR [r13+0x10]
    60a2:	41 8b 7d 0c          	mov    edi,DWORD PTR [r13+0xc]
    60a6:	b8 e8 00 00 00       	mov    eax,0xe8
    60ab:	49 be 3c 04 d7 f7 ff 	movabs r14,0x7ffff7d7043c
    60b2:	7f 00 00 
    60b5:	e9 50 11 00 00       	jmp    0x720a
    60ba:	48 3d 00 f0 ff ff    	cmp    rax,0xfffffffffffff000
    60c0:	77 6c                	ja     0x612e
    60c2:	44 89 c7             	mov    edi,r8d
    60c5:	41 89 45 0c          	mov    DWORD PTR [r13+0xc],eax
    60c9:	49 be 52 04 d7 f7 ff 	movabs r14,0x7ffff7d70452
    60d0:	7f 00 00 
    60d3:	4d 8d 6d f8          	lea    r13,[r13-0x8]
    60d7:	4d 89 75 00          	mov    QWORD PTR [r13+0x0],r14
    60db:	e9 31 0f 00 00       	jmp    0x7011
    60e0:	41 8b 45 0c          	mov    eax,DWORD PTR [r13+0xc]
    60e4:	49 83 c5 28          	add    r13,0x28
    60e8:	4d 8b 75 00          	mov    r14,QWORD PTR [r13+0x0]
    60ec:	4d 8d 6d 08          	lea    r13,[r13+0x8]
    60f0:	e9 cd 0b 00 00       	jmp    0x6cc2
    60f5:	49 be 67 04 d7 f7 ff 	movabs r14,0x7ffff7d70467
    60fc:	7f 00 00 
    60ff:	49 8b 96 09 8a 0c 00 	mov    rdx,QWORD PTR [r14+0xc8a09]
    6106:	f7 d8                	neg    eax
    6108:	4c 8b 75 88          	mov    r14,QWORD PTR [rbp-0x78]
    610c:	48 85 d2             	test   rdx,rdx
    610f:	0f 88 0b 11 00 00    	js     0x7220
    6115:	41 89 04 16          	mov    DWORD PTR [r14+rdx*1],eax
    6119:	b8 ff ff ff ff       	mov    eax,0xffffffff
    611e:	4d 8b 7d 00          	mov    r15,QWORD PTR [r13+0x0]
    6122:	4d 8d 6d 08          	lea    r13,[r13+0x8]
    6126:	4d 89 fe             	mov    r14,r15
    6129:	e9 76 0b 00 00       	jmp    0x6ca4
    612e:	49 be 79 04 d7 f7 ff 	movabs r14,0x7ffff7d70479
    6135:	7f 00 00 
    6138:	49 8b 96 f7 89 0c 00 	mov    rdx,QWORD PTR [r14+0xc89f7]
    613f:	f7 d8                	neg    eax
    6141:	4c 8b 75 88          	mov    r14,QWORD PTR [rbp-0x78]
    6145:	48 85 d2             	test   rdx,rdx
    6148:	0f 88 d2 10 00 00    	js     0x7220
    614e:	41 89 04 16          	mov    DWORD PTR [r14+rdx*1],eax
    6152:	b8 ff ff ff ff       	mov    eax,0xffffffff
    6157:	e9 66 ff ff ff       	jmp    0x60c2
    615c:	90                   	nop
    615d:	4c 8b 75 88          	mov    r14,QWORD PTR [rbp-0x78]
    6161:	41 8b 86 08 03 00 00 	mov    eax,DWORD PTR [r14+0x308]
    6168:	41 89 c3             	mov    r11d,eax
    616b:	41 83 cb 02          	or     r11d,0x2
    616f:	41 39 c3             	cmp    r11d,eax
    6172:	74 19                	je     0x618d
    6174:	4c 8b 75 88          	mov    r14,QWORD PTR [rbp-0x78]
    6178:	f0 45 0f b1 9e 08 03 	lock cmpxchg DWORD PTR [r14+0x308],r11d
    617f:	00 00 
    6181:	75 e5                	jne    0x6168
    6183:	41 83 e3 bb          	and    r11d,0xffffffbb
    6187:	41 83 fb 0a          	cmp    r11d,0xa
    618b:	74 0d                	je     0x619a
    618d:	4d 8b 75 00          	mov    r14,QWORD PTR [r13+0x0]
    6191:	4d 8d 6d 08          	lea    r13,[r13+0x8]
    6195:	e9 a1 03 00 00       	jmp    0x653b
    619a:	49 83 ed 08          	sub    r13,0x8
    619e:	4c 8b 75 88          	mov    r14,QWORD PTR [rbp-0x78]
    61a2:	49 c7 86 30 06 00 00 	mov    QWORD PTR [r14+0x630],0xffffffffffffffff
    61a9:	ff ff ff ff 
    61ad:	f0 41 83 8e 08 03 00 	lock or DWORD PTR [r14+0x308],0x10
    61b4:	00 10 
    61b6:	49 8b be 00 03 00 00 	mov    rdi,QWORD PTR [r14+0x300]
    61bd:	49 bf 39 40 e5 f7 ff 	movabs r15,0x7ffff7e54039
    61c4:	7f 00 00 
    61c7:	4d 8d 6d f8          	lea    r13,[r13-0x8]
    61cb:	4d 89 7d 00          	mov    QWORD PTR [r13+0x0],r15
    61cf:	e9 87 0d 00 00       	jmp    0x6f5b
    61d4:	f4                   	hlt    
    61d5:	90                   	nop
    61d6:	f7 c7 02 00 00 00    	test   edi,0x2
    61dc:	75 2c                	jne    0x620a
    61de:	4c 8b 75 88          	mov    r14,QWORD PTR [rbp-0x78]
    61e2:	41 8b 86 08 03 00 00 	mov    eax,DWORD PTR [r14+0x308]
    61e9:	41 89 c3             	mov    r11d,eax
    61ec:	41 83 e3 fd          	and    r11d,0xfffffffd
    61f0:	4c 8b 75 88          	mov    r14,QWORD PTR [rbp-0x78]
    61f4:	f0 45 0f b1 9e 08 03 	lock cmpxchg DWORD PTR [r14+0x308],r11d
    61fb:	00 00 
    61fd:	75 ea                	jne    0x61e9
    61ff:	44 89 d8             	mov    eax,r11d
    6202:	83 e0 0c             	and    eax,0xc
    6205:	83 f8 04             	cmp    eax,0x4
    6208:	74 0d                	je     0x6217
    620a:	4d 8b 75 00          	mov    r14,QWORD PTR [r13+0x0]
    620e:	4d 8d 6d 08          	lea    r13,[r13+0x8]
    6212:	e9 64 03 00 00       	jmp    0x657b
    6217:	4c 8b 75 88          	mov    r14,QWORD PTR [rbp-0x78]
    621b:	49 8b 3e             	mov    rdi,QWORD PTR [r14]
    621e:	b8 ca 00 00 00       	mov    eax,0xca
    6223:	4d 31 d2             	xor    r10,r10
    6226:	48 81 c7 08 03 00 00 	add    rdi,0x308
    622d:	be 80 00 00 00       	mov    esi,0x80
    6232:	49 be 91 40 e5 f7 ff 	movabs r14,0x7ffff7e54091
    6239:	7f 00 00 
    623c:	e9 c9 0f 00 00       	jmp    0x720a
    6241:	4c 8b 75 88          	mov    r14,QWORD PTR [rbp-0x78]
    6245:	41 8b 86 08 03 00 00 	mov    eax,DWORD PTR [r14+0x308]
    624c:	eb b4                	jmp    0x6202
    624e:	90                   	nop
    624f:	4c 8b 75 88          	mov    r14,QWORD PTR [rbp-0x78]
    6253:	41 8b 46 18          	mov    eax,DWORD PTR [r14+0x18]
    6257:	85 c0                	test   eax,eax
    6259:	75 2d                	jne    0x6288
    625b:	b8 01 00 00 00       	mov    eax,0x1
    6260:	49 be 95 42 e5 f7 ff 	movabs r14,0x7ffff7e54295
    6267:	7f 00 00 
    626a:	e9 9b 0f 00 00       	jmp    0x720a
    626f:	48 3d 00 f0 ff ff    	cmp    rax,0xfffffffffffff000
    6275:	0f 87 92 00 00 00    	ja     0x630d
    627b:	4d 8b 75 00          	mov    r14,QWORD PTR [r13+0x0]
    627f:	4d 8d 6d 08          	lea    r13,[r13+0x8]
    6283:	e9 e4 02 00 00       	jmp    0x656c
    6288:	49 83 ed 28          	sub    r13,0x28
    628c:	49 89 55 18          	mov    QWORD PTR [r13+0x18],rdx
    6290:	49 89 75 10          	mov    QWORD PTR [r13+0x10],rsi
    6294:	41 89 7d 08          	mov    DWORD PTR [r13+0x8],edi
    6298:	49 be b7 42 e5 f7 ff 	movabs r14,0x7ffff7e542b7
    629f:	7f 00 00 
    62a2:	4d 8d 6d f8          	lea    r13,[r13-0x8]
    62a6:	4d 89 75 00          	mov    QWORD PTR [r13+0x0],r14
    62aa:	e9 ad fe ff ff       	jmp    0x615c
    62af:	49 8b 55 18          	mov    rdx,QWORD PTR [r13+0x18]
    62b3:	49 8b 75 10          	mov    rsi,QWORD PTR [r13+0x10]
    62b7:	41 89 c0             	mov    r8d,eax
    62ba:	41 8b 7d 08          	mov    edi,DWORD PTR [r13+0x8]
    62be:	b8 01 00 00 00       	mov    eax,0x1
    62c3:	49 be cd 42 e5 f7 ff 	movabs r14,0x7ffff7e542cd
    62ca:	7f 00 00 
    62cd:	e9 38 0f 00 00       	jmp    0x720a
    62d2:	48 3d 00 f0 ff ff    	cmp    rax,0xfffffffffffff000
    62d8:	77 6e                	ja     0x6348
    62da:	44 89 c7             	mov    edi,r8d
    62dd:	49 89 45 08          	mov    QWORD PTR [r13+0x8],rax
    62e1:	49 be e4 42 e5 f7 ff 	movabs r14,0x7ffff7e542e4
    62e8:	7f 00 00 
    62eb:	4d 8d 6d f8          	lea    r13,[r13-0x8]
    62ef:	4d 89 75 00          	mov    QWORD PTR [r13+0x0],r14
    62f3:	e9 dd fe ff ff       	jmp    0x61d5
    62f8:	49 8b 45 08          	mov    rax,QWORD PTR [r13+0x8]
    62fc:	49 83 c5 28          	add    r13,0x28
    6300:	4d 8b 75 00          	mov    r14,QWORD PTR [r13+0x0]
    6304:	4d 8d 6d 08          	lea    r13,[r13+0x8]
    6308:	e9 62 01 00 00       	jmp    0x646f
    630d:	49 be f7 42 e5 f7 ff 	movabs r14,0x7ffff7e542f7
    6314:	7f 00 00 
    6317:	49 8b 96 b1 9c 00 00 	mov    rdx,QWORD PTR [r14+0x9cb1]
    631e:	f7 d8                	neg    eax
    6320:	4c 8b 75 88          	mov    r14,QWORD PTR [rbp-0x78]
    6324:	48 85 d2             	test   rdx,rdx
    6327:	0f 88 f3 0e 00 00    	js     0x7220
    632d:	41 89 04 16          	mov    DWORD PTR [r14+rdx*1],eax
    6331:	48 c7 c0 ff ff ff ff 	mov    rax,0xffffffffffffffff
    6338:	4d 8b 7d 00          	mov    r15,QWORD PTR [r13+0x0]
    633c:	4d 8d 6d 08          	lea    r13,[r13+0x8]
    6340:	4d 89 fe             	mov    r14,r15
    6343:	e9 15 02 00 00       	jmp    0x655d
    6348:	49 be 0b 43 e5 f7 ff 	movabs r14,0x7ffff7e5430b
    634f:	7f 00 00 
    6352:	49 8b 96 9d 9c 00 00 	mov    rdx,QWORD PTR [r14+0x9c9d]
    6359:	f7 d8                	neg    eax
    635b:	4c 8b 75 88          	mov    r14,QWORD PTR [rbp-0x78]
    635f:	48 85 d2             	test   rdx,rdx
    6362:	0f 88 b8 0e 00 00    	js     0x7220
    6368:	41 89 04 16          	mov    DWORD PTR [r14+rdx*1],eax
    636c:	48 c7 c0 ff ff ff ff 	mov    rax,0xffffffffffffffff
    6373:	e9 62 ff ff ff       	jmp    0x62da
    6378:	48 85 c0             	test   rax,rax
    637b:	0f 88 9f 0e 00 00    	js     0x7220
    6381:	00 00                	add    BYTE PTR [rax],al
    6383:	48 85 ff             	test   rdi,rdi
    6386:	0f 88 94 0e 00 00    	js     0x7220
    638c:	f0 0f b1 17          	lock cmpxchg DWORD PTR [rdi],edx
    6390:	75 4b                	jne    0x63dd
    6392:	48 85 db             	test   rbx,rbx
    6395:	0f 88 85 0e 00 00    	js     0x7220
    639b:	48 8b bb 88 00 00 00 	mov    rdi,QWORD PTR [rbx+0x88]
    63a2:	48 85 ff             	test   rdi,rdi
    63a5:	0f 88 75 0e 00 00    	js     0x7220
    63ab:	4c 89 67 08          	mov    QWORD PTR [rdi+0x8],r12
    63af:	48 85 ff             	test   rdi,rdi
    63b2:	0f 88 68 0e 00 00    	js     0x7220
    63b8:	83 47 04 01          	add    DWORD PTR [rdi+0x4],0x1
    63bc:	49 83 c5 08          	add    r13,0x8
    63c0:	49 8b 5d 00          	mov    rbx,QWORD PTR [r13+0x0]
    63c4:	4d 8d 6d 08          	lea    r13,[r13+0x8]
    63c8:	4d 8b 65 00          	mov    r12,QWORD PTR [r13+0x0]
    63cc:	4d 8d 6d 08          	lea    r13,[r13+0x8]
    63d0:	4d 8b 75 00          	mov    r14,QWORD PTR [r13+0x0]
    63d4:	4d 8d 6d 08          	lea    r13,[r13+0x8]
    63d8:	e9 c0 01 00 00       	jmp    0x659d
    63dd:	49 be f5 52 e5 f7 ff 	movabs r14,0x7ffff7e552f5
    63e4:	7f 00 00 
    63e7:	4d 8d 6d f8          	lea    r13,[r13-0x8]
    63eb:	4d 89 75 00          	mov    QWORD PTR [r13+0x0],r14
    63ef:	e9 e1 09 00 00       	jmp    0x6dd5
    63f4:	eb 9c                	jmp    0x6392
    63f6:	49 bf 40 44 63 55 55 	movabs r15,0x555555634440
    63fd:	55 00 00 
    6400:	4d 39 fe             	cmp    r14,r15
    6403:	0f 84 1f bd ff ff    	je     0x2128
    6409:	49 bf bd a3 5a 55 55 	movabs r15,0x5555555aa3bd
    6410:	55 00 00 
    6413:	e9 ff 0d 00 00       	jmp    0x7217
    6418:	49 bf bd a3 5a 55 55 	movabs r15,0x5555555aa3bd
    641f:	55 00 00 
    6422:	4d 39 fe             	cmp    r14,r15
    6425:	0f 84 67 ad ff ff    	je     0x1192
    642b:	49 bf 65 44 63 55 55 	movabs r15,0x555555634465
    6432:	55 00 00 
    6435:	e9 dd 0d 00 00       	jmp    0x7217
    643a:	49 bf 12 a6 5a 55 55 	movabs r15,0x5555555aa612
    6441:	55 00 00 
    6444:	4d 39 fe             	cmp    r14,r15
    6447:	0f 84 04 b1 ff ff    	je     0x1551
    644d:	49 bf 12 a6 5a 55 55 	movabs r15,0x5555555aa612
    6454:	55 00 00 
    6457:	4d 39 fe             	cmp    r14,r15
    645a:	0f 84 f1 b0 ff ff    	je     0x1551
    6460:	49 bf 9f a3 5a 55 55 	movabs r15,0x5555555aa39f
    6467:	55 00 00 
    646a:	e9 a8 0d 00 00       	jmp    0x7217
    646f:	49 bf 55 44 63 55 55 	movabs r15,0x555555634455
    6476:	55 00 00 
    6479:	4d 39 fe             	cmp    r14,r15
    647c:	0f 84 e1 bc ff ff    	je     0x2163
    6482:	49 bf ee 42 e5 f7 ff 	movabs r15,0x7ffff7e542ee
    6489:	7f 00 00 
    648c:	e9 86 0d 00 00       	jmp    0x7217
    6491:	49 bf 80 42 e5 f7 ff 	movabs r15,0x7ffff7e54280
    6498:	7f 00 00 
    649b:	4d 39 fe             	cmp    r14,r15
    649e:	0f 84 aa fd ff ff    	je     0x624e
    64a4:	49 bf eb fb 58 55 55 	movabs r15,0x55555558fbeb
    64ab:	55 00 00 
    64ae:	e9 64 0d 00 00       	jmp    0x7217
    64b3:	49 bf 11 83 59 55 55 	movabs r15,0x555555598311
    64ba:	55 00 00 
    64bd:	4d 39 fe             	cmp    r14,r15
    64c0:	0f 84 89 a6 ff ff    	je     0xb4f
    64c6:	49 bf 6e 02 5b 55 55 	movabs r15,0x5555555b026e
    64cd:	55 00 00 
    64d0:	e9 42 0d 00 00       	jmp    0x7217
    64d5:	49 bf c8 45 59 55 55 	movabs r15,0x5555555945c8
    64dc:	55 00 00 
    64df:	4d 39 fe             	cmp    r14,r15
    64e2:	0f 84 a6 9f ff ff    	je     0x48e
    64e8:	49 bf 3b 83 59 55 55 	movabs r15,0x55555559833b
    64ef:	55 00 00 
    64f2:	e9 20 0d 00 00       	jmp    0x7217
    64f7:	49 bf e0 03 d7 f7 ff 	movabs r15,0x7ffff7d703e0
    64fe:	7f 00 00 
    6501:	4d 39 fe             	cmp    r14,r15
    6504:	0f 84 21 fb ff ff    	je     0x602b
    650a:	49 bf eb f8 58 55 55 	movabs r15,0x55555558f8eb
    6511:	55 00 00 
    6514:	e9 fe 0c 00 00       	jmp    0x7217
    6519:	49 bf 75 02 5b 55 55 	movabs r15,0x5555555b0275
    6520:	55 00 00 
    6523:	4d 39 fe             	cmp    r14,r15
    6526:	0f 84 47 bb ff ff    	je     0x2073
    652c:	49 bf 9e a6 5a 55 55 	movabs r15,0x5555555aa69e
    6533:	55 00 00 
    6536:	e9 dc 0c 00 00       	jmp    0x7217
    653b:	49 bf b7 42 e5 f7 ff 	movabs r15,0x7ffff7e542b7
    6542:	7f 00 00 
    6545:	4d 39 fe             	cmp    r14,r15
    6548:	0f 84 61 fd ff ff    	je     0x62af
    654e:	49 bf 10 40 e5 f7 ff 	movabs r15,0x7ffff7e54010
    6555:	7f 00 00 
    6558:	e9 ba 0c 00 00       	jmp    0x7217
    655d:	49 bf 04 43 e5 f7 ff 	movabs r15,0x7ffff7e54304
    6564:	7f 00 00 
    6567:	e9 ab 0c 00 00       	jmp    0x7217
    656c:	49 bf a0 42 e5 f7 ff 	movabs r15,0x7ffff7e542a0
    6573:	7f 00 00 
    6576:	e9 9c 0c 00 00       	jmp    0x7217
    657b:	49 bf e4 42 e5 f7 ff 	movabs r15,0x7ffff7e542e4
    6582:	7f 00 00 
    6585:	4d 39 fe             	cmp    r14,r15
    6588:	0f 84 6a fd ff ff    	je     0x62f8
    658e:	49 bf 74 40 e5 f7 ff 	movabs r15,0x7ffff7e54074
    6595:	7f 00 00 
    6598:	e9 7a 0c 00 00       	jmp    0x7217
    659d:	49 bf ed 52 e5 f7 ff 	movabs r15,0x7ffff7e552ed
    65a4:	7f 00 00 
    65a7:	e9 6b 0c 00 00       	jmp    0x7217
    65ac:	49 bf d7 a2 5a 55 55 	movabs r15,0x5555555aa2d7
    65b3:	55 00 00 
    65b6:	4d 39 fe             	cmp    r14,r15
    65b9:	0f 84 d9 a9 ff ff    	je     0xf98
    65bf:	49 bf 08 a5 5a 55 55 	movabs r15,0x5555555aa508
    65c6:	55 00 00 
    65c9:	4d 39 fe             	cmp    r14,r15
    65cc:	0f 84 36 ae ff ff    	je     0x1408
    65d2:	49 bf 29 a6 5a 55 55 	movabs r15,0x5555555aa629
    65d9:	55 00 00 
    65dc:	4d 39 fe             	cmp    r14,r15
    65df:	0f 84 9b af ff ff    	je     0x1580
    65e5:	49 bf 13 8c 5a 55 55 	movabs r15,0x5555555a8c13
    65ec:	55 00 00 
    65ef:	e9 23 0c 00 00       	jmp    0x7217
    65f4:	49 bf 2f a4 5a 55 55 	movabs r15,0x5555555aa42f
    65fb:	55 00 00 
    65fe:	4d 39 fe             	cmp    r14,r15
    6601:	0f 84 3d ac ff ff    	je     0x1244
    6607:	49 bf 51 a4 5a 55 55 	movabs r15,0x5555555aa451
    660e:	55 00 00 
    6611:	4d 39 fe             	cmp    r14,r15
    6614:	0f 84 76 ac ff ff    	je     0x1290
    661a:	49 bf ff a5 5a 55 55 	movabs r15,0x5555555aa5ff
    6621:	55 00 00 
    6624:	4d 39 fe             	cmp    r14,r15
    6627:	0f 84 fd ae ff ff    	je     0x152a
    662d:	49 bf 0c a2 5a 55 55 	movabs r15,0x5555555aa20c
    6634:	55 00 00 
    6637:	4d 39 fe             	cmp    r14,r15
    663a:	0f 84 ab a7 ff ff    	je     0xdeb
    6640:	49 bf 3b fe 5a 55 55 	movabs r15,0x5555555afe3b
    6647:	55 00 00 
    664a:	4d 39 fe             	cmp    r14,r15
    664d:	0f 84 54 b5 ff ff    	je     0x1ba7
    6653:	49 bf af 15 59 55 55 	movabs r15,0x5555555915af
    665a:	55 00 00 
    665d:	e9 b5 0b 00 00       	jmp    0x7217
    6662:	49 bf 16 a3 5a 55 55 	movabs r15,0x5555555aa316
    6669:	55 00 00 
    666c:	e9 a6 0b 00 00       	jmp    0x7217
    6671:	49 bf ce a4 5a 55 55 	movabs r15,0x5555555aa4ce
    6678:	55 00 00 
    667b:	e9 97 0b 00 00       	jmp    0x7217
    6680:	49 bf 2e a5 5a 55 55 	movabs r15,0x5555555aa52e
    6687:	55 00 00 
    668a:	e9 88 0b 00 00       	jmp    0x7217
    668f:	49 bf 16 83 59 55 55 	movabs r15,0x555555598316
    6696:	55 00 00 
    6699:	4d 39 fe             	cmp    r14,r15
    669c:	0f 84 c4 a4 ff ff    	je     0xb66
    66a2:	49 bf 82 a2 5a 55 55 	movabs r15,0x5555555aa282
    66a9:	55 00 00 
    66ac:	e9 66 0b 00 00       	jmp    0x7217
    66b1:	49 bf 16 83 59 55 55 	movabs r15,0x555555598316
    66b8:	55 00 00 
    66bb:	4d 39 fe             	cmp    r14,r15
    66be:	0f 84 a2 a4 ff ff    	je     0xb66
    66c4:	49 bf 38 a2 5a 55 55 	movabs r15,0x5555555aa238
    66cb:	55 00 00 
    66ce:	e9 44 0b 00 00       	jmp    0x7217
    66d3:	49 bf 1b 83 59 55 55 	movabs r15,0x55555559831b
    66da:	55 00 00 
    66dd:	4d 39 fe             	cmp    r14,r15
    66e0:	0f 84 97 a4 ff ff    	je     0xb7d
    66e6:	49 bf c9 84 59 55 55 	movabs r15,0x5555555984c9
    66ed:	55 00 00 
    66f0:	4d 39 fe             	cmp    r14,r15
    66f3:	0f 84 27 a5 ff ff    	je     0xc20
    66f9:	49 bf 04 ad 61 55 55 	movabs r15,0x55555561ad04
    6700:	55 00 00 
    6703:	e9 0f 0b 00 00       	jmp    0x7217
    6708:	49 bf bf 84 59 55 55 	movabs r15,0x5555555984bf
    670f:	55 00 00 
    6712:	e9 00 0b 00 00       	jmp    0x7217
    6717:	49 bf d3 84 59 55 55 	movabs r15,0x5555555984d3
    671e:	55 00 00 
    6721:	e9 f1 0a 00 00       	jmp    0x7217
    6726:	49 bf 4b fb 58 55 55 	movabs r15,0x55555558fb4b
    672d:	55 00 00 
    6730:	e9 e2 0a 00 00       	jmp    0x7217
    6735:	49 bf d8 a5 5a 55 55 	movabs r15,0x5555555aa5d8
    673c:	55 00 00 
    673f:	4d 39 fe             	cmp    r14,r15
    6742:	0f 84 95 ad ff ff    	je     0x14dd
    6748:	49 bf 6a a6 5a 55 55 	movabs r15,0x5555555aa66a
    674f:	55 00 00 
    6752:	4d 39 fe             	cmp    r14,r15
    6755:	0f 84 da ae ff ff    	je     0x1635
    675b:	49 bf 14 a2 5a 55 55 	movabs r15,0x5555555aa214
    6762:	55 00 00 
    6765:	4d 39 fe             	cmp    r14,r15
    6768:	0f 84 97 a6 ff ff    	je     0xe05
    676e:	49 bf d0 a1 5a 55 55 	movabs r15,0x5555555aa1d0
    6775:	55 00 00 
    6778:	4d 39 fe             	cmp    r14,r15
    677b:	0f 84 e1 a5 ff ff    	je     0xd62
    6781:	49 bf 3f fd 5a 55 55 	movabs r15,0x5555555afd3f
    6788:	55 00 00 
    678b:	4d 39 fe             	cmp    r14,r15
    678e:	0f 84 fb b1 ff ff    	je     0x198f
    6794:	49 bf b5 fd 5a 55 55 	movabs r15,0x5555555afdb5
    679b:	55 00 00 
    679e:	4d 39 fe             	cmp    r14,r15
    67a1:	0f 84 f7 b2 ff ff    	je     0x1a9e
    67a7:	49 bf 6b 16 59 55 55 	movabs r15,0x55555559166b
    67ae:	55 00 00 
    67b1:	e9 61 0a 00 00       	jmp    0x7217
    67b6:	49 bf d8 a5 5a 55 55 	movabs r15,0x5555555aa5d8
    67bd:	55 00 00 
    67c0:	4d 39 fe             	cmp    r14,r15
    67c3:	0f 84 14 ad ff ff    	je     0x14dd
    67c9:	49 bf 6a a6 5a 55 55 	movabs r15,0x5555555aa66a
    67d0:	55 00 00 
    67d3:	4d 39 fe             	cmp    r14,r15
    67d6:	0f 84 59 ae ff ff    	je     0x1635
    67dc:	49 bf 14 a2 5a 55 55 	movabs r15,0x5555555aa214
    67e3:	55 00 00 
    67e6:	4d 39 fe             	cmp    r14,r15
    67e9:	0f 84 16 a6 ff ff    	je     0xe05
    67ef:	49 bf d0 a1 5a 55 55 	movabs r15,0x5555555aa1d0
    67f6:	55 00 00 
    67f9:	4d 39 fe             	cmp    r14,r15
    67fc:	0f 84 60 a5 ff ff    	je     0xd62
    6802:	49 bf 3f fd 5a 55 55 	movabs r15,0x5555555afd3f
    6809:	55 00 00 
    680c:	4d 39 fe             	cmp    r14,r15
    680f:	0f 84 7a b1 ff ff    	je     0x198f
    6815:	49 bf b5 fd 5a 55 55 	movabs r15,0x5555555afdb5
    681c:	55 00 00 
    681f:	4d 39 fe             	cmp    r14,r15
    6822:	0f 84 76 b2 ff ff    	je     0x1a9e
    6828:	49 bf 77 16 59 55 55 	movabs r15,0x555555591677
    682f:	55 00 00 
    6832:	e9 e0 09 00 00       	jmp    0x7217
    6837:	49 bf 6a a7 5a 55 55 	movabs r15,0x5555555aa76a
    683e:	55 00 00 
    6841:	e9 d1 09 00 00       	jmp    0x7217
    6846:	49 bf 51 a6 5a 55 55 	movabs r15,0x5555555aa651
    684d:	55 00 00 
    6850:	e9 c2 09 00 00       	jmp    0x7217
    6855:	49 bf c1 a1 5a 55 55 	movabs r15,0x5555555aa1c1
    685c:	55 00 00 
    685f:	4d 39 fe             	cmp    r14,r15
    6862:	0f 84 df a4 ff ff    	je     0xd47
    6868:	49 bf 10 fd 5a 55 55 	movabs r15,0x5555555afd10
    686f:	55 00 00 
    6872:	4d 39 fe             	cmp    r14,r15
    6875:	0f 84 9b b0 ff ff    	je     0x1916
    687b:	49 bf 9a fd 5a 55 55 	movabs r15,0x5555555afd9a
    6882:	55 00 00 
    6885:	4d 39 fe             	cmp    r14,r15
    6888:	0f 84 c3 b1 ff ff    	je     0x1a51
    688e:	49 bf 22 16 59 55 55 	movabs r15,0x555555591622
    6895:	55 00 00 
    6898:	e9 7a 09 00 00       	jmp    0x7217
    689d:	49 bf aa 1f 66 55 55 	movabs r15,0x555555661faa
    68a4:	55 00 00 
    68a7:	4d 39 fe             	cmp    r14,r15
    68aa:	0f 84 0a c6 ff ff    	je     0x2eba
    68b0:	49 bf d1 1e 66 55 55 	movabs r15,0x555555661ed1
    68b7:	55 00 00 
    68ba:	4d 39 fe             	cmp    r14,r15
    68bd:	0f 84 0f c4 ff ff    	je     0x2cd2
    68c3:	49 bf 98 c4 65 55 55 	movabs r15,0x55555565c498
    68ca:	55 00 00 
    68cd:	e9 45 09 00 00       	jmp    0x7217
    68d2:	49 bf 87 44 63 55 55 	movabs r15,0x555555634487
    68d9:	55 00 00 
    68dc:	e9 36 09 00 00       	jmp    0x7217
    68e1:	49 bf b1 45 59 55 55 	movabs r15,0x5555555945b1
    68e8:	55 00 00 
    68eb:	4d 39 fe             	cmp    r14,r15
    68ee:	0f 84 95 9b ff ff    	je     0x489
    68f4:	49 bf a3 15 59 55 55 	movabs r15,0x5555555915a3
    68fb:	55 00 00 
    68fe:	4d 39 fe             	cmp    r14,r15
    6901:	0f 84 7b 98 ff ff    	je     0x182
    6907:	49 bf 51 3b 5a 55 55 	movabs r15,0x5555555a3b51
    690e:	55 00 00 
    6911:	e9 01 09 00 00       	jmp    0x7217
    6916:	49 bf 29 39 5a 55 55 	movabs r15,0x5555555a3929
    691d:	55 00 00 
    6920:	4d 39 fe             	cmp    r14,r15
    6923:	0f 84 38 a3 ff ff    	je     0xc61
    6929:	49 bf 31 39 5a 55 55 	movabs r15,0x5555555a3931
    6930:	55 00 00 
    6933:	4d 39 fe             	cmp    r14,r15
    6936:	0f 84 3f a3 ff ff    	je     0xc7b
    693c:	49 bf 8d 6b 66 55 55 	movabs r15,0x555555666b8d
    6943:	55 00 00 
    6946:	e9 cc 08 00 00       	jmp    0x7217
    694b:	49 bf 29 39 5a 55 55 	movabs r15,0x5555555a3929
    6952:	55 00 00 
    6955:	4d 39 fe             	cmp    r14,r15
    6958:	0f 84 03 a3 ff ff    	je     0xc61
    695e:	49 bf 31 39 5a 55 55 	movabs r15,0x5555555a3931
    6965:	55 00 00 
    6968:	4d 39 fe             	cmp    r14,r15
    696b:	0f 84 0a a3 ff ff    	je     0xc7b
    6971:	49 bf 06 6f 66 55 55 	movabs r15,0x555555666f06
    6978:	55 00 00 
    697b:	e9 97 08 00 00       	jmp    0x7217
    6980:	49 bf 29 39 5a 55 55 	movabs r15,0x5555555a3929
    6987:	55 00 00 
    698a:	4d 39 fe             	cmp    r14,r15
    698d:	0f 84 ce a2 ff ff    	je     0xc61
    6993:	49 bf 31 39 5a 55 55 	movabs r15,0x5555555a3931
    699a:	55 00 00 
    699d:	4d 39 fe             	cmp    r14,r15
    69a0:	0f 84 d5 a2 ff ff    	je     0xc7b
    69a6:	49 bf 1e 68 66 55 55 	movabs r15,0x55555566681e
    69ad:	55 00 00 
    69b0:	e9 62 08 00 00       	jmp    0x7217
    69b5:	49 bf b1 45 59 55 55 	movabs r15,0x5555555945b1
    69bc:	55 00 00 
    69bf:	4d 39 fe             	cmp    r14,r15
    69c2:	0f 84 c1 9a ff ff    	je     0x489
    69c8:	49 bf a3 15 59 55 55 	movabs r15,0x5555555915a3
    69cf:	55 00 00 
    69d2:	4d 39 fe             	cmp    r14,r15
    69d5:	0f 84 a7 97 ff ff    	je     0x182
    69db:	49 bf f9 1e 66 55 55 	movabs r15,0x555555661ef9
    69e2:	55 00 00 
    69e5:	e9 2d 08 00 00       	jmp    0x7217
    69ea:	49 bf e0 1f 66 55 55 	movabs r15,0x555555661fe0
    69f1:	55 00 00 
    69f4:	4d 39 fe             	cmp    r14,r15
    69f7:	0f 84 08 c5 ff ff    	je     0x2f05
    69fd:	49 bf aa 21 66 55 55 	movabs r15,0x5555556621aa
    6a04:	55 00 00 
    6a07:	4d 39 fe             	cmp    r14,r15
    6a0a:	0f 84 98 c8 ff ff    	je     0x32a8
    6a10:	49 bf 5e 47 6c 55 55 	movabs r15,0x5555556c475e
    6a17:	55 00 00 
    6a1a:	4d 39 fe             	cmp    r14,r15
    6a1d:	0f 84 b6 f3 ff ff    	je     0x5dd9
    6a23:	49 bf c4 38 6c 55 55 	movabs r15,0x5555556c38c4
    6a2a:	55 00 00 
    6a2d:	e9 e5 07 00 00       	jmp    0x7217
    6a32:	49 bf b1 45 59 55 55 	movabs r15,0x5555555945b1
    6a39:	55 00 00 
    6a3c:	4d 39 fe             	cmp    r14,r15
    6a3f:	0f 84 44 9a ff ff    	je     0x489
    6a45:	49 bf a3 15 59 55 55 	movabs r15,0x5555555915a3
    6a4c:	55 00 00 
    6a4f:	4d 39 fe             	cmp    r14,r15
    6a52:	0f 84 2a 97 ff ff    	je     0x182
    6a58:	49 bf c7 1d 66 55 55 	movabs r15,0x555555661dc7
    6a5f:	55 00 00 
    6a62:	e9 b0 07 00 00       	jmp    0x7217
    6a67:	49 bf d8 21 66 55 55 	movabs r15,0x5555556621d8
    6a6e:	55 00 00 
    6a71:	e9 a1 07 00 00       	jmp    0x7217
    6a76:	49 bf b4 23 66 55 55 	movabs r15,0x5555556623b4
    6a7d:	55 00 00 
    6a80:	e9 92 07 00 00       	jmp    0x7217
    6a85:	49 bf d3 c2 65 55 55 	movabs r15,0x55555565c2d3
    6a8c:	55 00 00 
    6a8f:	4d 39 fe             	cmp    r14,r15
    6a92:	0f 84 e7 b9 ff ff    	je     0x247f
    6a98:	49 bf b1 45 59 55 55 	movabs r15,0x5555555945b1
    6a9f:	55 00 00 
    6aa2:	4d 39 fe             	cmp    r14,r15
    6aa5:	0f 84 de 99 ff ff    	je     0x489
    6aab:	49 bf a3 15 59 55 55 	movabs r15,0x5555555915a3
    6ab2:	55 00 00 
    6ab5:	4d 39 fe             	cmp    r14,r15
    6ab8:	0f 84 c4 96 ff ff    	je     0x182
    6abe:	49 bf 4f 07 6a 55 55 	movabs r15,0x5555556a074f
    6ac5:	55 00 00 
    6ac8:	e9 4a 07 00 00       	jmp    0x7217
    6acd:	49 bf b1 45 59 55 55 	movabs r15,0x5555555945b1
    6ad4:	55 00 00 
    6ad7:	4d 39 fe             	cmp    r14,r15
    6ada:	0f 84 a9 99 ff ff    	je     0x489
    6ae0:	49 bf a3 15 59 55 55 	movabs r15,0x5555555915a3
    6ae7:	55 00 00 
    6aea:	4d 39 fe             	cmp    r14,r15
    6aed:	0f 84 8f 96 ff ff    	je     0x182
    6af3:	49 bf b6 47 6c 55 55 	movabs r15,0x5555556c47b6
    6afa:	55 00 00 
    6afd:	e9 15 07 00 00       	jmp    0x7217
    6b02:	49 bf b1 45 59 55 55 	movabs r15,0x5555555945b1
    6b09:	55 00 00 
    6b0c:	4d 39 fe             	cmp    r14,r15
    6b0f:	0f 84 74 99 ff ff    	je     0x489
    6b15:	49 bf a3 15 59 55 55 	movabs r15,0x5555555915a3
    6b1c:	55 00 00 
    6b1f:	4d 39 fe             	cmp    r14,r15
    6b22:	0f 84 5a 96 ff ff    	je     0x182
    6b28:	49 bf 31 c2 65 55 55 	movabs r15,0x55555565c231
    6b2f:	55 00 00 
    6b32:	e9 e0 06 00 00       	jmp    0x7217
    6b37:	49 bf 94 47 59 55 55 	movabs r15,0x555555594794
    6b3e:	55 00 00 
    6b41:	e9 d1 06 00 00       	jmp    0x7217
    6b46:	49 bf 41 49 59 55 55 	movabs r15,0x555555594941
    6b4d:	55 00 00 
    6b50:	e9 c2 06 00 00       	jmp    0x7217
    6b55:	49 bf de 44 59 55 55 	movabs r15,0x5555555944de
    6b5c:	55 00 00 
    6b5f:	e9 b3 06 00 00       	jmp    0x7217
    6b64:	49 bf 39 47 59 55 55 	movabs r15,0x555555594739
    6b6b:	55 00 00 
    6b6e:	e9 a4 06 00 00       	jmp    0x7217
    6b73:	49 bf 03 47 59 55 55 	movabs r15,0x555555594703
    6b7a:	55 00 00 
    6b7d:	e9 95 06 00 00       	jmp    0x7217
    6b82:	49 bf 14 4a 59 55 55 	movabs r15,0x555555594a14
    6b89:	55 00 00 
    6b8c:	e9 86 06 00 00       	jmp    0x7217
    6b91:	49 bf ee 48 59 55 55 	movabs r15,0x5555555948ee
    6b98:	55 00 00 
    6b9b:	e9 77 06 00 00       	jmp    0x7217
    6ba0:	49 bf a6 45 59 55 55 	movabs r15,0x5555555945a6
    6ba7:	55 00 00 
    6baa:	e9 68 06 00 00       	jmp    0x7217
    6baf:	49 bf 46 4a 59 55 55 	movabs r15,0x555555594a46
    6bb6:	55 00 00 
    6bb9:	e9 59 06 00 00       	jmp    0x7217
    6bbe:	49 bf b7 46 59 55 55 	movabs r15,0x5555555946b7
    6bc5:	55 00 00 
    6bc8:	e9 4a 06 00 00       	jmp    0x7217
    6bcd:	49 bf 9b 15 59 55 55 	movabs r15,0x55555559159b
    6bd4:	55 00 00 
    6bd7:	e9 3b 06 00 00       	jmp    0x7217
    6bdc:	49 bf 8b ef 58 55 55 	movabs r15,0x55555558ef8b
    6be3:	55 00 00 
    6be6:	e9 2c 06 00 00       	jmp    0x7217
    6beb:	49 bf f3 02 5b 55 55 	movabs r15,0x5555555b02f3
    6bf2:	55 00 00 
    6bf5:	e9 1d 06 00 00       	jmp    0x7217
    6bfa:	49 bf 03 ff 5a 55 55 	movabs r15,0x5555555aff03
    6c01:	55 00 00 
    6c04:	4d 39 fe             	cmp    r14,r15
    6c07:	0f 84 69 b1 ff ff    	je     0x1d76
    6c0d:	49 bf a0 fe 5a 55 55 	movabs r15,0x5555555afea0
    6c14:	55 00 00 
    6c17:	e9 fb 05 00 00       	jmp    0x7217
    6c1c:	49 bf 03 ff 5a 55 55 	movabs r15,0x5555555aff03
    6c23:	55 00 00 
    6c26:	4d 39 fe             	cmp    r14,r15
    6c29:	0f 84 47 b1 ff ff    	je     0x1d76
    6c2f:	49 bf 58 ff 5a 55 55 	movabs r15,0x5555555aff58
    6c36:	55 00 00 
    6c39:	e9 d9 05 00 00       	jmp    0x7217
    6c3e:	49 bf 03 ff 5a 55 55 	movabs r15,0x5555555aff03
    6c45:	55 00 00 
    6c48:	4d 39 fe             	cmp    r14,r15
    6c4b:	0f 84 25 b1 ff ff    	je     0x1d76
    6c51:	49 bf 13 00 5b 55 55 	movabs r15,0x5555555b0013
    6c58:	55 00 00 
    6c5b:	e9 b7 05 00 00       	jmp    0x7217
    6c60:	49 bf 03 ff 5a 55 55 	movabs r15,0x5555555aff03
    6c67:	55 00 00 
    6c6a:	4d 39 fe             	cmp    r14,r15
    6c6d:	0f 84 03 b1 ff ff    	je     0x1d76
    6c73:	49 bf 2e 00 5b 55 55 	movabs r15,0x5555555b002e
    6c7a:	55 00 00 
    6c7d:	e9 95 05 00 00       	jmp    0x7217
    6c82:	49 bf 22 04 d7 f7 ff 	movabs r15,0x7ffff7d70422
    6c89:	7f 00 00 
    6c8c:	4d 39 fe             	cmp    r14,r15
    6c8f:	0f 84 fe f3 ff ff    	je     0x6093
    6c95:	49 bf 90 57 ce f7 ff 	movabs r15,0x7ffff7ce5790
    6c9c:	7f 00 00 
    6c9f:	e9 73 05 00 00       	jmp    0x7217
    6ca4:	49 bf 72 04 d7 f7 ff 	movabs r15,0x7ffff7d70472
    6cab:	7f 00 00 
    6cae:	e9 64 05 00 00       	jmp    0x7217
    6cb3:	49 bf 03 04 d7 f7 ff 	movabs r15,0x7ffff7d70403
    6cba:	7f 00 00 
    6cbd:	e9 55 05 00 00       	jmp    0x7217
    6cc2:	49 bf 5b 04 d7 f7 ff 	movabs r15,0x7ffff7d7045b
    6cc9:	7f 00 00 
    6ccc:	e9 46 05 00 00       	jmp    0x7217
    6cd1:	49 be 00 4a 63 55 55 	movabs r14,0x555555634a00
    6cd8:	55 00 00 
    6cdb:	48 c7 85 78 ff ff ff 	mov    QWORD PTR [rbp-0x88],0x1
    6ce2:	01 00 00 00 
    6ce6:	e9 40 05 00 00       	jmp    0x722b
    6ceb:	49 be 80 26 62 55 55 	movabs r14,0x555555622680
    6cf2:	55 00 00 
    6cf5:	48 c7 85 78 ff ff ff 	mov    QWORD PTR [rbp-0x88],0x1
    6cfc:	01 00 00 00 
    6d00:	e9 26 05 00 00       	jmp    0x722b
    6d05:	49 be 00 f0 69 55 55 	movabs r14,0x55555569f000
    6d0c:	55 00 00 
    6d0f:	48 c7 85 78 ff ff ff 	mov    QWORD PTR [rbp-0x88],0x1
    6d16:	01 00 00 00 
    6d1a:	e9 0c 05 00 00       	jmp    0x722b
    6d1f:	49 be 00 44 59 55 55 	movabs r14,0x555555594400
    6d26:	55 00 00 
    6d29:	48 c7 85 78 ff ff ff 	mov    QWORD PTR [rbp-0x88],0x1
    6d30:	01 00 00 00 
    6d34:	e9 f2 04 00 00       	jmp    0x722b
    6d39:	49 be 90 8c 66 55 55 	movabs r14,0x555555668c90
    6d40:	55 00 00 
    6d43:	48 c7 85 78 ff ff ff 	mov    QWORD PTR [rbp-0x88],0x1
    6d4a:	01 00 00 00 
    6d4e:	e9 d8 04 00 00       	jmp    0x722b
    6d53:	49 be 90 23 6c 55 55 	movabs r14,0x5555556c2390
    6d5a:	55 00 00 
    6d5d:	48 c7 85 78 ff ff ff 	mov    QWORD PTR [rbp-0x88],0x1
    6d64:	01 00 00 00 
    6d68:	e9 be 04 00 00       	jmp    0x722b
    6d6d:	49 be 10 3d 59 55 55 	movabs r14,0x555555593d10
    6d74:	55 00 00 
    6d77:	48 c7 85 78 ff ff ff 	mov    QWORD PTR [rbp-0x88],0x1
    6d7e:	01 00 00 00 
    6d82:	e9 a4 04 00 00       	jmp    0x722b
    6d87:	49 be 90 f5 58 55 55 	movabs r14,0x55555558f590
    6d8e:	55 00 00 
    6d91:	48 c7 85 78 ff ff ff 	mov    QWORD PTR [rbp-0x88],0x1
    6d98:	01 00 00 00 
    6d9c:	e9 8a 04 00 00       	jmp    0x722b
    6da1:	49 be 10 3d 6a 55 55 	movabs r14,0x5555556a3d10
    6da8:	55 00 00 
    6dab:	48 c7 85 78 ff ff ff 	mov    QWORD PTR [rbp-0x88],0x1
    6db2:	01 00 00 00 
    6db6:	e9 70 04 00 00       	jmp    0x722b
    6dbb:	49 be 90 f1 58 55 55 	movabs r14,0x55555558f190
    6dc2:	55 00 00 
    6dc5:	48 c7 85 78 ff ff ff 	mov    QWORD PTR [rbp-0x88],0x1
    6dcc:	01 00 00 00 
    6dd0:	e9 56 04 00 00       	jmp    0x722b
    6dd5:	49 be a0 40 e5 f7 ff 	movabs r14,0x7ffff7e540a0
    6ddc:	7f 00 00 
    6ddf:	48 c7 85 78 ff ff ff 	mov    QWORD PTR [rbp-0x88],0x1
    6de6:	01 00 00 00 
    6dea:	e9 3c 04 00 00       	jmp    0x722b
    6def:	49 be 20 88 59 55 55 	movabs r14,0x555555598820
    6df6:	55 00 00 
    6df9:	48 c7 85 78 ff ff ff 	mov    QWORD PTR [rbp-0x88],0x1
    6e00:	01 00 00 00 
    6e04:	e9 22 04 00 00       	jmp    0x722b
    6e09:	49 be a0 3b 5a 55 55 	movabs r14,0x5555555a3ba0
    6e10:	55 00 00 
    6e13:	48 c7 85 78 ff ff ff 	mov    QWORD PTR [rbp-0x88],0x1
    6e1a:	01 00 00 00 
    6e1e:	e9 08 04 00 00       	jmp    0x722b
    6e23:	49 be a0 3c 6c 55 55 	movabs r14,0x5555556c3ca0
    6e2a:	55 00 00 
    6e2d:	48 c7 85 78 ff ff ff 	mov    QWORD PTR [rbp-0x88],0x1
    6e34:	01 00 00 00 
    6e38:	e9 ee 03 00 00       	jmp    0x722b
    6e3d:	49 be a0 f5 58 55 55 	movabs r14,0x55555558f5a0
    6e44:	55 00 00 
    6e47:	48 c7 85 78 ff ff ff 	mov    QWORD PTR [rbp-0x88],0x1
    6e4e:	01 00 00 00 
    6e52:	e9 d4 03 00 00       	jmp    0x722b
    6e57:	49 be a0 7c 6a 55 55 	movabs r14,0x5555556a7ca0
    6e5e:	55 00 00 
    6e61:	48 c7 85 78 ff ff ff 	mov    QWORD PTR [rbp-0x88],0x1
    6e68:	01 00 00 00 
    6e6c:	e9 ba 03 00 00       	jmp    0x722b
    6e71:	49 be a0 c4 65 55 55 	movabs r14,0x55555565c4a0
    6e78:	55 00 00 
    6e7b:	48 c7 85 78 ff ff ff 	mov    QWORD PTR [rbp-0x88],0x1
    6e82:	01 00 00 00 
    6e86:	e9 a0 03 00 00       	jmp    0x722b
    6e8b:	49 be a0 e4 65 55 55 	movabs r14,0x55555565e4a0
    6e92:	55 00 00 
    6e95:	48 c7 85 78 ff ff ff 	mov    QWORD PTR [rbp-0x88],0x1
    6e9c:	01 00 00 00 
    6ea0:	e9 86 03 00 00       	jmp    0x722b
    6ea5:	49 be 20 fd 58 55 55 	movabs r14,0x55555558fd20
    6eac:	55 00 00 
    6eaf:	48 c7 85 78 ff ff ff 	mov    QWORD PTR [rbp-0x88],0x1
    6eb6:	01 00 00 00 
    6eba:	e9 6c 03 00 00       	jmp    0x722b
    6ebf:	49 be a0 f7 5a 55 55 	movabs r14,0x5555555af7a0
    6ec6:	55 00 00 
    6ec9:	48 c7 85 78 ff ff ff 	mov    QWORD PTR [rbp-0x88],0x1
    6ed0:	01 00 00 00 
    6ed4:	e9 52 03 00 00       	jmp    0x722b
    6ed9:	49 be b0 f2 58 55 55 	movabs r14,0x55555558f2b0
    6ee0:	55 00 00 
    6ee3:	48 c7 85 78 ff ff ff 	mov    QWORD PTR [rbp-0x88],0x1
    6eea:	01 00 00 00 
    6eee:	e9 38 03 00 00       	jmp    0x722b
    6ef3:	49 be b0 8b 5a 55 55 	movabs r14,0x5555555a8bb0
    6efa:	55 00 00 
    6efd:	48 c7 85 78 ff ff ff 	mov    QWORD PTR [rbp-0x88],0x1
    6f04:	01 00 00 00 
    6f08:	e9 1e 03 00 00       	jmp    0x722b
    6f0d:	49 be 30 7b 6a 55 55 	movabs r14,0x5555556a7b30
    6f14:	55 00 00 
    6f17:	48 c7 85 78 ff ff ff 	mov    QWORD PTR [rbp-0x88],0x1
    6f1e:	01 00 00 00 
    6f22:	e9 04 03 00 00       	jmp    0x722b
    6f27:	49 be 30 37 6a 55 55 	movabs r14,0x5555556a3730
    6f2e:	55 00 00 
    6f31:	48 c7 85 78 ff ff ff 	mov    QWORD PTR [rbp-0x88],0x1
    6f38:	01 00 00 00 
    6f3c:	e9 ea 02 00 00       	jmp    0x722b
    6f41:	49 be 30 fd 58 55 55 	movabs r14,0x55555558fd30
    6f48:	55 00 00 
    6f4b:	48 c7 85 78 ff ff ff 	mov    QWORD PTR [rbp-0x88],0x1
    6f52:	01 00 00 00 
    6f56:	e9 d0 02 00 00       	jmp    0x722b
    6f5b:	49 be c0 3e e5 f7 ff 	movabs r14,0x7ffff7e53ec0
    6f62:	7f 00 00 
    6f65:	48 c7 85 78 ff ff ff 	mov    QWORD PTR [rbp-0x88],0x1
    6f6c:	01 00 00 00 
    6f70:	e9 b6 02 00 00       	jmp    0x722b
    6f75:	49 be 40 99 5a 55 55 	movabs r14,0x5555555a9940
    6f7c:	55 00 00 
    6f7f:	48 c7 85 78 ff ff ff 	mov    QWORD PTR [rbp-0x88],0x1
    6f86:	01 00 00 00 
    6f8a:	e9 9c 02 00 00       	jmp    0x722b
    6f8f:	49 be c0 f1 58 55 55 	movabs r14,0x55555558f1c0
    6f96:	55 00 00 
    6f99:	48 c7 85 78 ff ff ff 	mov    QWORD PTR [rbp-0x88],0x1
    6fa0:	01 00 00 00 
    6fa4:	e9 82 02 00 00       	jmp    0x722b
    6fa9:	49 be c0 3d 6a 55 55 	movabs r14,0x5555556a3dc0
    6fb0:	55 00 00 
    6fb3:	48 c7 85 78 ff ff ff 	mov    QWORD PTR [rbp-0x88],0x1
    6fba:	01 00 00 00 
    6fbe:	e9 68 02 00 00       	jmp    0x722b
    6fc3:	49 be 40 3d 6a 55 55 	movabs r14,0x5555556a3d40
    6fca:	55 00 00 
    6fcd:	48 c7 85 78 ff ff ff 	mov    QWORD PTR [rbp-0x88],0x1
    6fd4:	01 00 00 00 
    6fd8:	e9 4e 02 00 00       	jmp    0x722b
    6fdd:	49 be 40 13 59 55 55 	movabs r14,0x555555591340
    6fe4:	55 00 00 
    6fe7:	48 c7 85 78 ff ff ff 	mov    QWORD PTR [rbp-0x88],0x1
    6fee:	01 00 00 00 
    6ff2:	e9 34 02 00 00       	jmp    0x722b
    6ff7:	49 be 40 f2 5a 55 55 	movabs r14,0x5555555af240
    6ffe:	55 00 00 
    7001:	48 c7 85 78 ff ff ff 	mov    QWORD PTR [rbp-0x88],0x1
    7008:	01 00 00 00 
    700c:	e9 1a 02 00 00       	jmp    0x722b
    7011:	49 be c0 57 ce f7 ff 	movabs r14,0x7ffff7ce57c0
    7018:	7f 00 00 
    701b:	48 c7 85 78 ff ff ff 	mov    QWORD PTR [rbp-0x88],0x1
    7022:	01 00 00 00 
    7026:	e9 00 02 00 00       	jmp    0x722b
    702b:	49 be 50 97 5a 55 55 	movabs r14,0x5555555a9750
    7032:	55 00 00 
    7035:	48 c7 85 78 ff ff ff 	mov    QWORD PTR [rbp-0x88],0x1
    703c:	01 00 00 00 
    7040:	e9 e6 01 00 00       	jmp    0x722b
    7045:	49 be 50 11 5e 55 55 	movabs r14,0x5555555e1150
    704c:	55 00 00 
    704f:	48 c7 85 78 ff ff ff 	mov    QWORD PTR [rbp-0x88],0x1
    7056:	01 00 00 00 
    705a:	e9 cc 01 00 00       	jmp    0x722b
    705f:	49 be d0 1c 5f 55 55 	movabs r14,0x5555555f1cd0
    7066:	55 00 00 
    7069:	48 c7 85 78 ff ff ff 	mov    QWORD PTR [rbp-0x88],0x1
    7070:	01 00 00 00 
    7074:	e9 b2 01 00 00       	jmp    0x722b
    7079:	49 be 50 72 6c 55 55 	movabs r14,0x5555556c7250
    7080:	55 00 00 
    7083:	48 c7 85 78 ff ff ff 	mov    QWORD PTR [rbp-0x88],0x1
    708a:	01 00 00 00 
    708e:	e9 98 01 00 00       	jmp    0x722b
    7093:	49 be 50 f7 58 55 55 	movabs r14,0x55555558f750
    709a:	55 00 00 
    709d:	48 c7 85 78 ff ff ff 	mov    QWORD PTR [rbp-0x88],0x1
    70a4:	01 00 00 00 
    70a8:	e9 7e 01 00 00       	jmp    0x722b
    70ad:	49 be 50 14 59 55 55 	movabs r14,0x555555591450
    70b4:	55 00 00 
    70b7:	48 c7 85 78 ff ff ff 	mov    QWORD PTR [rbp-0x88],0x1
    70be:	01 00 00 00 
    70c2:	e9 64 01 00 00       	jmp    0x722b
    70c7:	49 be e0 91 61 55 55 	movabs r14,0x5555556191e0
    70ce:	55 00 00 
    70d1:	48 c7 85 78 ff ff ff 	mov    QWORD PTR [rbp-0x88],0x1
    70d8:	01 00 00 00 
    70dc:	e9 4a 01 00 00       	jmp    0x722b
    70e1:	49 be 60 ae 66 55 55 	movabs r14,0x55555566ae60
    70e8:	55 00 00 
    70eb:	48 c7 85 78 ff ff ff 	mov    QWORD PTR [rbp-0x88],0x1
    70f2:	01 00 00 00 
    70f6:	e9 30 01 00 00       	jmp    0x722b
    70fb:	49 be 60 f1 69 55 55 	movabs r14,0x55555569f160
    7102:	55 00 00 
    7105:	48 c7 85 78 ff ff ff 	mov    QWORD PTR [rbp-0x88],0x1
    710c:	01 00 00 00 
    7110:	e9 16 01 00 00       	jmp    0x722b
    7115:	49 be e0 fe 5a 55 55 	movabs r14,0x5555555afee0
    711c:	55 00 00 
    711f:	48 c7 85 78 ff ff ff 	mov    QWORD PTR [rbp-0x88],0x1
    7126:	01 00 00 00 
    712a:	e9 fc 00 00 00       	jmp    0x722b
    712f:	49 be 70 f8 58 55 55 	movabs r14,0x55555558f870
    7136:	55 00 00 
    7139:	48 c7 85 78 ff ff ff 	mov    QWORD PTR [rbp-0x88],0x1
    7140:	01 00 00 00 
    7144:	e9 e2 00 00 00       	jmp    0x722b
    7149:	49 be f0 f7 58 55 55 	movabs r14,0x55555558f7f0
    7150:	55 00 00 
    7153:	48 c7 85 78 ff ff ff 	mov    QWORD PTR [rbp-0x88],0x1
    715a:	01 00 00 00 
    715e:	e9 c8 00 00 00       	jmp    0x722b
    7163:	49 be 70 90 66 55 55 	movabs r14,0x555555669070
    716a:	55 00 00 
    716d:	48 c7 85 78 ff ff ff 	mov    QWORD PTR [rbp-0x88],0x1
    7174:	01 00 00 00 
    7178:	e9 ae 00 00 00       	jmp    0x722b
    717d:	49 be f0 96 66 55 55 	movabs r14,0x5555556696f0
    7184:	55 00 00 
    7187:	48 c7 85 78 ff ff ff 	mov    QWORD PTR [rbp-0x88],0x1
    718e:	01 00 00 00 
    7192:	e9 94 00 00 00       	jmp    0x722b
    7197:	49 be 70 fc 58 55 55 	movabs r14,0x55555558fc70
    719e:	55 00 00 
    71a1:	48 c7 85 78 ff ff ff 	mov    QWORD PTR [rbp-0x88],0x1
    71a8:	01 00 00 00 
    71ac:	eb 7d                	jmp    0x722b
    71ae:	49 be f0 ab 66 55 55 	movabs r14,0x55555566abf0
    71b5:	55 00 00 
    71b8:	48 c7 85 78 ff ff ff 	mov    QWORD PTR [rbp-0x88],0x1
    71bf:	01 00 00 00 
    71c3:	eb 66                	jmp    0x722b
    71c5:	49 be f0 3d 6a 55 55 	movabs r14,0x5555556a3df0
    71cc:	55 00 00 
    71cf:	48 c7 85 78 ff ff ff 	mov    QWORD PTR [rbp-0x88],0x1
    71d6:	01 00 00 00 
    71da:	eb 4f                	jmp    0x722b
    71dc:	49 be 70 a9 5a 55 55 	movabs r14,0x5555555aa970
    71e3:	55 00 00 
    71e6:	48 c7 85 78 ff ff ff 	mov    QWORD PTR [rbp-0x88],0x1
    71ed:	01 00 00 00 
    71f1:	eb 38                	jmp    0x722b
    71f3:	49 be 70 1a db f7 ff 	movabs r14,0x7ffff7db1a70
    71fa:	7f 00 00 
    71fd:	48 c7 85 78 ff ff ff 	mov    QWORD PTR [rbp-0x88],0x1
    7204:	01 00 00 00 
    7208:	eb 21                	jmp    0x722b
    720a:	48 c7 85 78 ff ff ff 	mov    QWORD PTR [rbp-0x88],0x0
    7211:	00 00 00 00 
    7215:	eb 14                	jmp    0x722b
    7217:	4c 89 bd 78 ff ff ff 	mov    QWORD PTR [rbp-0x88],r15
    721e:	eb 0b                	jmp    0x722b
    7220:	48 c7 85 78 ff ff ff 	mov    QWORD PTR [rbp-0x88],0x4
    7227:	04 00 00 00 
    722b:	4c 89 75 80          	mov    QWORD PTR [rbp-0x80],r14
    722f:	4c 89 6d b8          	mov    QWORD PTR [rbp-0x48],r13
    7233:	4c 89 65 c0          	mov    QWORD PTR [rbp-0x40],r12
    7237:	4c 8b 75 d0          	mov    r14,QWORD PTR [rbp-0x30]
    723b:	4c 8b 7d c8          	mov    r15,QWORD PTR [rbp-0x38]
    723f:	41 8f 07             	pop    QWORD PTR [r15]
    7242:	41 8f 86 80 00 00 00 	pop    QWORD PTR [r14+0x80]
    7249:	48 83 c4 10          	add    rsp,0x10
    724d:	41 8f 46 18          	pop    QWORD PTR [r14+0x18]
    7251:	41 8f 46 10          	pop    QWORD PTR [r14+0x10]
    7255:	41 8f 46 08          	pop    QWORD PTR [r14+0x8]
    7259:	41 8f 06             	pop    QWORD PTR [r14]
    725c:	41 8f 86 98 00 00 00 	pop    QWORD PTR [r14+0x98]
    7263:	41 8f 46 20          	pop    QWORD PTR [r14+0x20]
    7267:	49 89 5e 28          	mov    QWORD PTR [r14+0x28],rbx
    726b:	4d 89 5e 30          	mov    QWORD PTR [r14+0x30],r11
    726f:	4d 89 56 38          	mov    QWORD PTR [r14+0x38],r10
    7273:	4d 89 4e 40          	mov    QWORD PTR [r14+0x40],r9
    7277:	4d 89 46 48          	mov    QWORD PTR [r14+0x48],r8
    727b:	49 89 46 50          	mov    QWORD PTR [r14+0x50],rax
    727f:	49 89 4e 58          	mov    QWORD PTR [r14+0x58],rcx
    7283:	49 89 56 60          	mov    QWORD PTR [r14+0x60],rdx
    7287:	49 89 76 68          	mov    QWORD PTR [r14+0x68],rsi
    728b:	49 89 7e 70          	mov    QWORD PTR [r14+0x70],rdi
    728f:	48 83 c4 10          	add    rsp,0x10
    7293:	41 5f                	pop    r15
    7295:	41 5e                	pop    r14
    7297:	41 5d                	pop    r13
    7299:	41 5c                	pop    r12
    729b:	5b                   	pop    rbx
    729c:	5d                   	pop    rbp
    729d:	c3                   	ret    
