
./asm/jit.bin:     file format binary


Disassembly of section .data:

0000000000000000 <.data>:
       0:	55                   	push   rbp
       1:	48 89 e5             	mov    rbp,rsp
       4:	53                   	push   rbx
       5:	41 54                	push   r12
       7:	41 55                	push   r13
       9:	41 56                	push   r14
       b:	41 57                	push   r15
       d:	57                   	push   rdi
       e:	56                   	push   rsi
       f:	49 89 fe             	mov    r14,rdi
      12:	49 89 f7             	mov    r15,rsi
      15:	49 8b 5e 28          	mov    rbx,QWORD PTR [r14+0x28]
      19:	4d 8b 5e 30          	mov    r11,QWORD PTR [r14+0x30]
      1d:	4d 8b 56 38          	mov    r10,QWORD PTR [r14+0x38]
      21:	4d 8b 4e 40          	mov    r9,QWORD PTR [r14+0x40]
      25:	4d 8b 46 48          	mov    r8,QWORD PTR [r14+0x48]
      29:	49 8b 46 50          	mov    rax,QWORD PTR [r14+0x50]
      2d:	49 8b 4e 58          	mov    rcx,QWORD PTR [r14+0x58]
      31:	49 8b 56 60          	mov    rdx,QWORD PTR [r14+0x60]
      35:	49 8b 76 68          	mov    rsi,QWORD PTR [r14+0x68]
      39:	49 8b 7e 70          	mov    rdi,QWORD PTR [r14+0x70]
      3d:	41 ff 76 20          	push   QWORD PTR [r14+0x20]
      41:	41 ff b6 98 00 00 00 	push   QWORD PTR [r14+0x98]
      48:	41 ff 36             	push   QWORD PTR [r14]
      4b:	41 ff 76 08          	push   QWORD PTR [r14+0x8]
      4f:	41 ff 76 10          	push   QWORD PTR [r14+0x10]
      53:	41 ff 76 18          	push   QWORD PTR [r14+0x18]
      57:	41 ff 77 08          	push   QWORD PTR [r15+0x8]
      5b:	41 ff 37             	push   QWORD PTR [r15]
      5e:	48 83 ec 18          	sub    rsp,0x18
      62:	4c 8b 6d b8          	mov    r13,QWORD PTR [rbp-0x48]
      66:	4c 8b 65 c0          	mov    r12,QWORD PTR [rbp-0x40]
      6a:	e9 09 39 00 00       	jmp    0x3978
      6f:	90                   	nop
      70:	49 be 9b c9 56 55 55 	movabs r14,0x55555556c99b
      77:	55 00 00 
      7a:	4d 8b be bd 01 0a 00 	mov    r15,QWORD PTR [r14+0xa01bd]
      81:	4d 89 fe             	mov    r14,r15
      84:	e9 74 3c 00 00       	jmp    0x3cfd
      89:	90                   	nop
      8a:	49 be cb c9 56 55 55 	movabs r14,0x55555556c9cb
      91:	55 00 00 
      94:	4d 8b be a5 01 0a 00 	mov    r15,QWORD PTR [r14+0xa01a5]
      9b:	4d 89 fe             	mov    r14,r15
      9e:	e9 f3 3a 00 00       	jmp    0x3b96
      a3:	90                   	nop
      a4:	49 be 4b ca 56 55 55 	movabs r14,0x55555556ca4b
      ab:	55 00 00 
      ae:	4d 8b be 65 01 0a 00 	mov    r15,QWORD PTR [r14+0xa0165]
      b5:	4d 89 fe             	mov    r14,r15
      b8:	e9 b7 3a 00 00       	jmp    0x3b74
      bd:	90                   	nop
      be:	49 be bb ce 56 55 55 	movabs r14,0x55555556cebb
      c5:	55 00 00 
      c8:	4d 8b be 2d ff 09 00 	mov    r15,QWORD PTR [r14+0x9ff2d]
      cf:	4d 89 fe             	mov    r14,r15
      d2:	e9 7b 3a 00 00       	jmp    0x3b52
      d7:	4d 8d 6d f8          	lea    r13,[r13-0x8]
      db:	4c 8b 7d 98          	mov    r15,QWORD PTR [rbp-0x68]
      df:	4d 89 7d 00          	mov    QWORD PTR [r13+0x0],r15
      e3:	4d 8d 6d f8          	lea    r13,[r13-0x8]
      e7:	4d 89 65 00          	mov    QWORD PTR [r13+0x0],r12
      eb:	4d 8d 6d f8          	lea    r13,[r13-0x8]
      ef:	49 89 5d 00          	mov    QWORD PTR [r13+0x0],rbx
      f3:	48 89 fb             	mov    rbx,rdi
      f6:	48 89 f7             	mov    rdi,rsi
      f9:	48 8b 73 48          	mov    rsi,QWORD PTR [rbx+0x48]
      fd:	49 be dc 02 57 55 55 	movabs r14,0x5555555702dc
     104:	55 00 00 
     107:	4d 8d 6d f8          	lea    r13,[r13-0x8]
     10b:	4d 89 75 00          	mov    QWORD PTR [r13+0x0],r14
     10f:	4c 89 7d 98          	mov    QWORD PTR [rbp-0x68],r15
     113:	e9 de 06 00 00       	jmp    0x7f6
     118:	49 89 c4             	mov    r12,rax
     11b:	48 85 c0             	test   rax,rax
     11e:	0f 84 d6 00 00 00    	je     0x1fa
     124:	48 d1 e3             	shl    rbx,1
     127:	48 d1 eb             	shr    rbx,1
     12a:	48 8b 43 38          	mov    rax,QWORD PTR [rbx+0x38]
     12e:	48 85 c0             	test   rax,rax
     131:	74 26                	je     0x159
     133:	ba 05 00 00 00       	mov    edx,0x5
     138:	48 d1 e0             	shl    rax,1
     13b:	48 d1 e8             	shr    rax,1
     13e:	48 83 78 08 00       	cmp    QWORD PTR [rax+0x8],0x0
     143:	74 7c                	je     0x1c1
     145:	48 83 ea 01          	sub    rdx,0x1
     149:	74 0e                	je     0x159
     14b:	48 d1 e0             	shl    rax,1
     14e:	48 d1 e8             	shr    rax,1
     151:	48 8b 00             	mov    rax,QWORD PTR [rax]
     154:	48 85 c0             	test   rax,rax
     157:	75 df                	jne    0x138
     159:	48 8b 53 28          	mov    rdx,QWORD PTR [rbx+0x28]
     15d:	48 d1 e2             	shl    rdx,1
     160:	48 d1 ea             	shr    rdx,1
     163:	48 8b 02             	mov    rax,QWORD PTR [rdx]
     166:	48 83 c0 07          	add    rax,0x7
     16a:	48 83 e0 f8          	and    rax,0xfffffffffffffff8
     16e:	4c 8b 7d 98          	mov    r15,QWORD PTR [rbp-0x68]
     172:	49 89 c7             	mov    r15,rax
     175:	48 8b 4a 08          	mov    rcx,QWORD PTR [rdx+0x8]
     179:	48 29 c1             	sub    rcx,rax
     17c:	48 83 f9 0f          	cmp    rcx,0xf
     180:	4c 89 7d 98          	mov    QWORD PTR [rbp-0x68],r15
     184:	77 41                	ja     0x1c7
     186:	48 d1 e2             	shl    rdx,1
     189:	48 d1 ea             	shr    rdx,1
     18c:	48 8b 52 10          	mov    rdx,QWORD PTR [rdx+0x10]
     190:	48 85 d2             	test   rdx,rdx
     193:	75 c8                	jne    0x15d
     195:	be 10 00 00 00       	mov    esi,0x10
     19a:	48 89 df             	mov    rdi,rbx
     19d:	49 bf 40 03 57 55 55 	movabs r15,0x555555570340
     1a4:	55 00 00 
     1a7:	4d 8d 6d f8          	lea    r13,[r13-0x8]
     1ab:	4d 89 7d 00          	mov    QWORD PTR [r13+0x0],r15
     1af:	e9 85 42 00 00       	jmp    0x4439
     1b4:	4c 8b 7d 98          	mov    r15,QWORD PTR [rbp-0x68]
     1b8:	49 89 c7             	mov    r15,rax
     1bb:	4c 89 7d 98          	mov    QWORD PTR [rbp-0x68],r15
     1bf:	eb 15                	jmp    0x1d6
     1c1:	4c 89 60 08          	mov    QWORD PTR [rax+0x8],r12
     1c5:	eb 33                	jmp    0x1fa
     1c7:	4c 8b 7d 98          	mov    r15,QWORD PTR [rbp-0x68]
     1cb:	49 8d 47 10          	lea    rax,[r15+0x10]
     1cf:	48 89 02             	mov    QWORD PTR [rdx],rax
     1d2:	4c 89 7d 98          	mov    QWORD PTR [rbp-0x68],r15
     1d6:	4c 8b 7d 98          	mov    r15,QWORD PTR [rbp-0x68]
     1da:	4d 85 ff             	test   r15,r15
     1dd:	4c 89 7d 98          	mov    QWORD PTR [rbp-0x68],r15
     1e1:	74 47                	je     0x22a
     1e3:	4c 8b 7d 98          	mov    r15,QWORD PTR [rbp-0x68]
     1e7:	4d 89 67 08          	mov    QWORD PTR [r15+0x8],r12
     1eb:	48 8b 43 38          	mov    rax,QWORD PTR [rbx+0x38]
     1ef:	49 89 07             	mov    QWORD PTR [r15],rax
     1f2:	4c 89 7b 38          	mov    QWORD PTR [rbx+0x38],r15
     1f6:	4c 89 7d 98          	mov    QWORD PTR [rbp-0x68],r15
     1fa:	4c 89 e0             	mov    rax,r12
     1fd:	49 8b 5d 00          	mov    rbx,QWORD PTR [r13+0x0]
     201:	4d 8d 6d 08          	lea    r13,[r13+0x8]
     205:	4d 8b 65 00          	mov    r12,QWORD PTR [r13+0x0]
     209:	4d 8d 6d 08          	lea    r13,[r13+0x8]
     20d:	4c 8b 7d 98          	mov    r15,QWORD PTR [rbp-0x68]
     211:	4d 8b 7d 00          	mov    r15,QWORD PTR [r13+0x0]
     215:	4d 8d 6d 08          	lea    r13,[r13+0x8]
     219:	4d 8b 75 00          	mov    r14,QWORD PTR [r13+0x0]
     21d:	4d 8d 6d 08          	lea    r13,[r13+0x8]
     221:	4c 89 7d 98          	mov    QWORD PTR [rbp-0x68],r15
     225:	e9 11 3d 00 00       	jmp    0x3f3b
     22a:	4c 89 e7             	mov    rdi,r12
     22d:	49 bf 79 03 57 55 55 	movabs r15,0x555555570379
     234:	55 00 00 
     237:	4d 8d 6d f8          	lea    r13,[r13-0x8]
     23b:	4d 89 7d 00          	mov    QWORD PTR [r13+0x0],r15
     23f:	e9 81 3e 00 00       	jmp    0x40c5
     244:	4c 8b 7d 98          	mov    r15,QWORD PTR [rbp-0x68]
     248:	4d 89 fc             	mov    r12,r15
     24b:	4c 89 7d 98          	mov    QWORD PTR [rbp-0x68],r15
     24f:	eb a9                	jmp    0x1fa
     251:	90                   	nop
     252:	49 83 ed 08          	sub    r13,0x8
     256:	48 d1 e7             	shl    rdi,1
     259:	48 d1 ef             	shr    rdi,1
     25c:	48 39 77 20          	cmp    QWORD PTR [rdi+0x20],rsi
     260:	73 2b                	jae    0x28d
     262:	49 bf eb 04 57 55 55 	movabs r15,0x5555555704eb
     269:	55 00 00 
     26c:	4d 8d 6d f8          	lea    r13,[r13-0x8]
     270:	4d 89 7d 00          	mov    QWORD PTR [r13+0x0],r15
     274:	e9 5e fe ff ff       	jmp    0xd7
     279:	49 83 c5 08          	add    r13,0x8
     27d:	4d 8b 7d 00          	mov    r15,QWORD PTR [r13+0x0]
     281:	4d 8d 6d 08          	lea    r13,[r13+0x8]
     285:	4d 89 fe             	mov    r14,r15
     288:	e9 6a 3c 00 00       	jmp    0x3ef7
     28d:	48 8b 4f 28          	mov    rcx,QWORD PTR [rdi+0x28]
     291:	48 d1 e1             	shl    rcx,1
     294:	48 d1 e9             	shr    rcx,1
     297:	48 8b 01             	mov    rax,QWORD PTR [rcx]
     29a:	48 8d 50 07          	lea    rdx,[rax+0x7]
     29e:	48 83 e2 f8          	and    rdx,0xfffffffffffffff8
     2a2:	48 89 d0             	mov    rax,rdx
     2a5:	4c 8b 41 08          	mov    r8,QWORD PTR [rcx+0x8]
     2a9:	49 29 d0             	sub    r8,rdx
     2ac:	4c 39 c6             	cmp    rsi,r8
     2af:	76 28                	jbe    0x2d9
     2b1:	48 d1 e1             	shl    rcx,1
     2b4:	48 d1 e9             	shr    rcx,1
     2b7:	48 8b 49 10          	mov    rcx,QWORD PTR [rcx+0x10]
     2bb:	48 85 c9             	test   rcx,rcx
     2be:	75 d1                	jne    0x291
     2c0:	49 bf 1c 05 57 55 55 	movabs r15,0x55555557051c
     2c7:	55 00 00 
     2ca:	4d 8d 6d f8          	lea    r13,[r13-0x8]
     2ce:	4d 89 7d 00          	mov    QWORD PTR [r13+0x0],r15
     2d2:	e9 62 41 00 00       	jmp    0x4439
     2d7:	eb a0                	jmp    0x279
     2d9:	48 01 c6             	add    rsi,rax
     2dc:	48 89 31             	mov    QWORD PTR [rcx],rsi
     2df:	eb 98                	jmp    0x279
     2e1:	90                   	nop
     2e2:	4d 8d 6d f8          	lea    r13,[r13-0x8]
     2e6:	4c 8b 7d 98          	mov    r15,QWORD PTR [rbp-0x68]
     2ea:	4d 89 7d 00          	mov    QWORD PTR [r13+0x0],r15
     2ee:	4d 8d 6d f8          	lea    r13,[r13-0x8]
     2f2:	4d 89 65 00          	mov    QWORD PTR [r13+0x0],r12
     2f6:	4d 8d 6d f8          	lea    r13,[r13-0x8]
     2fa:	49 89 5d 00          	mov    QWORD PTR [r13+0x0],rbx
     2fe:	49 89 fc             	mov    r12,rdi
     301:	48 89 f3             	mov    rbx,rsi
     304:	48 d1 e7             	shl    rdi,1
     307:	48 d1 ef             	shr    rdi,1
     30a:	4c 8b 7f 08          	mov    r15,QWORD PTR [rdi+0x8]
     30e:	48 8b 3f             	mov    rdi,QWORD PTR [rdi]
     311:	4c 39 ff             	cmp    rdi,r15
     314:	4c 89 7d 98          	mov    QWORD PTR [rbp-0x68],r15
     318:	74 39                	je     0x353
     31a:	4c 8b 7d 98          	mov    r15,QWORD PTR [rbp-0x68]
     31e:	4c 89 fa             	mov    rdx,r15
     321:	49 be 6c b1 57 55 55 	movabs r14,0x55555557b16c
     328:	55 00 00 
     32b:	4d 8d 6d f8          	lea    r13,[r13-0x8]
     32f:	4d 89 75 00          	mov    QWORD PTR [r13+0x0],r14
     333:	4d 8b 74 24 10       	mov    r14,QWORD PTR [r12+0x10]
     338:	4c 89 7d 98          	mov    QWORD PTR [rbp-0x68],r15
     33c:	e9 bb 38 00 00       	jmp    0x3bfc
     341:	49 8b 14 24          	mov    rdx,QWORD PTR [r12]
     345:	48 39 d3             	cmp    rbx,rdx
     348:	0f 85 2f 02 00 00    	jne    0x57d
     34e:	e9 0f 03 00 00       	jmp    0x662
     353:	48 c7 46 18 00 00 00 	mov    QWORD PTR [rsi+0x18],0x0
     35a:	00 
     35b:	4c 8b 7d 98          	mov    r15,QWORD PTR [rbp-0x68]
     35f:	4c 89 7e 08          	mov    QWORD PTR [rsi+0x8],r15
     363:	4c 89 7e 10          	mov    QWORD PTR [rsi+0x10],r15
     367:	c6 46 20 00          	mov    BYTE PTR [rsi+0x20],0x0
     36b:	49 89 34 24          	mov    QWORD PTR [r12],rsi
     36f:	4c 89 7d 98          	mov    QWORD PTR [rbp-0x68],r15
     373:	e9 ee 02 00 00       	jmp    0x666
     378:	48 d1 e1             	shl    rcx,1
     37b:	48 d1 e9             	shr    rcx,1
     37e:	48 8b 51 10          	mov    rdx,QWORD PTR [rcx+0x10]
     382:	48 d1 e2             	shl    rdx,1
     385:	48 d1 ea             	shr    rdx,1
     388:	80 7a 20 00          	cmp    BYTE PTR [rdx+0x20],0x0
     38c:	74 21                	je     0x3af
     38e:	c6 40 20 00          	mov    BYTE PTR [rax+0x20],0x0
     392:	c6 42 20 00          	mov    BYTE PTR [rdx+0x20],0x0
     396:	48 8b 43 18          	mov    rax,QWORD PTR [rbx+0x18]
     39a:	48 8b 40 18          	mov    rax,QWORD PTR [rax+0x18]
     39e:	c6 40 20 01          	mov    BYTE PTR [rax+0x20],0x1
     3a2:	48 8b 43 18          	mov    rax,QWORD PTR [rbx+0x18]
     3a6:	48 8b 58 18          	mov    rbx,QWORD PTR [rax+0x18]
     3aa:	e9 c1 01 00 00       	jmp    0x570
     3af:	48 d1 e0             	shl    rax,1
     3b2:	48 d1 e8             	shr    rax,1
     3b5:	48 39 58 10          	cmp    QWORD PTR [rax+0x10],rbx
     3b9:	0f 84 96 00 00 00    	je     0x455
     3bf:	48 d1 e3             	shl    rbx,1
     3c2:	48 d1 eb             	shr    rbx,1
     3c5:	48 8b 43 18          	mov    rax,QWORD PTR [rbx+0x18]
     3c9:	48 d1 e0             	shl    rax,1
     3cc:	48 d1 e8             	shr    rax,1
     3cf:	c6 40 20 00          	mov    BYTE PTR [rax+0x20],0x0
     3d3:	48 8b 43 18          	mov    rax,QWORD PTR [rbx+0x18]
     3d7:	48 d1 e0             	shl    rax,1
     3da:	48 d1 e8             	shr    rax,1
     3dd:	48 8b 40 18          	mov    rax,QWORD PTR [rax+0x18]
     3e1:	c6 40 20 01          	mov    BYTE PTR [rax+0x20],0x1
     3e5:	48 8b 43 18          	mov    rax,QWORD PTR [rbx+0x18]
     3e9:	48 d1 e0             	shl    rax,1
     3ec:	48 d1 e8             	shr    rax,1
     3ef:	48 8b 40 18          	mov    rax,QWORD PTR [rax+0x18]
     3f3:	48 8b 50 08          	mov    rdx,QWORD PTR [rax+0x8]
     3f7:	48 d1 e2             	shl    rdx,1
     3fa:	48 d1 ea             	shr    rdx,1
     3fd:	48 8b 4a 10          	mov    rcx,QWORD PTR [rdx+0x10]
     401:	48 89 48 08          	mov    QWORD PTR [rax+0x8],rcx
     405:	4c 8b 7d 98          	mov    r15,QWORD PTR [rbp-0x68]
     409:	49 39 cf             	cmp    r15,rcx
     40c:	4c 89 7d 98          	mov    QWORD PTR [rbp-0x68],r15
     410:	74 04                	je     0x416
     412:	48 89 41 18          	mov    QWORD PTR [rcx+0x18],rax
     416:	48 d1 e0             	shl    rax,1
     419:	48 d1 e8             	shr    rax,1
     41c:	48 8b 48 18          	mov    rcx,QWORD PTR [rax+0x18]
     420:	48 d1 e2             	shl    rdx,1
     423:	48 d1 ea             	shr    rdx,1
     426:	48 89 4a 18          	mov    QWORD PTR [rdx+0x18],rcx
     42a:	49 3b 04 24          	cmp    rax,QWORD PTR [r12]
     42e:	0f 84 8c 00 00 00    	je     0x4c0
     434:	48 d1 e1             	shl    rcx,1
     437:	48 d1 e9             	shr    rcx,1
     43a:	48 3b 41 10          	cmp    rax,QWORD PTR [rcx+0x10]
     43e:	0f 84 82 00 00 00    	je     0x4c6
     444:	48 89 51 08          	mov    QWORD PTR [rcx+0x8],rdx
     448:	48 89 42 10          	mov    QWORD PTR [rdx+0x10],rax
     44c:	48 89 50 18          	mov    QWORD PTR [rax+0x18],rdx
     450:	e9 1b 01 00 00       	jmp    0x570
     455:	48 d1 e3             	shl    rbx,1
     458:	48 d1 eb             	shr    rbx,1
     45b:	48 8b 53 08          	mov    rdx,QWORD PTR [rbx+0x8]
     45f:	48 d1 e0             	shl    rax,1
     462:	48 d1 e8             	shr    rax,1
     465:	48 89 50 10          	mov    QWORD PTR [rax+0x10],rdx
     469:	4c 8b 7d 98          	mov    r15,QWORD PTR [rbp-0x68]
     46d:	49 39 d7             	cmp    r15,rdx
     470:	4c 89 7d 98          	mov    QWORD PTR [rbp-0x68],r15
     474:	74 04                	je     0x47a
     476:	48 89 42 18          	mov    QWORD PTR [rdx+0x18],rax
     47a:	48 d1 e0             	shl    rax,1
     47d:	48 d1 e8             	shr    rax,1
     480:	48 8b 50 18          	mov    rdx,QWORD PTR [rax+0x18]
     484:	48 d1 e3             	shl    rbx,1
     487:	48 d1 eb             	shr    rbx,1
     48a:	48 89 53 18          	mov    QWORD PTR [rbx+0x18],rdx
     48e:	49 3b 04 24          	cmp    rax,QWORD PTR [r12]
     492:	74 20                	je     0x4b4
     494:	48 d1 e2             	shl    rdx,1
     497:	48 d1 ea             	shr    rdx,1
     49a:	48 3b 42 08          	cmp    rax,QWORD PTR [rdx+0x8]
     49e:	74 1a                	je     0x4ba
     4a0:	48 89 5a 10          	mov    QWORD PTR [rdx+0x10],rbx
     4a4:	48 89 43 08          	mov    QWORD PTR [rbx+0x8],rax
     4a8:	48 89 58 18          	mov    QWORD PTR [rax+0x18],rbx
     4ac:	48 89 c3             	mov    rbx,rax
     4af:	e9 0b ff ff ff       	jmp    0x3bf
     4b4:	49 89 1c 24          	mov    QWORD PTR [r12],rbx
     4b8:	eb ea                	jmp    0x4a4
     4ba:	48 89 5a 08          	mov    QWORD PTR [rdx+0x8],rbx
     4be:	eb e4                	jmp    0x4a4
     4c0:	49 89 14 24          	mov    QWORD PTR [r12],rdx
     4c4:	eb 82                	jmp    0x448
     4c6:	48 89 51 10          	mov    QWORD PTR [rcx+0x10],rdx
     4ca:	e9 79 ff ff ff       	jmp    0x448
     4cf:	48 d1 e0             	shl    rax,1
     4d2:	48 d1 e8             	shr    rax,1
     4d5:	48 39 58 08          	cmp    QWORD PTR [rax+0x8],rbx
     4d9:	0f 84 03 01 00 00    	je     0x5e2
     4df:	48 d1 e3             	shl    rbx,1
     4e2:	48 d1 eb             	shr    rbx,1
     4e5:	48 8b 43 18          	mov    rax,QWORD PTR [rbx+0x18]
     4e9:	48 d1 e0             	shl    rax,1
     4ec:	48 d1 e8             	shr    rax,1
     4ef:	c6 40 20 00          	mov    BYTE PTR [rax+0x20],0x0
     4f3:	48 8b 43 18          	mov    rax,QWORD PTR [rbx+0x18]
     4f7:	48 d1 e0             	shl    rax,1
     4fa:	48 d1 e8             	shr    rax,1
     4fd:	48 8b 40 18          	mov    rax,QWORD PTR [rax+0x18]
     501:	c6 40 20 01          	mov    BYTE PTR [rax+0x20],0x1
     505:	48 8b 43 18          	mov    rax,QWORD PTR [rbx+0x18]
     509:	48 d1 e0             	shl    rax,1
     50c:	48 d1 e8             	shr    rax,1
     50f:	48 8b 40 18          	mov    rax,QWORD PTR [rax+0x18]
     513:	48 8b 50 10          	mov    rdx,QWORD PTR [rax+0x10]
     517:	48 d1 e2             	shl    rdx,1
     51a:	48 d1 ea             	shr    rdx,1
     51d:	48 8b 4a 08          	mov    rcx,QWORD PTR [rdx+0x8]
     521:	48 89 48 10          	mov    QWORD PTR [rax+0x10],rcx
     525:	4c 8b 7d 98          	mov    r15,QWORD PTR [rbp-0x68]
     529:	49 39 cf             	cmp    r15,rcx
     52c:	4c 89 7d 98          	mov    QWORD PTR [rbp-0x68],r15
     530:	74 04                	je     0x536
     532:	48 89 41 18          	mov    QWORD PTR [rcx+0x18],rax
     536:	48 d1 e0             	shl    rax,1
     539:	48 d1 e8             	shr    rax,1
     53c:	48 8b 48 18          	mov    rcx,QWORD PTR [rax+0x18]
     540:	48 d1 e2             	shl    rdx,1
     543:	48 d1 ea             	shr    rdx,1
     546:	48 89 4a 18          	mov    QWORD PTR [rdx+0x18],rcx
     54a:	49 3b 04 24          	cmp    rax,QWORD PTR [r12]
     54e:	0f 84 f9 00 00 00    	je     0x64d
     554:	48 d1 e1             	shl    rcx,1
     557:	48 d1 e9             	shr    rcx,1
     55a:	48 3b 41 08          	cmp    rax,QWORD PTR [rcx+0x8]
     55e:	0f 84 f2 00 00 00    	je     0x656
     564:	48 89 51 10          	mov    QWORD PTR [rcx+0x10],rdx
     568:	48 89 42 08          	mov    QWORD PTR [rdx+0x8],rax
     56c:	48 89 50 18          	mov    QWORD PTR [rax+0x18],rdx
     570:	49 8b 14 24          	mov    rdx,QWORD PTR [r12]
     574:	48 39 da             	cmp    rdx,rbx
     577:	0f 84 e2 00 00 00    	je     0x65f
     57d:	48 d1 e3             	shl    rbx,1
     580:	48 d1 eb             	shr    rbx,1
     583:	48 8b 43 18          	mov    rax,QWORD PTR [rbx+0x18]
     587:	48 d1 e0             	shl    rax,1
     58a:	48 d1 e8             	shr    rax,1
     58d:	80 78 20 00          	cmp    BYTE PTR [rax+0x20],0x0
     591:	0f 84 cb 00 00 00    	je     0x662
     597:	48 d1 e0             	shl    rax,1
     59a:	48 d1 e8             	shr    rax,1
     59d:	48 8b 48 18          	mov    rcx,QWORD PTR [rax+0x18]
     5a1:	48 d1 e1             	shl    rcx,1
     5a4:	48 d1 e9             	shr    rcx,1
     5a7:	48 8b 51 08          	mov    rdx,QWORD PTR [rcx+0x8]
     5ab:	48 39 c2             	cmp    rdx,rax
     5ae:	0f 84 c4 fd ff ff    	je     0x378
     5b4:	48 d1 e2             	shl    rdx,1
     5b7:	48 d1 ea             	shr    rdx,1
     5ba:	80 7a 20 00          	cmp    BYTE PTR [rdx+0x20],0x0
     5be:	0f 84 0b ff ff ff    	je     0x4cf
     5c4:	c6 40 20 00          	mov    BYTE PTR [rax+0x20],0x0
     5c8:	c6 42 20 00          	mov    BYTE PTR [rdx+0x20],0x0
     5cc:	48 8b 43 18          	mov    rax,QWORD PTR [rbx+0x18]
     5d0:	48 8b 40 18          	mov    rax,QWORD PTR [rax+0x18]
     5d4:	c6 40 20 01          	mov    BYTE PTR [rax+0x20],0x1
     5d8:	48 8b 43 18          	mov    rax,QWORD PTR [rbx+0x18]
     5dc:	48 8b 58 18          	mov    rbx,QWORD PTR [rax+0x18]
     5e0:	eb 8e                	jmp    0x570
     5e2:	48 d1 e3             	shl    rbx,1
     5e5:	48 d1 eb             	shr    rbx,1
     5e8:	48 8b 53 10          	mov    rdx,QWORD PTR [rbx+0x10]
     5ec:	48 d1 e0             	shl    rax,1
     5ef:	48 d1 e8             	shr    rax,1
     5f2:	48 89 50 08          	mov    QWORD PTR [rax+0x8],rdx
     5f6:	4c 8b 7d 98          	mov    r15,QWORD PTR [rbp-0x68]
     5fa:	49 39 d7             	cmp    r15,rdx
     5fd:	4c 89 7d 98          	mov    QWORD PTR [rbp-0x68],r15
     601:	74 04                	je     0x607
     603:	48 89 42 18          	mov    QWORD PTR [rdx+0x18],rax
     607:	48 d1 e0             	shl    rax,1
     60a:	48 d1 e8             	shr    rax,1
     60d:	48 8b 50 18          	mov    rdx,QWORD PTR [rax+0x18]
     611:	48 d1 e3             	shl    rbx,1
     614:	48 d1 eb             	shr    rbx,1
     617:	48 89 53 18          	mov    QWORD PTR [rbx+0x18],rdx
     61b:	49 3b 04 24          	cmp    rax,QWORD PTR [r12]
     61f:	74 20                	je     0x641
     621:	48 d1 e2             	shl    rdx,1
     624:	48 d1 ea             	shr    rdx,1
     627:	48 3b 42 10          	cmp    rax,QWORD PTR [rdx+0x10]
     62b:	74 1a                	je     0x647
     62d:	48 89 5a 08          	mov    QWORD PTR [rdx+0x8],rbx
     631:	48 89 43 10          	mov    QWORD PTR [rbx+0x10],rax
     635:	48 89 58 18          	mov    QWORD PTR [rax+0x18],rbx
     639:	48 89 c3             	mov    rbx,rax
     63c:	e9 9e fe ff ff       	jmp    0x4df
     641:	49 89 1c 24          	mov    QWORD PTR [r12],rbx
     645:	eb ea                	jmp    0x631
     647:	48 89 5a 10          	mov    QWORD PTR [rdx+0x10],rbx
     64b:	eb e4                	jmp    0x631
     64d:	49 89 14 24          	mov    QWORD PTR [r12],rdx
     651:	e9 12 ff ff ff       	jmp    0x568
     656:	48 89 51 08          	mov    QWORD PTR [rcx+0x8],rdx
     65a:	e9 09 ff ff ff       	jmp    0x568
     65f:	48 89 da             	mov    rdx,rbx
     662:	c6 42 20 00          	mov    BYTE PTR [rdx+0x20],0x0
     666:	49 8b 5d 00          	mov    rbx,QWORD PTR [r13+0x0]
     66a:	4d 8d 6d 08          	lea    r13,[r13+0x8]
     66e:	4d 8b 65 00          	mov    r12,QWORD PTR [r13+0x0]
     672:	4d 8d 6d 08          	lea    r13,[r13+0x8]
     676:	4c 8b 7d 98          	mov    r15,QWORD PTR [rbp-0x68]
     67a:	4d 8b 7d 00          	mov    r15,QWORD PTR [r13+0x0]
     67e:	4d 8d 6d 08          	lea    r13,[r13+0x8]
     682:	4d 8b 75 00          	mov    r14,QWORD PTR [r13+0x0]
     686:	4d 8d 6d 08          	lea    r13,[r13+0x8]
     68a:	4c 89 7d 98          	mov    QWORD PTR [rbp-0x68],r15
     68e:	e9 ca 38 00 00       	jmp    0x3f5d
     693:	90                   	nop
     694:	4c 8b 06             	mov    r8,QWORD PTR [rsi]
     697:	eb 10                	jmp    0x6a9
     699:	48 8d 4f 08          	lea    rcx,[rdi+0x8]
     69d:	48 8b 47 08          	mov    rax,QWORD PTR [rdi+0x8]
     6a1:	48 39 d0             	cmp    rax,rdx
     6a4:	74 18                	je     0x6be
     6a6:	48 89 c7             	mov    rdi,rax
     6a9:	48 d1 e7             	shl    rdi,1
     6ac:	48 d1 ef             	shr    rdi,1
     6af:	4c 3b 07             	cmp    r8,QWORD PTR [rdi]
     6b2:	78 e5                	js     0x699
     6b4:	48 8d 4f 10          	lea    rcx,[rdi+0x10]
     6b8:	48 8b 47 10          	mov    rax,QWORD PTR [rdi+0x10]
     6bc:	eb e3                	jmp    0x6a1
     6be:	48 89 31             	mov    QWORD PTR [rcx],rsi
     6c1:	48 89 7e 18          	mov    QWORD PTR [rsi+0x18],rdi
     6c5:	48 89 56 08          	mov    QWORD PTR [rsi+0x8],rdx
     6c9:	48 89 56 10          	mov    QWORD PTR [rsi+0x10],rdx
     6cd:	c6 46 20 01          	mov    BYTE PTR [rsi+0x20],0x1
     6d1:	4d 8b 7d 00          	mov    r15,QWORD PTR [r13+0x0]
     6d5:	4d 8d 6d 08          	lea    r13,[r13+0x8]
     6d9:	4d 89 fe             	mov    r14,r15
     6dc:	e9 3e 36 00 00       	jmp    0x3d1f
     6e1:	90                   	nop
     6e2:	48 d1 e7             	shl    rdi,1
     6e5:	48 d1 ef             	shr    rdi,1
     6e8:	80 bf d9 00 00 00 00 	cmp    BYTE PTR [rdi+0xd9],0x0
     6ef:	0f 88 a5 00 00 00    	js     0x79a
     6f5:	89 f2                	mov    edx,esi
     6f7:	c1 e2 07             	shl    edx,0x7
     6fa:	48 d1 e7             	shl    rdi,1
     6fd:	48 d1 ef             	shr    rdi,1
     700:	0f b6 87 d9 00 00 00 	movzx  eax,BYTE PTR [rdi+0xd9]
     707:	83 e0 7f             	and    eax,0x7f
     70a:	09 d0                	or     eax,edx
     70c:	88 87 d9 00 00 00    	mov    BYTE PTR [rdi+0xd9],al
     712:	48 85 f6             	test   rsi,rsi
     715:	74 73                	je     0x78a
     717:	49 bf 4a f7 57 55 55 	movabs r15,0x55555557f74a
     71e:	55 00 00 
     721:	49 8b 87 66 19 0b 00 	mov    rax,QWORD PTR [r15+0xb1966]
     728:	48 d1 e0             	shl    rax,1
     72b:	48 d1 e8             	shr    rax,1
     72e:	48 8b 80 a8 00 00 00 	mov    rax,QWORD PTR [rax+0xa8]
     735:	48 d1 e7             	shl    rdi,1
     738:	48 d1 ef             	shr    rdi,1
     73b:	48 89 87 b8 00 00 00 	mov    QWORD PTR [rdi+0xb8],rax
     742:	48 8d 97 b0 00 00 00 	lea    rdx,[rdi+0xb0]
     749:	48 89 10             	mov    QWORD PTR [rax],rdx
     74c:	49 bf 69 f7 57 55 55 	movabs r15,0x55555557f769
     753:	55 00 00 
     756:	49 8b 87 47 19 0b 00 	mov    rax,QWORD PTR [r15+0xb1947]
     75d:	48 8d 88 a0 00 00 00 	lea    rcx,[rax+0xa0]
     764:	48 89 8f b0 00 00 00 	mov    QWORD PTR [rdi+0xb0],rcx
     76b:	48 d1 e0             	shl    rax,1
     76e:	48 d1 e8             	shr    rax,1
     771:	48 89 90 a8 00 00 00 	mov    QWORD PTR [rax+0xa8],rdx
     778:	48 8b 90 b0 00 00 00 	mov    rdx,QWORD PTR [rax+0xb0]
     77f:	48 83 c2 01          	add    rdx,0x1
     783:	48 89 90 b0 00 00 00 	mov    QWORD PTR [rax+0xb0],rdx
     78a:	4d 8b 7d 00          	mov    r15,QWORD PTR [r13+0x0]
     78e:	4d 8d 6d 08          	lea    r13,[r13+0x8]
     792:	4d 89 fe             	mov    r14,r15
     795:	e9 0a 37 00 00       	jmp    0x3ea4
     79a:	48 d1 e7             	shl    rdi,1
     79d:	48 d1 ef             	shr    rdi,1
     7a0:	48 8b 97 b8 00 00 00 	mov    rdx,QWORD PTR [rdi+0xb8]
     7a7:	48 8b 87 b0 00 00 00 	mov    rax,QWORD PTR [rdi+0xb0]
     7ae:	48 d1 e2             	shl    rdx,1
     7b1:	48 d1 ea             	shr    rdx,1
     7b4:	48 89 02             	mov    QWORD PTR [rdx],rax
     7b7:	48 8b 97 b8 00 00 00 	mov    rdx,QWORD PTR [rdi+0xb8]
     7be:	48 d1 e0             	shl    rax,1
     7c1:	48 d1 e8             	shr    rax,1
     7c4:	48 89 50 08          	mov    QWORD PTR [rax+0x8],rdx
     7c8:	49 bf b4 f7 57 55 55 	movabs r15,0x55555557f7b4
     7cf:	55 00 00 
     7d2:	49 8b 97 fc 18 0b 00 	mov    rdx,QWORD PTR [r15+0xb18fc]
     7d9:	48 d1 e2             	shl    rdx,1
     7dc:	48 d1 ea             	shr    rdx,1
     7df:	48 8b 82 b0 00 00 00 	mov    rax,QWORD PTR [rdx+0xb0]
     7e6:	48 83 e8 01          	sub    rax,0x1
     7ea:	48 89 82 b0 00 00 00 	mov    QWORD PTR [rdx+0xb0],rax
     7f1:	e9 ff fe ff ff       	jmp    0x6f5
     7f6:	90                   	nop
     7f7:	4d 8d 6d f8          	lea    r13,[r13-0x8]
     7fb:	4c 8b 7d 98          	mov    r15,QWORD PTR [rbp-0x68]
     7ff:	4d 89 7d 00          	mov    QWORD PTR [r13+0x0],r15
     803:	4d 8d 6d f8          	lea    r13,[r13-0x8]
     807:	4d 89 65 00          	mov    QWORD PTR [r13+0x0],r12
     80b:	4d 8d 6d f8          	lea    r13,[r13-0x8]
     80f:	49 89 5d 00          	mov    QWORD PTR [r13+0x0],rbx
     813:	49 89 fc             	mov    r12,rdi
     816:	49 89 f7             	mov    r15,rsi
     819:	49 be 7d 18 59 55 55 	movabs r14,0x55555559187d
     820:	55 00 00 
     823:	4d 8d 6d f8          	lea    r13,[r13-0x8]
     827:	4d 89 75 00          	mov    QWORD PTR [r13+0x0],r14
     82b:	4c 89 7d 98          	mov    QWORD PTR [rbp-0x68],r15
     82f:	e9 89 f8 ff ff       	jmp    0xbd
     834:	48 89 c3             	mov    rbx,rax
     837:	48 85 c0             	test   rax,rax
     83a:	74 30                	je     0x86c
     83c:	48 89 d8             	mov    rax,rbx
     83f:	49 8b 5d 00          	mov    rbx,QWORD PTR [r13+0x0]
     843:	4d 8d 6d 08          	lea    r13,[r13+0x8]
     847:	4d 8b 65 00          	mov    r12,QWORD PTR [r13+0x0]
     84b:	4d 8d 6d 08          	lea    r13,[r13+0x8]
     84f:	4c 8b 7d 98          	mov    r15,QWORD PTR [rbp-0x68]
     853:	4d 8b 7d 00          	mov    r15,QWORD PTR [r13+0x0]
     857:	4d 8d 6d 08          	lea    r13,[r13+0x8]
     85b:	4d 8b 75 00          	mov    r14,QWORD PTR [r13+0x0]
     85f:	4d 8d 6d 08          	lea    r13,[r13+0x8]
     863:	4c 89 7d 98          	mov    QWORD PTR [rbp-0x68],r15
     867:	e9 ad 36 00 00       	jmp    0x3f19
     86c:	4c 8b 7d 98          	mov    r15,QWORD PTR [rbp-0x68]
     870:	49 d1 e7             	shl    r15,1
     873:	49 d1 ef             	shr    r15,1
     876:	49 83 3f 00          	cmp    QWORD PTR [r15],0x0
     87a:	4c 89 7d 98          	mov    QWORD PTR [rbp-0x68],r15
     87e:	74 bc                	je     0x83c
     880:	49 bf 99 18 59 55 55 	movabs r15,0x555555591899
     887:	55 00 00 
     88a:	4d 8d 6d f8          	lea    r13,[r13-0x8]
     88e:	4d 89 7d 00          	mov    QWORD PTR [r13+0x0],r15
     892:	e9 f2 f7 ff ff       	jmp    0x89
     897:	4d 89 e0             	mov    r8,r12
     89a:	49 bf a3 18 59 55 55 	movabs r15,0x5555555918a3
     8a1:	55 00 00 
     8a4:	49 8d 8f e9 e1 05 00 	lea    rcx,[r15+0x5e1e9]
     8ab:	8b 10                	mov    edx,DWORD PTR [rax]
     8ad:	4c 8b 7d 98          	mov    r15,QWORD PTR [rbp-0x68]
     8b1:	4c 89 fe             	mov    rsi,r15
     8b4:	bf 01 00 00 00       	mov    edi,0x1
     8b9:	b8 00 00 00 00       	mov    eax,0x0
     8be:	49 be b7 18 59 55 55 	movabs r14,0x5555555918b7
     8c5:	55 00 00 
     8c8:	4d 8d 6d f8          	lea    r13,[r13-0x8]
     8cc:	4d 89 75 00          	mov    QWORD PTR [r13+0x0],r14
     8d0:	4c 89 7d 98          	mov    QWORD PTR [rbp-0x68],r15
     8d4:	e9 de 3a 00 00       	jmp    0x43b7
     8d9:	e9 5e ff ff ff       	jmp    0x83c
     8de:	49 8b 55 08          	mov    rdx,QWORD PTR [r13+0x8]
     8e2:	4c 8b 7d 88          	mov    r15,QWORD PTR [rbp-0x78]
     8e6:	49 33 14 1f          	xor    rdx,QWORD PTR [r15+rbx*1]
     8ea:	75 1c                	jne    0x908
     8ec:	49 83 c5 10          	add    r13,0x10
     8f0:	49 8b 5d 00          	mov    rbx,QWORD PTR [r13+0x0]
     8f4:	4d 8d 6d 08          	lea    r13,[r13+0x8]
     8f8:	4d 8b 7d 00          	mov    r15,QWORD PTR [r13+0x0]
     8fc:	4d 8d 6d 08          	lea    r13,[r13+0x8]
     900:	4d 89 fe             	mov    r14,r15
     903:	e9 39 34 00 00       	jmp    0x3d41
     908:	49 bf 3b 24 59 55 55 	movabs r15,0x55555559243b
     90f:	55 00 00 
     912:	4d 8d 6d f8          	lea    r13,[r13-0x8]
     916:	4d 89 7d 00          	mov    QWORD PTR [r13+0x0],r15
     91a:	e9 8c 37 00 00       	jmp    0x40ab
     91f:	90                   	nop
     920:	4d 8d 6d f8          	lea    r13,[r13-0x8]
     924:	49 89 5d 00          	mov    QWORD PTR [r13+0x0],rbx
     928:	49 83 ed 10          	sub    r13,0x10
     92c:	bb 28 00 00 00       	mov    ebx,0x28
     931:	4c 8b 7d 88          	mov    r15,QWORD PTR [rbp-0x78]
     935:	49 8b 04 1f          	mov    rax,QWORD PTR [r15+rbx*1]
     939:	49 89 45 08          	mov    QWORD PTR [r13+0x8],rax
     93d:	31 c0                	xor    eax,eax
     93f:	41 c7 45 04 00 00 00 	mov    DWORD PTR [r13+0x4],0x0
     946:	00 
     947:	49 8d 4d 04          	lea    rcx,[r13+0x4]
     94b:	41 b8 04 00 00 00    	mov    r8d,0x4
     951:	ba 03 00 00 00       	mov    edx,0x3
     956:	be 06 00 00 00       	mov    esi,0x6
     95b:	49 be 76 24 59 55 55 	movabs r14,0x555555592476
     962:	55 00 00 
     965:	4d 8d 6d f8          	lea    r13,[r13-0x8]
     969:	4d 89 75 00          	mov    QWORD PTR [r13+0x0],r14
     96d:	e9 12 3b 00 00       	jmp    0x4484
     972:	49 8b 55 08          	mov    rdx,QWORD PTR [r13+0x8]
     976:	4c 8b 7d 88          	mov    r15,QWORD PTR [rbp-0x78]
     97a:	49 33 14 1f          	xor    rdx,QWORD PTR [r15+rbx*1]
     97e:	75 1c                	jne    0x99c
     980:	49 83 c5 10          	add    r13,0x10
     984:	49 8b 5d 00          	mov    rbx,QWORD PTR [r13+0x0]
     988:	4d 8d 6d 08          	lea    r13,[r13+0x8]
     98c:	4d 8b 7d 00          	mov    r15,QWORD PTR [r13+0x0]
     990:	4d 8d 6d 08          	lea    r13,[r13+0x8]
     994:	4d 89 fe             	mov    r14,r15
     997:	e9 2d 34 00 00       	jmp    0x3dc9
     99c:	49 bf 8c 24 59 55 55 	movabs r15,0x55555559248c
     9a3:	55 00 00 
     9a6:	4d 8d 6d f8          	lea    r13,[r13-0x8]
     9aa:	4d 89 7d 00          	mov    QWORD PTR [r13+0x0],r15
     9ae:	e9 f8 36 00 00       	jmp    0x40ab
     9b3:	90                   	nop
     9b4:	4d 8d 6d f8          	lea    r13,[r13-0x8]
     9b8:	4c 8b 7d a8          	mov    r15,QWORD PTR [rbp-0x58]
     9bc:	4d 89 7d 00          	mov    QWORD PTR [r13+0x0],r15
     9c0:	4d 8d 6d f8          	lea    r13,[r13-0x8]
     9c4:	4c 8b 75 a0          	mov    r14,QWORD PTR [rbp-0x60]
     9c8:	4d 89 75 00          	mov    QWORD PTR [r13+0x0],r14
     9cc:	4d 8d 6d f8          	lea    r13,[r13-0x8]
     9d0:	4c 89 7d a8          	mov    QWORD PTR [rbp-0x58],r15
     9d4:	4c 8b 7d 98          	mov    r15,QWORD PTR [rbp-0x68]
     9d8:	4d 89 7d 00          	mov    QWORD PTR [r13+0x0],r15
     9dc:	4d 8d 6d f8          	lea    r13,[r13-0x8]
     9e0:	4d 89 65 00          	mov    QWORD PTR [r13+0x0],r12
     9e4:	4d 8d 6d f8          	lea    r13,[r13-0x8]
     9e8:	49 89 5d 00          	mov    QWORD PTR [r13+0x0],rbx
     9ec:	49 89 fc             	mov    r12,rdi
     9ef:	49 89 f6             	mov    r14,rsi
     9f2:	49 89 d7             	mov    r15,rdx
     9f5:	4c 89 7d 98          	mov    QWORD PTR [rbp-0x68],r15
     9f9:	4c 8b 7d a8          	mov    r15,QWORD PTR [rbp-0x58]
     9fd:	48 d1 e7             	shl    rdi,1
     a00:	48 d1 ef             	shr    rdi,1
     a03:	4c 8b 7f 08          	mov    r15,QWORD PTR [rdi+0x8]
     a07:	4c 89 7d a8          	mov    QWORD PTR [rbp-0x58],r15
     a0b:	49 bf ac 24 59 55 55 	movabs r15,0x5555555924ac
     a12:	55 00 00 
     a15:	41 f6 87 24 ed 09 00 	test   BYTE PTR [r15+0x9ed24],0x40
     a1c:	40 
     a1d:	4c 89 75 a0          	mov    QWORD PTR [rbp-0x60],r14
     a21:	0f 84 48 02 00 00    	je     0xc6f
     a27:	48 b8 00 40 00 00 ff 	movabs rax,0xffffffff00004000
     a2e:	ff ff ff 
     a31:	4c 8b 7d a8          	mov    r15,QWORD PTR [rbp-0x58]
     a35:	49 d1 e7             	shl    r15,1
     a38:	49 d1 ef             	shr    r15,1
     a3b:	49 85 47 08          	test   QWORD PTR [r15+0x8],rax
     a3f:	4c 89 7d a8          	mov    QWORD PTR [rbp-0x58],r15
     a43:	0f 85 26 02 00 00    	jne    0xc6f
     a49:	4c 8b 7d a8          	mov    r15,QWORD PTR [rbp-0x58]
     a4d:	49 d1 e7             	shl    r15,1
     a50:	49 d1 ef             	shr    r15,1
     a53:	41 80 67 08 df       	and    BYTE PTR [r15+0x8],0xdf
     a58:	48 c7 c3 fe ff ff ff 	mov    rbx,0xfffffffffffffffe
     a5f:	4c 89 7d a8          	mov    QWORD PTR [rbp-0x58],r15
     a63:	eb 18                	jmp    0xa7d
     a65:	4c 8b 7d a8          	mov    r15,QWORD PTR [rbp-0x58]
     a69:	49 d1 e7             	shl    r15,1
     a6c:	49 d1 ef             	shr    r15,1
     a6f:	41 80 67 08 df       	and    BYTE PTR [r15+0x8],0xdf
     a74:	41 80 4f 09 01       	or     BYTE PTR [r15+0x9],0x1
     a79:	4c 89 7d a8          	mov    QWORD PTR [rbp-0x58],r15
     a7d:	48 89 d8             	mov    rax,rbx
     a80:	49 8b 5d 00          	mov    rbx,QWORD PTR [r13+0x0]
     a84:	4d 8d 6d 08          	lea    r13,[r13+0x8]
     a88:	4d 8b 65 00          	mov    r12,QWORD PTR [r13+0x0]
     a8c:	4d 8d 6d 08          	lea    r13,[r13+0x8]
     a90:	4c 8b 7d 98          	mov    r15,QWORD PTR [rbp-0x68]
     a94:	4d 8b 7d 00          	mov    r15,QWORD PTR [r13+0x0]
     a98:	4d 8d 6d 08          	lea    r13,[r13+0x8]
     a9c:	4c 8b 75 a0          	mov    r14,QWORD PTR [rbp-0x60]
     aa0:	4d 8b 75 00          	mov    r14,QWORD PTR [r13+0x0]
     aa4:	4d 8d 6d 08          	lea    r13,[r13+0x8]
     aa8:	4c 89 7d 98          	mov    QWORD PTR [rbp-0x68],r15
     aac:	4c 8b 7d a8          	mov    r15,QWORD PTR [rbp-0x58]
     ab0:	4d 8b 7d 00          	mov    r15,QWORD PTR [r13+0x0]
     ab4:	4d 8d 6d 08          	lea    r13,[r13+0x8]
     ab8:	4c 89 7d a8          	mov    QWORD PTR [rbp-0x58],r15
     abc:	4d 8b 7d 00          	mov    r15,QWORD PTR [r13+0x0]
     ac0:	4d 8d 6d 08          	lea    r13,[r13+0x8]
     ac4:	4c 89 75 a0          	mov    QWORD PTR [rbp-0x60],r14
     ac8:	4d 89 fe             	mov    r14,r15
     acb:	e9 5f 33 00 00       	jmp    0x3e2f
     ad0:	4c 8b 7d a8          	mov    r15,QWORD PTR [rbp-0x58]
     ad4:	49 d1 e7             	shl    r15,1
     ad7:	49 d1 ef             	shr    r15,1
     ada:	41 8b 47 0c          	mov    eax,DWORD PTR [r15+0xc]
     ade:	85 c0                	test   eax,eax
     ae0:	4c 89 7d a8          	mov    QWORD PTR [rbp-0x58],r15
     ae4:	0f 88 b3 00 00 00    	js     0xb9d
     aea:	29 d8                	sub    eax,ebx
     aec:	0f 88 8b 00 00 00    	js     0xb7d
     af2:	4c 8b 7d a8          	mov    r15,QWORD PTR [rbp-0x58]
     af6:	41 89 47 0c          	mov    DWORD PTR [r15+0xc],eax
     afa:	4c 89 7d a8          	mov    QWORD PTR [rbp-0x58],r15
     afe:	49 bf 01 25 59 55 55 	movabs r15,0x555555592501
     b05:	55 00 00 
     b08:	49 8b 87 cf ec 09 00 	mov    rax,QWORD PTR [r15+0x9eccf]
     b0f:	a8 40                	test   al,0x40
     b11:	0f 84 1e 01 00 00    	je     0xc35
     b17:	49 bf 0d 25 59 55 55 	movabs r15,0x55555559250d
     b1e:	55 00 00 
     b21:	49 83 bf ab ae 0a 00 	cmp    QWORD PTR [r15+0xaaeab],0x0
     b28:	00 
     b29:	0f 84 06 01 00 00    	je     0xc35
     b2f:	4c 8b 7d 98          	mov    r15,QWORD PTR [rbp-0x68]
     b33:	4c 39 fb             	cmp    rbx,r15
     b36:	4c 89 7d 98          	mov    QWORD PTR [rbp-0x68],r15
     b3a:	0f 83 3d ff ff ff    	jae    0xa7d
     b40:	4c 8b 7d a8          	mov    r15,QWORD PTR [rbp-0x58]
     b44:	49 d1 e7             	shl    r15,1
     b47:	49 d1 ef             	shr    r15,1
     b4a:	41 f6 47 09 40       	test   BYTE PTR [r15+0x9],0x40
     b4f:	4c 89 7d a8          	mov    QWORD PTR [rbp-0x58],r15
     b53:	75 13                	jne    0xb68
     b55:	4c 8b 7d a8          	mov    r15,QWORD PTR [rbp-0x58]
     b59:	49 d1 e7             	shl    r15,1
     b5c:	49 d1 ef             	shr    r15,1
     b5f:	41 80 67 08 df       	and    BYTE PTR [r15+0x8],0xdf
     b64:	4c 89 7d a8          	mov    QWORD PTR [rbp-0x58],r15
     b68:	4c 8b 7d a8          	mov    r15,QWORD PTR [rbp-0x58]
     b6c:	41 c7 47 0c 00 00 00 	mov    DWORD PTR [r15+0xc],0x0
     b73:	00 
     b74:	4c 89 7d a8          	mov    QWORD PTR [rbp-0x58],r15
     b78:	e9 00 ff ff ff       	jmp    0xa7d
     b7d:	4c 8b 7d a8          	mov    r15,QWORD PTR [rbp-0x58]
     b81:	49 d1 e7             	shl    r15,1
     b84:	49 d1 ef             	shr    r15,1
     b87:	41 c7 47 0c 00 00 00 	mov    DWORD PTR [r15+0xc],0x0
     b8e:	00 
     b8f:	41 80 67 08 df       	and    BYTE PTR [r15+0x8],0xdf
     b94:	4c 89 7d a8          	mov    QWORD PTR [rbp-0x58],r15
     b98:	e9 61 ff ff ff       	jmp    0xafe
     b9d:	4c 8b 7d 98          	mov    r15,QWORD PTR [rbp-0x68]
     ba1:	49 39 df             	cmp    r15,rbx
     ba4:	4c 89 7d 98          	mov    QWORD PTR [rbp-0x68],r15
     ba8:	0f 85 50 ff ff ff    	jne    0xafe
     bae:	4c 8b 7d a8          	mov    r15,QWORD PTR [rbp-0x58]
     bb2:	49 8d 57 0c          	lea    rdx,[r15+0xc]
     bb6:	41 8b 7c 24 18       	mov    edi,DWORD PTR [r12+0x18]
     bbb:	be 1b 54 00 00       	mov    esi,0x541b
     bc0:	b8 00 00 00 00       	mov    eax,0x0
     bc5:	49 be 54 25 59 55 55 	movabs r14,0x555555592554
     bcc:	55 00 00 
     bcf:	4d 8d 6d f8          	lea    r13,[r13-0x8]
     bd3:	4d 89 75 00          	mov    QWORD PTR [r13+0x0],r14
     bd7:	4c 89 7d a8          	mov    QWORD PTR [rbp-0x58],r15
     bdb:	e9 9b 35 00 00       	jmp    0x417b
     be0:	83 f8 ff             	cmp    eax,0xffffffff
     be3:	0f 85 15 ff ff ff    	jne    0xafe
     be9:	49 bf 5e 25 59 55 55 	movabs r15,0x55555559255e
     bf0:	55 00 00 
     bf3:	4d 8d 6d f8          	lea    r13,[r13-0x8]
     bf7:	4d 89 7d 00          	mov    QWORD PTR [r13+0x0],r15
     bfb:	e9 89 f4 ff ff       	jmp    0x89
     c00:	49 bf 65 25 59 55 55 	movabs r15,0x555555592565
     c07:	55 00 00 
     c0a:	49 8d 97 0d d6 05 00 	lea    rdx,[r15+0x5d60d]
     c11:	8b 30                	mov    esi,DWORD PTR [rax]
     c13:	4c 89 e7             	mov    rdi,r12
     c16:	49 bf 6f 25 59 55 55 	movabs r15,0x55555559256f
     c1d:	55 00 00 
     c20:	4d 8d 6d f8          	lea    r13,[r13-0x8]
     c24:	4d 89 7d 00          	mov    QWORD PTR [r13+0x0],r15
     c28:	e9 d4 36 00 00       	jmp    0x4301
     c2d:	48 89 c3             	mov    rbx,rax
     c30:	e9 da 00 00 00       	jmp    0xd0f
     c35:	4c 8b 7d 98          	mov    r15,QWORD PTR [rbp-0x68]
     c39:	4c 39 fb             	cmp    rbx,r15
     c3c:	4c 89 7d 98          	mov    QWORD PTR [rbp-0x68],r15
     c40:	0f 83 37 fe ff ff    	jae    0xa7d
     c46:	a8 20                	test   al,0x20
     c48:	0f 85 2f fe ff ff    	jne    0xa7d
     c4e:	4c 8b 7d a8          	mov    r15,QWORD PTR [rbp-0x58]
     c52:	49 d1 e7             	shl    r15,1
     c55:	49 d1 ef             	shr    r15,1
     c58:	41 80 67 08 df       	and    BYTE PTR [r15+0x8],0xdf
     c5d:	4c 89 7d a8          	mov    QWORD PTR [rbp-0x58],r15
     c61:	e9 17 fe ff ff       	jmp    0xa7d
     c66:	83 fe 04             	cmp    esi,0x4
     c69:	0f 85 d5 00 00 00    	jne    0xd44
     c6f:	41 8b 7c 24 18       	mov    edi,DWORD PTR [r12+0x18]
     c74:	b9 00 00 00 00       	mov    ecx,0x0
     c79:	4c 8b 7d 98          	mov    r15,QWORD PTR [rbp-0x68]
     c7d:	4c 89 fa             	mov    rdx,r15
     c80:	4c 8b 75 a0          	mov    r14,QWORD PTR [rbp-0x60]
     c84:	4c 89 f6             	mov    rsi,r14
     c87:	4c 89 7d 98          	mov    QWORD PTR [rbp-0x68],r15
     c8b:	49 bf a7 25 59 55 55 	movabs r15,0x5555555925a7
     c92:	55 00 00 
     c95:	4d 8d 6d f8          	lea    r13,[r13-0x8]
     c99:	4d 89 7d 00          	mov    QWORD PTR [r13+0x0],r15
     c9d:	4c 89 75 a0          	mov    QWORD PTR [rbp-0x60],r14
     ca1:	e9 c9 f3 ff ff       	jmp    0x6f
     ca6:	48 89 c3             	mov    rbx,rax
     ca9:	48 85 c0             	test   rax,rax
     cac:	0f 84 b3 fd ff ff    	je     0xa65
     cb2:	0f 8f 18 fe ff ff    	jg     0xad0
     cb8:	49 bf be 25 59 55 55 	movabs r15,0x5555555925be
     cbf:	55 00 00 
     cc2:	4d 8d 6d f8          	lea    r13,[r13-0x8]
     cc6:	4d 89 7d 00          	mov    QWORD PTR [r13+0x0],r15
     cca:	e9 ba f3 ff ff       	jmp    0x89
     ccf:	48 d1 e0             	shl    rax,1
     cd2:	48 d1 e8             	shr    rax,1
     cd5:	8b 30                	mov    esi,DWORD PTR [rax]
     cd7:	83 fe 0b             	cmp    esi,0xb
     cda:	74 8a                	je     0xc66
     cdc:	83 fe 04             	cmp    esi,0x4
     cdf:	74 85                	je     0xc66
     ce1:	49 bf d1 25 59 55 55 	movabs r15,0x5555555925d1
     ce8:	55 00 00 
     ceb:	49 8d 97 b8 d5 05 00 	lea    rdx,[r15+0x5d5b8]
     cf2:	4c 89 e7             	mov    rdi,r12
     cf5:	49 bf d9 25 59 55 55 	movabs r15,0x5555555925d9
     cfc:	55 00 00 
     cff:	4d 8d 6d f8          	lea    r13,[r13-0x8]
     d03:	4d 89 7d 00          	mov    QWORD PTR [r13+0x0],r15
     d07:	e9 f5 35 00 00       	jmp    0x4301
     d0c:	48 89 c3             	mov    rbx,rax
     d0f:	4c 8b 7d a8          	mov    r15,QWORD PTR [rbp-0x58]
     d13:	49 d1 e7             	shl    r15,1
     d16:	49 d1 ef             	shr    r15,1
     d19:	41 80 67 08 df       	and    BYTE PTR [r15+0x8],0xdf
     d1e:	48 83 fb ff          	cmp    rbx,0xffffffffffffffff
     d22:	4c 89 7d a8          	mov    QWORD PTR [rbp-0x58],r15
     d26:	0f 85 51 fd ff ff    	jne    0xa7d
     d2c:	4c 8b 7d a8          	mov    r15,QWORD PTR [rbp-0x58]
     d30:	49 d1 e7             	shl    r15,1
     d33:	49 d1 ef             	shr    r15,1
     d36:	41 80 4f 09 02       	or     BYTE PTR [r15+0x9],0x2
     d3b:	4c 89 7d a8          	mov    QWORD PTR [rbp-0x58],r15
     d3f:	e9 39 fd ff ff       	jmp    0xa7d
     d44:	4c 8b 7d a8          	mov    r15,QWORD PTR [rbp-0x58]
     d48:	49 d1 e7             	shl    r15,1
     d4b:	49 d1 ef             	shr    r15,1
     d4e:	41 80 67 08 df       	and    BYTE PTR [r15+0x8],0xdf
     d53:	48 c7 c3 fe ff ff ff 	mov    rbx,0xfffffffffffffffe
     d5a:	4c 89 7d a8          	mov    QWORD PTR [rbp-0x58],r15
     d5e:	e9 1a fd ff ff       	jmp    0xa7d
     d63:	90                   	nop
     d64:	4d 8d 6d f8          	lea    r13,[r13-0x8]
     d68:	4c 8b 7d 98          	mov    r15,QWORD PTR [rbp-0x68]
     d6c:	4d 89 7d 00          	mov    QWORD PTR [r13+0x0],r15
     d70:	4d 8d 6d f8          	lea    r13,[r13-0x8]
     d74:	4d 89 65 00          	mov    QWORD PTR [r13+0x0],r12
     d78:	4d 8d 6d f8          	lea    r13,[r13-0x8]
     d7c:	49 89 5d 00          	mov    QWORD PTR [r13+0x0],rbx
     d80:	49 89 ff             	mov    r15,rdi
     d83:	49 89 f4             	mov    r12,rsi
     d86:	4c 89 7d 98          	mov    QWORD PTR [rbp-0x68],r15
     d8a:	4c 8b 7d 98          	mov    r15,QWORD PTR [rbp-0x68]
     d8e:	41 8b 7f 18          	mov    edi,DWORD PTR [r15+0x18]
     d92:	41 8b 54 24 08       	mov    edx,DWORD PTR [r12+0x8]
     d97:	49 8b 34 24          	mov    rsi,QWORD PTR [r12]
     d9b:	49 be b0 2b 59 55 55 	movabs r14,0x555555592bb0
     da2:	55 00 00 
     da5:	4d 8d 6d f8          	lea    r13,[r13-0x8]
     da9:	4d 89 75 00          	mov    QWORD PTR [r13+0x0],r14
     dad:	4c 89 7d 98          	mov    QWORD PTR [rbp-0x68],r15
     db1:	e9 ed f2 ff ff       	jmp    0xa3
     db6:	48 89 c3             	mov    rbx,rax
     db9:	48 83 f8 ff          	cmp    rax,0xffffffffffffffff
     dbd:	75 79                	jne    0xe38
     dbf:	49 bf be 2b 59 55 55 	movabs r15,0x555555592bbe
     dc6:	55 00 00 
     dc9:	4d 8d 6d f8          	lea    r13,[r13-0x8]
     dcd:	4d 89 7d 00          	mov    QWORD PTR [r13+0x0],r15
     dd1:	e9 b3 f2 ff ff       	jmp    0x89
     dd6:	48 d1 e0             	shl    rax,1
     dd9:	48 d1 e8             	shr    rax,1
     ddc:	8b 30                	mov    esi,DWORD PTR [rax]
     dde:	83 fe 04             	cmp    esi,0x4
     de1:	74 a7                	je     0xd8a
     de3:	83 fe 0b             	cmp    esi,0xb
     de6:	74 49                	je     0xe31
     de8:	4c 8b 7d 98          	mov    r15,QWORD PTR [rbp-0x68]
     dec:	49 d1 e7             	shl    r15,1
     def:	49 d1 ef             	shr    r15,1
     df2:	49 8b 47 10          	mov    rax,QWORD PTR [r15+0x10]
     df6:	48 d1 e0             	shl    rax,1
     df9:	48 d1 e8             	shr    rax,1
     dfc:	80 48 09 02          	or     BYTE PTR [rax+0x9],0x2
     e00:	49 be da 2b 59 55 55 	movabs r14,0x555555592bda
     e07:	55 00 00 
     e0a:	49 8d 96 6a d0 05 00 	lea    rdx,[r14+0x5d06a]
     e11:	4c 89 ff             	mov    rdi,r15
     e14:	49 be e2 2b 59 55 55 	movabs r14,0x555555592be2
     e1b:	55 00 00 
     e1e:	4d 8d 6d f8          	lea    r13,[r13-0x8]
     e22:	4d 89 75 00          	mov    QWORD PTR [r13+0x0],r14
     e26:	4c 89 7d 98          	mov    QWORD PTR [rbp-0x68],r15
     e2a:	e9 d2 34 00 00       	jmp    0x4301
     e2f:	eb 07                	jmp    0xe38
     e31:	48 c7 c3 fe ff ff ff 	mov    rbx,0xfffffffffffffffe
     e38:	48 89 d8             	mov    rax,rbx
     e3b:	49 8b 5d 00          	mov    rbx,QWORD PTR [r13+0x0]
     e3f:	4d 8d 6d 08          	lea    r13,[r13+0x8]
     e43:	4d 8b 65 00          	mov    r12,QWORD PTR [r13+0x0]
     e47:	4d 8d 6d 08          	lea    r13,[r13+0x8]
     e4b:	4c 8b 7d 98          	mov    r15,QWORD PTR [rbp-0x68]
     e4f:	4d 8b 7d 00          	mov    r15,QWORD PTR [r13+0x0]
     e53:	4d 8d 6d 08          	lea    r13,[r13+0x8]
     e57:	4d 8b 75 00          	mov    r14,QWORD PTR [r13+0x0]
     e5b:	4d 8d 6d 08          	lea    r13,[r13+0x8]
     e5f:	4c 89 7d 98          	mov    QWORD PTR [rbp-0x68],r15
     e63:	e9 1a 30 00 00       	jmp    0x3e82
     e68:	49 83 c5 08          	add    r13,0x8
     e6c:	49 8b 5d 00          	mov    rbx,QWORD PTR [r13+0x0]
     e70:	4d 8d 6d 08          	lea    r13,[r13+0x8]
     e74:	4d 8b 65 00          	mov    r12,QWORD PTR [r13+0x0]
     e78:	4d 8d 6d 08          	lea    r13,[r13+0x8]
     e7c:	4c 8b 7d 98          	mov    r15,QWORD PTR [rbp-0x68]
     e80:	4d 8b 7d 00          	mov    r15,QWORD PTR [r13+0x0]
     e84:	4d 8d 6d 08          	lea    r13,[r13+0x8]
     e88:	4c 8b 75 a0          	mov    r14,QWORD PTR [rbp-0x60]
     e8c:	4d 8b 75 00          	mov    r14,QWORD PTR [r13+0x0]
     e90:	4d 8d 6d 08          	lea    r13,[r13+0x8]
     e94:	4c 89 7d 98          	mov    QWORD PTR [rbp-0x68],r15
     e98:	4c 8b 7d a8          	mov    r15,QWORD PTR [rbp-0x58]
     e9c:	4d 8b 7d 00          	mov    r15,QWORD PTR [r13+0x0]
     ea0:	4d 8d 6d 08          	lea    r13,[r13+0x8]
     ea4:	4c 89 7d a8          	mov    QWORD PTR [rbp-0x58],r15
     ea8:	4c 8b 7d b0          	mov    r15,QWORD PTR [rbp-0x50]
     eac:	4d 8b 7d 00          	mov    r15,QWORD PTR [r13+0x0]
     eb0:	4d 8d 6d 08          	lea    r13,[r13+0x8]
     eb4:	4c 89 7d b0          	mov    QWORD PTR [rbp-0x50],r15
     eb8:	4d 8b 7d 00          	mov    r15,QWORD PTR [r13+0x0]
     ebc:	4d 8d 6d 08          	lea    r13,[r13+0x8]
     ec0:	4c 89 75 a0          	mov    QWORD PTR [rbp-0x60],r14
     ec4:	4d 89 fe             	mov    r14,r15
     ec7:	e9 0d 30 00 00       	jmp    0x3ed9
     ecc:	48 89 d7             	mov    rdi,rdx
     ecf:	49 bf 25 7c 59 55 55 	movabs r15,0x555555597c25
     ed6:	55 00 00 
     ed9:	4d 8d 6d f8          	lea    r13,[r13-0x8]
     edd:	4d 89 7d 00          	mov    QWORD PTR [r13+0x0],r15
     ee1:	4c 8b 7a 10          	mov    r15,QWORD PTR [rdx+0x10]
     ee5:	4d 89 fe             	mov    r14,r15
     ee8:	e9 20 2f 00 00       	jmp    0x3e0d
     eed:	4c 8b 7d a0          	mov    r15,QWORD PTR [rbp-0x60]
     ef1:	41 f6 c7 04          	test   r15b,0x4
     ef5:	4c 89 7d a0          	mov    QWORD PTR [rbp-0x60],r15
     ef9:	0f 84 be 00 00 00    	je     0xfbd
     eff:	48 d1 e3             	shl    rbx,1
     f02:	48 d1 eb             	shr    rbx,1
     f05:	48 8b 43 10          	mov    rax,QWORD PTR [rbx+0x10]
     f09:	48 d1 e0             	shl    rax,1
     f0c:	48 d1 e8             	shr    rax,1
     f0f:	f6 40 08 08          	test   BYTE PTR [rax+0x8],0x8
     f13:	0f 84 a4 00 00 00    	je     0xfbd
     f19:	48 d1 e3             	shl    rbx,1
     f1c:	48 d1 eb             	shr    rbx,1
     f1f:	83 7b 18 ff          	cmp    DWORD PTR [rbx+0x18],0xffffffff
     f23:	0f 84 94 00 00 00    	je     0xfbd
     f29:	48 d1 e0             	shl    rax,1
     f2c:	48 d1 e8             	shr    rax,1
     f2f:	0f b6 50 08          	movzx  edx,BYTE PTR [rax+0x8]
     f33:	c0 ea 02             	shr    dl,0x2
     f36:	83 e2 01             	and    edx,0x1
     f39:	4c 8b 7d b0          	mov    r15,QWORD PTR [rbp-0x50]
     f3d:	4c 39 fa             	cmp    rdx,r15
     f40:	4c 89 7d b0          	mov    QWORD PTR [rbp-0x50],r15
     f44:	75 77                	jne    0xfbd
     f46:	48 d1 e0             	shl    rax,1
     f49:	48 d1 e8             	shr    rax,1
     f4c:	80 48 08 20          	or     BYTE PTR [rax+0x8],0x20
     f50:	4c 8b 7d a8          	mov    r15,QWORD PTR [rbp-0x58]
     f54:	4d 85 ff             	test   r15,r15
     f57:	4c 89 7d a8          	mov    QWORD PTR [rbp-0x58],r15
     f5b:	74 3f                	je     0xf9c
     f5d:	48 d1 e0             	shl    rax,1
     f60:	48 d1 e8             	shr    rax,1
     f63:	80 78 09 00          	cmp    BYTE PTR [rax+0x9],0x0
     f67:	78 54                	js     0xfbd
     f69:	48 d1 e0             	shl    rax,1
     f6c:	48 d1 e8             	shr    rax,1
     f6f:	80 48 09 80          	or     BYTE PTR [rax+0x9],0x80
     f73:	49 bf 64 7c 59 55 55 	movabs r15,0x555555597c64
     f7a:	55 00 00 
     f7d:	49 8d b7 cc 95 09 00 	lea    rsi,[r15+0x995cc]
     f84:	48 8b 0e             	mov    rcx,QWORD PTR [rsi]
     f87:	48 89 48 50          	mov    QWORD PTR [rax+0x50],rcx
     f8b:	48 8d 50 50          	lea    rdx,[rax+0x50]
     f8f:	48 89 51 08          	mov    QWORD PTR [rcx+0x8],rdx
     f93:	48 89 70 58          	mov    QWORD PTR [rax+0x58],rsi
     f97:	48 89 16             	mov    QWORD PTR [rsi],rdx
     f9a:	eb 21                	jmp    0xfbd
     f9c:	48 89 c7             	mov    rdi,rax
     f9f:	49 bf 82 7c 59 55 55 	movabs r15,0x555555597c82
     fa6:	55 00 00 
     fa9:	4d 8d 6d f8          	lea    r13,[r13-0x8]
     fad:	4d 89 7d 00          	mov    QWORD PTR [r13+0x0],r15
     fb1:	4c 8b 78 10          	mov    r15,QWORD PTR [rax+0x10]
     fb5:	4d 89 fe             	mov    r14,r15
     fb8:	e9 2b 2f 00 00       	jmp    0x3ee8
     fbd:	49 83 c4 01          	add    r12,0x1
     fc1:	4c 8b 7d 98          	mov    r15,QWORD PTR [rbp-0x68]
     fc5:	4d 39 fc             	cmp    r12,r15
     fc8:	4c 89 7d 98          	mov    QWORD PTR [rbp-0x68],r15
     fcc:	0f 84 3e 01 00 00    	je     0x1110
     fd2:	4b 8d 04 64          	lea    rax,[r12+r12*2]
     fd6:	49 bf 9b 7c 59 55 55 	movabs r15,0x555555597c9b
     fdd:	55 00 00 
     fe0:	49 8b 97 6d 90 09 00 	mov    rdx,QWORD PTR [r15+0x9906d]
     fe7:	48 8d 0c 82          	lea    rcx,[rdx+rax*4]
     feb:	48 d1 e1             	shl    rcx,1
     fee:	48 d1 e9             	shr    rcx,1
     ff1:	48 8b 59 04          	mov    rbx,QWORD PTR [rcx+0x4]
     ff5:	4c 8b 7d b0          	mov    r15,QWORD PTR [rbp-0x50]
     ff9:	49 89 df             	mov    r15,rbx
     ffc:	41 83 e7 01          	and    r15d,0x1
    1000:	48 83 e3 fe          	and    rbx,0xfffffffffffffffe
    1004:	48 d1 e3             	shl    rbx,1
    1007:	48 d1 eb             	shr    rbx,1
    100a:	83 7b 18 ff          	cmp    DWORD PTR [rbx+0x18],0xffffffff
    100e:	4c 89 7d b0          	mov    QWORD PTR [rbp-0x50],r15
    1012:	74 a9                	je     0xfbd
    1014:	48 d1 e3             	shl    rbx,1
    1017:	48 d1 eb             	shr    rbx,1
    101a:	48 8b 53 08          	mov    rdx,QWORD PTR [rbx+0x8]
    101e:	48 d1 e2             	shl    rdx,1
    1021:	48 d1 ea             	shr    rdx,1
    1024:	0f b6 42 08          	movzx  eax,BYTE PTR [rdx+0x8]
    1028:	c0 e8 02             	shr    al,0x2
    102b:	83 e0 01             	and    eax,0x1
    102e:	4c 8b 7d b0          	mov    r15,QWORD PTR [rbp-0x50]
    1032:	4c 39 f8             	cmp    rax,r15
    1035:	4c 89 7d b0          	mov    QWORD PTR [rbp-0x50],r15
    1039:	75 82                	jne    0xfbd
    103b:	4c 8b 7d a0          	mov    r15,QWORD PTR [rbp-0x60]
    103f:	48 d1 e1             	shl    rcx,1
    1042:	48 d1 e9             	shr    rcx,1
    1045:	44 8b 39             	mov    r15d,DWORD PTR [rcx]
    1048:	44 89 f8             	mov    eax,r15d
    104b:	83 c8 05             	or     eax,0x5
    104e:	41 f6 c7 18          	test   r15b,0x18
    1052:	44 0f 45 f8          	cmovne r15d,eax
    1056:	41 f6 c7 01          	test   r15b,0x1
    105a:	4c 89 7d a0          	mov    QWORD PTR [rbp-0x60],r15
    105e:	0f 84 89 fe ff ff    	je     0xeed
    1064:	48 d1 e2             	shl    rdx,1
    1067:	48 d1 ea             	shr    rdx,1
    106a:	f6 42 08 08          	test   BYTE PTR [rdx+0x8],0x8
    106e:	0f 84 79 fe ff ff    	je     0xeed
    1074:	4c 8b 7d a0          	mov    r15,QWORD PTR [rbp-0x60]
    1078:	41 f7 c7 00 20 00 00 	test   r15d,0x2000
    107f:	4c 89 7d a0          	mov    QWORD PTR [rbp-0x60],r15
    1083:	74 0a                	je     0x108f
    1085:	48 d1 e2             	shl    rdx,1
    1088:	48 d1 ea             	shr    rdx,1
    108b:	80 4a 09 40          	or     BYTE PTR [rdx+0x9],0x40
    108f:	48 d1 e2             	shl    rdx,1
    1092:	48 d1 ea             	shr    rdx,1
    1095:	80 4a 08 20          	or     BYTE PTR [rdx+0x8],0x20
    1099:	c7 42 0c ff ff ff ff 	mov    DWORD PTR [rdx+0xc],0xffffffff
    10a0:	4c 8b 7d a8          	mov    r15,QWORD PTR [rbp-0x58]
    10a4:	4d 85 ff             	test   r15,r15
    10a7:	4c 89 7d a8          	mov    QWORD PTR [rbp-0x58],r15
    10ab:	0f 84 1b fe ff ff    	je     0xecc
    10b1:	48 d1 e2             	shl    rdx,1
    10b4:	48 d1 ea             	shr    rdx,1
    10b7:	f6 42 08 02          	test   BYTE PTR [rdx+0x8],0x2
    10bb:	49 bf 18 7d 59 55 55 	movabs r15,0x555555597d18
    10c2:	55 00 00 
    10c5:	49 8d 87 18 95 09 00 	lea    rax,[r15+0x99518]
    10cc:	49 bf 1f 7d 59 55 55 	movabs r15,0x555555597d1f
    10d3:	55 00 00 
    10d6:	49 8d bf 01 95 09 00 	lea    rdi,[r15+0x99501]
    10dd:	48 0f 45 c7          	cmovne rax,rdi
    10e1:	80 7a 09 00          	cmp    BYTE PTR [rdx+0x9],0x0
    10e5:	0f 88 02 fe ff ff    	js     0xeed
    10eb:	48 d1 e2             	shl    rdx,1
    10ee:	48 d1 ea             	shr    rdx,1
    10f1:	80 4a 09 80          	or     BYTE PTR [rdx+0x9],0x80
    10f5:	48 8b 30             	mov    rsi,QWORD PTR [rax]
    10f8:	48 89 72 50          	mov    QWORD PTR [rdx+0x50],rsi
    10fc:	48 8d 4a 50          	lea    rcx,[rdx+0x50]
    1100:	48 89 4e 08          	mov    QWORD PTR [rsi+0x8],rcx
    1104:	48 89 42 58          	mov    QWORD PTR [rdx+0x58],rax
    1108:	48 89 08             	mov    QWORD PTR [rax],rcx
    110b:	e9 dd fd ff ff       	jmp    0xeed
    1110:	b8 00 00 00 00       	mov    eax,0x0
    1115:	e9 4e fd ff ff       	jmp    0xe68
    111a:	41 c7 45 3c 00 00 00 	mov    DWORD PTR [r13+0x3c],0x0
    1121:	00 
    1122:	49 8d 4d 3c          	lea    rcx,[r13+0x3c]
    1126:	4c 8b 7d 98          	mov    r15,QWORD PTR [rbp-0x68]
    112a:	41 8b 7f 18          	mov    edi,DWORD PTR [r15+0x18]
    112e:	41 b8 04 00 00 00    	mov    r8d,0x4
    1134:	ba 01 00 00 00       	mov    edx,0x1
    1139:	be 06 00 00 00       	mov    esi,0x6
    113e:	49 be b5 7e 59 55 55 	movabs r14,0x555555597eb5
    1145:	55 00 00 
    1148:	4d 8d 6d f8          	lea    r13,[r13-0x8]
    114c:	4d 89 75 00          	mov    QWORD PTR [r13+0x0],r14
    1150:	4c 89 7d 98          	mov    QWORD PTR [rbp-0x68],r15
    1154:	e9 2b 33 00 00       	jmp    0x4484
    1159:	83 f8 ff             	cmp    eax,0xffffffff
    115c:	0f 84 49 02 00 00    	je     0x13ab
    1162:	4c 8b 7d 98          	mov    r15,QWORD PTR [rbp-0x68]
    1166:	49 d1 e7             	shl    r15,1
    1169:	49 d1 ef             	shr    r15,1
    116c:	41 80 a7 da 00 00 00 	and    BYTE PTR [r15+0xda],0xcf
    1173:	cf 
    1174:	4c 89 7d 98          	mov    QWORD PTR [rbp-0x68],r15
    1178:	4c 8b 7d 98          	mov    r15,QWORD PTR [rbp-0x68]
    117c:	49 d1 e7             	shl    r15,1
    117f:	49 d1 ef             	shr    r15,1
    1182:	41 f6 87 da 00 00 00 	test   BYTE PTR [r15+0xda],0x30
    1189:	30 
    118a:	4c 89 7d 98          	mov    QWORD PTR [rbp-0x68],r15
    118e:	0f 84 c3 01 00 00    	je     0x1357
    1194:	49 83 7d 58 00       	cmp    QWORD PTR [r13+0x58],0x0
    1199:	75 2d                	jne    0x11c8
    119b:	49 8b 45 40          	mov    rax,QWORD PTR [r13+0x40]
    119f:	48 85 c0             	test   rax,rax
    11a2:	74 24                	je     0x11c8
    11a4:	48 d1 e0             	shl    rax,1
    11a7:	48 d1 e8             	shr    rax,1
    11aa:	48 8b 00             	mov    rax,QWORD PTR [rax]
    11ad:	49 89 45 18          	mov    QWORD PTR [r13+0x18],rax
    11b1:	f6 40 48 10          	test   BYTE PTR [rax+0x48],0x10
    11b5:	74 11                	je     0x11c8
    11b7:	4c 8b 7d b0          	mov    r15,QWORD PTR [rbp-0x50]
    11bb:	49 39 df             	cmp    r15,rbx
    11be:	4c 89 7d b0          	mov    QWORD PTR [rbp-0x50],r15
    11c2:	0f 8f cd 02 00 00    	jg     0x1495
    11c8:	49 8b 75 08          	mov    rsi,QWORD PTR [r13+0x8]
    11cc:	4c 8b 7d 98          	mov    r15,QWORD PTR [rbp-0x68]
    11d0:	4c 89 ff             	mov    rdi,r15
    11d3:	49 be 0c 7f 59 55 55 	movabs r14,0x555555597f0c
    11da:	55 00 00 
    11dd:	4d 8d 6d f8          	lea    r13,[r13-0x8]
    11e1:	4d 89 75 00          	mov    QWORD PTR [r13+0x0],r14
    11e5:	4c 89 7d 98          	mov    QWORD PTR [rbp-0x68],r15
    11e9:	e9 75 fb ff ff       	jmp    0xd63
    11ee:	48 89 c3             	mov    rbx,rax
    11f1:	48 83 f8 ff          	cmp    rax,0xffffffffffffffff
    11f5:	0f 84 83 04 00 00    	je     0x167e
    11fb:	48 83 f8 fe          	cmp    rax,0xfffffffffffffffe
    11ff:	0f 84 87 04 00 00    	je     0x168c
    1205:	4c 8b 7d 98          	mov    r15,QWORD PTR [rbp-0x68]
    1209:	49 d1 e7             	shl    r15,1
    120c:	49 d1 ef             	shr    r15,1
    120f:	49 01 5f 48          	add    QWORD PTR [r15+0x48],rbx
    1213:	48 89 de             	mov    rsi,rbx
    1216:	4c 89 e7             	mov    rdi,r12
    1219:	49 be 33 7f 59 55 55 	movabs r14,0x555555597f33
    1220:	55 00 00 
    1223:	4d 8d 6d f8          	lea    r13,[r13-0x8]
    1227:	4d 89 75 00          	mov    QWORD PTR [r13+0x0],r14
    122b:	4c 89 7d 98          	mov    QWORD PTR [rbp-0x68],r15
    122f:	e9 df 2e 00 00       	jmp    0x4113
    1234:	49 89 c4             	mov    r12,rax
    1237:	4c 8b 7d a8          	mov    r15,QWORD PTR [rbp-0x58]
    123b:	4c 89 f8             	mov    rax,r15
    123e:	4c 8b 75 a0          	mov    r14,QWORD PTR [rbp-0x60]
    1242:	4c 29 f0             	sub    rax,r14
    1245:	48 39 d8             	cmp    rax,rbx
    1248:	4c 89 7d a8          	mov    QWORD PTR [rbp-0x58],r15
    124c:	4c 89 75 a0          	mov    QWORD PTR [rbp-0x60],r14
    1250:	0f 85 0f 04 00 00    	jne    0x1665
    1256:	4c 8b 7d b0          	mov    r15,QWORD PTR [rbp-0x50]
    125a:	4c 8b 75 a8          	mov    r14,QWORD PTR [rbp-0x58]
    125e:	4d 39 f7             	cmp    r15,r14
    1261:	4c 89 7d b0          	mov    QWORD PTR [rbp-0x50],r15
    1265:	4c 89 75 a8          	mov    QWORD PTR [rbp-0x58],r14
    1269:	0f 8e 0a 04 00 00    	jle    0x1679
    126f:	4d 85 e4             	test   r12,r12
    1272:	0f 84 01 04 00 00    	je     0x1679
    1278:	4c 8b 7d a0          	mov    r15,QWORD PTR [rbp-0x60]
    127c:	4c 8b 75 a8          	mov    r14,QWORD PTR [rbp-0x58]
    1280:	4d 89 f7             	mov    r15,r14
    1283:	4c 89 7d a0          	mov    QWORD PTR [rbp-0x60],r15
    1287:	4c 8b 7d 98          	mov    r15,QWORD PTR [rbp-0x68]
    128b:	49 d1 e7             	shl    r15,1
    128e:	49 d1 ef             	shr    r15,1
    1291:	49 8b 4f 50          	mov    rcx,QWORD PTR [r15+0x50]
    1295:	4c 89 7d 98          	mov    QWORD PTR [rbp-0x68],r15
    1299:	4c 8b 7d b0          	mov    r15,QWORD PTR [rbp-0x50]
    129d:	4c 89 fa             	mov    rdx,r15
    12a0:	4c 89 7d b0          	mov    QWORD PTR [rbp-0x50],r15
    12a4:	4c 8b 7d a0          	mov    r15,QWORD PTR [rbp-0x60]
    12a8:	4c 29 fa             	sub    rdx,r15
    12ab:	4c 89 e6             	mov    rsi,r12
    12ae:	49 8b 7d 08          	mov    rdi,QWORD PTR [r13+0x8]
    12b2:	4c 89 7d a0          	mov    QWORD PTR [rbp-0x60],r15
    12b6:	49 bf 72 7f 59 55 55 	movabs r15,0x555555597f72
    12bd:	55 00 00 
    12c0:	4d 8d 6d f8          	lea    r13,[r13-0x8]
    12c4:	4d 89 7d 00          	mov    QWORD PTR [r13+0x0],r15
    12c8:	4c 89 75 a8          	mov    QWORD PTR [rbp-0x58],r14
    12cc:	e9 fc 2f 00 00       	jmp    0x42cd
    12d1:	49 89 45 40          	mov    QWORD PTR [r13+0x40],rax
    12d5:	48 83 f8 ff          	cmp    rax,0xffffffffffffffff
    12d9:	0f 84 da 03 00 00    	je     0x16b9
    12df:	4c 8b 7d a0          	mov    r15,QWORD PTR [rbp-0x60]
    12e3:	4d 89 7d 10          	mov    QWORD PTR [r13+0x10],r15
    12e7:	4c 89 fb             	mov    rbx,r15
    12ea:	49 03 5d 60          	add    rbx,QWORD PTR [r13+0x60]
    12ee:	4c 8b 75 a8          	mov    r14,QWORD PTR [rbp-0x58]
    12f2:	49 89 de             	mov    r14,rbx
    12f5:	4c 89 7d a0          	mov    QWORD PTR [rbp-0x60],r15
    12f9:	4c 8b 7d 98          	mov    r15,QWORD PTR [rbp-0x68]
    12fd:	49 d1 e7             	shl    r15,1
    1300:	49 d1 ef             	shr    r15,1
    1303:	41 0f b6 97 da 00 00 	movzx  edx,BYTE PTR [r15+0xda]
    130a:	00 
    130b:	f6 c2 c0             	test   dl,0xc0
    130e:	4c 89 7d 98          	mov    QWORD PTR [rbp-0x68],r15
    1312:	4c 89 75 a8          	mov    QWORD PTR [rbp-0x58],r14
    1316:	0f 85 78 fe ff ff    	jne    0x1194
    131c:	49 83 7d 58 00       	cmp    QWORD PTR [r13+0x58],0x0
    1321:	0f 84 6d fe ff ff    	je     0x1194
    1327:	48 85 c0             	test   rax,rax
    132a:	0f 84 64 fe ff ff    	je     0x1194
    1330:	48 d1 e0             	shl    rax,1
    1333:	48 d1 e8             	shr    rax,1
    1336:	48 8b 00             	mov    rax,QWORD PTR [rax]
    1339:	f6 40 48 10          	test   BYTE PTR [rax+0x48],0x10
    133d:	0f 84 85 fe ff ff    	je     0x11c8
    1343:	83 e2 30             	and    edx,0x30
    1346:	80 fa 10             	cmp    dl,0x10
    1349:	0f 84 cb fd ff ff    	je     0x111a
    134f:	84 d2                	test   dl,dl
    1351:	0f 85 71 fe ff ff    	jne    0x11c8
    1357:	4c 8b 7d 98          	mov    r15,QWORD PTR [rbp-0x68]
    135b:	41 8b 7f 18          	mov    edi,DWORD PTR [r15+0x18]
    135f:	49 be e3 7f 59 55 55 	movabs r14,0x555555597fe3
    1366:	55 00 00 
    1369:	4d 8d 6d f8          	lea    r13,[r13-0x8]
    136d:	4d 89 75 00          	mov    QWORD PTR [r13+0x0],r14
    1371:	4c 89 7d 98          	mov    QWORD PTR [rbp-0x68],r15
    1375:	e9 d9 30 00 00       	jmp    0x4453
    137a:	83 f8 ff             	cmp    eax,0xffffffff
    137d:	0f 84 9d 00 00 00    	je     0x1420
    1383:	4c 8b 7d 98          	mov    r15,QWORD PTR [rbp-0x68]
    1387:	49 d1 e7             	shl    r15,1
    138a:	49 d1 ef             	shr    r15,1
    138d:	41 0f b6 87 da 00 00 	movzx  eax,BYTE PTR [r15+0xda]
    1394:	00 
    1395:	83 e0 3f             	and    eax,0x3f
    1398:	83 c8 40             	or     eax,0x40
    139b:	41 88 87 da 00 00 00 	mov    BYTE PTR [r15+0xda],al
    13a2:	4c 89 7d 98          	mov    QWORD PTR [rbp-0x68],r15
    13a6:	e9 e9 fd ff ff       	jmp    0x1194
    13ab:	49 bf 09 80 59 55 55 	movabs r15,0x555555598009
    13b2:	55 00 00 
    13b5:	4d 8d 6d f8          	lea    r13,[r13-0x8]
    13b9:	4d 89 7d 00          	mov    QWORD PTR [r13+0x0],r15
    13bd:	e9 c7 ec ff ff       	jmp    0x89
    13c2:	48 d1 e0             	shl    rax,1
    13c5:	48 d1 e8             	shr    rax,1
    13c8:	8b 30                	mov    esi,DWORD PTR [rax]
    13ca:	83 fe 04             	cmp    esi,0x4
    13cd:	0f 84 a5 fd ff ff    	je     0x1178
    13d3:	49 8b 45 28          	mov    rax,QWORD PTR [r13+0x28]
    13d7:	48 d1 e0             	shl    rax,1
    13da:	48 d1 e8             	shr    rax,1
    13dd:	80 48 09 02          	or     BYTE PTR [rax+0x9],0x2
    13e1:	49 bf 24 80 59 55 55 	movabs r15,0x555555598024
    13e8:	55 00 00 
    13eb:	49 8d 97 dc 62 05 00 	lea    rdx,[r15+0x562dc]
    13f2:	4c 8b 7d 98          	mov    r15,QWORD PTR [rbp-0x68]
    13f6:	4c 89 ff             	mov    rdi,r15
    13f9:	49 be 2c 80 59 55 55 	movabs r14,0x55555559802c
    1400:	55 00 00 
    1403:	4d 8d 6d f8          	lea    r13,[r13-0x8]
    1407:	4d 89 75 00          	mov    QWORD PTR [r13+0x0],r14
    140b:	4c 89 7d 98          	mov    QWORD PTR [rbp-0x68],r15
    140f:	e9 ed 2e 00 00       	jmp    0x4301
    1414:	48 c7 c0 ff ff ff ff 	mov    rax,0xffffffffffffffff
    141b:	e9 99 02 00 00       	jmp    0x16b9
    1420:	49 bf 3d 80 59 55 55 	movabs r15,0x55555559803d
    1427:	55 00 00 
    142a:	4d 8d 6d f8          	lea    r13,[r13-0x8]
    142e:	4d 89 7d 00          	mov    QWORD PTR [r13+0x0],r15
    1432:	e9 52 ec ff ff       	jmp    0x89
    1437:	48 d1 e0             	shl    rax,1
    143a:	48 d1 e8             	shr    rax,1
    143d:	8b 30                	mov    esi,DWORD PTR [rax]
    143f:	83 fe 04             	cmp    esi,0x4
    1442:	0f 84 4c fd ff ff    	je     0x1194
    1448:	49 8b 45 28          	mov    rax,QWORD PTR [r13+0x28]
    144c:	48 d1 e0             	shl    rax,1
    144f:	48 d1 e8             	shr    rax,1
    1452:	80 48 09 02          	or     BYTE PTR [rax+0x9],0x2
    1456:	49 bf 58 80 59 55 55 	movabs r15,0x555555598058
    145d:	55 00 00 
    1460:	49 8d 97 fa 87 05 00 	lea    rdx,[r15+0x587fa]
    1467:	4c 8b 7d 98          	mov    r15,QWORD PTR [rbp-0x68]
    146b:	4c 89 ff             	mov    rdi,r15
    146e:	49 be 60 80 59 55 55 	movabs r14,0x555555598060
    1475:	55 00 00 
    1478:	4d 8d 6d f8          	lea    r13,[r13-0x8]
    147c:	4d 89 75 00          	mov    QWORD PTR [r13+0x0],r14
    1480:	4c 89 7d 98          	mov    QWORD PTR [rbp-0x68],r15
    1484:	e9 78 2e 00 00       	jmp    0x4301
    1489:	48 c7 c0 ff ff ff ff 	mov    rax,0xffffffffffffffff
    1490:	e9 24 02 00 00       	jmp    0x16b9
    1495:	4c 8b 7d b0          	mov    r15,QWORD PTR [rbp-0x50]
    1499:	4c 89 fe             	mov    rsi,r15
    149c:	48 29 de             	sub    rsi,rbx
    149f:	49 8d 7d 40          	lea    rdi,[r13+0x40]
    14a3:	49 be 7c 80 59 55 55 	movabs r14,0x55555559807c
    14aa:	55 00 00 
    14ad:	4d 8d 6d f8          	lea    r13,[r13-0x8]
    14b1:	4d 89 75 00          	mov    QWORD PTR [r13+0x0],r14
    14b5:	4c 89 7d b0          	mov    QWORD PTR [rbp-0x50],r15
    14b9:	e9 0b 30 00 00       	jmp    0x44c9
    14be:	4c 8b 7d a8          	mov    r15,QWORD PTR [rbp-0x58]
    14c2:	49 89 c7             	mov    r15,rax
    14c5:	48 85 c0             	test   rax,rax
    14c8:	4c 89 7d a8          	mov    QWORD PTR [rbp-0x58],r15
    14cc:	0f 84 da 00 00 00    	je     0x15ac
    14d2:	49 8b 45 18          	mov    rax,QWORD PTR [r13+0x18]
    14d6:	48 8b 40 10          	mov    rax,QWORD PTR [rax+0x10]
    14da:	49 89 45 48          	mov    QWORD PTR [r13+0x48],rax
    14de:	49 8d 45 48          	lea    rax,[r13+0x48]
    14e2:	49 89 45 20          	mov    QWORD PTR [r13+0x20],rax
    14e6:	49 8b 45 18          	mov    rax,QWORD PTR [r13+0x18]
    14ea:	48 8b 40 38          	mov    rax,QWORD PTR [rax+0x38]
    14ee:	4c 8b 7d 98          	mov    r15,QWORD PTR [rbp-0x68]
    14f2:	41 8b 7f 18          	mov    edi,DWORD PTR [r15+0x18]
    14f6:	4c 8b 75 a8          	mov    r14,QWORD PTR [rbp-0x58]
    14fa:	4c 89 f1             	mov    rcx,r14
    14fd:	49 8b 55 20          	mov    rdx,QWORD PTR [r13+0x20]
    1501:	8b 30                	mov    esi,DWORD PTR [rax]
    1503:	4c 89 7d 98          	mov    QWORD PTR [rbp-0x68],r15
    1507:	49 bf b9 80 59 55 55 	movabs r15,0x5555555980b9
    150e:	55 00 00 
    1511:	4d 8d 6d f8          	lea    r13,[r13-0x8]
    1515:	4d 89 7d 00          	mov    QWORD PTR [r13+0x0],r15
    1519:	4c 89 75 a8          	mov    QWORD PTR [rbp-0x58],r14
    151d:	e9 db 2c 00 00       	jmp    0x41fd
    1522:	48 83 f8 ff          	cmp    rax,0xffffffffffffffff
    1526:	0f 85 a3 00 00 00    	jne    0x15cf
    152c:	49 bf c4 80 59 55 55 	movabs r15,0x5555555980c4
    1533:	55 00 00 
    1536:	4d 8d 6d f8          	lea    r13,[r13-0x8]
    153a:	4d 89 7d 00          	mov    QWORD PTR [r13+0x0],r15
    153e:	e9 46 eb ff ff       	jmp    0x89
    1543:	48 d1 e0             	shl    rax,1
    1546:	48 d1 e8             	shr    rax,1
    1549:	8b 30                	mov    esi,DWORD PTR [rax]
    154b:	83 fe 04             	cmp    esi,0x4
    154e:	74 96                	je     0x14e6
    1550:	83 fe 0b             	cmp    esi,0xb
    1553:	0f 84 33 01 00 00    	je     0x168c
    1559:	4c 8b 7d 98          	mov    r15,QWORD PTR [rbp-0x68]
    155d:	49 d1 e7             	shl    r15,1
    1560:	49 d1 ef             	shr    r15,1
    1563:	49 8b 47 10          	mov    rax,QWORD PTR [r15+0x10]
    1567:	48 d1 e0             	shl    rax,1
    156a:	48 d1 e8             	shr    rax,1
    156d:	80 48 09 02          	or     BYTE PTR [rax+0x9],0x2
    1571:	49 be e4 80 59 55 55 	movabs r14,0x5555555980e4
    1578:	55 00 00 
    157b:	49 8d 96 8a 87 05 00 	lea    rdx,[r14+0x5878a]
    1582:	4c 89 ff             	mov    rdi,r15
    1585:	49 be ec 80 59 55 55 	movabs r14,0x5555555980ec
    158c:	55 00 00 
    158f:	4d 8d 6d f8          	lea    r13,[r13-0x8]
    1593:	4d 89 75 00          	mov    QWORD PTR [r13+0x0],r14
    1597:	4c 89 7d 98          	mov    QWORD PTR [rbp-0x68],r15
    159b:	e9 61 2d 00 00       	jmp    0x4301
    15a0:	48 c7 c0 ff ff ff ff 	mov    rax,0xffffffffffffffff
    15a7:	e9 0d 01 00 00       	jmp    0x16b9
    15ac:	49 bf fd 80 59 55 55 	movabs r15,0x5555555980fd
    15b3:	55 00 00 
    15b6:	4d 8d 6d f8          	lea    r13,[r13-0x8]
    15ba:	4d 89 7d 00          	mov    QWORD PTR [r13+0x0],r15
    15be:	e9 aa 2e 00 00       	jmp    0x446d
    15c3:	48 c7 c0 ff ff ff ff 	mov    rax,0xffffffffffffffff
    15ca:	e9 ea 00 00 00       	jmp    0x16b9
    15cf:	48 85 c0             	test   rax,rax
    15d2:	74 27                	je     0x15fb
    15d4:	48 83 f8 fc          	cmp    rax,0xfffffffffffffffc
    15d8:	0f 84 a9 00 00 00    	je     0x1687
    15de:	48 83 f8 fe          	cmp    rax,0xfffffffffffffffe
    15e2:	0f 84 a4 00 00 00    	je     0x168c
    15e8:	4c 8b 7d a8          	mov    r15,QWORD PTR [rbp-0x58]
    15ec:	49 01 df             	add    r15,rbx
    15ef:	48 89 c3             	mov    rbx,rax
    15f2:	4c 89 7d a8          	mov    QWORD PTR [rbp-0x58],r15
    15f6:	e9 0a fc ff ff       	jmp    0x1205
    15fb:	4c 8b 7d 98          	mov    r15,QWORD PTR [rbp-0x68]
    15ff:	49 d1 e7             	shl    r15,1
    1602:	49 d1 ef             	shr    r15,1
    1605:	49 8b 77 50          	mov    rsi,QWORD PTR [r15+0x50]
    1609:	48 d1 e6             	shl    rsi,1
    160c:	48 d1 ee             	shr    rsi,1
    160f:	48 83 3e 01          	cmp    QWORD PTR [rsi],0x1
    1613:	4c 89 7d 98          	mov    QWORD PTR [rbp-0x68],r15
    1617:	76 87                	jbe    0x15a0
    1619:	49 8b 4d 18          	mov    rcx,QWORD PTR [r13+0x18]
    161d:	48 8b 41 38          	mov    rax,QWORD PTR [rcx+0x38]
    1621:	4c 8b 49 10          	mov    r9,QWORD PTR [rcx+0x10]
    1625:	4c 8b 40 10          	mov    r8,QWORD PTR [rax+0x10]
    1629:	49 bf 48 81 59 55 55 	movabs r15,0x555555598148
    1630:	55 00 00 
    1633:	49 8d 8f d8 86 05 00 	lea    rcx,[r15+0x586d8]
    163a:	ba 00 00 00 00       	mov    edx,0x0
    163f:	bf 02 00 00 00       	mov    edi,0x2
    1644:	b8 00 00 00 00       	mov    eax,0x0
    1649:	49 bf 5c 81 59 55 55 	movabs r15,0x55555559815c
    1650:	55 00 00 
    1653:	4d 8d 6d f8          	lea    r13,[r13-0x8]
    1657:	4d 89 7d 00          	mov    QWORD PTR [r13+0x0],r15
    165b:	e9 57 2d 00 00       	jmp    0x43b7
    1660:	e9 3b ff ff ff       	jmp    0x15a0
    1665:	4c 8b 7d a8          	mov    r15,QWORD PTR [rbp-0x58]
    1669:	4d 8b 7d 10          	mov    r15,QWORD PTR [r13+0x10]
    166d:	49 01 df             	add    r15,rbx
    1670:	4c 89 7d a8          	mov    QWORD PTR [rbp-0x58],r15
    1674:	e9 ff fb ff ff       	jmp    0x1278
    1679:	4c 89 e0             	mov    rax,r12
    167c:	eb 3b                	jmp    0x16b9
    167e:	48 c7 c0 ff ff ff ff 	mov    rax,0xffffffffffffffff
    1685:	eb 32                	jmp    0x16b9
    1687:	4c 89 e0             	mov    rax,r12
    168a:	eb 2d                	jmp    0x16b9
    168c:	be 00 00 00 00       	mov    esi,0x0
    1691:	4c 89 e7             	mov    rdi,r12
    1694:	49 bf 8b 81 59 55 55 	movabs r15,0x55555559818b
    169b:	55 00 00 
    169e:	4d 8d 6d f8          	lea    r13,[r13-0x8]
    16a2:	4d 89 7d 00          	mov    QWORD PTR [r13+0x0],r15
    16a6:	e9 68 2a 00 00       	jmp    0x4113
    16ab:	49 8b 4d 28          	mov    rcx,QWORD PTR [r13+0x28]
    16af:	48 d1 e1             	shl    rcx,1
    16b2:	48 d1 e9             	shr    rcx,1
    16b5:	80 61 08 df          	and    BYTE PTR [rcx+0x8],0xdf
    16b9:	49 8b 8d 78 04 00 00 	mov    rcx,QWORD PTR [r13+0x478]
    16c0:	4c 8b 7d 88          	mov    r15,QWORD PTR [rbp-0x78]
    16c4:	49 d1 e7             	shl    r15,1
    16c7:	49 d1 ef             	shr    r15,1
    16ca:	49 33 4f 28          	xor    rcx,QWORD PTR [r15+0x28]
    16ce:	75 67                	jne    0x1737
    16d0:	49 81 c5 88 04 00 00 	add    r13,0x488
    16d7:	49 8b 5d 00          	mov    rbx,QWORD PTR [r13+0x0]
    16db:	4d 8d 6d 08          	lea    r13,[r13+0x8]
    16df:	4d 8b 65 00          	mov    r12,QWORD PTR [r13+0x0]
    16e3:	4d 8d 6d 08          	lea    r13,[r13+0x8]
    16e7:	4c 8b 7d 98          	mov    r15,QWORD PTR [rbp-0x68]
    16eb:	4d 8b 7d 00          	mov    r15,QWORD PTR [r13+0x0]
    16ef:	4d 8d 6d 08          	lea    r13,[r13+0x8]
    16f3:	4c 8b 75 a0          	mov    r14,QWORD PTR [rbp-0x60]
    16f7:	4d 8b 75 00          	mov    r14,QWORD PTR [r13+0x0]
    16fb:	4d 8d 6d 08          	lea    r13,[r13+0x8]
    16ff:	4c 89 7d 98          	mov    QWORD PTR [rbp-0x68],r15
    1703:	4c 8b 7d a8          	mov    r15,QWORD PTR [rbp-0x58]
    1707:	4d 8b 7d 00          	mov    r15,QWORD PTR [r13+0x0]
    170b:	4d 8d 6d 08          	lea    r13,[r13+0x8]
    170f:	4c 89 7d a8          	mov    QWORD PTR [rbp-0x58],r15
    1713:	4c 8b 7d b0          	mov    r15,QWORD PTR [rbp-0x50]
    1717:	4d 8b 7d 00          	mov    r15,QWORD PTR [r13+0x0]
    171b:	4d 8d 6d 08          	lea    r13,[r13+0x8]
    171f:	4c 89 7d b0          	mov    QWORD PTR [rbp-0x50],r15
    1723:	4d 8b 7d 00          	mov    r15,QWORD PTR [r13+0x0]
    1727:	4d 8d 6d 08          	lea    r13,[r13+0x8]
    172b:	4c 89 75 a0          	mov    QWORD PTR [rbp-0x60],r14
    172f:	4d 89 fe             	mov    r14,r15
    1732:	e9 75 28 00 00       	jmp    0x3fac
    1737:	49 bf be 81 59 55 55 	movabs r15,0x5555555981be
    173e:	55 00 00 
    1741:	4d 8d 6d f8          	lea    r13,[r13-0x8]
    1745:	4d 89 7d 00          	mov    QWORD PTR [r13+0x0],r15
    1749:	e9 5d 29 00 00       	jmp    0x40ab
    174e:	90                   	nop
    174f:	4d 8b 7d 00          	mov    r15,QWORD PTR [r13+0x0]
    1753:	4d 8d 6d 08          	lea    r13,[r13+0x8]
    1757:	4d 89 fe             	mov    r14,r15
    175a:	e9 5c 28 00 00       	jmp    0x3fbb
    175f:	48 d1 e3             	shl    rbx,1
    1762:	48 d1 eb             	shr    rbx,1
    1765:	48 8b 83 58 04 00 00 	mov    rax,QWORD PTR [rbx+0x458]
    176c:	48 8d 04 45 00 00 00 	lea    rax,[rax*2+0x0]
    1773:	00 
    1774:	49 8d 34 c4          	lea    rsi,[r12+rax*8]
    1778:	48 d1 e6             	shl    rsi,1
    177b:	48 d1 ee             	shr    rsi,1
    177e:	48 8b 06             	mov    rax,QWORD PTR [rsi]
    1781:	48 85 c0             	test   rax,rax
    1784:	74 22                	je     0x17a8
    1786:	48 89 df             	mov    rdi,rbx
    1789:	49 bf e4 b0 59 55 55 	movabs r15,0x55555559b0e4
    1790:	55 00 00 
    1793:	4d 8d 6d f8          	lea    r13,[r13-0x8]
    1797:	4d 89 7d 00          	mov    QWORD PTR [r13+0x0],r15
    179b:	49 89 c6             	mov    r14,rax
    179e:	e9 27 28 00 00       	jmp    0x3fca
    17a3:	48 85 c0             	test   rax,rax
    17a6:	75 b7                	jne    0x175f
    17a8:	49 83 c5 08          	add    r13,0x8
    17ac:	49 8b 5d 00          	mov    rbx,QWORD PTR [r13+0x0]
    17b0:	4d 8d 6d 08          	lea    r13,[r13+0x8]
    17b4:	4d 8b 65 00          	mov    r12,QWORD PTR [r13+0x0]
    17b8:	4d 8d 6d 08          	lea    r13,[r13+0x8]
    17bc:	4d 8b 7d 00          	mov    r15,QWORD PTR [r13+0x0]
    17c0:	4d 8d 6d 08          	lea    r13,[r13+0x8]
    17c4:	4d 89 fe             	mov    r14,r15
    17c7:	e9 0f 25 00 00       	jmp    0x3cdb
    17cc:	49 83 c5 08          	add    r13,0x8
    17d0:	4d 8b 7d 00          	mov    r15,QWORD PTR [r13+0x0]
    17d4:	4d 8d 6d 08          	lea    r13,[r13+0x8]
    17d8:	4d 89 fe             	mov    r14,r15
    17db:	e9 d9 24 00 00       	jmp    0x3cb9
    17e0:	49 8b 4d 28          	mov    rcx,QWORD PTR [r13+0x28]
    17e4:	4c 8b 7d 88          	mov    r15,QWORD PTR [rbp-0x78]
    17e8:	49 d1 e7             	shl    r15,1
    17eb:	49 d1 ef             	shr    r15,1
    17ee:	49 33 4f 28          	xor    rcx,QWORD PTR [r15+0x28]
    17f2:	75 2b                	jne    0x181f
    17f4:	49 83 c5 38          	add    r13,0x38
    17f8:	49 8b 5d 00          	mov    rbx,QWORD PTR [r13+0x0]
    17fc:	4d 8d 6d 08          	lea    r13,[r13+0x8]
    1800:	4d 8b 65 00          	mov    r12,QWORD PTR [r13+0x0]
    1804:	4d 8d 6d 08          	lea    r13,[r13+0x8]
    1808:	4d 8b 7d 00          	mov    r15,QWORD PTR [r13+0x0]
    180c:	4d 8d 6d 08          	lea    r13,[r13+0x8]
    1810:	4d 89 fe             	mov    r14,r15
    1813:	e9 c2 23 00 00       	jmp    0x3bda
    1818:	b8 00 00 00 00       	mov    eax,0x0
    181d:	eb c1                	jmp    0x17e0
    181f:	49 bf 04 0c 5a 55 55 	movabs r15,0x5555555a0c04
    1826:	55 00 00 
    1829:	4d 8d 6d f8          	lea    r13,[r13-0x8]
    182d:	4d 89 7d 00          	mov    QWORD PTR [r13+0x0],r15
    1831:	e9 75 28 00 00       	jmp    0x40ab
    1836:	90                   	nop
    1837:	4d 8d 6d f8          	lea    r13,[r13-0x8]
    183b:	49 89 5d 00          	mov    QWORD PTR [r13+0x0],rbx
    183f:	49 83 ed 30          	sub    r13,0x30
    1843:	48 89 fb             	mov    rbx,rdi
    1846:	4c 8b 7d 88          	mov    r15,QWORD PTR [rbp-0x78]
    184a:	49 d1 e7             	shl    r15,1
    184d:	49 d1 ef             	shr    r15,1
    1850:	49 8b 47 28          	mov    rax,QWORD PTR [r15+0x28]
    1854:	49 89 45 28          	mov    QWORD PTR [r13+0x28],rax
    1858:	31 c0                	xor    eax,eax
    185a:	48 d1 e7             	shl    rdi,1
    185d:	48 d1 ef             	shr    rdi,1
    1860:	48 83 bf 70 01 00 00 	cmp    QWORD PTR [rdi+0x170],0x0
    1867:	00 
    1868:	75 14                	jne    0x187e
    186a:	48 d1 e7             	shl    rdi,1
    186d:	48 d1 ef             	shr    rdi,1
    1870:	48 83 bf 78 01 00 00 	cmp    QWORD PTR [rdi+0x178],0x0
    1877:	00 
    1878:	0f 85 58 02 00 00    	jne    0x1ad6
    187e:	48 d1 e3             	shl    rbx,1
    1881:	48 d1 eb             	shr    rbx,1
    1884:	48 8b 83 38 01 00 00 	mov    rax,QWORD PTR [rbx+0x138]
    188b:	48 85 c0             	test   rax,rax
    188e:	0f 84 bb 00 00 00    	je     0x194f
    1894:	48 d1 e0             	shl    rax,1
    1897:	48 d1 e8             	shr    rax,1
    189a:	48 8b 50 18          	mov    rdx,QWORD PTR [rax+0x18]
    189e:	48 8b 48 20          	mov    rcx,QWORD PTR [rax+0x20]
    18a2:	49 89 55 10          	mov    QWORD PTR [r13+0x10],rdx
    18a6:	49 89 4d 18          	mov    QWORD PTR [r13+0x18],rcx
    18aa:	48 83 fa 05          	cmp    rdx,0x5
    18ae:	0f 86 bf 00 00 00    	jbe    0x1973
    18b4:	ba 06 00 00 00       	mov    edx,0x6
    18b9:	49 bf 70 0c 5a 55 55 	movabs r15,0x5555555a0c70
    18c0:	55 00 00 
    18c3:	49 8d b7 e5 01 05 00 	lea    rsi,[r15+0x501e5]
    18ca:	48 89 cf             	mov    rdi,rcx
    18cd:	49 bf 78 0c 5a 55 55 	movabs r15,0x5555555a0c78
    18d4:	55 00 00 
    18d7:	4d 8d 6d f8          	lea    r13,[r13-0x8]
    18db:	4d 89 7d 00          	mov    QWORD PTR [r13+0x0],r15
    18df:	e9 e5 28 00 00       	jmp    0x41c9
    18e4:	48 85 c0             	test   rax,rax
    18e7:	0f 85 86 00 00 00    	jne    0x1973
    18ed:	49 8b 45 10          	mov    rax,QWORD PTR [r13+0x10]
    18f1:	48 83 e8 06          	sub    rax,0x6
    18f5:	49 89 45 10          	mov    QWORD PTR [r13+0x10],rax
    18f9:	49 83 45 18 06       	add    QWORD PTR [r13+0x18],0x6
    18fe:	48 85 c0             	test   rax,rax
    1901:	74 28                	je     0x192b
    1903:	49 8b 55 18          	mov    rdx,QWORD PTR [r13+0x18]
    1907:	48 d1 e2             	shl    rdx,1
    190a:	48 d1 ea             	shr    rdx,1
    190d:	80 3a 20             	cmp    BYTE PTR [rdx],0x20
    1910:	0f 85 81 00 00 00    	jne    0x1997
    1916:	48 83 e8 01          	sub    rax,0x1
    191a:	49 89 45 10          	mov    QWORD PTR [r13+0x10],rax
    191e:	48 83 c2 01          	add    rdx,0x1
    1922:	49 89 55 18          	mov    QWORD PTR [r13+0x18],rdx
    1926:	48 85 c0             	test   rax,rax
    1929:	75 d8                	jne    0x1903
    192b:	49 bf be 0c 5a 55 55 	movabs r15,0x5555555a0cbe
    1932:	55 00 00 
    1935:	49 8d 87 b6 3b 05 00 	lea    rax,[r15+0x53bb6]
    193c:	48 89 83 78 01 00 00 	mov    QWORD PTR [rbx+0x178],rax
    1943:	48 c7 c0 fb ff ff ff 	mov    rax,0xfffffffffffffffb
    194a:	e9 57 01 00 00       	jmp    0x1aa6
    194f:	49 bf d8 0c 5a 55 55 	movabs r15,0x5555555a0cd8
    1956:	55 00 00 
    1959:	49 8d 87 9c 3b 05 00 	lea    rax,[r15+0x53b9c]
    1960:	48 89 83 78 01 00 00 	mov    QWORD PTR [rbx+0x178],rax
    1967:	48 c7 c0 fb ff ff ff 	mov    rax,0xfffffffffffffffb
    196e:	e9 33 01 00 00       	jmp    0x1aa6
    1973:	49 bf f2 0c 5a 55 55 	movabs r15,0x5555555a0cf2
    197a:	55 00 00 
    197d:	49 8d 87 82 3b 05 00 	lea    rax,[r15+0x53b82]
    1984:	48 89 83 78 01 00 00 	mov    QWORD PTR [rbx+0x178],rax
    198b:	48 c7 c0 fb ff ff ff 	mov    rax,0xfffffffffffffffb
    1992:	e9 0f 01 00 00       	jmp    0x1aa6
    1997:	48 85 c0             	test   rax,rax
    199a:	74 8f                	je     0x192b
    199c:	48 83 c0 02          	add    rax,0x2
    19a0:	48 c1 e8 02          	shr    rax,0x2
    19a4:	48 8d 34 45 00 00 00 	lea    rsi,[rax*2+0x0]
    19ab:	00 
    19ac:	49 89 75 00          	mov    QWORD PTR [r13+0x0],rsi
    19b0:	48 83 c6 01          	add    rsi,0x1
    19b4:	48 8b 7b 58          	mov    rdi,QWORD PTR [rbx+0x58]
    19b8:	49 bf 27 0d 5a 55 55 	movabs r15,0x5555555a0d27
    19bf:	55 00 00 
    19c2:	4d 8d 6d f8          	lea    r13,[r13-0x8]
    19c6:	4d 89 7d 00          	mov    QWORD PTR [r13+0x0],r15
    19ca:	e9 b0 28 00 00       	jmp    0x427f
    19cf:	49 89 45 08          	mov    QWORD PTR [r13+0x8],rax
    19d3:	48 85 c0             	test   rax,rax
    19d6:	0f 84 03 01 00 00    	je     0x1adf
    19dc:	49 8d 75 10          	lea    rsi,[r13+0x10]
    19e0:	4c 89 ef             	mov    rdi,r13
    19e3:	49 bf 42 0d 5a 55 55 	movabs r15,0x5555555a0d42
    19ea:	55 00 00 
    19ed:	4d 8d 6d f8          	lea    r13,[r13-0x8]
    19f1:	4d 89 7d 00          	mov    QWORD PTR [r13+0x0],r15
    19f5:	e9 b5 27 00 00       	jmp    0x41af
    19fa:	48 85 c0             	test   rax,rax
    19fd:	75 4e                	jne    0x1a4d
    19ff:	49 8b 4d 08          	mov    rcx,QWORD PTR [r13+0x8]
    1a03:	49 8b 55 00          	mov    rdx,QWORD PTR [r13+0x0]
    1a07:	c6 04 11 00          	mov    BYTE PTR [rcx+rdx*1],0x0
    1a0b:	49 8b 4d 00          	mov    rcx,QWORD PTR [r13+0x0]
    1a0f:	48 85 c9             	test   rcx,rcx
    1a12:	74 18                	je     0x1a2c
    1a14:	49 8b 75 08          	mov    rsi,QWORD PTR [r13+0x8]
    1a18:	ba 00 00 00 00       	mov    edx,0x0
    1a1d:	80 3c 32 3a          	cmp    BYTE PTR [rdx+rsi*1],0x3a
    1a21:	74 4b                	je     0x1a6e
    1a23:	48 83 c2 01          	add    rdx,0x1
    1a27:	48 39 ca             	cmp    rdx,rcx
    1a2a:	75 f1                	jne    0x1a1d
    1a2c:	49 bf 7d 0d 5a 55 55 	movabs r15,0x5555555a0d7d
    1a33:	55 00 00 
    1a36:	49 8d 87 f7 3a 05 00 	lea    rax,[r15+0x53af7]
    1a3d:	48 89 83 78 01 00 00 	mov    QWORD PTR [rbx+0x178],rax
    1a44:	48 c7 c0 fb ff ff ff 	mov    rax,0xfffffffffffffffb
    1a4b:	eb 59                	jmp    0x1aa6
    1a4d:	49 bf 94 0d 5a 55 55 	movabs r15,0x5555555a0d94
    1a54:	55 00 00 
    1a57:	49 8d 87 e0 3a 05 00 	lea    rax,[r15+0x53ae0]
    1a5e:	48 89 83 78 01 00 00 	mov    QWORD PTR [rbx+0x178],rax
    1a65:	48 c7 c0 fb ff ff ff 	mov    rax,0xfffffffffffffffb
    1a6c:	eb 38                	jmp    0x1aa6
    1a6e:	48 39 d1             	cmp    rcx,rdx
    1a71:	74 b9                	je     0x1a2c
    1a73:	48 85 d2             	test   rdx,rdx
    1a76:	74 b4                	je     0x1a2c
    1a78:	48 d1 e3             	shl    rbx,1
    1a7b:	48 d1 eb             	shr    rbx,1
    1a7e:	48 89 93 70 01 00 00 	mov    QWORD PTR [rbx+0x170],rdx
    1a85:	48 89 b3 78 01 00 00 	mov    QWORD PTR [rbx+0x178],rsi
    1a8c:	48 83 e9 01          	sub    rcx,0x1
    1a90:	48 29 d1             	sub    rcx,rdx
    1a93:	48 89 8b 80 01 00 00 	mov    QWORD PTR [rbx+0x180],rcx
    1a9a:	48 8d 54 32 01       	lea    rdx,[rdx+rsi*1+0x1]
    1a9f:	48 89 93 88 01 00 00 	mov    QWORD PTR [rbx+0x188],rdx
    1aa6:	49 8b 5d 28          	mov    rbx,QWORD PTR [r13+0x28]
    1aaa:	4c 8b 7d 88          	mov    r15,QWORD PTR [rbp-0x78]
    1aae:	49 d1 e7             	shl    r15,1
    1ab1:	49 d1 ef             	shr    r15,1
    1ab4:	49 33 5f 28          	xor    rbx,QWORD PTR [r15+0x28]
    1ab8:	75 2e                	jne    0x1ae8
    1aba:	49 83 c5 30          	add    r13,0x30
    1abe:	49 8b 5d 00          	mov    rbx,QWORD PTR [r13+0x0]
    1ac2:	4d 8d 6d 08          	lea    r13,[r13+0x8]
    1ac6:	4d 8b 7d 00          	mov    r15,QWORD PTR [r13+0x0]
    1aca:	4d 8d 6d 08          	lea    r13,[r13+0x8]
    1ace:	4d 89 fe             	mov    r14,r15
    1ad1:	e9 a9 24 00 00       	jmp    0x3f7f
    1ad6:	48 c7 c0 fb ff ff ff 	mov    rax,0xfffffffffffffffb
    1add:	eb c7                	jmp    0x1aa6
    1adf:	48 c7 c0 ff ff ff ff 	mov    rax,0xffffffffffffffff
    1ae6:	eb be                	jmp    0x1aa6
    1ae8:	49 bf 03 0e 5a 55 55 	movabs r15,0x5555555a0e03
    1aef:	55 00 00 
    1af2:	4d 8d 6d f8          	lea    r13,[r13-0x8]
    1af6:	4d 89 7d 00          	mov    QWORD PTR [r13+0x0],r15
    1afa:	e9 ac 25 00 00       	jmp    0x40ab
    1aff:	90                   	nop
    1b00:	48 d1 e7             	shl    rdi,1
    1b03:	48 d1 ef             	shr    rdi,1
    1b06:	80 8f df 04 00 00 80 	or     BYTE PTR [rdi+0x4df],0x80
    1b0d:	48 39 bf 30 04 00 00 	cmp    QWORD PTR [rdi+0x430],rdi
    1b14:	0f 85 d3 06 00 00    	jne    0x21ed
    1b1a:	4d 8d 6d f8          	lea    r13,[r13-0x8]
    1b1e:	4c 8b 7d a8          	mov    r15,QWORD PTR [rbp-0x58]
    1b22:	4d 89 7d 00          	mov    QWORD PTR [r13+0x0],r15
    1b26:	4d 8d 6d f8          	lea    r13,[r13-0x8]
    1b2a:	4c 8b 75 a0          	mov    r14,QWORD PTR [rbp-0x60]
    1b2e:	4d 89 75 00          	mov    QWORD PTR [r13+0x0],r14
    1b32:	4d 8d 6d f8          	lea    r13,[r13-0x8]
    1b36:	4c 89 7d a8          	mov    QWORD PTR [rbp-0x58],r15
    1b3a:	4c 8b 7d 98          	mov    r15,QWORD PTR [rbp-0x68]
    1b3e:	4d 89 7d 00          	mov    QWORD PTR [r13+0x0],r15
    1b42:	4d 8d 6d f8          	lea    r13,[r13-0x8]
    1b46:	4d 89 65 00          	mov    QWORD PTR [r13+0x0],r12
    1b4a:	4d 8d 6d f8          	lea    r13,[r13-0x8]
    1b4e:	49 89 5d 00          	mov    QWORD PTR [r13+0x0],rbx
    1b52:	48 89 fb             	mov    rbx,rdi
    1b55:	48 d1 e7             	shl    rdi,1
    1b58:	48 d1 ef             	shr    rdi,1
    1b5b:	48 8b 87 28 01 00 00 	mov    rax,QWORD PTR [rdi+0x128]
    1b62:	48 85 c0             	test   rax,rax
    1b65:	4c 89 7d 98          	mov    QWORD PTR [rbp-0x68],r15
    1b69:	4c 89 75 a0          	mov    QWORD PTR [rbp-0x60],r14
    1b6d:	0f 84 94 06 00 00    	je     0x2207
    1b73:	4c 8b 7d 98          	mov    r15,QWORD PTR [rbp-0x68]
    1b77:	48 d1 e0             	shl    rax,1
    1b7a:	48 d1 e8             	shr    rax,1
    1b7d:	4c 8b 78 18          	mov    r15,QWORD PTR [rax+0x18]
    1b81:	49 83 ff 02          	cmp    r15,0x2
    1b85:	4c 89 7d 98          	mov    QWORD PTR [rbp-0x68],r15
    1b89:	0f 86 84 06 00 00    	jbe    0x2213
    1b8f:	4c 8b 7d a0          	mov    r15,QWORD PTR [rbp-0x60]
    1b93:	4c 8b 78 20          	mov    r15,QWORD PTR [rax+0x20]
    1b97:	ba 05 00 00 00       	mov    edx,0x5
    1b9c:	49 be 54 0e 5a 55 55 	movabs r14,0x5555555a0e54
    1ba3:	55 00 00 
    1ba6:	49 8d b6 08 00 05 00 	lea    rsi,[r14+0x50008]
    1bad:	4c 89 ff             	mov    rdi,r15
    1bb0:	49 be 5c 0e 5a 55 55 	movabs r14,0x5555555a0e5c
    1bb7:	55 00 00 
    1bba:	4d 8d 6d f8          	lea    r13,[r13-0x8]
    1bbe:	4d 89 75 00          	mov    QWORD PTR [r13+0x0],r14
    1bc2:	4c 89 7d a0          	mov    QWORD PTR [rbp-0x60],r15
    1bc6:	e9 6a 27 00 00       	jmp    0x4335
    1bcb:	85 c0                	test   eax,eax
    1bcd:	0f 85 26 02 00 00    	jne    0x1df9
    1bd3:	48 d1 e3             	shl    rbx,1
    1bd6:	48 d1 eb             	shr    rbx,1
    1bd9:	48 8b 43 28          	mov    rax,QWORD PTR [rbx+0x28]
    1bdd:	49 bf 6f 0e 5a 55 55 	movabs r15,0x5555555a0e6f
    1be4:	55 00 00 
    1be7:	49 8b 97 b1 df 06 00 	mov    rdx,QWORD PTR [r15+0x6dfb1]
    1bee:	48 d1 e0             	shl    rax,1
    1bf1:	48 d1 e8             	shr    rax,1
    1bf4:	4c 8b 24 d0          	mov    r12,QWORD PTR [rax+rdx*8]
    1bf8:	f6 83 d8 01 00 00 10 	test   BYTE PTR [rbx+0x1d8],0x10
    1bff:	74 0c                	je     0x1c0d
    1c01:	41 f6 44 24 18 c0    	test   BYTE PTR [r12+0x18],0xc0
    1c07:	0f 85 42 06 00 00    	jne    0x224f
    1c0d:	49 8b 84 24 30 02 00 	mov    rax,QWORD PTR [r12+0x230]
    1c14:	00 
    1c15:	48 d1 e3             	shl    rbx,1
    1c18:	48 d1 eb             	shr    rbx,1
    1c1b:	48 39 83 a0 03 00 00 	cmp    QWORD PTR [rbx+0x3a0],rax
    1c22:	0f 82 33 06 00 00    	jb     0x225b
    1c28:	48 d1 e3             	shl    rbx,1
    1c2b:	48 d1 eb             	shr    rbx,1
    1c2e:	48 83 bb 30 01 00 00 	cmp    QWORD PTR [rbx+0x130],0x0
    1c35:	00 
    1c36:	0f 84 00 01 00 00    	je     0x1d3c
    1c3c:	4c 8b 7d 98          	mov    r15,QWORD PTR [rbp-0x68]
    1c40:	4d 8b bc 24 38 02 00 	mov    r15,QWORD PTR [r12+0x238]
    1c47:	00 
    1c48:	41 f6 c7 02          	test   r15b,0x2
    1c4c:	4c 89 7d 98          	mov    QWORD PTR [rbp-0x68],r15
    1c50:	0f 85 11 06 00 00    	jne    0x2267
    1c56:	4c 8b 7d 98          	mov    r15,QWORD PTR [rbp-0x68]
    1c5a:	41 f7 c7 00 02 00 00 	test   r15d,0x200
    1c61:	4c 89 7d 98          	mov    QWORD PTR [rbp-0x68],r15
    1c65:	0f 85 d1 00 00 00    	jne    0x1d3c
    1c6b:	48 d1 e3             	shl    rbx,1
    1c6e:	48 d1 eb             	shr    rbx,1
    1c71:	48 83 bb 38 01 00 00 	cmp    QWORD PTR [rbx+0x138],0x0
    1c78:	00 
    1c79:	74 15                	je     0x1c90
    1c7b:	4c 8b 7d 98          	mov    r15,QWORD PTR [rbp-0x68]
    1c7f:	41 f7 c7 00 01 00 00 	test   r15d,0x100
    1c86:	4c 89 7d 98          	mov    QWORD PTR [rbp-0x68],r15
    1c8a:	0f 85 ac 00 00 00    	jne    0x1d3c
    1c90:	48 d1 e3             	shl    rbx,1
    1c93:	48 d1 eb             	shr    rbx,1
    1c96:	48 8b 83 b8 02 00 00 	mov    rax,QWORD PTR [rbx+0x2b8]
    1c9d:	48 85 c0             	test   rax,rax
    1ca0:	0f 84 c5 03 00 00    	je     0x206b
    1ca6:	4c 8b 7d 98          	mov    r15,QWORD PTR [rbp-0x68]
    1caa:	41 f6 c7 04          	test   r15b,0x4
    1cae:	4c 89 7d 98          	mov    QWORD PTR [rbp-0x68],r15
    1cb2:	0f 84 bb 05 00 00    	je     0x2273
    1cb8:	48 8b 70 18          	mov    rsi,QWORD PTR [rax+0x18]
    1cbc:	48 8b 78 20          	mov    rdi,QWORD PTR [rax+0x20]
    1cc0:	49 bf fc 0e 5a 55 55 	movabs r15,0x5555555a0efc
    1cc7:	55 00 00 
    1cca:	4d 8d 6d f8          	lea    r13,[r13-0x8]
    1cce:	4d 89 7d 00          	mov    QWORD PTR [r13+0x0],r15
    1cd2:	e9 10 26 00 00       	jmp    0x42e7
    1cd7:	4c 8b 7d 98          	mov    r15,QWORD PTR [rbp-0x68]
    1cdb:	49 89 c7             	mov    r15,rax
    1cde:	48 83 f8 ff          	cmp    rax,0xffffffffffffffff
    1ce2:	4c 89 7d 98          	mov    QWORD PTR [rbp-0x68],r15
    1ce6:	0f 84 93 05 00 00    	je     0x227f
    1cec:	48 d1 e3             	shl    rbx,1
    1cef:	48 d1 eb             	shr    rbx,1
    1cf2:	48 8b 83 70 02 00 00 	mov    rax,QWORD PTR [rbx+0x270]
    1cf9:	48 85 c0             	test   rax,rax
    1cfc:	0f 84 44 03 00 00    	je     0x2046
    1d02:	48 8b 70 18          	mov    rsi,QWORD PTR [rax+0x18]
    1d06:	48 8b 78 20          	mov    rdi,QWORD PTR [rax+0x20]
    1d0a:	49 bf 26 0f 5a 55 55 	movabs r15,0x5555555a0f26
    1d11:	55 00 00 
    1d14:	4d 8d 6d f8          	lea    r13,[r13-0x8]
    1d18:	4d 89 7d 00          	mov    QWORD PTR [r13+0x0],r15
    1d1c:	e9 c6 25 00 00       	jmp    0x42e7
    1d21:	48 83 f8 ff          	cmp    rax,0xffffffffffffffff
    1d25:	0f 84 60 05 00 00    	je     0x228b
    1d2b:	4c 8b 7d 98          	mov    r15,QWORD PTR [rbp-0x68]
    1d2f:	4c 39 f8             	cmp    rax,r15
    1d32:	4c 89 7d 98          	mov    QWORD PTR [rbp-0x68],r15
    1d36:	0f 8e 23 03 00 00    	jle    0x205f
    1d3c:	49 8b bc 24 40 02 00 	mov    rdi,QWORD PTR [r12+0x240]
    1d43:	00 
    1d44:	48 85 ff             	test   rdi,rdi
    1d47:	74 4b                	je     0x1d94
    1d49:	48 d1 e3             	shl    rbx,1
    1d4c:	48 d1 eb             	shr    rbx,1
    1d4f:	48 8b b3 d0 00 00 00 	mov    rsi,QWORD PTR [rbx+0xd0]
    1d56:	48 85 f6             	test   rsi,rsi
    1d59:	74 39                	je     0x1d94
    1d5b:	48 d1 e3             	shl    rbx,1
    1d5e:	48 d1 eb             	shr    rbx,1
    1d61:	48 8b 43 08          	mov    rax,QWORD PTR [rbx+0x8]
    1d65:	48 d1 e0             	shl    rax,1
    1d68:	48 d1 e8             	shr    rax,1
    1d6b:	48 8b 50 50          	mov    rdx,QWORD PTR [rax+0x50]
    1d6f:	48 83 c6 18          	add    rsi,0x18
    1d73:	49 bf 62 0f 5a 55 55 	movabs r15,0x5555555a0f62
    1d7a:	55 00 00 
    1d7d:	4d 8d 6d f8          	lea    r13,[r13-0x8]
    1d81:	4d 89 7d 00          	mov    QWORD PTR [r13+0x0],r15
    1d85:	e9 6f 23 00 00       	jmp    0x40f9
    1d8a:	48 83 f8 fb          	cmp    rax,0xfffffffffffffffb
    1d8e:	0f 85 1b 05 00 00    	jne    0x22af
    1d94:	48 d1 e3             	shl    rbx,1
    1d97:	48 d1 eb             	shr    rbx,1
    1d9a:	80 8b e0 04 00 00 01 	or     BYTE PTR [rbx+0x4e0],0x1
    1da1:	ba 00 00 00 00       	mov    edx,0x0
    1da6:	48 89 d0             	mov    rax,rdx
    1da9:	49 8b 5d 00          	mov    rbx,QWORD PTR [r13+0x0]
    1dad:	4d 8d 6d 08          	lea    r13,[r13+0x8]
    1db1:	4d 8b 65 00          	mov    r12,QWORD PTR [r13+0x0]
    1db5:	4d 8d 6d 08          	lea    r13,[r13+0x8]
    1db9:	4c 8b 7d 98          	mov    r15,QWORD PTR [rbp-0x68]
    1dbd:	4d 8b 7d 00          	mov    r15,QWORD PTR [r13+0x0]
    1dc1:	4d 8d 6d 08          	lea    r13,[r13+0x8]
    1dc5:	4c 8b 75 a0          	mov    r14,QWORD PTR [rbp-0x60]
    1dc9:	4d 8b 75 00          	mov    r14,QWORD PTR [r13+0x0]
    1dcd:	4d 8d 6d 08          	lea    r13,[r13+0x8]
    1dd1:	4c 89 7d 98          	mov    QWORD PTR [rbp-0x68],r15
    1dd5:	4c 8b 7d a8          	mov    r15,QWORD PTR [rbp-0x58]
    1dd9:	4d 8b 7d 00          	mov    r15,QWORD PTR [r13+0x0]
    1ddd:	4d 8d 6d 08          	lea    r13,[r13+0x8]
    1de1:	4c 89 7d a8          	mov    QWORD PTR [rbp-0x58],r15
    1de5:	4d 8b 7d 00          	mov    r15,QWORD PTR [r13+0x0]
    1de9:	4d 8d 6d 08          	lea    r13,[r13+0x8]
    1ded:	4c 89 75 a0          	mov    QWORD PTR [rbp-0x60],r14
    1df1:	4d 89 fe             	mov    r14,r15
    1df4:	e9 a4 21 00 00       	jmp    0x3f9d
    1df9:	4c 8b 7d a0          	mov    r15,QWORD PTR [rbp-0x60]
    1dfd:	4d 89 fc             	mov    r12,r15
    1e00:	49 be 8e 0f 5a 55 55 	movabs r14,0x5555555a0f8e
    1e07:	55 00 00 
    1e0a:	4c 89 7d a0          	mov    QWORD PTR [rbp-0x60],r15
    1e0e:	4c 8b 7d a8          	mov    r15,QWORD PTR [rbp-0x58]
    1e12:	4d 8d be d4 fe 04 00 	lea    r15,[r14+0x4fed4]
    1e19:	4c 89 7d a8          	mov    QWORD PTR [rbp-0x58],r15
    1e1d:	eb 04                	jmp    0x1e23
    1e1f:	4c 8d 60 04          	lea    r12,[rax+0x4]
    1e23:	ba 03 00 00 00       	mov    edx,0x3
    1e28:	4c 8b 7d a8          	mov    r15,QWORD PTR [rbp-0x58]
    1e2c:	4c 89 fe             	mov    rsi,r15
    1e2f:	4c 89 e7             	mov    rdi,r12
    1e32:	49 be a4 0f 5a 55 55 	movabs r14,0x5555555a0fa4
    1e39:	55 00 00 
    1e3c:	4d 8d 6d f8          	lea    r13,[r13-0x8]
    1e40:	4d 89 75 00          	mov    QWORD PTR [r13+0x0],r14
    1e44:	4c 89 7d a8          	mov    QWORD PTR [rbp-0x58],r15
    1e48:	e9 e4 23 00 00       	jmp    0x4231
    1e4d:	48 85 c0             	test   rax,rax
    1e50:	0f 84 c9 03 00 00    	je     0x221f
    1e56:	49 39 c4             	cmp    r12,rax
    1e59:	74 14                	je     0x1e6f
    1e5b:	48 d1 e0             	shl    rax,1
    1e5e:	48 d1 e8             	shr    rax,1
    1e61:	0f b6 50 ff          	movzx  edx,BYTE PTR [rax-0x1]
    1e65:	80 fa 2c             	cmp    dl,0x2c
    1e68:	74 05                	je     0x1e6f
    1e6a:	80 fa 20             	cmp    dl,0x20
    1e6d:	75 b0                	jne    0x1e1f
    1e6f:	4c 8b 7d a0          	mov    r15,QWORD PTR [rbp-0x60]
    1e73:	4c 8b 75 98          	mov    r14,QWORD PTR [rbp-0x68]
    1e77:	4d 01 fe             	add    r14,r15
    1e7a:	48 83 c0 04          	add    rax,0x4
    1e7e:	4c 89 7d a0          	mov    QWORD PTR [rbp-0x60],r15
    1e82:	4c 89 75 98          	mov    QWORD PTR [rbp-0x68],r14
    1e86:	4c 8b 7d 98          	mov    r15,QWORD PTR [rbp-0x68]
    1e8a:	49 39 c7             	cmp    r15,rax
    1e8d:	4c 89 7d 98          	mov    QWORD PTR [rbp-0x68],r15
    1e91:	0f 86 3c fd ff ff    	jbe    0x1bd3
    1e97:	48 83 c0 01          	add    rax,0x1
    1e9b:	48 d1 e0             	shl    rax,1
    1e9e:	48 d1 e8             	shr    rax,1
    1ea1:	0f b6 50 ff          	movzx  edx,BYTE PTR [rax-0x1]
    1ea5:	80 fa 2c             	cmp    dl,0x2c
    1ea8:	0f 84 25 fd ff ff    	je     0x1bd3
    1eae:	80 fa 3b             	cmp    dl,0x3b
    1eb1:	0f 84 fb 00 00 00    	je     0x1fb2
    1eb7:	80 fa 20             	cmp    dl,0x20
    1eba:	74 ca                	je     0x1e86
    1ebc:	48 c7 c2 fb ff ff ff 	mov    rdx,0xfffffffffffffffb
    1ec3:	e9 de fe ff ff       	jmp    0x1da6
    1ec8:	48 8d 50 02          	lea    rdx,[rax+0x2]
    1ecc:	4c 8b 7d 98          	mov    r15,QWORD PTR [rbp-0x68]
    1ed0:	49 39 d7             	cmp    r15,rdx
    1ed3:	4c 89 7d 98          	mov    QWORD PTR [rbp-0x68],r15
    1ed7:	0f 82 4e 03 00 00    	jb     0x222b
    1edd:	48 d1 e1             	shl    rcx,1
    1ee0:	48 d1 e9             	shr    rcx,1
    1ee3:	80 39 3d             	cmp    BYTE PTR [rcx],0x3d
    1ee6:	0f 85 4b 03 00 00    	jne    0x2237
    1eec:	48 d1 e0             	shl    rax,1
    1eef:	48 d1 e8             	shr    rax,1
    1ef2:	0f b6 48 02          	movzx  ecx,BYTE PTR [rax+0x2]
    1ef6:	8d 71 d0             	lea    esi,[rcx-0x30]
    1ef9:	48 c7 c2 fb ff ff ff 	mov    rdx,0xfffffffffffffffb
    1f00:	40 80 fe 01          	cmp    sil,0x1
    1f04:	0f 87 9c fe ff ff    	ja     0x1da6
    1f0a:	0f b6 c9             	movzx  ecx,cl
    1f0d:	83 e9 30             	sub    ecx,0x30
    1f10:	6b c9 64             	imul   ecx,ecx,0x64
    1f13:	48 63 c9             	movsxd rcx,ecx
    1f16:	48 8d 50 02          	lea    rdx,[rax+0x2]
    1f1a:	4c 8b 7d 98          	mov    r15,QWORD PTR [rbp-0x68]
    1f1e:	49 39 d7             	cmp    r15,rdx
    1f21:	4c 89 7d 98          	mov    QWORD PTR [rbp-0x68],r15
    1f25:	0f 84 06 01 00 00    	je     0x2031
    1f2b:	48 d1 e0             	shl    rax,1
    1f2e:	48 d1 e8             	shr    rax,1
    1f31:	0f b6 70 02          	movzx  esi,BYTE PTR [rax+0x2]
    1f35:	40 80 fe 2c          	cmp    sil,0x2c
    1f39:	0f 84 f2 00 00 00    	je     0x2031
    1f3f:	40 80 fe 20          	cmp    sil,0x20
    1f43:	0f 84 e8 00 00 00    	je     0x2031
    1f49:	48 c7 c2 fb ff ff ff 	mov    rdx,0xfffffffffffffffb
    1f50:	40 80 fe 2e          	cmp    sil,0x2e
    1f54:	0f 85 4c fe ff ff    	jne    0x1da6
    1f5a:	48 8d 50 04          	lea    rdx,[rax+0x4]
    1f5e:	4c 8b 7d 98          	mov    r15,QWORD PTR [rbp-0x68]
    1f62:	49 39 d7             	cmp    r15,rdx
    1f65:	4c 89 7d 98          	mov    QWORD PTR [rbp-0x68],r15
    1f69:	0f 86 c2 00 00 00    	jbe    0x2031
    1f6f:	4c 8b 7d 98          	mov    r15,QWORD PTR [rbp-0x68]
    1f73:	49 83 ef 04          	sub    r15,0x4
    1f77:	49 29 c7             	sub    r15,rax
    1f7a:	be 00 00 00 00       	mov    esi,0x0
    1f7f:	4c 89 7d 98          	mov    QWORD PTR [rbp-0x68],r15
    1f83:	0f b6 54 30 04       	movzx  edx,BYTE PTR [rax+rsi*1+0x4]
    1f88:	80 fa 2c             	cmp    dl,0x2c
    1f8b:	0f 84 8c 00 00 00    	je     0x201d
    1f91:	80 fa 20             	cmp    dl,0x20
    1f94:	0f 84 83 00 00 00    	je     0x201d
    1f9a:	8d 7a d0             	lea    edi,[rdx-0x30]
    1f9d:	40 80 ff 09          	cmp    dil,0x9
    1fa1:	76 4e                	jbe    0x1ff1
    1fa3:	48 c7 c2 fb ff ff ff 	mov    rdx,0xfffffffffffffffb
    1faa:	e9 f7 fd ff ff       	jmp    0x1da6
    1faf:	48 89 c8             	mov    rax,rcx
    1fb2:	4c 8b 7d 98          	mov    r15,QWORD PTR [rbp-0x68]
    1fb6:	49 39 c7             	cmp    r15,rax
    1fb9:	4c 89 7d 98          	mov    QWORD PTR [rbp-0x68],r15
    1fbd:	0f 86 10 fc ff ff    	jbe    0x1bd3
    1fc3:	48 8d 48 01          	lea    rcx,[rax+0x1]
    1fc7:	48 d1 e1             	shl    rcx,1
    1fca:	48 d1 e9             	shr    rcx,1
    1fcd:	0f b6 51 ff          	movzx  edx,BYTE PTR [rcx-0x1]
    1fd1:	89 d6                	mov    esi,edx
    1fd3:	83 e6 df             	and    esi,0xffffffdf
    1fd6:	40 80 fe 51          	cmp    sil,0x51
    1fda:	0f 84 e8 fe ff ff    	je     0x1ec8
    1fe0:	80 fa 20             	cmp    dl,0x20
    1fe3:	74 ca                	je     0x1faf
    1fe5:	48 c7 c2 fb ff ff ff 	mov    rdx,0xfffffffffffffffb
    1fec:	e9 b5 fd ff ff       	jmp    0x1da6
    1ff1:	0f b6 d2             	movzx  edx,dl
    1ff4:	83 ea 30             	sub    edx,0x30
    1ff7:	48 63 d2             	movsxd rdx,edx
    1ffa:	48 01 d1             	add    rcx,rdx
    1ffd:	48 83 c6 01          	add    rsi,0x1
    2001:	4c 8b 7d 98          	mov    r15,QWORD PTR [rbp-0x68]
    2005:	4c 39 fe             	cmp    rsi,r15
    2008:	4c 89 7d 98          	mov    QWORD PTR [rbp-0x68],r15
    200c:	0f 85 71 ff ff ff    	jne    0x1f83
    2012:	4c 8b 7d 98          	mov    r15,QWORD PTR [rbp-0x68]
    2016:	4c 89 fe             	mov    rsi,r15
    2019:	4c 89 7d 98          	mov    QWORD PTR [rbp-0x68],r15
    201d:	48 83 f9 64          	cmp    rcx,0x64
    2021:	0f 87 1c 02 00 00    	ja     0x2243
    2027:	48 83 fe 02          	cmp    rsi,0x2
    202b:	0f 87 12 02 00 00    	ja     0x2243
    2031:	48 85 c9             	test   rcx,rcx
    2034:	0f 85 99 fb ff ff    	jne    0x1bd3
    203a:	48 c7 c2 fb ff ff ff 	mov    rdx,0xfffffffffffffffb
    2041:	e9 60 fd ff ff       	jmp    0x1da6
    2046:	49 bf 21 11 5a 55 55 	movabs r15,0x5555555a1121
    204d:	55 00 00 
    2050:	49 8b 87 1f ff 08 00 	mov    rax,QWORD PTR [r15+0x8ff1f]
    2057:	48 8b 00             	mov    rax,QWORD PTR [rax]
    205a:	e9 cc fc ff ff       	jmp    0x1d2b
    205f:	48 c7 c2 fb ff ff ff 	mov    rdx,0xfffffffffffffffb
    2066:	e9 3b fd ff ff       	jmp    0x1da6
    206b:	48 d1 e3             	shl    rbx,1
    206e:	48 d1 eb             	shr    rbx,1
    2071:	48 83 bb 08 03 00 00 	cmp    QWORD PTR [rbx+0x308],0x0
    2078:	00 
    2079:	0f 84 1a 01 00 00    	je     0x2199
    207f:	4c 8b 7d a0          	mov    r15,QWORD PTR [rbp-0x60]
    2083:	4c 8d bb 08 03 00 00 	lea    r15,[rbx+0x308]
    208a:	4c 8b 75 98          	mov    r14,QWORD PTR [rbp-0x68]
    208e:	41 f6 c6 08          	test   r14b,0x8
    2092:	4c 89 7d a0          	mov    QWORD PTR [rbp-0x60],r15
    2096:	4c 89 75 98          	mov    QWORD PTR [rbp-0x68],r14
    209a:	75 71                	jne    0x210d
    209c:	4c 8b 7d 98          	mov    r15,QWORD PTR [rbp-0x68]
    20a0:	41 f6 c7 10          	test   r15b,0x10
    20a4:	4c 89 7d 98          	mov    QWORD PTR [rbp-0x68],r15
    20a8:	0f 85 a5 00 00 00    	jne    0x2153
    20ae:	4c 8b 7d 98          	mov    r15,QWORD PTR [rbp-0x68]
    20b2:	41 f6 c7 20          	test   r15b,0x20
    20b6:	4c 89 7d 98          	mov    QWORD PTR [rbp-0x68],r15
    20ba:	0f 84 d7 01 00 00    	je     0x2297
    20c0:	ba 00 00 00 00       	mov    edx,0x0
    20c5:	49 bf 6c 11 5a 55 55 	movabs r15,0x5555555a116c
    20cc:	55 00 00 
    20cf:	49 8d b7 d4 dd 06 00 	lea    rsi,[r15+0x6ddd4]
    20d6:	4c 8b 7d a0          	mov    r15,QWORD PTR [rbp-0x60]
    20da:	4c 89 ff             	mov    rdi,r15
    20dd:	49 be 74 11 5a 55 55 	movabs r14,0x5555555a1174
    20e4:	55 00 00 
    20e7:	4d 8d 6d f8          	lea    r13,[r13-0x8]
    20eb:	4d 89 75 00          	mov    QWORD PTR [r13+0x0],r14
    20ef:	4c 89 7d a0          	mov    QWORD PTR [rbp-0x60],r15
    20f3:	e9 27 23 00 00       	jmp    0x441f
    20f8:	48 85 c0             	test   rax,rax
    20fb:	0f 89 3b fc ff ff    	jns    0x1d3c
    2101:	48 c7 c2 fb ff ff ff 	mov    rdx,0xfffffffffffffffb
    2108:	e9 99 fc ff ff       	jmp    0x1da6
    210d:	ba 00 00 00 00       	mov    edx,0x0
    2112:	49 bf 95 11 5a 55 55 	movabs r15,0x5555555a1195
    2119:	55 00 00 
    211c:	49 8d b7 cb dd 06 00 	lea    rsi,[r15+0x6ddcb]
    2123:	4c 8b 7d a0          	mov    r15,QWORD PTR [rbp-0x60]
    2127:	4c 89 ff             	mov    rdi,r15
    212a:	49 be 9d 11 5a 55 55 	movabs r14,0x5555555a119d
    2131:	55 00 00 
    2134:	4d 8d 6d f8          	lea    r13,[r13-0x8]
    2138:	4d 89 75 00          	mov    QWORD PTR [r13+0x0],r14
    213c:	4c 89 7d a0          	mov    QWORD PTR [rbp-0x60],r15
    2140:	e9 da 22 00 00       	jmp    0x441f
    2145:	48 85 c0             	test   rax,rax
    2148:	0f 88 4e ff ff ff    	js     0x209c
    214e:	e9 e9 fb ff ff       	jmp    0x1d3c
    2153:	ba 00 00 00 00       	mov    edx,0x0
    2158:	49 bf b3 11 5a 55 55 	movabs r15,0x5555555a11b3
    215f:	55 00 00 
    2162:	49 8d b7 9d dd 06 00 	lea    rsi,[r15+0x6dd9d]
    2169:	4c 8b 7d a0          	mov    r15,QWORD PTR [rbp-0x60]
    216d:	4c 89 ff             	mov    rdi,r15
    2170:	49 be bb 11 5a 55 55 	movabs r14,0x5555555a11bb
    2177:	55 00 00 
    217a:	4d 8d 6d f8          	lea    r13,[r13-0x8]
    217e:	4d 89 75 00          	mov    QWORD PTR [r13+0x0],r14
    2182:	4c 89 7d a0          	mov    QWORD PTR [rbp-0x60],r15
    2186:	e9 94 22 00 00       	jmp    0x441f
    218b:	48 85 c0             	test   rax,rax
    218e:	0f 88 1a ff ff ff    	js     0x20ae
    2194:	e9 a3 fb ff ff       	jmp    0x1d3c
    2199:	4c 8b 7d 98          	mov    r15,QWORD PTR [rbp-0x68]
    219d:	41 f6 c7 40          	test   r15b,0x40
    21a1:	4c 89 7d 98          	mov    QWORD PTR [rbp-0x68],r15
    21a5:	74 14                	je     0x21bb
    21a7:	48 d1 e3             	shl    rbx,1
    21aa:	48 d1 eb             	shr    rbx,1
    21ad:	48 83 bb 98 02 00 00 	cmp    QWORD PTR [rbx+0x298],0x0
    21b4:	00 
    21b5:	0f 85 e8 00 00 00    	jne    0x22a3
    21bb:	4c 8b 7d 98          	mov    r15,QWORD PTR [rbp-0x68]
    21bf:	41 f6 c7 80          	test   r15b,0x80
    21c3:	4c 89 7d 98          	mov    QWORD PTR [rbp-0x68],r15
    21c7:	0f 84 6f fb ff ff    	je     0x1d3c
    21cd:	48 d1 e3             	shl    rbx,1
    21d0:	48 d1 eb             	shr    rbx,1
    21d3:	48 83 bb c0 02 00 00 	cmp    QWORD PTR [rbx+0x2c0],0x0
    21da:	00 
    21db:	0f 84 5b fb ff ff    	je     0x1d3c
    21e1:	48 c7 c2 fb ff ff ff 	mov    rdx,0xfffffffffffffffb
    21e8:	e9 b9 fb ff ff       	jmp    0x1da6
    21ed:	48 c7 c2 fb ff ff ff 	mov    rdx,0xfffffffffffffffb
    21f4:	48 89 d0             	mov    rax,rdx
    21f7:	4d 8b 7d 00          	mov    r15,QWORD PTR [r13+0x0]
    21fb:	4d 8d 6d 08          	lea    r13,[r13+0x8]
    21ff:	4d 89 fe             	mov    r14,r15
    2202:	e9 87 1d 00 00       	jmp    0x3f8e
    2207:	48 c7 c2 fb ff ff ff 	mov    rdx,0xfffffffffffffffb
    220e:	e9 93 fb ff ff       	jmp    0x1da6
    2213:	48 c7 c2 fb ff ff ff 	mov    rdx,0xfffffffffffffffb
    221a:	e9 87 fb ff ff       	jmp    0x1da6
    221f:	48 c7 c2 fb ff ff ff 	mov    rdx,0xfffffffffffffffb
    2226:	e9 7b fb ff ff       	jmp    0x1da6
    222b:	48 c7 c2 fb ff ff ff 	mov    rdx,0xfffffffffffffffb
    2232:	e9 6f fb ff ff       	jmp    0x1da6
    2237:	48 c7 c2 fb ff ff ff 	mov    rdx,0xfffffffffffffffb
    223e:	e9 63 fb ff ff       	jmp    0x1da6
    2243:	48 c7 c2 fb ff ff ff 	mov    rdx,0xfffffffffffffffb
    224a:	e9 57 fb ff ff       	jmp    0x1da6
    224f:	48 c7 c2 fb ff ff ff 	mov    rdx,0xfffffffffffffffb
    2256:	e9 4b fb ff ff       	jmp    0x1da6
    225b:	48 c7 c2 fb ff ff ff 	mov    rdx,0xfffffffffffffffb
    2262:	e9 3f fb ff ff       	jmp    0x1da6
    2267:	48 c7 c2 fb ff ff ff 	mov    rdx,0xfffffffffffffffb
    226e:	e9 33 fb ff ff       	jmp    0x1da6
    2273:	48 c7 c2 fb ff ff ff 	mov    rdx,0xfffffffffffffffb
    227a:	e9 27 fb ff ff       	jmp    0x1da6
    227f:	48 c7 c2 fb ff ff ff 	mov    rdx,0xfffffffffffffffb
    2286:	e9 1b fb ff ff       	jmp    0x1da6
    228b:	48 c7 c2 fb ff ff ff 	mov    rdx,0xfffffffffffffffb
    2292:	e9 0f fb ff ff       	jmp    0x1da6
    2297:	48 c7 c2 fb ff ff ff 	mov    rdx,0xfffffffffffffffb
    229e:	e9 03 fb ff ff       	jmp    0x1da6
    22a3:	48 c7 c2 fb ff ff ff 	mov    rdx,0xfffffffffffffffb
    22aa:	e9 f7 fa ff ff       	jmp    0x1da6
    22af:	48 c7 c2 fb ff ff ff 	mov    rdx,0xfffffffffffffffb
    22b6:	e9 eb fa ff ff       	jmp    0x1da6
    22bb:	49 8b 5d 00          	mov    rbx,QWORD PTR [r13+0x0]
    22bf:	4d 8d 6d 08          	lea    r13,[r13+0x8]
    22c3:	4d 8b 65 00          	mov    r12,QWORD PTR [r13+0x0]
    22c7:	4d 8d 6d 08          	lea    r13,[r13+0x8]
    22cb:	4c 8b 7d 98          	mov    r15,QWORD PTR [rbp-0x68]
    22cf:	4d 8b 7d 00          	mov    r15,QWORD PTR [r13+0x0]
    22d3:	4d 8d 6d 08          	lea    r13,[r13+0x8]
    22d7:	4d 8b 75 00          	mov    r14,QWORD PTR [r13+0x0]
    22db:	4d 8d 6d 08          	lea    r13,[r13+0x8]
    22df:	4c 89 7d 98          	mov    QWORD PTR [rbp-0x68],r15
    22e3:	e9 6b 19 00 00       	jmp    0x3c53
    22e8:	90                   	nop
    22e9:	4d 8d 6d f8          	lea    r13,[r13-0x8]
    22ed:	49 89 5d 00          	mov    QWORD PTR [r13+0x0],rbx
    22f1:	48 89 fb             	mov    rbx,rdi
    22f4:	48 d1 e7             	shl    rdi,1
    22f7:	48 d1 ef             	shr    rdi,1
    22fa:	f6 87 d9 00 00 00 20 	test   BYTE PTR [rdi+0xd9],0x20
    2301:	75 72                	jne    0x2375
    2303:	48 d1 e3             	shl    rbx,1
    2306:	48 d1 eb             	shr    rbx,1
    2309:	48 8b 03             	mov    rax,QWORD PTR [rbx]
    230c:	48 d1 e0             	shl    rax,1
    230f:	48 d1 e8             	shr    rax,1
    2312:	48 8b 90 30 04 00 00 	mov    rdx,QWORD PTR [rax+0x430]
    2319:	48 d1 e2             	shl    rdx,1
    231c:	48 d1 ea             	shr    rdx,1
    231f:	48 8b 82 50 04 00 00 	mov    rax,QWORD PTR [rdx+0x450]
    2326:	48 85 c0             	test   rax,rax
    2329:	74 4a                	je     0x2375
    232b:	48 8b 48 08          	mov    rcx,QWORD PTR [rax+0x8]
    232f:	48 89 8a 50 04 00 00 	mov    QWORD PTR [rdx+0x450],rcx
    2336:	48 8b 00             	mov    rax,QWORD PTR [rax]
    2339:	48 8b 53 50          	mov    rdx,QWORD PTR [rbx+0x50]
    233d:	48 8b 52 28          	mov    rdx,QWORD PTR [rdx+0x28]
    2341:	48 89 42 10          	mov    QWORD PTR [rdx+0x10],rax
    2345:	48 89 c7             	mov    rdi,rax
    2348:	49 bf 46 37 5a 55 55 	movabs r15,0x5555555a3746
    234f:	55 00 00 
    2352:	4d 8d 6d f8          	lea    r13,[r13-0x8]
    2356:	4d 89 7d 00          	mov    QWORD PTR [r13+0x0],r15
    235a:	4c 8b 78 38          	mov    r15,QWORD PTR [rax+0x38]
    235e:	4d 89 fe             	mov    r14,r15
    2361:	e9 73 1c 00 00       	jmp    0x3fd9
    2366:	48 d1 e3             	shl    rbx,1
    2369:	48 d1 eb             	shr    rbx,1
    236c:	f6 83 d9 00 00 00 20 	test   BYTE PTR [rbx+0xd9],0x20
    2373:	74 8e                	je     0x2303
    2375:	49 8b 5d 00          	mov    rbx,QWORD PTR [r13+0x0]
    2379:	4d 8d 6d 08          	lea    r13,[r13+0x8]
    237d:	4d 8b 7d 00          	mov    r15,QWORD PTR [r13+0x0]
    2381:	4d 8d 6d 08          	lea    r13,[r13+0x8]
    2385:	4d 89 fe             	mov    r14,r15
    2388:	e9 b1 1a 00 00       	jmp    0x3e3e
    238d:	49 83 c5 18          	add    r13,0x18
    2391:	49 8b 5d 00          	mov    rbx,QWORD PTR [r13+0x0]
    2395:	4d 8d 6d 08          	lea    r13,[r13+0x8]
    2399:	4d 8b 65 00          	mov    r12,QWORD PTR [r13+0x0]
    239d:	4d 8d 6d 08          	lea    r13,[r13+0x8]
    23a1:	4c 8b 7d 98          	mov    r15,QWORD PTR [rbp-0x68]
    23a5:	4d 8b 7d 00          	mov    r15,QWORD PTR [r13+0x0]
    23a9:	4d 8d 6d 08          	lea    r13,[r13+0x8]
    23ad:	4c 8b 75 a0          	mov    r14,QWORD PTR [rbp-0x60]
    23b1:	4d 8b 75 00          	mov    r14,QWORD PTR [r13+0x0]
    23b5:	4d 8d 6d 08          	lea    r13,[r13+0x8]
    23b9:	4c 89 7d 98          	mov    QWORD PTR [rbp-0x68],r15
    23bd:	4c 8b 7d a8          	mov    r15,QWORD PTR [rbp-0x58]
    23c1:	4d 8b 7d 00          	mov    r15,QWORD PTR [r13+0x0]
    23c5:	4d 8d 6d 08          	lea    r13,[r13+0x8]
    23c9:	4c 89 7d a8          	mov    QWORD PTR [rbp-0x58],r15
    23cd:	4c 8b 7d b0          	mov    r15,QWORD PTR [rbp-0x50]
    23d1:	4d 8b 7d 00          	mov    r15,QWORD PTR [r13+0x0]
    23d5:	4d 8d 6d 08          	lea    r13,[r13+0x8]
    23d9:	4c 89 7d b0          	mov    QWORD PTR [rbp-0x50],r15
    23dd:	4d 8b 7d 00          	mov    r15,QWORD PTR [r13+0x0]
    23e1:	4d 8d 6d 08          	lea    r13,[r13+0x8]
    23e5:	4c 89 75 a0          	mov    QWORD PTR [rbp-0x60],r14
    23e9:	4d 89 fe             	mov    r14,r15
    23ec:	e9 a6 18 00 00       	jmp    0x3c97
    23f1:	49 8b 45 08          	mov    rax,QWORD PTR [r13+0x8]
    23f5:	48 d1 e0             	shl    rax,1
    23f8:	48 d1 e8             	shr    rax,1
    23fb:	48 83 b8 c0 01 00 00 	cmp    QWORD PTR [rax+0x1c0],0x0
    2402:	00 
    2403:	0f 85 3c 02 00 00    	jne    0x2645
    2409:	48 d1 e3             	shl    rbx,1
    240c:	48 d1 eb             	shr    rbx,1
    240f:	80 8b d9 00 00 00 40 	or     BYTE PTR [rbx+0xd9],0x40
    2416:	be 01 00 00 00       	mov    esi,0x1
    241b:	48 89 df             	mov    rdi,rbx
    241e:	49 bf 09 49 5a 55 55 	movabs r15,0x5555555a4909
    2425:	55 00 00 
    2428:	4d 8d 6d f8          	lea    r13,[r13-0x8]
    242c:	4d 89 7d 00          	mov    QWORD PTR [r13+0x0],r15
    2430:	e9 ac e2 ff ff       	jmp    0x6e1
    2435:	49 bf 10 49 5a 55 55 	movabs r15,0x5555555a4910
    243c:	55 00 00 
    243f:	49 8b 9f 10 c7 08 00 	mov    rbx,QWORD PTR [r15+0x8c710]
    2446:	49 8b 45 08          	mov    rax,QWORD PTR [r13+0x8]
    244a:	48 d1 e0             	shl    rax,1
    244d:	48 d1 e8             	shr    rax,1
    2450:	48 03 98 20 01 00 00 	add    rbx,QWORD PTR [rax+0x120]
    2457:	4c 8b 7d a0          	mov    r15,QWORD PTR [rbp-0x60]
    245b:	49 d1 e7             	shl    r15,1
    245e:	49 d1 ef             	shr    r15,1
    2461:	41 f6 47 09 08       	test   BYTE PTR [r15+0x9],0x8
    2466:	4c 89 7d a0          	mov    QWORD PTR [rbp-0x60],r15
    246a:	74 6f                	je     0x24db
    246c:	48 89 d8             	mov    rax,rbx
    246f:	4c 8b 7d a0          	mov    r15,QWORD PTR [rbp-0x60]
    2473:	49 d1 e7             	shl    r15,1
    2476:	49 d1 ef             	shr    r15,1
    2479:	49 2b 47 28          	sub    rax,QWORD PTR [r15+0x28]
    247d:	48 8d 80 2b 01 00 00 	lea    rax,[rax+0x12b]
    2484:	48 3d 56 02 00 00    	cmp    rax,0x256
    248a:	4c 89 7d a0          	mov    QWORD PTR [rbp-0x60],r15
    248e:	0f 86 92 00 00 00    	jbe    0x2526
    2494:	4c 8b 7d a0          	mov    r15,QWORD PTR [rbp-0x60]
    2498:	49 8d 77 28          	lea    rsi,[r15+0x28]
    249c:	49 be 44 49 5a 55 55 	movabs r14,0x5555555a4944
    24a3:	55 00 00 
    24a6:	49 8d be ac c8 08 00 	lea    rdi,[r14+0x8c8ac]
    24ad:	49 be 49 49 5a 55 55 	movabs r14,0x5555555a4949
    24b4:	55 00 00 
    24b7:	4d 8d 6d f8          	lea    r13,[r13-0x8]
    24bb:	4d 89 75 00          	mov    QWORD PTR [r13+0x0],r14
    24bf:	4c 89 7d a0          	mov    QWORD PTR [rbp-0x60],r15
    24c3:	e9 65 1c 00 00       	jmp    0x412d
    24c8:	4c 8b 7d a0          	mov    r15,QWORD PTR [rbp-0x60]
    24cc:	49 d1 e7             	shl    r15,1
    24cf:	49 d1 ef             	shr    r15,1
    24d2:	41 80 67 09 f7       	and    BYTE PTR [r15+0x9],0xf7
    24d7:	4c 89 7d a0          	mov    QWORD PTR [rbp-0x60],r15
    24db:	4c 8b 7d a0          	mov    r15,QWORD PTR [rbp-0x60]
    24df:	49 89 5f 28          	mov    QWORD PTR [r15+0x28],rbx
    24e3:	49 8d 77 28          	lea    rsi,[r15+0x28]
    24e7:	49 be 5d 49 5a 55 55 	movabs r14,0x5555555a495d
    24ee:	55 00 00 
    24f1:	49 8d be 93 c8 08 00 	lea    rdi,[r14+0x8c893]
    24f8:	49 be 62 49 5a 55 55 	movabs r14,0x5555555a4962
    24ff:	55 00 00 
    2502:	4d 8d 6d f8          	lea    r13,[r13-0x8]
    2506:	4d 89 75 00          	mov    QWORD PTR [r13+0x0],r14
    250a:	4c 89 7d a0          	mov    QWORD PTR [rbp-0x60],r15
    250e:	e9 ce dd ff ff       	jmp    0x2e1
    2513:	4c 8b 7d a0          	mov    r15,QWORD PTR [rbp-0x60]
    2517:	49 d1 e7             	shl    r15,1
    251a:	49 d1 ef             	shr    r15,1
    251d:	41 80 4f 09 08       	or     BYTE PTR [r15+0x9],0x8
    2522:	4c 89 7d a0          	mov    QWORD PTR [rbp-0x60],r15
    2526:	4c 8b 7d a0          	mov    r15,QWORD PTR [rbp-0x60]
    252a:	49 d1 e7             	shl    r15,1
    252d:	49 d1 ef             	shr    r15,1
    2530:	41 f6 47 08 20       	test   BYTE PTR [r15+0x8],0x20
    2535:	4c 89 7d a0          	mov    QWORD PTR [rbp-0x60],r15
    2539:	0f 84 4e fe ff ff    	je     0x238d
    253f:	4c 8b 7d a0          	mov    r15,QWORD PTR [rbp-0x60]
    2543:	49 d1 e7             	shl    r15,1
    2546:	49 d1 ef             	shr    r15,1
    2549:	41 80 7f 09 00       	cmp    BYTE PTR [r15+0x9],0x0
    254e:	4c 89 7d a0          	mov    QWORD PTR [rbp-0x60],r15
    2552:	0f 88 35 fe ff ff    	js     0x238d
    2558:	4c 8b 7d a0          	mov    r15,QWORD PTR [rbp-0x60]
    255c:	49 d1 e7             	shl    r15,1
    255f:	49 d1 ef             	shr    r15,1
    2562:	41 80 4f 09 80       	or     BYTE PTR [r15+0x9],0x80
    2567:	49 be 89 49 5a 55 55 	movabs r14,0x5555555a4989
    256e:	55 00 00 
    2571:	49 8b 96 a7 c8 08 00 	mov    rdx,QWORD PTR [r14+0x8c8a7]
    2578:	49 89 57 50          	mov    QWORD PTR [r15+0x50],rdx
    257c:	49 8d 47 50          	lea    rax,[r15+0x50]
    2580:	48 89 42 08          	mov    QWORD PTR [rdx+0x8],rax
    2584:	49 be 9c 49 5a 55 55 	movabs r14,0x5555555a499c
    258b:	55 00 00 
    258e:	49 8d 8e 94 c8 08 00 	lea    rcx,[r14+0x8c894]
    2595:	49 89 4f 58          	mov    QWORD PTR [r15+0x58],rcx
    2599:	49 be a7 49 5a 55 55 	movabs r14,0x5555555a49a7
    25a0:	55 00 00 
    25a3:	49 89 86 89 c8 08 00 	mov    QWORD PTR [r14+0x8c889],rax
    25aa:	4c 89 7d a0          	mov    QWORD PTR [rbp-0x60],r15
    25ae:	e9 da fd ff ff       	jmp    0x238d
    25b3:	83 f8 ff             	cmp    eax,0xffffffff
    25b6:	74 2a                	je     0x25e2
    25b8:	48 d1 e3             	shl    rbx,1
    25bb:	48 d1 eb             	shr    rbx,1
    25be:	80 a3 da 00 00 00 3f 	and    BYTE PTR [rbx+0xda],0x3f
    25c5:	49 bf e8 49 5a 55 55 	movabs r15,0x5555555a49e8
    25cc:	55 00 00 
    25cf:	49 83 bf c8 88 09 00 	cmp    QWORD PTR [r15+0x988c8],0x0
    25d6:	00 
    25d7:	0f 84 2c fe ff ff    	je     0x2409
    25dd:	e9 0f fe ff ff       	jmp    0x23f1
    25e2:	49 bf f8 49 5a 55 55 	movabs r15,0x5555555a49f8
    25e9:	55 00 00 
    25ec:	4d 8d 6d f8          	lea    r13,[r13-0x8]
    25f0:	4d 89 7d 00          	mov    QWORD PTR [r13+0x0],r15
    25f4:	e9 90 da ff ff       	jmp    0x89
    25f9:	49 bf ff 49 5a 55 55 	movabs r15,0x5555555a49ff
    2600:	55 00 00 
    2603:	49 8d 97 23 d4 04 00 	lea    rdx,[r15+0x4d423]
    260a:	8b 30                	mov    esi,DWORD PTR [rax]
    260c:	48 89 df             	mov    rdi,rbx
    260f:	49 bf 09 4a 5a 55 55 	movabs r15,0x5555555a4a09
    2616:	55 00 00 
    2619:	4d 8d 6d f8          	lea    r13,[r13-0x8]
    261d:	4d 89 7d 00          	mov    QWORD PTR [r13+0x0],r15
    2621:	e9 db 1c 00 00       	jmp    0x4301
    2626:	48 89 df             	mov    rdi,rbx
    2629:	49 bf 11 4a 5a 55 55 	movabs r15,0x5555555a4a11
    2630:	55 00 00 
    2633:	4d 8d 6d f8          	lea    r13,[r13-0x8]
    2637:	4d 89 7d 00          	mov    QWORD PTR [r13+0x0],r15
    263b:	e9 59 1c 00 00       	jmp    0x4299
    2640:	e9 48 fd ff ff       	jmp    0x238d
    2645:	48 89 df             	mov    rdi,rbx
    2648:	49 bf 1e 4a 5a 55 55 	movabs r15,0x5555555a4a1e
    264f:	55 00 00 
    2652:	4d 8d 6d f8          	lea    r13,[r13-0x8]
    2656:	4d 89 7d 00          	mov    QWORD PTR [r13+0x0],r15
    265a:	e9 84 1b 00 00       	jmp    0x41e3
    265f:	48 85 c0             	test   rax,rax
    2662:	0f 84 a1 fd ff ff    	je     0x2409
    2668:	48 89 df             	mov    rdi,rbx
    266b:	49 bf 2f 4a 5a 55 55 	movabs r15,0x5555555a4a2f
    2672:	55 00 00 
    2675:	4d 8d 6d f8          	lea    r13,[r13-0x8]
    2679:	4d 89 7d 00          	mov    QWORD PTR [r13+0x0],r15
    267d:	e9 17 1c 00 00       	jmp    0x4299
    2682:	e9 06 fd ff ff       	jmp    0x238d
    2687:	49 83 c5 08          	add    r13,0x8
    268b:	49 8b 5d 00          	mov    rbx,QWORD PTR [r13+0x0]
    268f:	4d 8d 6d 08          	lea    r13,[r13+0x8]
    2693:	4d 8b 65 00          	mov    r12,QWORD PTR [r13+0x0]
    2697:	4d 8d 6d 08          	lea    r13,[r13+0x8]
    269b:	4c 8b 7d 98          	mov    r15,QWORD PTR [rbp-0x68]
    269f:	4d 8b 7d 00          	mov    r15,QWORD PTR [r13+0x0]
    26a3:	4d 8d 6d 08          	lea    r13,[r13+0x8]
    26a7:	4c 8b 75 a0          	mov    r14,QWORD PTR [rbp-0x60]
    26ab:	4d 8b 75 00          	mov    r14,QWORD PTR [r13+0x0]
    26af:	4d 8d 6d 08          	lea    r13,[r13+0x8]
    26b3:	4c 89 7d 98          	mov    QWORD PTR [rbp-0x68],r15
    26b7:	4d 8b 7d 00          	mov    r15,QWORD PTR [r13+0x0]
    26bb:	4d 8d 6d 08          	lea    r13,[r13+0x8]
    26bf:	4c 89 75 a0          	mov    QWORD PTR [rbp-0x60],r14
    26c3:	4d 89 fe             	mov    r14,r15
    26c6:	e9 98 16 00 00       	jmp    0x3d63
    26cb:	eb ba                	jmp    0x2687
    26cd:	4c 8b 7d a0          	mov    r15,QWORD PTR [rbp-0x60]
    26d1:	4c 89 ff             	mov    rdi,r15
    26d4:	49 be 9c 5a 5a 55 55 	movabs r14,0x5555555a5a9c
    26db:	55 00 00 
    26de:	4d 8d 6d f8          	lea    r13,[r13-0x8]
    26e2:	4d 89 75 00          	mov    QWORD PTR [r13+0x0],r14
    26e6:	4c 89 7d a0          	mov    QWORD PTR [rbp-0x60],r15
    26ea:	e9 f9 fb ff ff       	jmp    0x22e8
    26ef:	49 83 c5 08          	add    r13,0x8
    26f3:	49 8b 5d 00          	mov    rbx,QWORD PTR [r13+0x0]
    26f7:	4d 8d 6d 08          	lea    r13,[r13+0x8]
    26fb:	4d 8b 65 00          	mov    r12,QWORD PTR [r13+0x0]
    26ff:	4d 8d 6d 08          	lea    r13,[r13+0x8]
    2703:	4c 8b 7d 98          	mov    r15,QWORD PTR [rbp-0x68]
    2707:	4d 8b 7d 00          	mov    r15,QWORD PTR [r13+0x0]
    270b:	4d 8d 6d 08          	lea    r13,[r13+0x8]
    270f:	4c 8b 75 a0          	mov    r14,QWORD PTR [rbp-0x60]
    2713:	4d 8b 75 00          	mov    r14,QWORD PTR [r13+0x0]
    2717:	4d 8d 6d 08          	lea    r13,[r13+0x8]
    271b:	4c 89 7d 98          	mov    QWORD PTR [rbp-0x68],r15
    271f:	4c 8b 7d a8          	mov    r15,QWORD PTR [rbp-0x58]
    2723:	4d 8b 7d 00          	mov    r15,QWORD PTR [r13+0x0]
    2727:	4d 8d 6d 08          	lea    r13,[r13+0x8]
    272b:	4c 89 7d a8          	mov    QWORD PTR [rbp-0x58],r15
    272f:	4c 8b 7d b0          	mov    r15,QWORD PTR [rbp-0x50]
    2733:	4d 8b 7d 00          	mov    r15,QWORD PTR [r13+0x0]
    2737:	4d 8d 6d 08          	lea    r13,[r13+0x8]
    273b:	4c 89 7d b0          	mov    QWORD PTR [rbp-0x50],r15
    273f:	4d 8b 7d 00          	mov    r15,QWORD PTR [r13+0x0]
    2743:	4d 8d 6d 08          	lea    r13,[r13+0x8]
    2747:	4c 89 75 a0          	mov    QWORD PTR [rbp-0x60],r14
    274b:	4d 89 fe             	mov    r14,r15
    274e:	e9 54 16 00 00       	jmp    0x3da7
    2753:	e9 75 ff ff ff       	jmp    0x26cd
    2758:	eb 00                	jmp    0x275a
    275a:	4c 8b 7d a0          	mov    r15,QWORD PTR [rbp-0x60]
    275e:	4c 89 ff             	mov    rdi,r15
    2761:	49 be 45 5e 5a 55 55 	movabs r14,0x5555555a5e45
    2768:	55 00 00 
    276b:	4d 8d 6d f8          	lea    r13,[r13-0x8]
    276f:	4d 89 75 00          	mov    QWORD PTR [r13+0x0],r14
    2773:	4c 89 7d a0          	mov    QWORD PTR [rbp-0x60],r15
    2777:	e9 6c fb ff ff       	jmp    0x22e8
    277c:	49 8b 45 18          	mov    rax,QWORD PTR [r13+0x18]
    2780:	4c 8b 7d 88          	mov    r15,QWORD PTR [rbp-0x78]
    2784:	49 d1 e7             	shl    r15,1
    2787:	49 d1 ef             	shr    r15,1
    278a:	49 33 47 28          	xor    rax,QWORD PTR [r15+0x28]
    278e:	75 44                	jne    0x27d4
    2790:	49 83 c5 28          	add    r13,0x28
    2794:	49 8b 5d 00          	mov    rbx,QWORD PTR [r13+0x0]
    2798:	4d 8d 6d 08          	lea    r13,[r13+0x8]
    279c:	4d 8b 65 00          	mov    r12,QWORD PTR [r13+0x0]
    27a0:	4d 8d 6d 08          	lea    r13,[r13+0x8]
    27a4:	4c 8b 7d 98          	mov    r15,QWORD PTR [rbp-0x68]
    27a8:	4d 8b 7d 00          	mov    r15,QWORD PTR [r13+0x0]
    27ac:	4d 8d 6d 08          	lea    r13,[r13+0x8]
    27b0:	4c 8b 75 a0          	mov    r14,QWORD PTR [rbp-0x60]
    27b4:	4d 8b 75 00          	mov    r14,QWORD PTR [r13+0x0]
    27b8:	4d 8d 6d 08          	lea    r13,[r13+0x8]
    27bc:	4c 89 7d 98          	mov    QWORD PTR [rbp-0x68],r15
    27c0:	4d 8b 7d 00          	mov    r15,QWORD PTR [r13+0x0]
    27c4:	4d 8d 6d 08          	lea    r13,[r13+0x8]
    27c8:	4c 89 75 a0          	mov    QWORD PTR [rbp-0x60],r14
    27cc:	4d 89 fe             	mov    r14,r15
    27cf:	e9 e4 13 00 00       	jmp    0x3bb8
    27d4:	49 bf c5 5e 5a 55 55 	movabs r15,0x5555555a5ec5
    27db:	55 00 00 
    27de:	4d 8d 6d f8          	lea    r13,[r13-0x8]
    27e2:	4d 89 7d 00          	mov    QWORD PTR [r13+0x0],r15
    27e6:	e9 c0 18 00 00       	jmp    0x40ab
    27eb:	90                   	nop
    27ec:	49 83 ed 08          	sub    r13,0x8
    27f0:	be 00 00 00 00       	mov    esi,0x0
    27f5:	49 bf d7 5e 5a 55 55 	movabs r15,0x5555555a5ed7
    27fc:	55 00 00 
    27ff:	4d 8d 6d f8          	lea    r13,[r13-0x8]
    2803:	4d 89 7d 00          	mov    QWORD PTR [r13+0x0],r15
    2807:	e9 0f 1b 00 00       	jmp    0x431b
    280c:	49 83 c5 08          	add    r13,0x8
    2810:	4d 8b 7d 00          	mov    r15,QWORD PTR [r13+0x0]
    2814:	4d 8d 6d 08          	lea    r13,[r13+0x8]
    2818:	4d 89 fe             	mov    r14,r15
    281b:	e9 53 16 00 00       	jmp    0x3e73
    2820:	90                   	nop
    2821:	4d 8d 6d f8          	lea    r13,[r13-0x8]
    2825:	4c 8b 7d a8          	mov    r15,QWORD PTR [rbp-0x58]
    2829:	4d 89 7d 00          	mov    QWORD PTR [r13+0x0],r15
    282d:	4d 8d 6d f8          	lea    r13,[r13-0x8]
    2831:	4c 8b 75 a0          	mov    r14,QWORD PTR [rbp-0x60]
    2835:	4d 89 75 00          	mov    QWORD PTR [r13+0x0],r14
    2839:	4d 8d 6d f8          	lea    r13,[r13-0x8]
    283d:	4c 89 7d a8          	mov    QWORD PTR [rbp-0x58],r15
    2841:	4c 8b 7d 98          	mov    r15,QWORD PTR [rbp-0x68]
    2845:	4d 89 7d 00          	mov    QWORD PTR [r13+0x0],r15
    2849:	4d 8d 6d f8          	lea    r13,[r13-0x8]
    284d:	4d 89 65 00          	mov    QWORD PTR [r13+0x0],r12
    2851:	4d 8d 6d f8          	lea    r13,[r13-0x8]
    2855:	49 89 5d 00          	mov    QWORD PTR [r13+0x0],rbx
    2859:	48 d1 e7             	shl    rdi,1
    285c:	48 d1 ef             	shr    rdi,1
    285f:	48 8b 1f             	mov    rbx,QWORD PTR [rdi]
    2862:	f6 47 09 04          	test   BYTE PTR [rdi+0x9],0x4
    2866:	4c 89 7d 98          	mov    QWORD PTR [rbp-0x68],r15
    286a:	4c 89 75 a0          	mov    QWORD PTR [rbp-0x60],r14
    286e:	0f 85 48 01 00 00    	jne    0x29bc
    2874:	49 89 fc             	mov    r12,rdi
    2877:	48 d1 e3             	shl    rbx,1
    287a:	48 d1 eb             	shr    rbx,1
    287d:	f6 83 da 00 00 00 01 	test   BYTE PTR [rbx+0xda],0x1
    2884:	0f 85 32 01 00 00    	jne    0x29bc
    288a:	4c 8b 7d 98          	mov    r15,QWORD PTR [rbp-0x68]
    288e:	48 d1 e3             	shl    rbx,1
    2891:	48 d1 eb             	shr    rbx,1
    2894:	4c 8b bb a8 00 00 00 	mov    r15,QWORD PTR [rbx+0xa8]
    289b:	4c 8b 75 a8          	mov    r14,QWORD PTR [rbp-0x58]
    289f:	49 d1 e7             	shl    r15,1
    28a2:	49 d1 ef             	shr    r15,1
    28a5:	4d 8b 77 28          	mov    r14,QWORD PTR [r15+0x28]
    28a9:	4d 2b 77 20          	sub    r14,QWORD PTR [r15+0x20]
    28ad:	49 83 3f 00          	cmp    QWORD PTR [r15],0x0
    28b1:	4c 89 7d 98          	mov    QWORD PTR [rbp-0x68],r15
    28b5:	4c 89 75 a8          	mov    QWORD PTR [rbp-0x58],r14
    28b9:	0f 84 67 01 00 00    	je     0x2a26
    28bf:	48 d1 e3             	shl    rbx,1
    28c2:	48 d1 eb             	shr    rbx,1
    28c5:	0f b6 83 d9 00 00 00 	movzx  eax,BYTE PTR [rbx+0xd9]
    28cc:	83 e0 f8             	and    eax,0xfffffff8
    28cf:	83 c8 03             	or     eax,0x3
    28d2:	88 83 d9 00 00 00    	mov    BYTE PTR [rbx+0xd9],al
    28d8:	49 bf 9c 65 5a 55 55 	movabs r15,0x5555555a659c
    28df:	55 00 00 
    28e2:	4d 8d 6d f8          	lea    r13,[r13-0x8]
    28e6:	4d 89 7d 00          	mov    QWORD PTR [r13+0x0],r15
    28ea:	e9 9a d7 ff ff       	jmp    0x89
    28ef:	4c 8b 7d a0          	mov    r15,QWORD PTR [rbp-0x60]
    28f3:	49 89 c7             	mov    r15,rax
    28f6:	c7 00 00 00 00 00    	mov    DWORD PTR [rax],0x0
    28fc:	4c 8b 75 98          	mov    r14,QWORD PTR [rbp-0x68]
    2900:	49 8b 76 08          	mov    rsi,QWORD PTR [r14+0x8]
    2904:	4c 89 7d a0          	mov    QWORD PTR [rbp-0x60],r15
    2908:	4c 8b 7d a8          	mov    r15,QWORD PTR [rbp-0x58]
    290c:	4c 89 fa             	mov    rdx,r15
    290f:	48 89 df             	mov    rdi,rbx
    2912:	4c 89 7d a8          	mov    QWORD PTR [rbp-0x58],r15
    2916:	49 bf b3 65 5a 55 55 	movabs r15,0x5555555a65b3
    291d:	55 00 00 
    2920:	4d 8d 6d f8          	lea    r13,[r13-0x8]
    2924:	4d 89 7d 00          	mov    QWORD PTR [r13+0x0],r15
    2928:	4c 8b 7b 20          	mov    r15,QWORD PTR [rbx+0x20]
    292c:	4c 89 75 98          	mov    QWORD PTR [rbp-0x68],r14
    2930:	4d 89 fe             	mov    r14,r15
    2933:	e9 3d 13 00 00       	jmp    0x3c75
    2938:	48 d1 e3             	shl    rbx,1
    293b:	48 d1 eb             	shr    rbx,1
    293e:	0f b6 93 d9 00 00 00 	movzx  edx,BYTE PTR [rbx+0xd9]
    2945:	83 e2 f8             	and    edx,0xfffffff8
    2948:	83 ca 02             	or     edx,0x2
    294b:	88 93 d9 00 00 00    	mov    BYTE PTR [rbx+0xd9],dl
    2951:	48 83 f8 fe          	cmp    rax,0xfffffffffffffffe
    2955:	0f 84 50 01 00 00    	je     0x2aab
    295b:	48 83 f8 ff          	cmp    rax,0xffffffffffffffff
    295f:	0f 84 cd 01 00 00    	je     0x2b32
    2965:	48 d1 e3             	shl    rbx,1
    2968:	48 d1 eb             	shr    rbx,1
    296b:	48 8b 53 50          	mov    rdx,QWORD PTR [rbx+0x50]
    296f:	48 d1 e2             	shl    rdx,1
    2972:	48 d1 ea             	shr    rdx,1
    2975:	48 c7 42 20 00 00 00 	mov    QWORD PTR [rdx+0x20],0x0
    297c:	00 
    297d:	48 85 c0             	test   rax,rax
    2980:	0f 85 0c 02 00 00    	jne    0x2b92
    2986:	48 d1 e3             	shl    rbx,1
    2989:	48 d1 eb             	shr    rbx,1
    298c:	48 8b 73 50          	mov    rsi,QWORD PTR [rbx+0x50]
    2990:	48 d1 e6             	shl    rsi,1
    2993:	48 d1 ee             	shr    rsi,1
    2996:	48 83 3e 06          	cmp    QWORD PTR [rsi],0x6
    299a:	0f 87 b1 01 00 00    	ja     0x2b51
    29a0:	48 89 df             	mov    rdi,rbx
    29a3:	49 bf 01 66 5a 55 55 	movabs r15,0x5555555a6601
    29aa:	55 00 00 
    29ad:	4d 8d 6d f8          	lea    r13,[r13-0x8]
    29b1:	4d 89 7d 00          	mov    QWORD PTR [r13+0x0],r15
    29b5:	e9 df 18 00 00       	jmp    0x4299
    29ba:	eb 1a                	jmp    0x29d6
    29bc:	48 89 df             	mov    rdi,rbx
    29bf:	49 bf 0b 66 5a 55 55 	movabs r15,0x5555555a660b
    29c6:	55 00 00 
    29c9:	4d 8d 6d f8          	lea    r13,[r13-0x8]
    29cd:	4d 89 7d 00          	mov    QWORD PTR [r13+0x0],r15
    29d1:	e9 c3 18 00 00       	jmp    0x4299
    29d6:	49 8b 5d 00          	mov    rbx,QWORD PTR [r13+0x0]
    29da:	4d 8d 6d 08          	lea    r13,[r13+0x8]
    29de:	4d 8b 65 00          	mov    r12,QWORD PTR [r13+0x0]
    29e2:	4d 8d 6d 08          	lea    r13,[r13+0x8]
    29e6:	4c 8b 7d 98          	mov    r15,QWORD PTR [rbp-0x68]
    29ea:	4d 8b 7d 00          	mov    r15,QWORD PTR [r13+0x0]
    29ee:	4d 8d 6d 08          	lea    r13,[r13+0x8]
    29f2:	4c 8b 75 a0          	mov    r14,QWORD PTR [rbp-0x60]
    29f6:	4d 8b 75 00          	mov    r14,QWORD PTR [r13+0x0]
    29fa:	4d 8d 6d 08          	lea    r13,[r13+0x8]
    29fe:	4c 89 7d 98          	mov    QWORD PTR [rbp-0x68],r15
    2a02:	4c 8b 7d a8          	mov    r15,QWORD PTR [rbp-0x58]
    2a06:	4d 8b 7d 00          	mov    r15,QWORD PTR [r13+0x0]
    2a0a:	4d 8d 6d 08          	lea    r13,[r13+0x8]
    2a0e:	4c 89 7d a8          	mov    QWORD PTR [rbp-0x58],r15
    2a12:	4d 8b 7d 00          	mov    r15,QWORD PTR [r13+0x0]
    2a16:	4d 8d 6d 08          	lea    r13,[r13+0x8]
    2a1a:	4c 89 75 a0          	mov    QWORD PTR [rbp-0x60],r14
    2a1e:	4d 89 fe             	mov    r14,r15
    2a21:	e9 0a 11 00 00       	jmp    0x3b30
    2a26:	48 8b 7b 58          	mov    rdi,QWORD PTR [rbx+0x58]
    2a2a:	4c 8b 7d a8          	mov    r15,QWORD PTR [rbp-0x58]
    2a2e:	4c 89 fe             	mov    rsi,r15
    2a31:	49 be 20 66 5a 55 55 	movabs r14,0x5555555a6620
    2a38:	55 00 00 
    2a3b:	4d 8d 6d f8          	lea    r13,[r13-0x8]
    2a3f:	4d 89 75 00          	mov    QWORD PTR [r13+0x0],r14
    2a43:	4c 89 7d a8          	mov    QWORD PTR [rbp-0x58],r15
    2a47:	e9 05 d8 ff ff       	jmp    0x251
    2a4c:	4c 8b 7d 98          	mov    r15,QWORD PTR [rbp-0x68]
    2a50:	49 d1 e7             	shl    r15,1
    2a53:	49 d1 ef             	shr    r15,1
    2a56:	49 89 07             	mov    QWORD PTR [r15],rax
    2a59:	48 85 c0             	test   rax,rax
    2a5c:	4c 89 7d 98          	mov    QWORD PTR [rbp-0x68],r15
    2a60:	74 2a                	je     0x2a8c
    2a62:	4c 8b 7d 98          	mov    r15,QWORD PTR [rbp-0x68]
    2a66:	49 d1 e7             	shl    r15,1
    2a69:	49 d1 ef             	shr    r15,1
    2a6c:	49 89 47 20          	mov    QWORD PTR [r15+0x20],rax
    2a70:	49 89 47 08          	mov    QWORD PTR [r15+0x8],rax
    2a74:	4c 8b 75 a8          	mov    r14,QWORD PTR [rbp-0x58]
    2a78:	4c 01 f0             	add    rax,r14
    2a7b:	49 89 47 28          	mov    QWORD PTR [r15+0x28],rax
    2a7f:	4c 89 7d 98          	mov    QWORD PTR [rbp-0x68],r15
    2a83:	4c 89 75 a8          	mov    QWORD PTR [rbp-0x58],r14
    2a87:	e9 33 fe ff ff       	jmp    0x28bf
    2a8c:	48 89 df             	mov    rdi,rbx
    2a8f:	49 bf 48 66 5a 55 55 	movabs r15,0x5555555a6648
    2a96:	55 00 00 
    2a99:	4d 8d 6d f8          	lea    r13,[r13-0x8]
    2a9d:	4d 89 7d 00          	mov    QWORD PTR [r13+0x0],r15
    2aa1:	e9 f3 17 00 00       	jmp    0x4299
    2aa6:	e9 2b ff ff ff       	jmp    0x29d6
    2aab:	be 00 00 00 00       	mov    esi,0x0
    2ab0:	4c 89 e7             	mov    rdi,r12
    2ab3:	49 bf 57 66 5a 55 55 	movabs r15,0x5555555a6657
    2aba:	55 00 00 
    2abd:	4d 8d 6d f8          	lea    r13,[r13-0x8]
    2ac1:	4d 89 7d 00          	mov    QWORD PTR [r13+0x0],r15
    2ac5:	e9 e9 17 00 00       	jmp    0x42b3
    2aca:	48 85 c0             	test   rax,rax
    2acd:	74 1f                	je     0x2aee
    2acf:	48 89 df             	mov    rdi,rbx
    2ad2:	49 bf 64 66 5a 55 55 	movabs r15,0x5555555a6664
    2ad9:	55 00 00 
    2adc:	4d 8d 6d f8          	lea    r13,[r13-0x8]
    2ae0:	4d 89 7d 00          	mov    QWORD PTR [r13+0x0],r15
    2ae4:	e9 b0 17 00 00       	jmp    0x4299
    2ae9:	e9 e8 fe ff ff       	jmp    0x29d6
    2aee:	4c 8b 7d 98          	mov    r15,QWORD PTR [rbp-0x68]
    2af2:	49 8b 77 20          	mov    rsi,QWORD PTR [r15+0x20]
    2af6:	48 8b 7b 58          	mov    rdi,QWORD PTR [rbx+0x58]
    2afa:	49 be 74 66 5a 55 55 	movabs r14,0x5555555a6674
    2b01:	55 00 00 
    2b04:	4d 8d 6d f8          	lea    r13,[r13-0x8]
    2b08:	4d 89 75 00          	mov    QWORD PTR [r13+0x0],r14
    2b0c:	4c 89 7d 98          	mov    QWORD PTR [rbp-0x68],r15
    2b10:	e9 9d 19 00 00       	jmp    0x44b2
    2b15:	48 85 c0             	test   rax,rax
    2b18:	0f 85 b8 fe ff ff    	jne    0x29d6
    2b1e:	4c 8b 7d 98          	mov    r15,QWORD PTR [rbp-0x68]
    2b22:	49 c7 07 00 00 00 00 	mov    QWORD PTR [r15],0x0
    2b29:	4c 89 7d 98          	mov    QWORD PTR [rbp-0x68],r15
    2b2d:	e9 a4 fe ff ff       	jmp    0x29d6
    2b32:	48 89 df             	mov    rdi,rbx
    2b35:	49 bf 8b 66 5a 55 55 	movabs r15,0x5555555a668b
    2b3c:	55 00 00 
    2b3f:	4d 8d 6d f8          	lea    r13,[r13-0x8]
    2b43:	4d 89 7d 00          	mov    QWORD PTR [r13+0x0],r15
    2b47:	e9 4d 17 00 00       	jmp    0x4299
    2b4c:	e9 85 fe ff ff       	jmp    0x29d6
    2b51:	4c 8d 43 78          	lea    r8,[rbx+0x78]
    2b55:	49 bf 9b 66 5a 55 55 	movabs r15,0x5555555a669b
    2b5c:	55 00 00 
    2b5f:	49 8d 8f 4d bc 04 00 	lea    rcx,[r15+0x4bc4d]
    2b66:	4c 8b 7d a0          	mov    r15,QWORD PTR [rbp-0x60]
    2b6a:	41 8b 17             	mov    edx,DWORD PTR [r15]
    2b6d:	bf 07 00 00 00       	mov    edi,0x7
    2b72:	49 be a9 66 5a 55 55 	movabs r14,0x5555555a66a9
    2b79:	55 00 00 
    2b7c:	4d 8d 6d f8          	lea    r13,[r13-0x8]
    2b80:	4d 89 75 00          	mov    QWORD PTR [r13+0x0],r14
    2b84:	4c 89 7d a0          	mov    QWORD PTR [rbp-0x60],r15
    2b88:	e9 2a 18 00 00       	jmp    0x43b7
    2b8d:	e9 0e fe ff ff       	jmp    0x29a0
    2b92:	4c 8b 7d 98          	mov    r15,QWORD PTR [rbp-0x68]
    2b96:	49 d1 e7             	shl    r15,1
    2b99:	49 d1 ef             	shr    r15,1
    2b9c:	49 01 47 08          	add    QWORD PTR [r15+0x8],rax
    2ba0:	48 d1 e3             	shl    rbx,1
    2ba3:	48 d1 eb             	shr    rbx,1
    2ba6:	48 8b 43 50          	mov    rax,QWORD PTR [rbx+0x50]
    2baa:	49 be be 66 5a 55 55 	movabs r14,0x5555555a66be
    2bb1:	55 00 00 
    2bb4:	49 8d 8e 49 c9 ff ff 	lea    rcx,[r14-0x36b7]
    2bbb:	48 d1 e0             	shl    rax,1
    2bbe:	48 d1 e8             	shr    rax,1
    2bc1:	48 89 48 20          	mov    QWORD PTR [rax+0x20],rcx
    2bc5:	48 8b 43 50          	mov    rax,QWORD PTR [rbx+0x50]
    2bc9:	49 be cd 66 5a 55 55 	movabs r14,0x5555555a66cd
    2bd0:	55 00 00 
    2bd3:	49 8d 8e 1a b8 04 00 	lea    rcx,[r14+0x4b81a]
    2bda:	48 d1 e0             	shl    rax,1
    2bdd:	48 d1 e8             	shr    rax,1
    2be0:	48 89 48 40          	mov    QWORD PTR [rax+0x40],rcx
    2be4:	80 a3 d9 00 00 00 bf 	and    BYTE PTR [rbx+0xd9],0xbf
    2beb:	be 00 00 00 00       	mov    esi,0x0
    2bf0:	48 89 df             	mov    rdi,rbx
    2bf3:	49 be e5 66 5a 55 55 	movabs r14,0x5555555a66e5
    2bfa:	55 00 00 
    2bfd:	4d 8d 6d f8          	lea    r13,[r13-0x8]
    2c01:	4d 89 75 00          	mov    QWORD PTR [r13+0x0],r14
    2c05:	4c 89 7d 98          	mov    QWORD PTR [rbp-0x68],r15
    2c09:	e9 d3 da ff ff       	jmp    0x6e1
    2c0e:	48 89 df             	mov    rdi,rbx
    2c11:	49 bf ed 66 5a 55 55 	movabs r15,0x5555555a66ed
    2c18:	55 00 00 
    2c1b:	4d 8d 6d f8          	lea    r13,[r13-0x8]
    2c1f:	4d 89 7d 00          	mov    QWORD PTR [r13+0x0],r15
    2c23:	e9 75 17 00 00       	jmp    0x439d
    2c28:	48 d1 e3             	shl    rbx,1
    2c2b:	48 d1 eb             	shr    rbx,1
    2c2e:	48 89 03             	mov    QWORD PTR [rbx],rax
    2c31:	48 85 c0             	test   rax,rax
    2c34:	74 7d                	je     0x2cb3
    2c36:	48 d1 e3             	shl    rbx,1
    2c39:	48 d1 eb             	shr    rbx,1
    2c3c:	48 c7 43 48 00 00 00 	mov    QWORD PTR [rbx+0x48],0x0
    2c43:	00 
    2c44:	80 a3 d9 00 00 00 df 	and    BYTE PTR [rbx+0xd9],0xdf
    2c4b:	49 8d 74 24 28       	lea    rsi,[r12+0x28]
    2c50:	49 bf 0f 67 5a 55 55 	movabs r15,0x5555555a670f
    2c57:	55 00 00 
    2c5a:	49 8d bf e1 aa 08 00 	lea    rdi,[r15+0x8aae1]
    2c61:	49 bf 14 67 5a 55 55 	movabs r15,0x5555555a6714
    2c68:	55 00 00 
    2c6b:	4d 8d 6d f8          	lea    r13,[r13-0x8]
    2c6f:	4d 89 7d 00          	mov    QWORD PTR [r13+0x0],r15
    2c73:	e9 b5 14 00 00       	jmp    0x412d
    2c78:	41 80 64 24 09 f7    	and    BYTE PTR [r12+0x9],0xf7
    2c7e:	49 bf 1f 67 5a 55 55 	movabs r15,0x5555555a671f
    2c85:	55 00 00 
    2c88:	49 8d 87 e8 f3 ff ff 	lea    rax,[r15-0xc18]
    2c8f:	49 89 44 24 10       	mov    QWORD PTR [r12+0x10],rax
    2c94:	4c 89 e7             	mov    rdi,r12
    2c97:	49 bf 2b 67 5a 55 55 	movabs r15,0x5555555a672b
    2c9e:	55 00 00 
    2ca1:	4d 8d 6d f8          	lea    r13,[r13-0x8]
    2ca5:	4d 89 7d 00          	mov    QWORD PTR [r13+0x0],r15
    2ca9:	e9 b3 14 00 00       	jmp    0x4161
    2cae:	e9 23 fd ff ff       	jmp    0x29d6
    2cb3:	48 89 df             	mov    rdi,rbx
    2cb6:	49 bf 38 67 5a 55 55 	movabs r15,0x5555555a6738
    2cbd:	55 00 00 
    2cc0:	4d 8d 6d f8          	lea    r13,[r13-0x8]
    2cc4:	4d 89 7d 00          	mov    QWORD PTR [r13+0x0],r15
    2cc8:	e9 cc 15 00 00       	jmp    0x4299
    2ccd:	e9 04 fd ff ff       	jmp    0x29d6
    2cd2:	90                   	nop
    2cd3:	49 bf eb c0 d6 f7 ff 	movabs r15,0x7ffff7d6c0eb
    2cda:	7f 00 00 
    2cdd:	49 8b 87 05 1e 15 00 	mov    rax,QWORD PTR [r15+0x151e05]
    2ce4:	4d 8d 6d f8          	lea    r13,[r13-0x8]
    2ce8:	4c 8b 7d 98          	mov    r15,QWORD PTR [rbp-0x68]
    2cec:	4d 89 7d 00          	mov    QWORD PTR [r13+0x0],r15
    2cf0:	4d 8d 6d f8          	lea    r13,[r13-0x8]
    2cf4:	4d 89 65 00          	mov    QWORD PTR [r13+0x0],r12
    2cf8:	49 89 fc             	mov    r12,rdi
    2cfb:	4d 8d 6d f8          	lea    r13,[r13-0x8]
    2cff:	49 89 5d 00          	mov    QWORD PTR [r13+0x0],rbx
    2d03:	48 d1 e0             	shl    rax,1
    2d06:	48 d1 e8             	shr    rax,1
    2d09:	48 8b 00             	mov    rax,QWORD PTR [rax]
    2d0c:	48 85 c0             	test   rax,rax
    2d0f:	4c 89 7d 98          	mov    QWORD PTR [rbp-0x68],r15
    2d13:	0f 85 54 02 00 00    	jne    0x2f6d
    2d19:	48 85 ff             	test   rdi,rdi
    2d1c:	0f 88 f4 01 00 00    	js     0x2f16
    2d22:	48 8d 47 17          	lea    rax,[rdi+0x17]
    2d26:	31 db                	xor    ebx,ebx
    2d28:	48 83 f8 1f          	cmp    rax,0x1f
    2d2c:	0f 87 fa 00 00 00    	ja     0x2e2c
    2d32:	49 bf 1a c1 d6 f7 ff 	movabs r15,0x7ffff7d6c11a
    2d39:	7f 00 00 
    2d3c:	4c 8b 75 98          	mov    r14,QWORD PTR [rbp-0x68]
    2d40:	4d 8b b7 5e 1c 15 00 	mov    r14,QWORD PTR [r15+0x151c5e]
    2d47:	4c 8b 7d 88          	mov    r15,QWORD PTR [rbp-0x78]
    2d4b:	4b 8b 04 37          	mov    rax,QWORD PTR [r15+r14*1]
    2d4f:	48 85 c0             	test   rax,rax
    2d52:	4c 89 75 98          	mov    QWORD PTR [rbp-0x68],r14
    2d56:	0f 84 e1 00 00 00    	je     0x2e3d
    2d5c:	49 bf 2f c1 d6 f7 ff 	movabs r15,0x7ffff7d6c12f
    2d63:	7f 00 00 
    2d66:	49 3b 9f a1 21 15 00 	cmp    rbx,QWORD PTR [r15+0x1521a1]
    2d6d:	0f 82 32 01 00 00    	jb     0x2ea5
    2d73:	4c 8b 7d 88          	mov    r15,QWORD PTR [rbp-0x78]
    2d77:	49 d1 e7             	shl    r15,1
    2d7a:	49 d1 ef             	shr    r15,1
    2d7d:	41 8b 47 18          	mov    eax,DWORD PTR [r15+0x18]
    2d81:	85 c0                	test   eax,eax
    2d83:	0f 85 10 02 00 00    	jne    0x2f99
    2d89:	4c 89 e6             	mov    rsi,r12
    2d8c:	49 bf 4f c1 d6 f7 ff 	movabs r15,0x7ffff7d6c14f
    2d93:	7f 00 00 
    2d96:	49 8d bf 31 2a 15 00 	lea    rdi,[r15+0x152a31]
    2d9d:	49 bf 54 c1 d6 f7 ff 	movabs r15,0x7ffff7d6c154
    2da4:	7f 00 00 
    2da7:	4d 8d 6d f8          	lea    r13,[r13-0x8]
    2dab:	4d 89 7d 00          	mov    QWORD PTR [r13+0x0],r15
    2daf:	e9 e7 16 00 00       	jmp    0x449b
    2db4:	49 89 c0             	mov    r8,rax
    2db7:	48 85 c0             	test   rax,rax
    2dba:	0f 84 23 01 00 00    	je     0x2ee3
    2dc0:	48 d1 e0             	shl    rax,1
    2dc3:	48 d1 e8             	shr    rax,1
    2dc6:	48 8b 40 f8          	mov    rax,QWORD PTR [rax-0x8]
    2dca:	a8 02                	test   al,0x2
    2dcc:	75 2e                	jne    0x2dfc
    2dce:	a8 04                	test   al,0x4
    2dd0:	74 2a                	je     0x2dfc
    2dd2:	49 8d 40 f0          	lea    rax,[r8-0x10]
    2dd6:	49 bf 77 c1 d6 f7 ff 	movabs r15,0x7ffff7d6c177
    2ddd:	7f 00 00 
    2de0:	49 8d 97 09 2a 15 00 	lea    rdx,[r15+0x152a09]
    2de7:	48 25 00 00 00 fc    	and    rax,0xfffffffffc000000
    2ded:	48 d1 e0             	shl    rax,1
    2df0:	48 d1 e8             	shr    rax,1
    2df3:	48 39 10             	cmp    QWORD PTR [rax],rdx
    2df6:	0f 85 6b 04 00 00    	jne    0x3267
    2dfc:	49 8b 5d 00          	mov    rbx,QWORD PTR [r13+0x0]
    2e00:	4d 8d 6d 08          	lea    r13,[r13+0x8]
    2e04:	4c 89 c0             	mov    rax,r8
    2e07:	4d 8b 65 00          	mov    r12,QWORD PTR [r13+0x0]
    2e0b:	4d 8d 6d 08          	lea    r13,[r13+0x8]
    2e0f:	4c 8b 7d 98          	mov    r15,QWORD PTR [rbp-0x68]
    2e13:	4d 8b 7d 00          	mov    r15,QWORD PTR [r13+0x0]
    2e17:	4d 8d 6d 08          	lea    r13,[r13+0x8]
    2e1b:	4d 8b 75 00          	mov    r14,QWORD PTR [r13+0x0]
    2e1f:	4d 8d 6d 08          	lea    r13,[r13+0x8]
    2e23:	4c 89 7d 98          	mov    QWORD PTR [rbp-0x68],r15
    2e27:	e9 bf 0f 00 00       	jmp    0x3deb
    2e2c:	48 83 e0 f0          	and    rax,0xfffffffffffffff0
    2e30:	48 8d 58 ef          	lea    rbx,[rax-0x11]
    2e34:	48 c1 eb 04          	shr    rbx,0x4
    2e38:	e9 f5 fe ff ff       	jmp    0x2d32
    2e3d:	49 bf af c1 d6 f7 ff 	movabs r15,0x7ffff7d6c1af
    2e44:	7f 00 00 
    2e47:	49 8b 87 d1 1b 15 00 	mov    rax,QWORD PTR [r15+0x151bd1]
    2e4e:	4c 8b 7d 88          	mov    r15,QWORD PTR [rbp-0x78]
    2e52:	41 80 3c 07 00       	cmp    BYTE PTR [r15+rax*1],0x0
    2e57:	0f 85 16 ff ff ff    	jne    0x2d73
    2e5d:	49 bf be c1 d6 f7 ff 	movabs r15,0x7ffff7d6c1be
    2e64:	7f 00 00 
    2e67:	4d 8d 6d f8          	lea    r13,[r13-0x8]
    2e6b:	4d 89 7d 00          	mov    QWORD PTR [r13+0x0],r15
    2e6f:	e9 f5 14 00 00       	jmp    0x4369
    2e74:	49 bf c5 c1 d6 f7 ff 	movabs r15,0x7ffff7d6c1c5
    2e7b:	7f 00 00 
    2e7e:	49 39 9f 0b 21 15 00 	cmp    QWORD PTR [r15+0x15210b],rbx
    2e85:	0f 86 e8 fe ff ff    	jbe    0x2d73
    2e8b:	4c 8b 7d 98          	mov    r15,QWORD PTR [rbp-0x68]
    2e8f:	4c 8b 75 88          	mov    r14,QWORD PTR [rbp-0x78]
    2e93:	4b 8b 04 3e          	mov    rax,QWORD PTR [r14+r15*1]
    2e97:	48 85 c0             	test   rax,rax
    2e9a:	4c 89 7d 98          	mov    QWORD PTR [rbp-0x68],r15
    2e9e:	0f 84 cf fe ff ff    	je     0x2d73
    2ea4:	90                   	nop
    2ea5:	48 8d 0c 58          	lea    rcx,[rax+rbx*2]
    2ea9:	48 d1 e1             	shl    rcx,1
    2eac:	48 d1 e9             	shr    rcx,1
    2eaf:	0f b7 11             	movzx  edx,WORD PTR [rcx]
    2eb2:	66 85 d2             	test   dx,dx
    2eb5:	0f 84 b8 fe ff ff    	je     0x2d73
    2ebb:	48 8d 04 d8          	lea    rax,[rax+rbx*8]
    2ebf:	83 ea 01             	sub    edx,0x1
    2ec2:	4c 8b 80 80 00 00 00 	mov    r8,QWORD PTR [rax+0x80]
    2ec9:	49 8b 30             	mov    rsi,QWORD PTR [r8]
    2ecc:	48 89 b0 80 00 00 00 	mov    QWORD PTR [rax+0x80],rsi
    2ed3:	66 89 11             	mov    WORD PTR [rcx],dx
    2ed6:	49 c7 40 08 00 00 00 	mov    QWORD PTR [r8+0x8],0x0
    2edd:	00 
    2ede:	e9 19 ff ff ff       	jmp    0x2dfc
    2ee3:	45 31 c0             	xor    r8d,r8d
    2ee6:	49 8b 5d 00          	mov    rbx,QWORD PTR [r13+0x0]
    2eea:	4d 8d 6d 08          	lea    r13,[r13+0x8]
    2eee:	4d 8b 65 00          	mov    r12,QWORD PTR [r13+0x0]
    2ef2:	4d 8d 6d 08          	lea    r13,[r13+0x8]
    2ef6:	4c 89 c0             	mov    rax,r8
    2ef9:	4c 8b 7d 98          	mov    r15,QWORD PTR [rbp-0x68]
    2efd:	4d 8b 7d 00          	mov    r15,QWORD PTR [r13+0x0]
    2f01:	4d 8d 6d 08          	lea    r13,[r13+0x8]
    2f05:	4d 8b 75 00          	mov    r14,QWORD PTR [r13+0x0]
    2f09:	4d 8d 6d 08          	lea    r13,[r13+0x8]
    2f0d:	4c 89 7d 98          	mov    QWORD PTR [rbp-0x68],r15
    2f11:	e9 2c 11 00 00       	jmp    0x4042
    2f16:	49 bf 37 c2 d6 f7 ff 	movabs r15,0x7ffff7d6c237
    2f1d:	7f 00 00 
    2f20:	49 8b 87 39 1c 15 00 	mov    rax,QWORD PTR [r15+0x151c39]
    2f27:	45 31 c0             	xor    r8d,r8d
    2f2a:	4c 8b 7d 88          	mov    r15,QWORD PTR [rbp-0x78]
    2f2e:	41 c7 04 07 0c 00 00 	mov    DWORD PTR [r15+rax*1],0xc
    2f35:	00 
    2f36:	4c 89 c0             	mov    rax,r8
    2f39:	49 8b 5d 00          	mov    rbx,QWORD PTR [r13+0x0]
    2f3d:	4d 8d 6d 08          	lea    r13,[r13+0x8]
    2f41:	4d 8b 65 00          	mov    r12,QWORD PTR [r13+0x0]
    2f45:	4d 8d 6d 08          	lea    r13,[r13+0x8]
    2f49:	4c 8b 75 98          	mov    r14,QWORD PTR [rbp-0x68]
    2f4d:	4d 8b 75 00          	mov    r14,QWORD PTR [r13+0x0]
    2f51:	4d 8d 6d 08          	lea    r13,[r13+0x8]
    2f55:	4c 89 7d 88          	mov    QWORD PTR [rbp-0x78],r15
    2f59:	4d 8b 7d 00          	mov    r15,QWORD PTR [r13+0x0]
    2f5d:	4d 8d 6d 08          	lea    r13,[r13+0x8]
    2f61:	4c 89 75 98          	mov    QWORD PTR [rbp-0x68],r14
    2f65:	4d 89 fe             	mov    r14,r15
    2f68:	e9 c6 10 00 00       	jmp    0x4033
    2f6d:	49 8b 75 18          	mov    rsi,QWORD PTR [r13+0x18]
    2f71:	49 8b 5d 00          	mov    rbx,QWORD PTR [r13+0x0]
    2f75:	4d 8d 6d 08          	lea    r13,[r13+0x8]
    2f79:	4d 8b 65 00          	mov    r12,QWORD PTR [r13+0x0]
    2f7d:	4d 8d 6d 08          	lea    r13,[r13+0x8]
    2f81:	4c 8b 7d 98          	mov    r15,QWORD PTR [rbp-0x68]
    2f85:	4d 8b 7d 00          	mov    r15,QWORD PTR [r13+0x0]
    2f89:	4d 8d 6d 08          	lea    r13,[r13+0x8]
    2f8d:	4c 89 7d 98          	mov    QWORD PTR [rbp-0x68],r15
    2f91:	49 89 c6             	mov    r14,rax
    2f94:	e9 8b 10 00 00       	jmp    0x4024
    2f99:	49 bf 67 c2 d6 f7 ff 	movabs r15,0x7ffff7d6c267
    2fa0:	7f 00 00 
    2fa3:	49 8b 87 09 1b 15 00 	mov    rax,QWORD PTR [r15+0x151b09]
    2faa:	4c 8b 7d 98          	mov    r15,QWORD PTR [rbp-0x68]
    2fae:	4c 8b 75 88          	mov    r14,QWORD PTR [rbp-0x78]
    2fb2:	4d 8b 3c 06          	mov    r15,QWORD PTR [r14+rax*1]
    2fb6:	4d 85 ff             	test   r15,r15
    2fb9:	4c 89 7d 98          	mov    QWORD PTR [rbp-0x68],r15
    2fbd:	0f 84 6b 01 00 00    	je     0x312e
    2fc3:	4c 8b 7d 88          	mov    r15,QWORD PTR [rbp-0x78]
    2fc7:	49 d1 e7             	shl    r15,1
    2fca:	49 d1 ef             	shr    r15,1
    2fcd:	41 8b 47 18          	mov    eax,DWORD PTR [r15+0x18]
    2fd1:	85 c0                	test   eax,eax
    2fd3:	0f 85 0e 01 00 00    	jne    0x30e7
    2fd9:	ba 01 00 00 00       	mov    edx,0x1
    2fde:	4c 8b 7d 98          	mov    r15,QWORD PTR [rbp-0x68]
    2fe2:	49 d1 e7             	shl    r15,1
    2fe5:	49 d1 ef             	shr    r15,1
    2fe8:	41 0f b1 17          	cmpxchg DWORD PTR [r15],edx
    2fec:	4c 89 7d 98          	mov    QWORD PTR [rbp-0x68],r15
    2ff0:	4c 89 e6             	mov    rsi,r12
    2ff3:	4c 8b 7d 98          	mov    r15,QWORD PTR [rbp-0x68]
    2ff7:	4c 89 ff             	mov    rdi,r15
    2ffa:	49 be 99 c2 d6 f7 ff 	movabs r14,0x7ffff7d6c299
    3001:	7f 00 00 
    3004:	4d 8d 6d f8          	lea    r13,[r13-0x8]
    3008:	4d 89 75 00          	mov    QWORD PTR [r13+0x0],r14
    300c:	4c 89 7d 98          	mov    QWORD PTR [rbp-0x68],r15
    3010:	e9 86 14 00 00       	jmp    0x449b
    3015:	49 89 c0             	mov    r8,rax
    3018:	48 85 c0             	test   rax,rax
    301b:	0f 84 96 01 00 00    	je     0x31b7
    3021:	4c 8b 7d 88          	mov    r15,QWORD PTR [rbp-0x78]
    3025:	49 d1 e7             	shl    r15,1
    3028:	49 d1 ef             	shr    r15,1
    302b:	41 8b 47 18          	mov    eax,DWORD PTR [r15+0x18]
    302f:	85 c0                	test   eax,eax
    3031:	0f 85 e7 01 00 00    	jne    0x321e
    3037:	4c 8b 7d 98          	mov    r15,QWORD PTR [rbp-0x68]
    303b:	49 d1 e7             	shl    r15,1
    303e:	49 d1 ef             	shr    r15,1
    3041:	41 83 2f 01          	sub    DWORD PTR [r15],0x1
    3045:	4c 89 7d 98          	mov    QWORD PTR [rbp-0x68],r15
    3049:	4d 85 c0             	test   r8,r8
    304c:	0f 84 91 fe ff ff    	je     0x2ee3
    3052:	49 d1 e0             	shl    r8,1
    3055:	49 d1 e8             	shr    r8,1
    3058:	49 8b 40 f8          	mov    rax,QWORD PTR [r8-0x8]
    305c:	a8 02                	test   al,0x2
    305e:	0f 85 98 fd ff ff    	jne    0x2dfc
    3064:	49 bf d6 c2 d6 f7 ff 	movabs r15,0x7ffff7d6c2d6
    306b:	7f 00 00 
    306e:	49 8d 97 aa 28 15 00 	lea    rdx,[r15+0x1528aa]
    3075:	a8 04                	test   al,0x4
    3077:	74 0d                	je     0x3086
    3079:	49 8d 40 f0          	lea    rax,[r8-0x10]
    307d:	48 25 00 00 00 fc    	and    rax,0xfffffffffc000000
    3083:	48 8b 10             	mov    rdx,QWORD PTR [rax]
    3086:	4c 8b 7d 98          	mov    r15,QWORD PTR [rbp-0x68]
    308a:	4c 39 fa             	cmp    rdx,r15
    308d:	4c 89 7d 98          	mov    QWORD PTR [rbp-0x68],r15
    3091:	0f 84 65 fd ff ff    	je     0x2dfc
    3097:	49 bf f7 c2 d6 f7 ff 	movabs r15,0x7ffff7d6c2f7
    309e:	7f 00 00 
    30a1:	49 8d 8f d9 fc 11 00 	lea    rcx,[r15+0x11fcd9]
    30a8:	ba 07 0c 00 00       	mov    edx,0xc07
    30ad:	49 bf 03 c3 d6 f7 ff 	movabs r15,0x7ffff7d6c303
    30b4:	7f 00 00 
    30b7:	49 8d b7 d3 b0 11 00 	lea    rsi,[r15+0x11b0d3]
    30be:	49 bf 0a c3 d6 f7 ff 	movabs r15,0x7ffff7d6c30a
    30c5:	7f 00 00 
    30c8:	49 8d bf 0e fa 11 00 	lea    rdi,[r15+0x11fa0e]
    30cf:	49 bf 0f c3 d6 f7 ff 	movabs r15,0x7ffff7d6c30f
    30d6:	7f 00 00 
    30d9:	4d 8d 6d f8          	lea    r13,[r13-0x8]
    30dd:	4d 89 7d 00          	mov    QWORD PTR [r13+0x0],r15
    30e1:	e9 61 10 00 00       	jmp    0x4147
    30e6:	90                   	nop
    30e7:	31 c0                	xor    eax,eax
    30e9:	ba 01 00 00 00       	mov    edx,0x1
    30ee:	4c 8b 7d 98          	mov    r15,QWORD PTR [rbp-0x68]
    30f2:	49 d1 e7             	shl    r15,1
    30f5:	49 d1 ef             	shr    r15,1
    30f8:	f0 41 0f b1 17       	lock cmpxchg DWORD PTR [r15],edx
    30fd:	4c 89 7d 98          	mov    QWORD PTR [rbp-0x68],r15
    3101:	0f 84 e9 fe ff ff    	je     0x2ff0
    3107:	4c 8b 7d 98          	mov    r15,QWORD PTR [rbp-0x68]
    310b:	4c 89 ff             	mov    rdi,r15
    310e:	49 be 2b c3 d6 f7 ff 	movabs r14,0x7ffff7d6c32b
    3115:	7f 00 00 
    3118:	4d 8d 6d f8          	lea    r13,[r13-0x8]
    311c:	4d 89 75 00          	mov    QWORD PTR [r13+0x0],r14
    3120:	4c 89 7d 98          	mov    QWORD PTR [rbp-0x68],r15
    3124:	e9 22 11 00 00       	jmp    0x424b
    3129:	e9 c2 fe ff ff       	jmp    0x2ff0
    312e:	49 bf 35 c3 d6 f7 ff 	movabs r15,0x7ffff7d6c335
    3135:	7f 00 00 
    3138:	4d 8d 6d f8          	lea    r13,[r13-0x8]
    313c:	4d 89 7d 00          	mov    QWORD PTR [r13+0x0],r15
    3140:	e9 50 10 00 00       	jmp    0x4195
    3145:	4c 8b 7d 98          	mov    r15,QWORD PTR [rbp-0x68]
    3149:	49 89 c7             	mov    r15,rax
    314c:	48 85 c0             	test   rax,rax
    314f:	4c 89 7d 98          	mov    QWORD PTR [rbp-0x68],r15
    3153:	0f 85 97 fe ff ff    	jne    0x2ff0
    3159:	31 f6                	xor    esi,esi
    315b:	4c 89 e7             	mov    rdi,r12
    315e:	49 bf 4b c3 d6 f7 ff 	movabs r15,0x7ffff7d6c34b
    3165:	7f 00 00 
    3168:	4d 8d 6d f8          	lea    r13,[r13-0x8]
    316c:	4d 89 7d 00          	mov    QWORD PTR [r13+0x0],r15
    3170:	e9 76 12 00 00       	jmp    0x43eb
    3175:	4c 89 e6             	mov    rsi,r12
    3178:	48 89 c7             	mov    rdi,rax
    317b:	4c 8b 7d 98          	mov    r15,QWORD PTR [rbp-0x68]
    317f:	49 89 c7             	mov    r15,rax
    3182:	49 be 59 c3 d6 f7 ff 	movabs r14,0x7ffff7d6c359
    3189:	7f 00 00 
    318c:	4d 8d 6d f8          	lea    r13,[r13-0x8]
    3190:	4d 89 75 00          	mov    QWORD PTR [r13+0x0],r14
    3194:	4c 89 7d 98          	mov    QWORD PTR [rbp-0x68],r15
    3198:	e9 fe 12 00 00       	jmp    0x449b
    319d:	49 89 c0             	mov    r8,rax
    31a0:	48 85 c0             	test   rax,rax
    31a3:	75 63                	jne    0x3208
    31a5:	4c 8b 7d 98          	mov    r15,QWORD PTR [rbp-0x68]
    31a9:	4d 85 ff             	test   r15,r15
    31ac:	4c 89 7d 98          	mov    QWORD PTR [rbp-0x68],r15
    31b0:	0f 84 93 fe ff ff    	je     0x3049
    31b6:	90                   	nop
    31b7:	90                   	nop
    31b8:	4c 8b 7d 98          	mov    r15,QWORD PTR [rbp-0x68]
    31bc:	4c 89 ff             	mov    rdi,r15
    31bf:	4c 89 e6             	mov    rsi,r12
    31c2:	49 be 7c c3 d6 f7 ff 	movabs r14,0x7ffff7d6c37c
    31c9:	7f 00 00 
    31cc:	4d 8d 6d f8          	lea    r13,[r13-0x8]
    31d0:	4d 89 75 00          	mov    QWORD PTR [r13+0x0],r14
    31d4:	4c 89 7d 98          	mov    QWORD PTR [rbp-0x68],r15
    31d8:	e9 02 0f 00 00       	jmp    0x40df
    31dd:	4c 89 e6             	mov    rsi,r12
    31e0:	48 89 c7             	mov    rdi,rax
    31e3:	4c 8b 7d 98          	mov    r15,QWORD PTR [rbp-0x68]
    31e7:	49 89 c7             	mov    r15,rax
    31ea:	49 be 8a c3 d6 f7 ff 	movabs r14,0x7ffff7d6c38a
    31f1:	7f 00 00 
    31f4:	4d 8d 6d f8          	lea    r13,[r13-0x8]
    31f8:	4d 89 75 00          	mov    QWORD PTR [r13+0x0],r14
    31fc:	4c 89 7d 98          	mov    QWORD PTR [rbp-0x68],r15
    3200:	e9 96 12 00 00       	jmp    0x449b
    3205:	49 89 c0             	mov    r8,rax
    3208:	4c 8b 7d 98          	mov    r15,QWORD PTR [rbp-0x68]
    320c:	4d 85 ff             	test   r15,r15
    320f:	4c 89 7d 98          	mov    QWORD PTR [rbp-0x68],r15
    3213:	0f 84 30 fe ff ff    	je     0x3049
    3219:	e9 03 fe ff ff       	jmp    0x3021
    321e:	31 c0                	xor    eax,eax
    3220:	4c 8b 7d 98          	mov    r15,QWORD PTR [rbp-0x68]
    3224:	49 d1 e7             	shl    r15,1
    3227:	49 d1 ef             	shr    r15,1
    322a:	41 87 07             	xchg   DWORD PTR [r15],eax
    322d:	83 f8 01             	cmp    eax,0x1
    3230:	4c 89 7d 98          	mov    QWORD PTR [rbp-0x68],r15
    3234:	0f 8e 0f fe ff ff    	jle    0x3049
    323a:	45 31 d2             	xor    r10d,r10d
    323d:	ba 01 00 00 00       	mov    edx,0x1
    3242:	be 81 00 00 00       	mov    esi,0x81
    3247:	4c 8b 7d 98          	mov    r15,QWORD PTR [rbp-0x68]
    324b:	4c 89 ff             	mov    rdi,r15
    324e:	b8 ca 00 00 00       	mov    eax,0xca
    3253:	49 be bf c3 d6 f7 ff 	movabs r14,0x7ffff7d6c3bf
    325a:	7f 00 00 
    325d:	e9 7e 12 00 00       	jmp    0x44e0
    3262:	e9 e2 fd ff ff       	jmp    0x3049
    3267:	49 bf cd c3 d6 f7 ff 	movabs r15,0x7ffff7d6c3cd
    326e:	7f 00 00 
    3271:	49 8d 8f 03 fc 11 00 	lea    rcx,[r15+0x11fc03]
    3278:	ba f3 0b 00 00       	mov    edx,0xbf3
    327d:	49 bf d9 c3 d6 f7 ff 	movabs r15,0x7ffff7d6c3d9
    3284:	7f 00 00 
    3287:	49 8d b7 fd af 11 00 	lea    rsi,[r15+0x11affd]
    328e:	49 bf e0 c3 d6 f7 ff 	movabs r15,0x7ffff7d6c3e0
    3295:	7f 00 00 
    3298:	49 8d bf d0 f8 11 00 	lea    rdi,[r15+0x11f8d0]
    329f:	49 bf e5 c3 d6 f7 ff 	movabs r15,0x7ffff7d6c3e5
    32a6:	7f 00 00 
    32a9:	4d 8d 6d f8          	lea    r13,[r13-0x8]
    32ad:	4d 89 7d 00          	mov    QWORD PTR [r13+0x0],r15
    32b1:	e9 91 0e 00 00       	jmp    0x4147
    32b6:	90                   	nop
    32b7:	90                   	nop
    32b8:	4d 8d 6d f8          	lea    r13,[r13-0x8]
    32bc:	4c 8b 7d a0          	mov    r15,QWORD PTR [rbp-0x60]
    32c0:	4d 89 7d 00          	mov    QWORD PTR [r13+0x0],r15
    32c4:	49 be fc c3 d6 f7 ff 	movabs r14,0x7ffff7d6c3fc
    32cb:	7f 00 00 
    32ce:	41 8b 86 68 1e 15 00 	mov    eax,DWORD PTR [r14+0x151e68]
    32d5:	49 89 f7             	mov    r15,rsi
    32d8:	4d 8d 6d f8          	lea    r13,[r13-0x8]
    32dc:	4c 8b 75 98          	mov    r14,QWORD PTR [rbp-0x68]
    32e0:	4d 89 75 00          	mov    QWORD PTR [r13+0x0],r14
    32e4:	4c 89 7d a0          	mov    QWORD PTR [rbp-0x60],r15
    32e8:	49 bf 08 c4 d6 f7 ff 	movabs r15,0x7ffff7d6c408
    32ef:	7f 00 00 
    32f2:	4d 8b b7 d8 1a 15 00 	mov    r14,QWORD PTR [r15+0x151ad8]
    32f9:	4d 8d 6d f8          	lea    r13,[r13-0x8]
    32fd:	4d 89 65 00          	mov    QWORD PTR [r13+0x0],r12
    3301:	49 89 fc             	mov    r12,rdi
    3304:	49 d1 e6             	shl    r14,1
    3307:	49 d1 ee             	shr    r14,1
    330a:	49 c7 06 00 00 00 00 	mov    QWORD PTR [r14],0x0
    3311:	85 c0                	test   eax,eax
    3313:	4c 89 75 98          	mov    QWORD PTR [rbp-0x68],r14
    3317:	79 17                	jns    0x3330
    3319:	49 bf 1d c4 d6 f7 ff 	movabs r15,0x7ffff7d6c41d
    3320:	7f 00 00 
    3323:	4d 8d 6d f8          	lea    r13,[r13-0x8]
    3327:	4d 89 7d 00          	mov    QWORD PTR [r13+0x0],r15
    332b:	e9 a1 10 00 00       	jmp    0x43d1
    3330:	4c 8b 7d 98          	mov    r15,QWORD PTR [rbp-0x68]
    3334:	49 d1 e7             	shl    r15,1
    3337:	49 d1 ef             	shr    r15,1
    333a:	49 8b 07             	mov    rax,QWORD PTR [r15]
    333d:	49 8b 55 18          	mov    rdx,QWORD PTR [r13+0x18]
    3341:	48 85 c0             	test   rax,rax
    3344:	4c 89 7d 98          	mov    QWORD PTR [rbp-0x68],r15
    3348:	0f 85 b6 01 00 00    	jne    0x3504
    334e:	49 83 fc 10          	cmp    r12,0x10
    3352:	0f 86 3e 01 00 00    	jbe    0x3496
    3358:	49 83 fc 1f          	cmp    r12,0x1f
    335c:	0f 87 e5 00 00 00    	ja     0x3447
    3362:	4c 8b 7d 98          	mov    r15,QWORD PTR [rbp-0x68]
    3366:	41 bf 20 00 00 00    	mov    r15d,0x20
    336c:	4c 89 7d 98          	mov    QWORD PTR [rbp-0x68],r15
    3370:	4c 8b 7d 88          	mov    r15,QWORD PTR [rbp-0x78]
    3374:	49 d1 e7             	shl    r15,1
    3377:	49 d1 ef             	shr    r15,1
    337a:	41 8b 47 18          	mov    eax,DWORD PTR [r15+0x18]
    337e:	85 c0                	test   eax,eax
    3380:	0f 85 b4 01 00 00    	jne    0x353a
    3386:	4c 8b 7d a0          	mov    r15,QWORD PTR [rbp-0x60]
    338a:	4c 89 fa             	mov    rdx,r15
    338d:	4c 8b 75 98          	mov    r14,QWORD PTR [rbp-0x68]
    3391:	4c 89 f6             	mov    rsi,r14
    3394:	4c 89 7d a0          	mov    QWORD PTR [rbp-0x60],r15
    3398:	49 bf 62 c4 d6 f7 ff 	movabs r15,0x7ffff7d6c462
    339f:	7f 00 00 
    33a2:	49 8d bf 1e 27 15 00 	lea    rdi,[r15+0x15271e]
    33a9:	49 bf 67 c4 d6 f7 ff 	movabs r15,0x7ffff7d6c467
    33b0:	7f 00 00 
    33b3:	4d 8d 6d f8          	lea    r13,[r13-0x8]
    33b7:	4d 89 7d 00          	mov    QWORD PTR [r13+0x0],r15
    33bb:	4c 89 75 98          	mov    QWORD PTR [rbp-0x68],r14
    33bf:	e9 a1 0e 00 00       	jmp    0x4265
    33c4:	49 89 c0             	mov    r8,rax
    33c7:	48 85 c0             	test   rax,rax
    33ca:	0f 84 f6 00 00 00    	je     0x34c6
    33d0:	48 d1 e0             	shl    rax,1
    33d3:	48 d1 e8             	shr    rax,1
    33d6:	48 8b 40 f8          	mov    rax,QWORD PTR [rax-0x8]
    33da:	a8 02                	test   al,0x2
    33dc:	75 2e                	jne    0x340c
    33de:	a8 04                	test   al,0x4
    33e0:	74 2a                	je     0x340c
    33e2:	49 8d 40 f0          	lea    rax,[r8-0x10]
    33e6:	49 bf 8a c4 d6 f7 ff 	movabs r15,0x7ffff7d6c48a
    33ed:	7f 00 00 
    33f0:	49 8d 97 f6 26 15 00 	lea    rdx,[r15+0x1526f6]
    33f7:	48 25 00 00 00 fc    	and    rax,0xfffffffffc000000
    33fd:	48 d1 e0             	shl    rax,1
    3400:	48 d1 e8             	shr    rax,1
    3403:	48 39 10             	cmp    QWORD PTR [rax],rdx
    3406:	0f 85 ec 03 00 00    	jne    0x37f8
    340c:	4d 8b 65 00          	mov    r12,QWORD PTR [r13+0x0]
    3410:	4d 8d 6d 08          	lea    r13,[r13+0x8]
    3414:	4c 89 c0             	mov    rax,r8
    3417:	4c 8b 7d 98          	mov    r15,QWORD PTR [rbp-0x68]
    341b:	4d 8b 7d 00          	mov    r15,QWORD PTR [r13+0x0]
    341f:	4d 8d 6d 08          	lea    r13,[r13+0x8]
    3423:	4c 8b 75 a0          	mov    r14,QWORD PTR [rbp-0x60]
    3427:	4d 8b 75 00          	mov    r14,QWORD PTR [r13+0x0]
    342b:	4d 8d 6d 08          	lea    r13,[r13+0x8]
    342f:	4c 89 7d 98          	mov    QWORD PTR [rbp-0x68],r15
    3433:	4d 8b 7d 00          	mov    r15,QWORD PTR [r13+0x0]
    3437:	4d 8d 6d 08          	lea    r13,[r13+0x8]
    343b:	4c 89 75 a0          	mov    QWORD PTR [rbp-0x60],r14
    343f:	4d 89 fe             	mov    r14,r15
    3442:	e9 19 0c 00 00       	jmp    0x4060
    3447:	48 b8 00 00 00 00 00 	movabs rax,0x8000000000000000
    344e:	00 00 80 
    3451:	49 39 c4             	cmp    r12,rax
    3454:	0f 87 0f 02 00 00    	ja     0x3669
    345a:	49 8d 44 24 ff       	lea    rax,[r12-0x1]
    345f:	4c 85 e0             	test   rax,r12
    3462:	0f 84 df 03 00 00    	je     0x3847
    3468:	4c 8b 7d 98          	mov    r15,QWORD PTR [rbp-0x68]
    346c:	41 bf 20 00 00 00    	mov    r15d,0x20
    3472:	49 83 fc 20          	cmp    r12,0x20
    3476:	4c 89 7d 98          	mov    QWORD PTR [rbp-0x68],r15
    347a:	0f 84 f0 fe ff ff    	je     0x3370
    3480:	90                   	nop
    3481:	4c 8b 7d 98          	mov    r15,QWORD PTR [rbp-0x68]
    3485:	4d 01 ff             	add    r15,r15
    3488:	4d 39 fc             	cmp    r12,r15
    348b:	4c 89 7d 98          	mov    QWORD PTR [rbp-0x68],r15
    348f:	77 f0                	ja     0x3481
    3491:	e9 da fe ff ff       	jmp    0x3370
    3496:	4d 8b 65 00          	mov    r12,QWORD PTR [r13+0x0]
    349a:	4d 8d 6d 08          	lea    r13,[r13+0x8]
    349e:	4c 8b 7d a0          	mov    r15,QWORD PTR [rbp-0x60]
    34a2:	4c 89 ff             	mov    rdi,r15
    34a5:	4c 8b 75 98          	mov    r14,QWORD PTR [rbp-0x68]
    34a9:	4d 8b 75 00          	mov    r14,QWORD PTR [r13+0x0]
    34ad:	4d 8d 6d 08          	lea    r13,[r13+0x8]
    34b1:	4d 8b 7d 00          	mov    r15,QWORD PTR [r13+0x0]
    34b5:	4d 8d 6d 08          	lea    r13,[r13+0x8]
    34b9:	4c 89 7d a0          	mov    QWORD PTR [rbp-0x60],r15
    34bd:	4c 89 75 98          	mov    QWORD PTR [rbp-0x68],r14
    34c1:	e9 0c f8 ff ff       	jmp    0x2cd2
    34c6:	45 31 c0             	xor    r8d,r8d
    34c9:	4d 8b 65 00          	mov    r12,QWORD PTR [r13+0x0]
    34cd:	4d 8d 6d 08          	lea    r13,[r13+0x8]
    34d1:	4c 8b 7d 98          	mov    r15,QWORD PTR [rbp-0x68]
    34d5:	4d 8b 7d 00          	mov    r15,QWORD PTR [r13+0x0]
    34d9:	4d 8d 6d 08          	lea    r13,[r13+0x8]
    34dd:	4c 89 c0             	mov    rax,r8
    34e0:	4c 8b 75 a0          	mov    r14,QWORD PTR [rbp-0x60]
    34e4:	4d 8b 75 00          	mov    r14,QWORD PTR [r13+0x0]
    34e8:	4d 8d 6d 08          	lea    r13,[r13+0x8]
    34ec:	4c 89 7d 98          	mov    QWORD PTR [rbp-0x68],r15
    34f0:	4d 8b 7d 00          	mov    r15,QWORD PTR [r13+0x0]
    34f4:	4d 8d 6d 08          	lea    r13,[r13+0x8]
    34f8:	4c 89 75 a0          	mov    QWORD PTR [rbp-0x60],r14
    34fc:	4d 89 fe             	mov    r14,r15
    34ff:	e9 6b 0b 00 00       	jmp    0x406f
    3504:	4c 8b 7d a0          	mov    r15,QWORD PTR [rbp-0x60]
    3508:	4c 89 fe             	mov    rsi,r15
    350b:	4c 89 e7             	mov    rdi,r12
    350e:	4d 8b 65 00          	mov    r12,QWORD PTR [r13+0x0]
    3512:	4d 8d 6d 08          	lea    r13,[r13+0x8]
    3516:	4c 8b 75 98          	mov    r14,QWORD PTR [rbp-0x68]
    351a:	4d 8b 75 00          	mov    r14,QWORD PTR [r13+0x0]
    351e:	4d 8d 6d 08          	lea    r13,[r13+0x8]
    3522:	4d 8b 7d 00          	mov    r15,QWORD PTR [r13+0x0]
    3526:	4d 8d 6d 08          	lea    r13,[r13+0x8]
    352a:	4c 89 7d a0          	mov    QWORD PTR [rbp-0x60],r15
    352e:	4c 89 75 98          	mov    QWORD PTR [rbp-0x68],r14
    3532:	49 89 c6             	mov    r14,rax
    3535:	e9 17 0b 00 00       	jmp    0x4051
    353a:	49 bf 27 c5 d6 f7 ff 	movabs r15,0x7ffff7d6c527
    3541:	7f 00 00 
    3544:	49 8b 87 49 18 15 00 	mov    rax,QWORD PTR [r15+0x151849]
    354b:	4c 8b 7d 88          	mov    r15,QWORD PTR [rbp-0x78]
    354f:	4d 8b 24 07          	mov    r12,QWORD PTR [r15+rax*1]
    3553:	4d 85 e4             	test   r12,r12
    3556:	0f 84 64 01 00 00    	je     0x36c0
    355c:	4c 8b 7d 88          	mov    r15,QWORD PTR [rbp-0x78]
    3560:	49 d1 e7             	shl    r15,1
    3563:	49 d1 ef             	shr    r15,1
    3566:	41 8b 47 18          	mov    eax,DWORD PTR [r15+0x18]
    356a:	85 c0                	test   eax,eax
    356c:	0f 85 1c 01 00 00    	jne    0x368e
    3572:	ba 01 00 00 00       	mov    edx,0x1
    3577:	41 0f b1 14 24       	cmpxchg DWORD PTR [r12],edx
    357c:	4c 8b 7d a0          	mov    r15,QWORD PTR [rbp-0x60]
    3580:	4c 89 fa             	mov    rdx,r15
    3583:	4c 8b 75 98          	mov    r14,QWORD PTR [rbp-0x68]
    3587:	4c 89 f6             	mov    rsi,r14
    358a:	4c 89 e7             	mov    rdi,r12
    358d:	4c 89 7d a0          	mov    QWORD PTR [rbp-0x60],r15
    3591:	49 bf 5b c5 d6 f7 ff 	movabs r15,0x7ffff7d6c55b
    3598:	7f 00 00 
    359b:	4d 8d 6d f8          	lea    r13,[r13-0x8]
    359f:	4d 89 7d 00          	mov    QWORD PTR [r13+0x0],r15
    35a3:	4c 89 75 98          	mov    QWORD PTR [rbp-0x68],r14
    35a7:	e9 b9 0c 00 00       	jmp    0x4265
    35ac:	49 89 c0             	mov    r8,rax
    35af:	48 85 c0             	test   rax,rax
    35b2:	0f 84 9e 01 00 00    	je     0x3756
    35b8:	4c 8b 7d 88          	mov    r15,QWORD PTR [rbp-0x78]
    35bc:	49 d1 e7             	shl    r15,1
    35bf:	49 d1 ef             	shr    r15,1
    35c2:	41 8b 47 18          	mov    eax,DWORD PTR [r15+0x18]
    35c6:	85 c0                	test   eax,eax
    35c8:	0f 85 f2 01 00 00    	jne    0x37c0
    35ce:	41 83 2c 24 01       	sub    DWORD PTR [r12],0x1
    35d3:	4d 85 c0             	test   r8,r8
    35d6:	0f 84 ea fe ff ff    	je     0x34c6
    35dc:	49 d1 e0             	shl    r8,1
    35df:	49 d1 e8             	shr    r8,1
    35e2:	49 8b 40 f8          	mov    rax,QWORD PTR [r8-0x8]
    35e6:	a8 02                	test   al,0x2
    35e8:	0f 85 1e fe ff ff    	jne    0x340c
    35ee:	49 bf 93 c5 d6 f7 ff 	movabs r15,0x7ffff7d6c593
    35f5:	7f 00 00 
    35f8:	49 8d 97 ed 25 15 00 	lea    rdx,[r15+0x1525ed]
    35ff:	a8 04                	test   al,0x4
    3601:	74 0d                	je     0x3610
    3603:	49 8d 40 f0          	lea    rax,[r8-0x10]
    3607:	48 25 00 00 00 fc    	and    rax,0xfffffffffc000000
    360d:	48 8b 10             	mov    rdx,QWORD PTR [rax]
    3610:	4c 39 e2             	cmp    rdx,r12
    3613:	0f 84 f3 fd ff ff    	je     0x340c
    3619:	49 bf b4 c5 d6 f7 ff 	movabs r15,0x7ffff7d6c5b4
    3620:	7f 00 00 
    3623:	49 8d 8f dc f9 11 00 	lea    rcx,[r15+0x11f9dc]
    362a:	ba fb 0c 00 00       	mov    edx,0xcfb
    362f:	49 bf c0 c5 d6 f7 ff 	movabs r15,0x7ffff7d6c5c0
    3636:	7f 00 00 
    3639:	49 8d b7 16 ae 11 00 	lea    rsi,[r15+0x11ae16]
    3640:	49 bf c7 c5 d6 f7 ff 	movabs r15,0x7ffff7d6c5c7
    3647:	7f 00 00 
    364a:	49 8d bf 19 f8 11 00 	lea    rdi,[r15+0x11f819]
    3651:	49 bf cc c5 d6 f7 ff 	movabs r15,0x7ffff7d6c5cc
    3658:	7f 00 00 
    365b:	4d 8d 6d f8          	lea    r13,[r13-0x8]
    365f:	4d 89 7d 00          	mov    QWORD PTR [r13+0x0],r15
    3663:	e9 df 0a 00 00       	jmp    0x4147
    3668:	90                   	nop
    3669:	49 bf d7 c5 d6 f7 ff 	movabs r15,0x7ffff7d6c5d7
    3670:	7f 00 00 
    3673:	49 8b 87 99 18 15 00 	mov    rax,QWORD PTR [r15+0x151899]
    367a:	45 31 c0             	xor    r8d,r8d
    367d:	4c 8b 7d 88          	mov    r15,QWORD PTR [rbp-0x78]
    3681:	41 c7 04 07 16 00 00 	mov    DWORD PTR [r15+rax*1],0x16
    3688:	00 
    3689:	e9 7e fd ff ff       	jmp    0x340c
    368e:	31 c0                	xor    eax,eax
    3690:	ba 01 00 00 00       	mov    edx,0x1
    3695:	f0 41 0f b1 14 24    	lock cmpxchg DWORD PTR [r12],edx
    369b:	0f 84 db fe ff ff    	je     0x357c
    36a1:	4c 89 e7             	mov    rdi,r12
    36a4:	49 bf 00 c6 d6 f7 ff 	movabs r15,0x7ffff7d6c600
    36ab:	7f 00 00 
    36ae:	4d 8d 6d f8          	lea    r13,[r13-0x8]
    36b2:	4d 89 7d 00          	mov    QWORD PTR [r13+0x0],r15
    36b6:	e9 90 0b 00 00       	jmp    0x424b
    36bb:	e9 bc fe ff ff       	jmp    0x357c
    36c0:	49 bf 0d c6 d6 f7 ff 	movabs r15,0x7ffff7d6c60d
    36c7:	7f 00 00 
    36ca:	4d 8d 6d f8          	lea    r13,[r13-0x8]
    36ce:	4d 89 7d 00          	mov    QWORD PTR [r13+0x0],r15
    36d2:	e9 be 0a 00 00       	jmp    0x4195
    36d7:	49 89 c4             	mov    r12,rax
    36da:	48 85 c0             	test   rax,rax
    36dd:	0f 85 99 fe ff ff    	jne    0x357c
    36e3:	4c 8b 7d a0          	mov    r15,QWORD PTR [rbp-0x60]
    36e7:	4c 8b 75 98          	mov    r14,QWORD PTR [rbp-0x68]
    36eb:	4b 8d 7c 3e 20       	lea    rdi,[r14+r15*1+0x20]
    36f0:	31 f6                	xor    esi,esi
    36f2:	4c 89 7d a0          	mov    QWORD PTR [rbp-0x60],r15
    36f6:	49 bf 25 c6 d6 f7 ff 	movabs r15,0x7ffff7d6c625
    36fd:	7f 00 00 
    3700:	4d 8d 6d f8          	lea    r13,[r13-0x8]
    3704:	4d 89 7d 00          	mov    QWORD PTR [r13+0x0],r15
    3708:	4c 89 75 98          	mov    QWORD PTR [rbp-0x68],r14
    370c:	e9 da 0c 00 00       	jmp    0x43eb
    3711:	4c 8b 7d a0          	mov    r15,QWORD PTR [rbp-0x60]
    3715:	4c 89 fa             	mov    rdx,r15
    3718:	4c 8b 75 98          	mov    r14,QWORD PTR [rbp-0x68]
    371c:	4c 89 f6             	mov    rsi,r14
    371f:	48 89 c7             	mov    rdi,rax
    3722:	49 89 c4             	mov    r12,rax
    3725:	4c 89 7d a0          	mov    QWORD PTR [rbp-0x60],r15
    3729:	49 bf 36 c6 d6 f7 ff 	movabs r15,0x7ffff7d6c636
    3730:	7f 00 00 
    3733:	4d 8d 6d f8          	lea    r13,[r13-0x8]
    3737:	4d 89 7d 00          	mov    QWORD PTR [r13+0x0],r15
    373b:	4c 89 75 98          	mov    QWORD PTR [rbp-0x68],r14
    373f:	e9 21 0b 00 00       	jmp    0x4265
    3744:	49 89 c0             	mov    r8,rax
    3747:	48 85 c0             	test   rax,rax
    374a:	75 66                	jne    0x37b2
    374c:	4d 85 e4             	test   r12,r12
    374f:	0f 84 7e fe ff ff    	je     0x35d3
    3755:	90                   	nop
    3756:	90                   	nop
    3757:	4c 89 e7             	mov    rdi,r12
    375a:	4c 8b 7d a0          	mov    r15,QWORD PTR [rbp-0x60]
    375e:	4c 89 fe             	mov    rsi,r15
    3761:	49 be 5c c6 d6 f7 ff 	movabs r14,0x7ffff7d6c65c
    3768:	7f 00 00 
    376b:	4d 8d 6d f8          	lea    r13,[r13-0x8]
    376f:	4d 89 75 00          	mov    QWORD PTR [r13+0x0],r14
    3773:	4c 89 7d a0          	mov    QWORD PTR [rbp-0x60],r15
    3777:	e9 63 09 00 00       	jmp    0x40df
    377c:	4c 8b 7d a0          	mov    r15,QWORD PTR [rbp-0x60]
    3780:	4c 89 fa             	mov    rdx,r15
    3783:	4c 8b 75 98          	mov    r14,QWORD PTR [rbp-0x68]
    3787:	4c 89 f6             	mov    rsi,r14
    378a:	48 89 c7             	mov    rdi,rax
    378d:	49 89 c4             	mov    r12,rax
    3790:	4c 89 7d a0          	mov    QWORD PTR [rbp-0x60],r15
    3794:	49 bf 6d c6 d6 f7 ff 	movabs r15,0x7ffff7d6c66d
    379b:	7f 00 00 
    379e:	4d 8d 6d f8          	lea    r13,[r13-0x8]
    37a2:	4d 89 7d 00          	mov    QWORD PTR [r13+0x0],r15
    37a6:	4c 89 75 98          	mov    QWORD PTR [rbp-0x68],r14
    37aa:	e9 b6 0a 00 00       	jmp    0x4265
    37af:	49 89 c0             	mov    r8,rax
    37b2:	4d 85 e4             	test   r12,r12
    37b5:	0f 84 18 fe ff ff    	je     0x35d3
    37bb:	e9 f8 fd ff ff       	jmp    0x35b8
    37c0:	31 c0                	xor    eax,eax
    37c2:	41 87 04 24          	xchg   DWORD PTR [r12],eax
    37c6:	83 f8 01             	cmp    eax,0x1
    37c9:	0f 8e 04 fe ff ff    	jle    0x35d3
    37cf:	45 31 d2             	xor    r10d,r10d
    37d2:	ba 01 00 00 00       	mov    edx,0x1
    37d7:	be 81 00 00 00       	mov    esi,0x81
    37dc:	4c 89 e7             	mov    rdi,r12
    37df:	b8 ca 00 00 00       	mov    eax,0xca
    37e4:	49 be a1 c6 d6 f7 ff 	movabs r14,0x7ffff7d6c6a1
    37eb:	7f 00 00 
    37ee:	e9 ed 0c 00 00       	jmp    0x44e0
    37f3:	e9 db fd ff ff       	jmp    0x35d3
    37f8:	49 bf af c6 d6 f7 ff 	movabs r15,0x7ffff7d6c6af
    37ff:	7f 00 00 
    3802:	49 8d 8f e1 f8 11 00 	lea    rcx,[r15+0x11f8e1]
    3809:	ba e8 0c 00 00       	mov    edx,0xce8
    380e:	49 bf bb c6 d6 f7 ff 	movabs r15,0x7ffff7d6c6bb
    3815:	7f 00 00 
    3818:	49 8d b7 1b ad 11 00 	lea    rsi,[r15+0x11ad1b]
    381f:	49 bf c2 c6 d6 f7 ff 	movabs r15,0x7ffff7d6c6c2
    3826:	7f 00 00 
    3829:	49 8d bf be f6 11 00 	lea    rdi,[r15+0x11f6be]
    3830:	49 bf c7 c6 d6 f7 ff 	movabs r15,0x7ffff7d6c6c7
    3837:	7f 00 00 
    383a:	4d 8d 6d f8          	lea    r13,[r13-0x8]
    383e:	4d 89 7d 00          	mov    QWORD PTR [r13+0x0],r15
    3842:	e9 00 09 00 00       	jmp    0x4147
    3847:	4c 8b 7d 98          	mov    r15,QWORD PTR [rbp-0x68]
    384b:	4d 89 e7             	mov    r15,r12
    384e:	4c 89 7d 98          	mov    QWORD PTR [rbp-0x68],r15
    3852:	e9 19 fb ff ff       	jmp    0x3370
    3857:	90                   	nop
    3858:	4c 8b 7d 88          	mov    r15,QWORD PTR [rbp-0x78]
    385c:	49 d1 e7             	shl    r15,1
    385f:	49 d1 ef             	shr    r15,1
    3862:	41 8b 47 18          	mov    eax,DWORD PTR [r15+0x18]
    3866:	85 c0                	test   eax,eax
    3868:	75 30                	jne    0x389a
    386a:	b8 14 00 00 00       	mov    eax,0x14
    386f:	49 be 85 64 de f7 ff 	movabs r14,0x7ffff7de6485
    3876:	7f 00 00 
    3879:	e9 62 0c 00 00       	jmp    0x44e0
    387e:	48 3d 00 f0 ff ff    	cmp    rax,0xfffffffffffff000
    3884:	0f 87 98 00 00 00    	ja     0x3922
    388a:	4d 8b 7d 00          	mov    r15,QWORD PTR [r13+0x0]
    388e:	4d 8d 6d 08          	lea    r13,[r13+0x8]
    3892:	4d 89 fe             	mov    r14,r15
    3895:	e9 f3 07 00 00       	jmp    0x408d
    389a:	49 83 ed 28          	sub    r13,0x28
    389e:	41 89 55 1c          	mov    DWORD PTR [r13+0x1c],edx
    38a2:	49 89 75 10          	mov    QWORD PTR [r13+0x10],rsi
    38a6:	41 89 7d 08          	mov    DWORD PTR [r13+0x8],edi
    38aa:	49 bf a6 64 de f7 ff 	movabs r15,0x7ffff7de64a6
    38b1:	7f 00 00 
    38b4:	4d 8d 6d f8          	lea    r13,[r13-0x8]
    38b8:	4d 89 7d 00          	mov    QWORD PTR [r13+0x0],r15
    38bc:	e9 44 0b 00 00       	jmp    0x4405
    38c1:	41 8b 55 1c          	mov    edx,DWORD PTR [r13+0x1c]
    38c5:	49 8b 75 10          	mov    rsi,QWORD PTR [r13+0x10]
    38c9:	41 89 c0             	mov    r8d,eax
    38cc:	41 8b 7d 08          	mov    edi,DWORD PTR [r13+0x8]
    38d0:	b8 14 00 00 00       	mov    eax,0x14
    38d5:	49 be bb 64 de f7 ff 	movabs r14,0x7ffff7de64bb
    38dc:	7f 00 00 
    38df:	e9 fc 0b 00 00       	jmp    0x44e0
    38e4:	48 3d 00 f0 ff ff    	cmp    rax,0xfffffffffffff000
    38ea:	77 65                	ja     0x3951
    38ec:	44 89 c7             	mov    edi,r8d
    38ef:	49 89 45 08          	mov    QWORD PTR [r13+0x8],rax
    38f3:	49 bf d2 64 de f7 ff 	movabs r15,0x7ffff7de64d2
    38fa:	7f 00 00 
    38fd:	4d 8d 6d f8          	lea    r13,[r13-0x8]
    3901:	4d 89 7d 00          	mov    QWORD PTR [r13+0x0],r15
    3905:	e9 79 0a 00 00       	jmp    0x4383
    390a:	49 8b 45 08          	mov    rax,QWORD PTR [r13+0x8]
    390e:	49 83 c5 28          	add    r13,0x28
    3912:	4d 8b 7d 00          	mov    r15,QWORD PTR [r13+0x0]
    3916:	4d 8d 6d 08          	lea    r13,[r13+0x8]
    391a:	4d 89 fe             	mov    r14,r15
    391d:	e9 7a 07 00 00       	jmp    0x409c
    3922:	49 bf e7 64 de f7 ff 	movabs r15,0x7ffff7de64e7
    3929:	7f 00 00 
    392c:	49 8b 97 89 79 0d 00 	mov    rdx,QWORD PTR [r15+0xd7989]
    3933:	f7 d8                	neg    eax
    3935:	4c 8b 7d 88          	mov    r15,QWORD PTR [rbp-0x78]
    3939:	41 89 04 17          	mov    DWORD PTR [r15+rdx*1],eax
    393d:	48 c7 c0 ff ff ff ff 	mov    rax,0xffffffffffffffff
    3944:	4d 8b 75 00          	mov    r14,QWORD PTR [r13+0x0]
    3948:	4d 8d 6d 08          	lea    r13,[r13+0x8]
    394c:	e9 2d 07 00 00       	jmp    0x407e
    3951:	49 bf fb 64 de f7 ff 	movabs r15,0x7ffff7de64fb
    3958:	7f 00 00 
    395b:	49 8b 97 75 79 0d 00 	mov    rdx,QWORD PTR [r15+0xd7975]
    3962:	f7 d8                	neg    eax
    3964:	4c 8b 7d 88          	mov    r15,QWORD PTR [rbp-0x78]
    3968:	41 89 04 17          	mov    DWORD PTR [r15+rdx*1],eax
    396c:	48 c7 c0 ff ff ff ff 	mov    rax,0xffffffffffffffff
    3973:	e9 74 ff ff ff       	jmp    0x38ec
    3978:	48 3d 01 f0 ff ff    	cmp    rax,0xfffffffffffff001
    397e:	73 10                	jae    0x3990
    3980:	4d 8b 7d 00          	mov    r15,QWORD PTR [r13+0x0]
    3984:	4d 8d 6d 08          	lea    r13,[r13+0x8]
    3988:	4d 89 fe             	mov    r14,r15
    398b:	e9 8e 02 00 00       	jmp    0x3c1e
    3990:	49 bf 5e 27 df f7 ff 	movabs r15,0x7ffff7df275e
    3997:	7f 00 00 
    399a:	49 8b 8f 12 b7 0c 00 	mov    rcx,QWORD PTR [r15+0xcb712]
    39a1:	f7 d8                	neg    eax
    39a3:	4c 8b 7d 88          	mov    r15,QWORD PTR [rbp-0x78]
    39a7:	41 89 04 0f          	mov    DWORD PTR [r15+rcx*1],eax
    39ab:	48 83 c8 ff          	or     rax,0xffffffffffffffff
    39af:	4d 8b 75 00          	mov    r14,QWORD PTR [r13+0x0]
    39b3:	4d 8d 6d 08          	lea    r13,[r13+0x8]
    39b7:	e9 59 06 00 00       	jmp    0x4015
    39bc:	90                   	nop
    39bd:	41 89 ca             	mov    r10d,ecx
    39c0:	4c 8b 7d 88          	mov    r15,QWORD PTR [rbp-0x78]
    39c4:	49 d1 e7             	shl    r15,1
    39c7:	49 d1 ef             	shr    r15,1
    39ca:	41 8b 47 18          	mov    eax,DWORD PTR [r15+0x18]
    39ce:	85 c0                	test   eax,eax
    39d0:	75 36                	jne    0x3a08
    39d2:	45 31 c9             	xor    r9d,r9d
    39d5:	45 31 c0             	xor    r8d,r8d
    39d8:	b8 2d 00 00 00       	mov    eax,0x2d
    39dd:	49 be 0e 16 fa f7 ff 	movabs r14,0x7ffff7fa160e
    39e4:	7f 00 00 
    39e7:	e9 f4 0a 00 00       	jmp    0x44e0
    39ec:	48 3d 00 f0 ff ff    	cmp    rax,0xfffffffffffff000
    39f2:	0f 87 b6 00 00 00    	ja     0x3aae
    39f8:	4d 8b 7d 00          	mov    r15,QWORD PTR [r13+0x0]
    39fc:	4d 8d 6d 08          	lea    r13,[r13+0x8]
    3a00:	4d 89 fe             	mov    r14,r15
    3a03:	e9 ef 05 00 00       	jmp    0x3ff7
    3a08:	4d 8d 6d f8          	lea    r13,[r13-0x8]
    3a0c:	4d 89 65 00          	mov    QWORD PTR [r13+0x0],r12
    3a10:	49 83 ed 20          	sub    r13,0x20
    3a14:	49 89 55 10          	mov    QWORD PTR [r13+0x10],rdx
    3a18:	49 89 75 08          	mov    QWORD PTR [r13+0x8],rsi
    3a1c:	41 89 7d 00          	mov    DWORD PTR [r13+0x0],edi
    3a20:	41 89 4d 1c          	mov    DWORD PTR [r13+0x1c],ecx
    3a24:	49 bf 3b 16 fa f7 ff 	movabs r15,0x7ffff7fa163b
    3a2b:	7f 00 00 
    3a2e:	4d 8d 6d f8          	lea    r13,[r13-0x8]
    3a32:	4d 89 7d 00          	mov    QWORD PTR [r13+0x0],r15
    3a36:	e9 14 09 00 00       	jmp    0x434f
    3a3b:	45 8b 55 1c          	mov    r10d,DWORD PTR [r13+0x1c]
    3a3f:	41 8b 7d 00          	mov    edi,DWORD PTR [r13+0x0]
    3a43:	45 31 c9             	xor    r9d,r9d
    3a46:	41 89 c4             	mov    r12d,eax
    3a49:	49 8b 55 10          	mov    rdx,QWORD PTR [r13+0x10]
    3a4d:	49 8b 75 08          	mov    rsi,QWORD PTR [r13+0x8]
    3a51:	45 31 c0             	xor    r8d,r8d
    3a54:	b8 2d 00 00 00       	mov    eax,0x2d
    3a59:	49 be 5a 16 fa f7 ff 	movabs r14,0x7ffff7fa165a
    3a60:	7f 00 00 
    3a63:	e9 78 0a 00 00       	jmp    0x44e0
    3a68:	48 3d 00 f0 ff ff    	cmp    rax,0xfffffffffffff000
    3a6e:	77 6d                	ja     0x3add
    3a70:	44 89 e7             	mov    edi,r12d
    3a73:	49 89 45 00          	mov    QWORD PTR [r13+0x0],rax
    3a77:	49 bf 6f 16 fa f7 ff 	movabs r15,0x7ffff7fa166f
    3a7e:	7f 00 00 
    3a81:	4d 8d 6d f8          	lea    r13,[r13-0x8]
    3a85:	4d 89 7d 00          	mov    QWORD PTR [r13+0x0],r15
    3a89:	e9 89 07 00 00       	jmp    0x4217
    3a8e:	49 8b 45 00          	mov    rax,QWORD PTR [r13+0x0]
    3a92:	49 83 c5 20          	add    r13,0x20
    3a96:	4d 8b 65 00          	mov    r12,QWORD PTR [r13+0x0]
    3a9a:	4d 8d 6d 08          	lea    r13,[r13+0x8]
    3a9e:	4d 8b 7d 00          	mov    r15,QWORD PTR [r13+0x0]
    3aa2:	4d 8d 6d 08          	lea    r13,[r13+0x8]
    3aa6:	4d 89 fe             	mov    r14,r15
    3aa9:	e9 58 05 00 00       	jmp    0x4006
    3aae:	49 bf 87 16 fa f7 ff 	movabs r15,0x7ffff7fa1687
    3ab5:	7f 00 00 
    3ab8:	49 8b 97 21 a9 00 00 	mov    rdx,QWORD PTR [r15+0xa921]
    3abf:	f7 d8                	neg    eax
    3ac1:	4c 8b 7d 88          	mov    r15,QWORD PTR [rbp-0x78]
    3ac5:	41 89 04 17          	mov    DWORD PTR [r15+rdx*1],eax
    3ac9:	48 c7 c0 ff ff ff ff 	mov    rax,0xffffffffffffffff
    3ad0:	4d 8b 75 00          	mov    r14,QWORD PTR [r13+0x0]
    3ad4:	4d 8d 6d 08          	lea    r13,[r13+0x8]
    3ad8:	e9 0b 05 00 00       	jmp    0x3fe8
    3add:	49 bf 9b 16 fa f7 ff 	movabs r15,0x7ffff7fa169b
    3ae4:	7f 00 00 
    3ae7:	49 8b 97 0d a9 00 00 	mov    rdx,QWORD PTR [r15+0xa90d]
    3aee:	f7 d8                	neg    eax
    3af0:	4c 8b 7d 88          	mov    r15,QWORD PTR [rbp-0x78]
    3af4:	41 89 04 17          	mov    DWORD PTR [r15+rdx*1],eax
    3af8:	48 c7 c0 ff ff ff ff 	mov    rax,0xffffffffffffffff
    3aff:	e9 6c ff ff ff       	jmp    0x3a70
    3b04:	90                   	nop
    3b05:	49 bf 2b 45 fa f7 ff 	movabs r15,0x7ffff7fa452b
    3b0c:	7f 00 00 
    3b0f:	49 8b 87 7d 7a 00 00 	mov    rax,QWORD PTR [r15+0x7a7d]
    3b16:	4c 8b 7d 88          	mov    r15,QWORD PTR [rbp-0x78]
    3b1a:	49 d1 e7             	shl    r15,1
    3b1d:	49 d1 ef             	shr    r15,1
    3b20:	49 03 07             	add    rax,QWORD PTR [r15]
    3b23:	4d 8b 75 00          	mov    r14,QWORD PTR [r13+0x0]
    3b27:	4d 8d 6d 08          	lea    r13,[r13+0x8]
    3b2b:	e9 55 02 00 00       	jmp    0x3d85
    3b30:	49 bf 25 7c 59 55 55 	movabs r15,0x555555597c25
    3b37:	55 00 00 
    3b3a:	4d 39 fe             	cmp    r14,r15
    3b3d:	0f 84 aa d3 ff ff    	je     0xeed
    3b43:	49 bf 14 66 5a 55 55 	movabs r15,0x5555555a6614
    3b4a:	55 00 00 
    3b4d:	e9 9b 09 00 00       	jmp    0x44ed
    3b52:	49 bf e0 c0 d6 f7 ff 	movabs r15,0x7ffff7d6c0e0
    3b59:	7f 00 00 
    3b5c:	4d 39 fe             	cmp    r14,r15
    3b5f:	0f 84 6d f1 ff ff    	je     0x2cd2
    3b65:	49 bf bb ce 56 55 55 	movabs r15,0x55555556cebb
    3b6c:	55 00 00 
    3b6f:	e9 79 09 00 00       	jmp    0x44ed
    3b74:	49 bf 70 64 de f7 ff 	movabs r15,0x7ffff7de6470
    3b7b:	7f 00 00 
    3b7e:	4d 39 fe             	cmp    r14,r15
    3b81:	0f 84 d0 fc ff ff    	je     0x3857
    3b87:	49 bf 4b ca 56 55 55 	movabs r15,0x55555556ca4b
    3b8e:	55 00 00 
    3b91:	e9 57 09 00 00       	jmp    0x44ed
    3b96:	49 bf 20 45 fa f7 ff 	movabs r15,0x7ffff7fa4520
    3b9d:	7f 00 00 
    3ba0:	4d 39 fe             	cmp    r14,r15
    3ba3:	0f 84 5b ff ff ff    	je     0x3b04
    3ba9:	49 bf cb c9 56 55 55 	movabs r15,0x55555556c9cb
    3bb0:	55 00 00 
    3bb3:	e9 35 09 00 00       	jmp    0x44ed
    3bb8:	49 bf 2b 67 5a 55 55 	movabs r15,0x5555555a672b
    3bbf:	55 00 00 
    3bc2:	4d 39 fe             	cmp    r14,r15
    3bc5:	0f 84 e3 f0 ff ff    	je     0x2cae
    3bcb:	49 bf 60 5e 5a 55 55 	movabs r15,0x5555555a5e60
    3bd2:	55 00 00 
    3bd5:	e9 13 09 00 00       	jmp    0x44ed
    3bda:	49 bf e4 b0 59 55 55 	movabs r15,0x55555559b0e4
    3be1:	55 00 00 
    3be4:	4d 39 fe             	cmp    r14,r15
    3be7:	0f 84 b6 db ff ff    	je     0x17a3
    3bed:	49 bf 08 0b 5a 55 55 	movabs r15,0x5555555a0b08
    3bf4:	55 00 00 
    3bf7:	e9 f1 08 00 00       	jmp    0x44ed
    3bfc:	49 bf c9 b3 57 55 55 	movabs r15,0x55555557b3c9
    3c03:	55 00 00 
    3c06:	4d 39 fe             	cmp    r14,r15
    3c09:	0f 84 84 ca ff ff    	je     0x693
    3c0f:	49 bf 6c b1 57 55 55 	movabs r15,0x55555557b16c
    3c16:	55 00 00 
    3c19:	e9 cf 08 00 00       	jmp    0x44ed
    3c1e:	49 bf 25 24 59 55 55 	movabs r15,0x555555592425
    3c25:	55 00 00 
    3c28:	4d 39 fe             	cmp    r14,r15
    3c2b:	0f 84 ad cc ff ff    	je     0x8de
    3c31:	49 bf 76 24 59 55 55 	movabs r15,0x555555592476
    3c38:	55 00 00 
    3c3b:	4d 39 fe             	cmp    r14,r15
    3c3e:	0f 84 2e cd ff ff    	je     0x972
    3c44:	49 bf 57 27 df f7 ff 	movabs r15,0x7ffff7df2757
    3c4b:	7f 00 00 
    3c4e:	e9 9a 08 00 00       	jmp    0x44ed
    3c53:	49 bf e8 5a 5a 55 55 	movabs r15,0x5555555a5ae8
    3c5a:	55 00 00 
    3c5d:	4d 39 fe             	cmp    r14,r15
    3c60:	0f 84 ed ea ff ff    	je     0x2753
    3c66:	49 bf e6 36 5a 55 55 	movabs r15,0x5555555a36e6
    3c6d:	55 00 00 
    3c70:	e9 78 08 00 00       	jmp    0x44ed
    3c75:	49 bf 8c 24 59 55 55 	movabs r15,0x55555559248c
    3c7c:	55 00 00 
    3c7f:	4d 39 fe             	cmp    r14,r15
    3c82:	0f 84 2b cd ff ff    	je     0x9b3
    3c88:	49 bf b3 65 5a 55 55 	movabs r15,0x5555555a65b3
    3c8f:	55 00 00 
    3c92:	e9 56 08 00 00       	jmp    0x44ed
    3c97:	49 bf f8 4f 5a 55 55 	movabs r15,0x5555555a4ff8
    3c9e:	55 00 00 
    3ca1:	4d 39 fe             	cmp    r14,r15
    3ca4:	0f 84 21 ea ff ff    	je     0x26cb
    3caa:	49 bf 8a 44 5a 55 55 	movabs r15,0x5555555a448a
    3cb1:	55 00 00 
    3cb4:	e9 34 08 00 00       	jmp    0x44ed
    3cb9:	49 bf e1 36 5a 55 55 	movabs r15,0x5555555a36e1
    3cc0:	55 00 00 
    3cc3:	4d 39 fe             	cmp    r14,r15
    3cc6:	0f 84 ef e5 ff ff    	je     0x22bb
    3ccc:	49 bf 93 b1 59 55 55 	movabs r15,0x55555559b193
    3cd3:	55 00 00 
    3cd6:	e9 12 08 00 00       	jmp    0x44ed
    3cdb:	49 bf 8e b1 59 55 55 	movabs r15,0x55555559b18e
    3ce2:	55 00 00 
    3ce5:	4d 39 fe             	cmp    r14,r15
    3ce8:	0f 84 de da ff ff    	je     0x17cc
    3cee:	49 bf f0 b0 59 55 55 	movabs r15,0x55555559b0f0
    3cf5:	55 00 00 
    3cf8:	e9 f0 07 00 00       	jmp    0x44ed
    3cfd:	49 bf f0 15 fa f7 ff 	movabs r15,0x7ffff7fa15f0
    3d04:	7f 00 00 
    3d07:	4d 39 fe             	cmp    r14,r15
    3d0a:	0f 84 ac fc ff ff    	je     0x39bc
    3d10:	49 bf 9b c9 56 55 55 	movabs r15,0x55555556c99b
    3d17:	55 00 00 
    3d1a:	e9 ce 07 00 00       	jmp    0x44ed
    3d1f:	49 bf 6c b1 57 55 55 	movabs r15,0x55555557b16c
    3d26:	55 00 00 
    3d29:	4d 39 fe             	cmp    r14,r15
    3d2c:	0f 84 0f c6 ff ff    	je     0x341
    3d32:	49 bf 05 b4 57 55 55 	movabs r15,0x55555557b405
    3d39:	55 00 00 
    3d3c:	e9 ac 07 00 00       	jmp    0x44ed
    3d41:	49 bf e3 7f 59 55 55 	movabs r15,0x555555597fe3
    3d48:	55 00 00 
    3d4b:	4d 39 fe             	cmp    r14,r15
    3d4e:	0f 84 26 d6 ff ff    	je     0x137a
    3d54:	49 bf 36 24 59 55 55 	movabs r15,0x555555592436
    3d5b:	55 00 00 
    3d5e:	e9 8a 07 00 00       	jmp    0x44ed
    3d63:	49 bf 61 0b 5a 55 55 	movabs r15,0x5555555a0b61
    3d6a:	55 00 00 
    3d6d:	4d 39 fe             	cmp    r14,r15
    3d70:	0f 84 a2 da ff ff    	je     0x1818
    3d76:	49 bf 4e 4c 5a 55 55 	movabs r15,0x5555555a4c4e
    3d7d:	55 00 00 
    3d80:	e9 68 07 00 00       	jmp    0x44ed
    3d85:	49 bf 9c 65 5a 55 55 	movabs r15,0x5555555a659c
    3d8c:	55 00 00 
    3d8f:	4d 39 fe             	cmp    r14,r15
    3d92:	0f 84 57 eb ff ff    	je     0x28ef
    3d98:	49 bf 35 45 fa f7 ff 	movabs r15,0x7ffff7fa4535
    3d9f:	7f 00 00 
    3da2:	e9 46 07 00 00       	jmp    0x44ed
    3da7:	49 bf 0f 5e 5a 55 55 	movabs r15,0x5555555a5e0f
    3dae:	55 00 00 
    3db1:	4d 39 fe             	cmp    r14,r15
    3db4:	0f 84 9e e9 ff ff    	je     0x2758
    3dba:	49 bf ab 5a 5a 55 55 	movabs r15,0x5555555a5aab
    3dc1:	55 00 00 
    3dc4:	e9 24 07 00 00       	jmp    0x44ed
    3dc9:	49 bf d4 49 5a 55 55 	movabs r15,0x5555555a49d4
    3dd0:	55 00 00 
    3dd3:	4d 39 fe             	cmp    r14,r15
    3dd6:	0f 84 d7 e7 ff ff    	je     0x25b3
    3ddc:	49 bf 87 24 59 55 55 	movabs r15,0x555555592487
    3de3:	55 00 00 
    3de6:	e9 02 07 00 00       	jmp    0x44ed
    3deb:	49 bf 7d 18 59 55 55 	movabs r15,0x55555559187d
    3df2:	55 00 00 
    3df5:	4d 39 fe             	cmp    r14,r15
    3df8:	0f 84 36 ca ff ff    	je     0x834
    3dfe:	49 bf 8e c1 d6 f7 ff 	movabs r15,0x7ffff7d6c18e
    3e05:	7f 00 00 
    3e08:	e9 e0 06 00 00       	jmp    0x44ed
    3e0d:	49 bf 3f 65 5a 55 55 	movabs r15,0x5555555a653f
    3e14:	55 00 00 
    3e17:	4d 39 fe             	cmp    r14,r15
    3e1a:	0f 84 00 ea ff ff    	je     0x2820
    3e20:	49 bf 25 7c 59 55 55 	movabs r15,0x555555597c25
    3e27:	55 00 00 
    3e2a:	e9 be 06 00 00       	jmp    0x44ed
    3e2f:	49 bf ea 24 59 55 55 	movabs r15,0x5555555924ea
    3e36:	55 00 00 
    3e39:	e9 af 06 00 00       	jmp    0x44ed
    3e3e:	49 bf 45 5e 5a 55 55 	movabs r15,0x5555555a5e45
    3e45:	55 00 00 
    3e48:	4d 39 fe             	cmp    r14,r15
    3e4b:	0f 84 2b e9 ff ff    	je     0x277c
    3e51:	49 bf 9c 5a 5a 55 55 	movabs r15,0x5555555a5a9c
    3e58:	55 00 00 
    3e5b:	4d 39 fe             	cmp    r14,r15
    3e5e:	0f 84 8b e8 ff ff    	je     0x26ef
    3e64:	49 bf 51 37 5a 55 55 	movabs r15,0x5555555a3751
    3e6b:	55 00 00 
    3e6e:	e9 7a 06 00 00       	jmp    0x44ed
    3e73:	49 bf dc 5e 5a 55 55 	movabs r15,0x5555555a5edc
    3e7a:	55 00 00 
    3e7d:	e9 6b 06 00 00       	jmp    0x44ed
    3e82:	49 bf 0c 7f 59 55 55 	movabs r15,0x555555597f0c
    3e89:	55 00 00 
    3e8c:	4d 39 fe             	cmp    r14,r15
    3e8f:	0f 84 59 d3 ff ff    	je     0x11ee
    3e95:	49 bf f3 2b 59 55 55 	movabs r15,0x555555592bf3
    3e9c:	55 00 00 
    3e9f:	e9 49 06 00 00       	jmp    0x44ed
    3ea4:	49 bf e5 66 5a 55 55 	movabs r15,0x5555555a66e5
    3eab:	55 00 00 
    3eae:	4d 39 fe             	cmp    r14,r15
    3eb1:	0f 84 57 ed ff ff    	je     0x2c0e
    3eb7:	49 bf 09 49 5a 55 55 	movabs r15,0x5555555a4909
    3ebe:	55 00 00 
    3ec1:	4d 39 fe             	cmp    r14,r15
    3ec4:	0f 84 6b e5 ff ff    	je     0x2435
    3eca:	49 bf 91 f7 57 55 55 	movabs r15,0x55555557f791
    3ed1:	55 00 00 
    3ed4:	e9 14 06 00 00       	jmp    0x44ed
    3ed9:	49 bf 72 7b 59 55 55 	movabs r15,0x555555597b72
    3ee0:	55 00 00 
    3ee3:	e9 05 06 00 00       	jmp    0x44ed
    3ee8:	49 bf 82 7c 59 55 55 	movabs r15,0x555555597c82
    3eef:	55 00 00 
    3ef2:	e9 f6 05 00 00       	jmp    0x44ed
    3ef7:	49 bf 20 66 5a 55 55 	movabs r15,0x5555555a6620
    3efe:	55 00 00 
    3f01:	4d 39 fe             	cmp    r14,r15
    3f04:	0f 84 42 eb ff ff    	je     0x2a4c
    3f0a:	49 bf f0 04 57 55 55 	movabs r15,0x5555555704f0
    3f11:	55 00 00 
    3f14:	e9 d4 05 00 00       	jmp    0x44ed
    3f19:	49 bf dc 02 57 55 55 	movabs r15,0x5555555702dc
    3f20:	55 00 00 
    3f23:	4d 39 fe             	cmp    r14,r15
    3f26:	0f 84 ec c1 ff ff    	je     0x118
    3f2c:	49 bf 8d 18 59 55 55 	movabs r15,0x55555559188d
    3f33:	55 00 00 
    3f36:	e9 b2 05 00 00       	jmp    0x44ed
    3f3b:	49 bf eb 04 57 55 55 	movabs r15,0x5555555704eb
    3f42:	55 00 00 
    3f45:	4d 39 fe             	cmp    r14,r15
    3f48:	0f 84 2b c3 ff ff    	je     0x279
    3f4e:	49 bf 71 03 57 55 55 	movabs r15,0x555555570371
    3f55:	55 00 00 
    3f58:	e9 90 05 00 00       	jmp    0x44ed
    3f5d:	49 bf 62 49 5a 55 55 	movabs r15,0x5555555a4962
    3f64:	55 00 00 
    3f67:	4d 39 fe             	cmp    r14,r15
    3f6a:	0f 84 a3 e5 ff ff    	je     0x2513
    3f70:	49 bf 8d b3 57 55 55 	movabs r15,0x55555557b38d
    3f77:	55 00 00 
    3f7a:	e9 6e 05 00 00       	jmp    0x44ed
    3f7f:	49 bf ec 0d 5a 55 55 	movabs r15,0x5555555a0dec
    3f86:	55 00 00 
    3f89:	e9 5f 05 00 00       	jmp    0x44ed
    3f8e:	49 bf 08 12 5a 55 55 	movabs r15,0x5555555a1208
    3f95:	55 00 00 
    3f98:	e9 50 05 00 00       	jmp    0x44ed
    3f9d:	49 bf 84 0f 5a 55 55 	movabs r15,0x5555555a0f84
    3fa4:	55 00 00 
    3fa7:	e9 41 05 00 00       	jmp    0x44ed
    3fac:	49 bf b9 81 59 55 55 	movabs r15,0x5555555981b9
    3fb3:	55 00 00 
    3fb6:	e9 32 05 00 00       	jmp    0x44ed
    3fbb:	49 bf c3 81 59 55 55 	movabs r15,0x5555555981c3
    3fc2:	55 00 00 
    3fc5:	e9 23 05 00 00       	jmp    0x44ed
    3fca:	49 bf e4 b0 59 55 55 	movabs r15,0x55555559b0e4
    3fd1:	55 00 00 
    3fd4:	e9 14 05 00 00       	jmp    0x44ed
    3fd9:	49 bf 46 37 5a 55 55 	movabs r15,0x5555555a3746
    3fe0:	55 00 00 
    3fe3:	e9 05 05 00 00       	jmp    0x44ed
    3fe8:	49 bf 94 16 fa f7 ff 	movabs r15,0x7ffff7fa1694
    3fef:	7f 00 00 
    3ff2:	e9 f6 04 00 00       	jmp    0x44ed
    3ff7:	49 bf 19 16 fa f7 ff 	movabs r15,0x7ffff7fa1619
    3ffe:	7f 00 00 
    4001:	e9 e7 04 00 00       	jmp    0x44ed
    4006:	49 bf 79 16 fa f7 ff 	movabs r15,0x7ffff7fa1679
    400d:	7f 00 00 
    4010:	e9 d8 04 00 00       	jmp    0x44ed
    4015:	49 bf 68 27 df f7 ff 	movabs r15,0x7ffff7df2768
    401c:	7f 00 00 
    401f:	e9 c9 04 00 00       	jmp    0x44ed
    4024:	49 bf 5b c2 d6 f7 ff 	movabs r15,0x7ffff7d6c25b
    402b:	7f 00 00 
    402e:	e9 ba 04 00 00       	jmp    0x44ed
    4033:	49 bf 49 c2 d6 f7 ff 	movabs r15,0x7ffff7d6c249
    403a:	7f 00 00 
    403d:	e9 ab 04 00 00       	jmp    0x44ed
    4042:	49 bf 2b c2 d6 f7 ff 	movabs r15,0x7ffff7d6c22b
    4049:	7f 00 00 
    404c:	e9 9c 04 00 00       	jmp    0x44ed
    4051:	49 bf 1d c5 d6 f7 ff 	movabs r15,0x7ffff7d6c51d
    4058:	7f 00 00 
    405b:	e9 8d 04 00 00       	jmp    0x44ed
    4060:	49 bf a2 c4 d6 f7 ff 	movabs r15,0x7ffff7d6c4a2
    4067:	7f 00 00 
    406a:	e9 7e 04 00 00       	jmp    0x44ed
    406f:	49 bf 0c c5 d6 f7 ff 	movabs r15,0x7ffff7d6c50c
    4076:	7f 00 00 
    4079:	e9 6f 04 00 00       	jmp    0x44ed
    407e:	49 bf f4 64 de f7 ff 	movabs r15,0x7ffff7de64f4
    4085:	7f 00 00 
    4088:	e9 60 04 00 00       	jmp    0x44ed
    408d:	49 bf 90 64 de f7 ff 	movabs r15,0x7ffff7de6490
    4094:	7f 00 00 
    4097:	e9 51 04 00 00       	jmp    0x44ed
    409c:	49 bf dc 64 de f7 ff 	movabs r15,0x7ffff7de64dc
    40a3:	7f 00 00 
    40a6:	e9 42 04 00 00       	jmp    0x44ed
    40ab:	49 be 00 cb 56 55 55 	movabs r14,0x55555556cb00
    40b2:	55 00 00 
    40b5:	48 c7 85 78 ff ff ff 	mov    QWORD PTR [rbp-0x88],0x1
    40bc:	01 00 00 00 
    40c0:	e9 36 04 00 00       	jmp    0x44fb
    40c5:	49 be 80 c9 56 55 55 	movabs r14,0x55555556c980
    40cc:	55 00 00 
    40cf:	48 c7 85 78 ff ff ff 	mov    QWORD PTR [rbp-0x88],0x1
    40d6:	01 00 00 00 
    40da:	e9 1c 04 00 00       	jmp    0x44fb
    40df:	49 be 80 80 d6 f7 ff 	movabs r14,0x7ffff7d68080
    40e6:	7f 00 00 
    40e9:	48 c7 85 78 ff ff ff 	mov    QWORD PTR [rbp-0x88],0x1
    40f0:	01 00 00 00 
    40f4:	e9 02 04 00 00       	jmp    0x44fb
    40f9:	49 be 83 87 59 55 55 	movabs r14,0x555555598783
    4100:	55 00 00 
    4103:	48 c7 85 78 ff ff ff 	mov    QWORD PTR [rbp-0x88],0x1
    410a:	01 00 00 00 
    410e:	e9 e8 03 00 00       	jmp    0x44fb
    4113:	49 be 04 23 57 55 55 	movabs r14,0x555555572304
    411a:	55 00 00 
    411d:	48 c7 85 78 ff ff ff 	mov    QWORD PTR [rbp-0x88],0x1
    4124:	01 00 00 00 
    4128:	e9 ce 03 00 00       	jmp    0x44fb
    412d:	49 be 05 b4 57 55 55 	movabs r14,0x55555557b405
    4134:	55 00 00 
    4137:	48 c7 85 78 ff ff ff 	mov    QWORD PTR [rbp-0x88],0x1
    413e:	01 00 00 00 
    4142:	e9 b4 03 00 00       	jmp    0x44fb
    4147:	49 be 80 72 d6 f7 ff 	movabs r14,0x7ffff7d67280
    414e:	7f 00 00 
    4151:	48 c7 85 78 ff ff ff 	mov    QWORD PTR [rbp-0x88],0x1
    4158:	01 00 00 00 
    415c:	e9 9a 03 00 00       	jmp    0x44fb
    4161:	49 be 07 5b 5a 55 55 	movabs r14,0x5555555a5b07
    4168:	55 00 00 
    416b:	48 c7 85 78 ff ff ff 	mov    QWORD PTR [rbp-0x88],0x1
    4172:	01 00 00 00 
    4176:	e9 80 03 00 00       	jmp    0x44fb
    417b:	49 be 10 cc 56 55 55 	movabs r14,0x55555556cc10
    4182:	55 00 00 
    4185:	48 c7 85 78 ff ff ff 	mov    QWORD PTR [rbp-0x88],0x1
    418c:	01 00 00 00 
    4190:	e9 66 03 00 00       	jmp    0x44fb
    4195:	49 be 10 77 d6 f7 ff 	movabs r14,0x7ffff7d67710
    419c:	7f 00 00 
    419f:	48 c7 85 78 ff ff ff 	mov    QWORD PTR [rbp-0x88],0x1
    41a6:	01 00 00 00 
    41aa:	e9 4c 03 00 00       	jmp    0x44fb
    41af:	49 be 13 4b 57 55 55 	movabs r14,0x555555574b13
    41b6:	55 00 00 
    41b9:	48 c7 85 78 ff ff ff 	mov    QWORD PTR [rbp-0x88],0x1
    41c0:	01 00 00 00 
    41c4:	e9 32 03 00 00       	jmp    0x44fb
    41c9:	49 be 94 42 57 55 55 	movabs r14,0x555555574294
    41d0:	55 00 00 
    41d3:	48 c7 85 78 ff ff ff 	mov    QWORD PTR [rbp-0x88],0x1
    41da:	01 00 00 00 
    41de:	e9 18 03 00 00       	jmp    0x44fb
    41e3:	49 be 1a fc 57 55 55 	movabs r14,0x55555557fc1a
    41ea:	55 00 00 
    41ed:	48 c7 85 78 ff ff ff 	mov    QWORD PTR [rbp-0x88],0x1
    41f4:	01 00 00 00 
    41f8:	e9 fe 02 00 00       	jmp    0x44fb
    41fd:	49 be 20 ce 56 55 55 	movabs r14,0x55555556ce20
    4204:	55 00 00 
    4207:	48 c7 85 78 ff ff ff 	mov    QWORD PTR [rbp-0x88],0x1
    420e:	01 00 00 00 
    4212:	e9 e4 02 00 00       	jmp    0x44fb
    4217:	49 be a0 10 fa f7 ff 	movabs r14,0x7ffff7fa10a0
    421e:	7f 00 00 
    4221:	48 c7 85 78 ff ff ff 	mov    QWORD PTR [rbp-0x88],0x1
    4228:	01 00 00 00 
    422c:	e9 ca 02 00 00       	jmp    0x44fb
    4231:	49 be 22 44 57 55 55 	movabs r14,0x555555574422
    4238:	55 00 00 
    423b:	48 c7 85 78 ff ff ff 	mov    QWORD PTR [rbp-0x88],0x1
    4242:	01 00 00 00 
    4246:	e9 b0 02 00 00       	jmp    0x44fb
    424b:	49 be a0 65 d6 f7 ff 	movabs r14,0x7ffff7d665a0
    4252:	7f 00 00 
    4255:	48 c7 85 78 ff ff ff 	mov    QWORD PTR [rbp-0x88],0x1
    425c:	01 00 00 00 
    4260:	e9 96 02 00 00       	jmp    0x44fb
    4265:	49 be a0 aa d6 f7 ff 	movabs r14,0x7ffff7d6aaa0
    426c:	7f 00 00 
    426f:	48 c7 85 78 ff ff ff 	mov    QWORD PTR [rbp-0x88],0x1
    4276:	01 00 00 00 
    427a:	e9 7c 02 00 00       	jmp    0x44fb
    427f:	49 be 26 05 57 55 55 	movabs r14,0x555555570526
    4286:	55 00 00 
    4289:	48 c7 85 78 ff ff ff 	mov    QWORD PTR [rbp-0x88],0x1
    4290:	01 00 00 00 
    4294:	e9 62 02 00 00       	jmp    0x44fb
    4299:	49 be 29 3a 5a 55 55 	movabs r14,0x5555555a3a29
    42a0:	55 00 00 
    42a3:	48 c7 85 78 ff ff ff 	mov    QWORD PTR [rbp-0x88],0x1
    42aa:	01 00 00 00 
    42ae:	e9 48 02 00 00       	jmp    0x44fb
    42b3:	49 be b2 e3 58 55 55 	movabs r14,0x55555558e3b2
    42ba:	55 00 00 
    42bd:	48 c7 85 78 ff ff ff 	mov    QWORD PTR [rbp-0x88],0x1
    42c4:	01 00 00 00 
    42c8:	e9 2e 02 00 00       	jmp    0x44fb
    42cd:	49 be 34 2a 59 55 55 	movabs r14,0x555555592a34
    42d4:	55 00 00 
    42d7:	48 c7 85 78 ff ff ff 	mov    QWORD PTR [rbp-0x88],0x1
    42de:	01 00 00 00 
    42e2:	e9 14 02 00 00       	jmp    0x44fb
    42e7:	49 be 37 59 57 55 55 	movabs r14,0x555555575937
    42ee:	55 00 00 
    42f1:	48 c7 85 78 ff ff ff 	mov    QWORD PTR [rbp-0x88],0x1
    42f8:	01 00 00 00 
    42fc:	e9 fa 01 00 00       	jmp    0x44fb
    4301:	49 be 3a fa 57 55 55 	movabs r14,0x55555557fa3a
    4308:	55 00 00 
    430b:	48 c7 85 78 ff ff ff 	mov    QWORD PTR [rbp-0x88],0x1
    4312:	01 00 00 00 
    4316:	e9 e0 01 00 00       	jmp    0x44fb
    431b:	49 be be 4b 5a 55 55 	movabs r14,0x5555555a4bbe
    4322:	55 00 00 
    4325:	48 c7 85 78 ff ff ff 	mov    QWORD PTR [rbp-0x88],0x1
    432c:	01 00 00 00 
    4330:	e9 c6 01 00 00       	jmp    0x44fb
    4335:	49 be c0 cc 56 55 55 	movabs r14,0x55555556ccc0
    433c:	55 00 00 
    433f:	48 c7 85 78 ff ff ff 	mov    QWORD PTR [rbp-0x88],0x1
    4346:	01 00 00 00 
    434a:	e9 ac 01 00 00       	jmp    0x44fb
    434f:	49 be 40 10 fa f7 ff 	movabs r14,0x7ffff7fa1040
    4356:	7f 00 00 
    4359:	48 c7 85 78 ff ff ff 	mov    QWORD PTR [rbp-0x88],0x1
    4360:	01 00 00 00 
    4364:	e9 92 01 00 00       	jmp    0x44fb
    4369:	49 be 40 a9 d6 f7 ff 	movabs r14,0x7ffff7d6a940
    4370:	7f 00 00 
    4373:	48 c7 85 78 ff ff ff 	mov    QWORD PTR [rbp-0x88],0x1
    437a:	01 00 00 00 
    437e:	e9 78 01 00 00       	jmp    0x44fb
    4383:	49 be 40 66 d6 f7 ff 	movabs r14,0x7ffff7d66640
    438a:	7f 00 00 
    438d:	48 c7 85 78 ff ff ff 	mov    QWORD PTR [rbp-0x88],0x1
    4394:	01 00 00 00 
    4398:	e9 5e 01 00 00       	jmp    0x44fb
    439d:	49 be 4e 33 5a 55 55 	movabs r14,0x5555555a334e
    43a4:	55 00 00 
    43a7:	48 c7 85 78 ff ff ff 	mov    QWORD PTR [rbp-0x88],0x1
    43ae:	01 00 00 00 
    43b2:	e9 44 01 00 00       	jmp    0x44fb
    43b7:	49 be cf f5 56 55 55 	movabs r14,0x55555556f5cf
    43be:	55 00 00 
    43c1:	48 c7 85 78 ff ff ff 	mov    QWORD PTR [rbp-0x88],0x1
    43c8:	01 00 00 00 
    43cc:	e9 2a 01 00 00       	jmp    0x44fb
    43d1:	49 be 50 b0 d6 f7 ff 	movabs r14,0x7ffff7d6b050
    43d8:	7f 00 00 
    43db:	48 c7 85 78 ff ff ff 	mov    QWORD PTR [rbp-0x88],0x1
    43e2:	01 00 00 00 
    43e6:	e9 10 01 00 00       	jmp    0x44fb
    43eb:	49 be e0 7a d6 f7 ff 	movabs r14,0x7ffff7d67ae0
    43f2:	7f 00 00 
    43f5:	48 c7 85 78 ff ff ff 	mov    QWORD PTR [rbp-0x88],0x1
    43fc:	01 00 00 00 
    4400:	e9 f6 00 00 00       	jmp    0x44fb
    4405:	49 be e0 65 d6 f7 ff 	movabs r14,0x7ffff7d665e0
    440c:	7f 00 00 
    440f:	48 c7 85 78 ff ff ff 	mov    QWORD PTR [rbp-0x88],0x1
    4416:	01 00 00 00 
    441a:	e9 dc 00 00 00       	jmp    0x44fb
    441f:	49 be 65 85 5a 55 55 	movabs r14,0x5555555a8565
    4426:	55 00 00 
    4429:	48 c7 85 78 ff ff ff 	mov    QWORD PTR [rbp-0x88],0x1
    4430:	01 00 00 00 
    4434:	e9 c2 00 00 00       	jmp    0x44fb
    4439:	49 be e6 01 57 55 55 	movabs r14,0x5555555701e6
    4440:	55 00 00 
    4443:	48 c7 85 78 ff ff ff 	mov    QWORD PTR [rbp-0x88],0x1
    444a:	01 00 00 00 
    444e:	e9 a8 00 00 00       	jmp    0x44fb
    4453:	49 be ea 23 59 55 55 	movabs r14,0x5555555923ea
    445a:	55 00 00 
    445d:	48 c7 85 78 ff ff ff 	mov    QWORD PTR [rbp-0x88],0x1
    4464:	01 00 00 00 
    4468:	e9 8e 00 00 00       	jmp    0x44fb
    446d:	49 be 6e 47 59 55 55 	movabs r14,0x55555559476e
    4474:	55 00 00 
    4477:	48 c7 85 78 ff ff ff 	mov    QWORD PTR [rbp-0x88],0x1
    447e:	01 00 00 00 
    4482:	eb 77                	jmp    0x44fb
    4484:	49 be 70 ca 56 55 55 	movabs r14,0x55555556ca70
    448b:	55 00 00 
    448e:	48 c7 85 78 ff ff ff 	mov    QWORD PTR [rbp-0x88],0x1
    4495:	01 00 00 00 
    4499:	eb 60                	jmp    0x44fb
    449b:	49 be 70 9a d6 f7 ff 	movabs r14,0x7ffff7d69a70
    44a2:	7f 00 00 
    44a5:	48 c7 85 78 ff ff ff 	mov    QWORD PTR [rbp-0x88],0x1
    44ac:	01 00 00 00 
    44b0:	eb 49                	jmp    0x44fb
    44b2:	49 be f3 05 57 55 55 	movabs r14,0x5555555705f3
    44b9:	55 00 00 
    44bc:	48 c7 85 78 ff ff ff 	mov    QWORD PTR [rbp-0x88],0x1
    44c3:	01 00 00 00 
    44c7:	eb 32                	jmp    0x44fb
    44c9:	49 be 7a 22 57 55 55 	movabs r14,0x55555557227a
    44d0:	55 00 00 
    44d3:	48 c7 85 78 ff ff ff 	mov    QWORD PTR [rbp-0x88],0x1
    44da:	01 00 00 00 
    44de:	eb 1b                	jmp    0x44fb
    44e0:	48 c7 85 78 ff ff ff 	mov    QWORD PTR [rbp-0x88],0x0
    44e7:	00 00 00 00 
    44eb:	eb 0e                	jmp    0x44fb
    44ed:	4c 89 bd 78 ff ff ff 	mov    QWORD PTR [rbp-0x88],r15
    44f4:	eb 05                	jmp    0x44fb
    44f6:	eb 03                	jmp    0x44fb
    44f8:	9d                   	popf   
    44f9:	eb 00                	jmp    0x44fb
    44fb:	4c 89 75 80          	mov    QWORD PTR [rbp-0x80],r14
    44ff:	4c 89 6d b8          	mov    QWORD PTR [rbp-0x48],r13
    4503:	4c 89 65 c0          	mov    QWORD PTR [rbp-0x40],r12
    4507:	4c 8b 75 d0          	mov    r14,QWORD PTR [rbp-0x30]
    450b:	4c 8b 7d c8          	mov    r15,QWORD PTR [rbp-0x38]
    450f:	41 8f 47 08          	pop    QWORD PTR [r15+0x8]
    4513:	41 8f 07             	pop    QWORD PTR [r15]
    4516:	41 8f 86 80 00 00 00 	pop    QWORD PTR [r14+0x80]
    451d:	48 83 c4 10          	add    rsp,0x10
    4521:	41 8f 46 18          	pop    QWORD PTR [r14+0x18]
    4525:	41 8f 46 10          	pop    QWORD PTR [r14+0x10]
    4529:	41 8f 46 08          	pop    QWORD PTR [r14+0x8]
    452d:	41 8f 06             	pop    QWORD PTR [r14]
    4530:	41 8f 86 98 00 00 00 	pop    QWORD PTR [r14+0x98]
    4537:	41 8f 46 20          	pop    QWORD PTR [r14+0x20]
    453b:	49 89 5e 28          	mov    QWORD PTR [r14+0x28],rbx
    453f:	4d 89 5e 30          	mov    QWORD PTR [r14+0x30],r11
    4543:	4d 89 56 38          	mov    QWORD PTR [r14+0x38],r10
    4547:	4d 89 4e 40          	mov    QWORD PTR [r14+0x40],r9
    454b:	4d 89 46 48          	mov    QWORD PTR [r14+0x48],r8
    454f:	49 89 46 50          	mov    QWORD PTR [r14+0x50],rax
    4553:	49 89 4e 58          	mov    QWORD PTR [r14+0x58],rcx
    4557:	49 89 56 60          	mov    QWORD PTR [r14+0x60],rdx
    455b:	49 89 76 68          	mov    QWORD PTR [r14+0x68],rsi
    455f:	49 89 7e 70          	mov    QWORD PTR [r14+0x70],rdi
    4563:	48 83 c4 10          	add    rsp,0x10
    4567:	41 5f                	pop    r15
    4569:	41 5e                	pop    r14
    456b:	41 5d                	pop    r13
    456d:	41 5c                	pop    r12
    456f:	5b                   	pop    rbx
    4570:	5d                   	pop    rbp
    4571:	c3                   	ret    
