
./asm/jit.bin:     file format binary


Disassembly of section .data:

0000000000000000 <.data>:
       0:	55                   	push   rbp
       1:	48 89 e5             	mov    rbp,rsp
       4:	53                   	push   rbx
       5:	41 54                	push   r12
       7:	41 55                	push   r13
       9:	41 56                	push   r14
       b:	41 57                	push   r15
       d:	57                   	push   rdi
       e:	56                   	push   rsi
       f:	49 89 fe             	mov    r14,rdi
      12:	49 89 f7             	mov    r15,rsi
      15:	49 8b 5e 28          	mov    rbx,QWORD PTR [r14+0x28]
      19:	4d 8b 5e 30          	mov    r11,QWORD PTR [r14+0x30]
      1d:	4d 8b 56 38          	mov    r10,QWORD PTR [r14+0x38]
      21:	4d 8b 4e 40          	mov    r9,QWORD PTR [r14+0x40]
      25:	4d 8b 46 48          	mov    r8,QWORD PTR [r14+0x48]
      29:	49 8b 46 50          	mov    rax,QWORD PTR [r14+0x50]
      2d:	49 8b 4e 58          	mov    rcx,QWORD PTR [r14+0x58]
      31:	49 8b 56 60          	mov    rdx,QWORD PTR [r14+0x60]
      35:	49 8b 76 68          	mov    rsi,QWORD PTR [r14+0x68]
      39:	49 8b 7e 70          	mov    rdi,QWORD PTR [r14+0x70]
      3d:	41 ff 76 20          	push   QWORD PTR [r14+0x20]
      41:	41 ff b6 98 00 00 00 	push   QWORD PTR [r14+0x98]
      48:	41 ff 36             	push   QWORD PTR [r14]
      4b:	41 ff 76 08          	push   QWORD PTR [r14+0x8]
      4f:	41 ff 76 10          	push   QWORD PTR [r14+0x10]
      53:	41 ff 76 18          	push   QWORD PTR [r14+0x18]
      57:	41 ff 77 08          	push   QWORD PTR [r15+0x8]
      5b:	41 ff 37             	push   QWORD PTR [r15]
      5e:	48 83 ec 18          	sub    rsp,0x18
      62:	4c 8b 6d b8          	mov    r13,QWORD PTR [rbp-0x48]
      66:	4c 8b 65 c0          	mov    r12,QWORD PTR [rbp-0x40]
      6a:	48 c7 85 70 ff ff ff 	mov    QWORD PTR [rbp-0x90],0x0
      71:	00 00 00 00 
      75:	e9 1c c2 00 00       	jmp    0xc296
      7a:	90                   	nop
      7b:	4d 8d 6d f8          	lea    r13,[r13-0x8]
      7f:	4c 8b 7d b0          	mov    r15,QWORD PTR [rbp-0x50]
      83:	4d 89 7d 00          	mov    QWORD PTR [r13+0x0],r15
      87:	4d 8d 6d f8          	lea    r13,[r13-0x8]
      8b:	4c 8b 75 a8          	mov    r14,QWORD PTR [rbp-0x58]
      8f:	4d 89 75 00          	mov    QWORD PTR [r13+0x0],r14
      93:	4d 8d 6d f8          	lea    r13,[r13-0x8]
      97:	4c 89 7d b0          	mov    QWORD PTR [rbp-0x50],r15
      9b:	4c 8b 7d a0          	mov    r15,QWORD PTR [rbp-0x60]
      9f:	4d 89 7d 00          	mov    QWORD PTR [r13+0x0],r15
      a3:	49 89 f7             	mov    r15,rsi
      a6:	4d 8d 6d f8          	lea    r13,[r13-0x8]
      aa:	4c 89 7d a0          	mov    QWORD PTR [rbp-0x60],r15
      ae:	4c 8b 7d 98          	mov    r15,QWORD PTR [rbp-0x68]
      b2:	4d 89 7d 00          	mov    QWORD PTR [r13+0x0],r15
      b6:	49 89 cf             	mov    r15,rcx
      b9:	4d 8d 6d f8          	lea    r13,[r13-0x8]
      bd:	4d 89 65 00          	mov    QWORD PTR [r13+0x0],r12
      c1:	4d 8d 6d f8          	lea    r13,[r13-0x8]
      c5:	49 89 5d 00          	mov    QWORD PTR [r13+0x0],rbx
      c9:	48 89 fb             	mov    rbx,rdi
      cc:	49 81 ed 08 09 00 00 	sub    r13,0x908
      d3:	41 89 55 10          	mov    DWORD PTR [r13+0x10],edx
      d7:	4d 89 85 70 08 00 00 	mov    QWORD PTR [r13+0x870],r8
      de:	4d 89 8d 78 08 00 00 	mov    QWORD PTR [r13+0x878],r9
      e5:	84 c0                	test   al,al
      e7:	4c 89 7d 98          	mov    QWORD PTR [rbp-0x68],r15
      eb:	4c 89 75 a8          	mov    QWORD PTR [rbp-0x58],r14
      ef:	74 40                	je     0x131
      f1:	41 0f 29 85 80 08 00 	movaps XMMWORD PTR [r13+0x880],xmm0
      f8:	00 
      f9:	41 0f 29 8d 90 08 00 	movaps XMMWORD PTR [r13+0x890],xmm1
     100:	00 
     101:	41 0f 29 95 a0 08 00 	movaps XMMWORD PTR [r13+0x8a0],xmm2
     108:	00 
     109:	41 0f 29 9d b0 08 00 	movaps XMMWORD PTR [r13+0x8b0],xmm3
     110:	00 
     111:	41 0f 29 a5 c0 08 00 	movaps XMMWORD PTR [r13+0x8c0],xmm4
     118:	00 
     119:	41 0f 29 ad d0 08 00 	movaps XMMWORD PTR [r13+0x8d0],xmm5
     120:	00 
     121:	41 0f 29 b5 e0 08 00 	movaps XMMWORD PTR [r13+0x8e0],xmm6
     128:	00 
     129:	41 0f 29 bd f0 08 00 	movaps XMMWORD PTR [r13+0x8f0],xmm7
     130:	00 
     131:	4c 8b 7d 88          	mov    r15,QWORD PTR [rbp-0x78]
     135:	49 8b 47 28          	mov    rax,QWORD PTR [r15+0x28]
     139:	49 89 85 48 08 00 00 	mov    QWORD PTR [r13+0x848],rax
     140:	31 c0                	xor    eax,eax
     142:	4d 8d 65 40          	lea    r12,[r13+0x40]
     146:	b9 00 08 00 00       	mov    ecx,0x800
     14b:	49 be 4a b5 57 55 55 	movabs r14,0x55555557b54a
     152:	55 00 00 
     155:	4c 89 7d 88          	mov    QWORD PTR [rbp-0x78],r15
     159:	4c 8b 7d a8          	mov    r15,QWORD PTR [rbp-0x58]
     15d:	4d 8d be 56 73 11 00 	lea    r15,[r14+0x117356]
     164:	4c 89 e7             	mov    rdi,r12
     167:	49 8b 17             	mov    rdx,QWORD PTR [r15]
     16a:	49 8b 77 08          	mov    rsi,QWORD PTR [r15+0x8]
     16e:	49 be 59 b5 57 55 55 	movabs r14,0x55555557b559
     175:	55 00 00 
     178:	4d 8d 6d f8          	lea    r13,[r13-0x8]
     17c:	4d 89 75 00          	mov    QWORD PTR [r13+0x0],r14
     180:	4c 89 7d a8          	mov    QWORD PTR [rbp-0x58],r15
     184:	e9 04 ef 00 00       	jmp    0xf08d
     189:	48 89 d8             	mov    rax,rbx
     18c:	4c 8b 7d a8          	mov    r15,QWORD PTR [rbp-0x58]
     190:	49 8b 3f             	mov    rdi,QWORD PTR [r15]
     193:	49 be 66 b5 57 55 55 	movabs r14,0x55555557b566
     19a:	55 00 00 
     19d:	49 8d b6 da 9f 0e 00 	lea    rsi,[r14+0xe9fda]
     1a4:	48 c1 e0 04          	shl    rax,0x4
     1a8:	4d 8d bd 40 08 00 00 	lea    r15,[r13+0x840]
     1af:	49 be 79 b5 57 55 55 	movabs r14,0x55555557b579
     1b6:	55 00 00 
     1b9:	49 8d 96 36 5d 0b 00 	lea    rdx,[r14+0xb5d36]
     1c0:	48 01 f0             	add    rax,rsi
     1c3:	4c 01 e7             	add    rdi,r12
     1c6:	4c 89 fe             	mov    rsi,r15
     1c9:	48 89 c1             	mov    rcx,rax
     1cc:	49 89 45 18          	mov    QWORD PTR [r13+0x18],rax
     1d0:	31 c0                	xor    eax,eax
     1d2:	49 be 91 b5 57 55 55 	movabs r14,0x55555557b591
     1d9:	55 00 00 
     1dc:	4d 8d 6d f8          	lea    r13,[r13-0x8]
     1e0:	4d 89 75 00          	mov    QWORD PTR [r13+0x0],r14
     1e4:	4c 89 7d a8          	mov    QWORD PTR [rbp-0x58],r15
     1e8:	e9 6e f5 00 00       	jmp    0xf75b
     1ed:	4c 8b 7d b0          	mov    r15,QWORD PTR [rbp-0x50]
     1f1:	49 89 c7             	mov    r15,rax
     1f4:	49 be 99 b5 57 55 55 	movabs r14,0x55555557b599
     1fb:	55 00 00 
     1fe:	4d 8d 6d f8          	lea    r13,[r13-0x8]
     202:	4d 89 75 00          	mov    QWORD PTR [r13+0x0],r14
     206:	4c 89 7d b0          	mov    QWORD PTR [rbp-0x50],r15
     20a:	e9 64 ee 00 00       	jmp    0xf073
     20f:	49 bf a0 b5 57 55 55 	movabs r15,0x55555557b5a0
     216:	55 00 00 
     219:	49 8d 97 fb 5c 0b 00 	lea    rdx,[r15+0xb5cfb]
     220:	4c 8b 7d a8          	mov    r15,QWORD PTR [rbp-0x58]
     224:	4c 89 fe             	mov    rsi,r15
     227:	4c 8b 75 b0          	mov    r14,QWORD PTR [rbp-0x50]
     22b:	4c 89 f7             	mov    rdi,r14
     22e:	41 89 c0             	mov    r8d,eax
     231:	4c 89 7d a8          	mov    QWORD PTR [rbp-0x58],r15
     235:	49 bf b0 b5 57 55 55 	movabs r15,0x55555557b5b0
     23c:	55 00 00 
     23f:	49 8d 87 d0 35 12 00 	lea    rax,[r15+0x1235d0]
     246:	8b 08                	mov    ecx,DWORD PTR [rax]
     248:	31 c0                	xor    eax,eax
     24a:	49 bf b9 b5 57 55 55 	movabs r15,0x55555557b5b9
     251:	55 00 00 
     254:	4d 8d 6d f8          	lea    r13,[r13-0x8]
     258:	4d 89 7d 00          	mov    QWORD PTR [r13+0x0],r15
     25c:	4c 89 75 b0          	mov    QWORD PTR [rbp-0x50],r14
     260:	e9 f6 f4 00 00       	jmp    0xf75b
     265:	4c 8b 7d a0          	mov    r15,QWORD PTR [rbp-0x60]
     269:	49 8b 4f 10          	mov    rcx,QWORD PTR [r15+0x10]
     26d:	49 89 45 08          	mov    QWORD PTR [r13+0x8],rax
     271:	48 85 c9             	test   rcx,rcx
     274:	4c 89 7d a0          	mov    QWORD PTR [rbp-0x60],r15
     278:	0f 85 d1 03 00 00    	jne    0x64f
     27e:	49 8b 7d 08          	mov    rdi,QWORD PTR [r13+0x8]
     282:	49 8d 4d 28          	lea    rcx,[r13+0x28]
     286:	4c 8b 7d 98          	mov    r15,QWORD PTR [rbp-0x68]
     28a:	4c 89 fa             	mov    rdx,r15
     28d:	4c 8b 75 a8          	mov    r14,QWORD PTR [rbp-0x58]
     291:	4c 89 f6             	mov    rsi,r14
     294:	49 8d 85 40 09 00 00 	lea    rax,[r13+0x940]
     29b:	41 c7 45 28 20 00 00 	mov    DWORD PTR [r13+0x28],0x20
     2a2:	00 
     2a3:	49 89 45 30          	mov    QWORD PTR [r13+0x30],rax
     2a7:	49 8d 85 50 08 00 00 	lea    rax,[r13+0x850]
     2ae:	41 c7 45 2c 30 00 00 	mov    DWORD PTR [r13+0x2c],0x30
     2b5:	00 
     2b6:	49 89 45 38          	mov    QWORD PTR [r13+0x38],rax
     2ba:	4c 89 7d 98          	mov    QWORD PTR [rbp-0x68],r15
     2be:	49 bf 0a b6 57 55 55 	movabs r15,0x55555557b60a
     2c5:	55 00 00 
     2c8:	4d 8d 6d f8          	lea    r13,[r13-0x8]
     2cc:	4d 89 7d 00          	mov    QWORD PTR [r13+0x0],r15
     2d0:	4c 89 75 a8          	mov    QWORD PTR [rbp-0x58],r14
     2d4:	e9 06 ef 00 00       	jmp    0xf1df
     2d9:	48 89 c7             	mov    rdi,rax
     2dc:	41 8b 45 10          	mov    eax,DWORD PTR [r13+0x10]
     2e0:	85 c0                	test   eax,eax
     2e2:	0f 85 39 03 00 00    	jne    0x621
     2e8:	48 83 fb 08          	cmp    rbx,0x8
     2ec:	74 52                	je     0x340
     2ee:	4c 8b 7d a0          	mov    r15,QWORD PTR [rbp-0x60]
     2f2:	49 8b 47 20          	mov    rax,QWORD PTR [r15+0x20]
     2f6:	48 85 c0             	test   rax,rax
     2f9:	4c 89 7d a0          	mov    QWORD PTR [rbp-0x60],r15
     2fd:	74 41                	je     0x340
     2ff:	4c 8b 7d a8          	mov    r15,QWORD PTR [rbp-0x58]
     303:	4c 89 fa             	mov    rdx,r15
     306:	48 89 fe             	mov    rsi,rdi
     309:	48 29 fa             	sub    rdx,rdi
     30c:	4c 8b 75 a0          	mov    r14,QWORD PTR [rbp-0x60]
     310:	4c 89 f7             	mov    rdi,r14
     313:	4c 89 7d a8          	mov    QWORD PTR [rbp-0x58],r15
     317:	49 bf 36 b6 57 55 55 	movabs r15,0x55555557b636
     31e:	55 00 00 
     321:	4d 8d 6d f8          	lea    r13,[r13-0x8]
     325:	4d 89 7d 00          	mov    QWORD PTR [r13+0x0],r15
     329:	4c 89 75 a0          	mov    QWORD PTR [rbp-0x60],r14
     32d:	4c 8b 34 25 00 00 00 	mov    r14,QWORD PTR ds:0x0
     334:	00 
     335:	49 89 c6             	mov    r14,rax
     338:	e9 44 e8 00 00       	jmp    0xeb81
     33d:	48 89 c7             	mov    rdi,rax
     340:	49 8d 85 3f 08 00 00 	lea    rax,[r13+0x83f]
     347:	48 39 c7             	cmp    rdi,rax
     34a:	48 0f 43 f8          	cmovae rdi,rax
     34e:	4c 8b 7d b0          	mov    r15,QWORD PTR [rbp-0x50]
     352:	45 31 ff             	xor    r15d,r15d
     355:	c6 07 0a             	mov    BYTE PTR [rdi],0xa
     358:	4c 8b 75 a0          	mov    r14,QWORD PTR [rbp-0x60]
     35c:	49 8b 06             	mov    rax,QWORD PTR [r14]
     35f:	48 8d 4f 01          	lea    rcx,[rdi+0x1]
     363:	49 89 4d 10          	mov    QWORD PTR [r13+0x10],rcx
     367:	4c 29 e1             	sub    rcx,r12
     36a:	4c 89 7d b0          	mov    QWORD PTR [rbp-0x50],r15
     36e:	4c 8b 7d 98          	mov    r15,QWORD PTR [rbp-0x68]
     372:	49 89 c7             	mov    r15,rax
     375:	4c 89 7d 98          	mov    QWORD PTR [rbp-0x68],r15
     379:	4c 8b 7d a8          	mov    r15,QWORD PTR [rbp-0x58]
     37d:	49 89 cf             	mov    r15,rcx
     380:	4c 89 7d a8          	mov    QWORD PTR [rbp-0x58],r15
     384:	4c 8b 7d 98          	mov    r15,QWORD PTR [rbp-0x68]
     388:	49 c1 ef 1f          	shr    r15,0x1f
     38c:	49 83 f7 01          	xor    r15,0x1
     390:	41 83 e7 01          	and    r15d,0x1
     394:	4c 89 7d 98          	mov    QWORD PTR [rbp-0x68],r15
     398:	4c 89 75 a0          	mov    QWORD PTR [rbp-0x60],r14
     39c:	eb 5e                	jmp    0x3fc
     39e:	4c 8b 7d a8          	mov    r15,QWORD PTR [rbp-0x58]
     3a2:	4c 89 f9             	mov    rcx,r15
     3a5:	4c 89 e2             	mov    rdx,r12
     3a8:	48 89 de             	mov    rsi,rbx
     3ab:	4c 8b 75 a0          	mov    r14,QWORD PTR [rbp-0x60]
     3af:	4c 89 f7             	mov    rdi,r14
     3b2:	4c 89 7d a8          	mov    QWORD PTR [rbp-0x58],r15
     3b6:	49 bf 86 b6 57 55 55 	movabs r15,0x55555557b686
     3bd:	55 00 00 
     3c0:	4d 8d 6d f8          	lea    r13,[r13-0x8]
     3c4:	4d 89 7d 00          	mov    QWORD PTR [r13+0x0],r15
     3c8:	4c 89 75 a0          	mov    QWORD PTR [rbp-0x60],r14
     3cc:	4c 8b 34 25 00 00 00 	mov    r14,QWORD PTR ds:0x0
     3d3:	00 
     3d4:	49 89 c6             	mov    r14,rax
     3d7:	e9 b4 e7 00 00       	jmp    0xeb90
     3dc:	4c 8b 7d a0          	mov    r15,QWORD PTR [rbp-0x60]
     3e0:	4d 8b 7f 48          	mov    r15,QWORD PTR [r15+0x48]
     3e4:	4d 85 ff             	test   r15,r15
     3e7:	4c 89 7d a0          	mov    QWORD PTR [rbp-0x60],r15
     3eb:	0f 84 c5 00 00 00    	je     0x4b6
     3f1:	4c 8b 7d a0          	mov    r15,QWORD PTR [rbp-0x60]
     3f5:	49 8b 07             	mov    rax,QWORD PTR [r15]
     3f8:	4c 89 7d a0          	mov    QWORD PTR [rbp-0x60],r15
     3fc:	48 39 c3             	cmp    rbx,rax
     3ff:	76 11                	jbe    0x412
     401:	4c 8b 7d 98          	mov    r15,QWORD PTR [rbp-0x68]
     405:	45 84 ff             	test   r15b,r15b
     408:	4c 89 7d 98          	mov    QWORD PTR [rbp-0x68],r15
     40c:	0f 85 a4 00 00 00    	jne    0x4b6
     412:	4c 8b 7d a0          	mov    r15,QWORD PTR [rbp-0x60]
     416:	49 8b 47 30          	mov    rax,QWORD PTR [r15+0x30]
     41a:	48 85 c0             	test   rax,rax
     41d:	4c 89 7d a0          	mov    QWORD PTR [rbp-0x60],r15
     421:	0f 85 77 ff ff ff    	jne    0x39e
     427:	49 bf ad b6 57 55 55 	movabs r15,0x55555557b6ad
     42e:	55 00 00 
     431:	49 8d 87 03 72 11 00 	lea    rax,[r15+0x117203]
     438:	48 8b 00             	mov    rax,QWORD PTR [rax]
     43b:	48 8b 00             	mov    rax,QWORD PTR [rax]
     43e:	4c 8b 7d a0          	mov    r15,QWORD PTR [rbp-0x60]
     442:	49 3b 47 18          	cmp    rax,QWORD PTR [r15+0x18]
     446:	4c 89 7d a0          	mov    QWORD PTR [rbp-0x60],r15
     44a:	74 90                	je     0x3dc
     44c:	4c 8b 7d a0          	mov    r15,QWORD PTR [rbp-0x60]
     450:	49 8b 47 08          	mov    rax,QWORD PTR [r15+0x8]
     454:	4c 8b 75 a8          	mov    r14,QWORD PTR [rbp-0x58]
     458:	4c 89 f2             	mov    rdx,r14
     45b:	4c 89 e6             	mov    rsi,r12
     45e:	8b 38                	mov    edi,DWORD PTR [rax]
     460:	4c 89 7d a0          	mov    QWORD PTR [rbp-0x60],r15
     464:	49 bf ca b6 57 55 55 	movabs r15,0x55555557b6ca
     46b:	55 00 00 
     46e:	4d 8d 6d f8          	lea    r13,[r13-0x8]
     472:	4d 89 7d 00          	mov    QWORD PTR [r13+0x0],r15
     476:	4c 89 75 a8          	mov    QWORD PTR [rbp-0x58],r14
     47a:	e9 70 f1 00 00       	jmp    0xf5ef
     47f:	48 83 f8 ff          	cmp    rax,0xffffffffffffffff
     483:	0f 84 50 01 00 00    	je     0x5d9
     489:	4c 8b 7d a0          	mov    r15,QWORD PTR [rbp-0x60]
     48d:	49 8b 47 08          	mov    rax,QWORD PTR [r15+0x8]
     491:	4d 8b 7f 48          	mov    r15,QWORD PTR [r15+0x48]
     495:	83 38 02             	cmp    DWORD PTR [rax],0x2
     498:	b8 01 00 00 00       	mov    eax,0x1
     49d:	4c 8b 75 b0          	mov    r14,QWORD PTR [rbp-0x50]
     4a1:	4c 0f 44 f0          	cmove  r14,rax
     4a5:	4d 85 ff             	test   r15,r15
     4a8:	4c 89 7d a0          	mov    QWORD PTR [rbp-0x60],r15
     4ac:	4c 89 75 b0          	mov    QWORD PTR [rbp-0x50],r14
     4b0:	0f 85 3b ff ff ff    	jne    0x3f1
     4b6:	49 bf f4 b6 57 55 55 	movabs r15,0x55555557b6f4
     4bd:	55 00 00 
     4c0:	49 8d 87 44 9e 0e 00 	lea    rax,[r15+0xe9e44]
     4c7:	48 83 38 00          	cmp    QWORD PTR [rax],0x0
     4cb:	0f 84 90 00 00 00    	je     0x561
     4d1:	48 83 fb 05          	cmp    rbx,0x5
     4d5:	0f 87 86 00 00 00    	ja     0x561
     4db:	4c 8b 7d b0          	mov    r15,QWORD PTR [rbp-0x50]
     4df:	41 83 e7 01          	and    r15d,0x1
     4e3:	4c 89 7d b0          	mov    QWORD PTR [rbp-0x50],r15
     4e7:	75 78                	jne    0x561
     4e9:	49 bf 0d b7 57 55 55 	movabs r15,0x55555557b70d
     4f0:	55 00 00 
     4f3:	49 8d b7 33 9e 0e 00 	lea    rsi,[r15+0xe9e33]
     4fa:	48 c1 e3 04          	shl    rbx,0x4
     4fe:	49 8b 45 08          	mov    rax,QWORD PTR [r13+0x8]
     502:	49 8b 55 18          	mov    rdx,QWORD PTR [r13+0x18]
     506:	48 2b 04 33          	sub    rax,QWORD PTR [rbx+rsi*1]
     50a:	49 bf 26 b7 57 55 55 	movabs r15,0x55555557b726
     511:	55 00 00 
     514:	49 8d b7 83 5b 0b 00 	lea    rsi,[r15+0xb5b83]
     51b:	4c 8d 60 f6          	lea    r12,[rax-0xa]
     51f:	31 c0                	xor    eax,eax
     521:	4c 89 e7             	mov    rdi,r12
     524:	49 bf 34 b7 57 55 55 	movabs r15,0x55555557b734
     52b:	55 00 00 
     52e:	4d 8d 6d f8          	lea    r13,[r13-0x8]
     532:	4d 89 7d 00          	mov    QWORD PTR [r13+0x0],r15
     536:	e9 6a f1 00 00       	jmp    0xf6a5
     53b:	49 8b 55 10          	mov    rdx,QWORD PTR [r13+0x10]
     53f:	4c 89 e6             	mov    rsi,r12
     542:	bf 02 00 00 00       	mov    edi,0x2
     547:	4c 29 e2             	sub    rdx,r12
     54a:	49 bf 49 b7 57 55 55 	movabs r15,0x55555557b749
     551:	55 00 00 
     554:	4d 8d 6d f8          	lea    r13,[r13-0x8]
     558:	4d 89 7d 00          	mov    QWORD PTR [r13+0x0],r15
     55c:	e9 8e f0 00 00       	jmp    0xf5ef
     561:	49 8b 85 48 08 00 00 	mov    rax,QWORD PTR [r13+0x848]
     568:	4c 8b 7d 88          	mov    r15,QWORD PTR [rbp-0x78]
     56c:	49 33 47 28          	xor    rax,QWORD PTR [r15+0x28]
     570:	0f 85 1a 01 00 00    	jne    0x690
     576:	49 81 c5 08 09 00 00 	add    r13,0x908
     57d:	49 8b 5d 00          	mov    rbx,QWORD PTR [r13+0x0]
     581:	4d 8d 6d 08          	lea    r13,[r13+0x8]
     585:	4d 8b 65 00          	mov    r12,QWORD PTR [r13+0x0]
     589:	4d 8d 6d 08          	lea    r13,[r13+0x8]
     58d:	4c 8b 7d 98          	mov    r15,QWORD PTR [rbp-0x68]
     591:	4d 8b 7d 00          	mov    r15,QWORD PTR [r13+0x0]
     595:	4d 8d 6d 08          	lea    r13,[r13+0x8]
     599:	4c 8b 75 a0          	mov    r14,QWORD PTR [rbp-0x60]
     59d:	4d 8b 75 00          	mov    r14,QWORD PTR [r13+0x0]
     5a1:	4d 8d 6d 08          	lea    r13,[r13+0x8]
     5a5:	4c 89 7d 98          	mov    QWORD PTR [rbp-0x68],r15
     5a9:	4c 8b 7d a8          	mov    r15,QWORD PTR [rbp-0x58]
     5ad:	4d 8b 7d 00          	mov    r15,QWORD PTR [r13+0x0]
     5b1:	4d 8d 6d 08          	lea    r13,[r13+0x8]
     5b5:	4c 89 7d a8          	mov    QWORD PTR [rbp-0x58],r15
     5b9:	4c 8b 7d b0          	mov    r15,QWORD PTR [rbp-0x50]
     5bd:	4d 8b 7d 00          	mov    r15,QWORD PTR [r13+0x0]
     5c1:	4d 8d 6d 08          	lea    r13,[r13+0x8]
     5c5:	4c 89 7d b0          	mov    QWORD PTR [rbp-0x50],r15
     5c9:	4d 8b 7d 00          	mov    r15,QWORD PTR [r13+0x0]
     5cd:	4d 8d 6d 08          	lea    r13,[r13+0x8]
     5d1:	4d 89 fe             	mov    r14,r15
     5d4:	e9 eb c0 00 00       	jmp    0xc6c4
     5d9:	49 bf 75 b7 57 55 55 	movabs r15,0x55555557b775
     5e0:	55 00 00 
     5e3:	4d 8d 6d f8          	lea    r13,[r13-0x8]
     5e7:	4d 89 7d 00          	mov    QWORD PTR [r13+0x0],r15
     5eb:	e9 bf ec 00 00       	jmp    0xf2af
     5f0:	83 38 1c             	cmp    DWORD PTR [rax],0x1c
     5f3:	0f 85 90 fe ff ff    	jne    0x489
     5f9:	49 bf 85 b7 57 55 55 	movabs r15,0x55555557b785
     600:	55 00 00 
     603:	49 8d 87 2b 71 11 00 	lea    rax,[r15+0x11712b]
     60a:	48 8b 00             	mov    rax,QWORD PTR [rax]
     60d:	48 8b 00             	mov    rax,QWORD PTR [rax]
     610:	4c 8b 7d a0          	mov    r15,QWORD PTR [rbp-0x60]
     614:	49 89 47 18          	mov    QWORD PTR [r15+0x18],rax
     618:	4c 89 7d a0          	mov    QWORD PTR [rbp-0x60],r15
     61c:	e9 68 fe ff ff       	jmp    0x489
     621:	41 8b 55 10          	mov    edx,DWORD PTR [r13+0x10]
     625:	4c 8b 7d a8          	mov    r15,QWORD PTR [rbp-0x58]
     629:	4c 89 fe             	mov    rsi,r15
     62c:	49 be a4 b7 57 55 55 	movabs r14,0x55555557b7a4
     633:	55 00 00 
     636:	4d 8d 6d f8          	lea    r13,[r13-0x8]
     63a:	4d 89 75 00          	mov    QWORD PTR [r13+0x0],r14
     63e:	4c 89 7d a8          	mov    QWORD PTR [rbp-0x58],r15
     642:	e9 8e ef 00 00       	jmp    0xf5d5
     647:	48 89 c7             	mov    rdi,rax
     64a:	e9 99 fc ff ff       	jmp    0x2e8
     64f:	48 89 c7             	mov    rdi,rax
     652:	49 bf ba b7 57 55 55 	movabs r15,0x55555557b7ba
     659:	55 00 00 
     65c:	49 8d 97 e9 5a 0b 00 	lea    rdx,[r15+0xb5ae9]
     663:	4c 8b 7d a8          	mov    r15,QWORD PTR [rbp-0x58]
     667:	4c 89 fe             	mov    rsi,r15
     66a:	31 c0                	xor    eax,eax
     66c:	49 be c4 b7 57 55 55 	movabs r14,0x55555557b7c4
     673:	55 00 00 
     676:	4d 8d 6d f8          	lea    r13,[r13-0x8]
     67a:	4d 89 75 00          	mov    QWORD PTR [r13+0x0],r14
     67e:	4c 89 7d a8          	mov    QWORD PTR [rbp-0x58],r15
     682:	e9 d4 f0 00 00       	jmp    0xf75b
     687:	49 89 45 08          	mov    QWORD PTR [r13+0x8],rax
     68b:	e9 ee fb ff ff       	jmp    0x27e
     690:	49 bf d3 b7 57 55 55 	movabs r15,0x55555557b7d3
     697:	55 00 00 
     69a:	4d 8d 6d f8          	lea    r13,[r13-0x8]
     69e:	4d 89 7d 00          	mov    QWORD PTR [r13+0x0],r15
     6a2:	e9 98 e9 00 00       	jmp    0xf03f
     6a7:	90                   	nop
     6a8:	90                   	nop
     6a9:	90                   	nop
     6aa:	4d 8d 6d f8          	lea    r13,[r13-0x8]
     6ae:	4c 8b 7d 98          	mov    r15,QWORD PTR [rbp-0x68]
     6b2:	4d 89 7d 00          	mov    QWORD PTR [r13+0x0],r15
     6b6:	49 89 f2             	mov    r10,rsi
     6b9:	41 89 ff             	mov    r15d,edi
     6bc:	4d 8d 6d f8          	lea    r13,[r13-0x8]
     6c0:	49 89 5d 00          	mov    QWORD PTR [r13+0x0],rbx
     6c4:	49 81 ed e8 04 00 00 	sub    r13,0x4e8
     6cb:	49 89 95 40 04 00 00 	mov    QWORD PTR [r13+0x440],rdx
     6d2:	49 89 8d 48 04 00 00 	mov    QWORD PTR [r13+0x448],rcx
     6d9:	4d 89 85 50 04 00 00 	mov    QWORD PTR [r13+0x450],r8
     6e0:	4d 89 8d 58 04 00 00 	mov    QWORD PTR [r13+0x458],r9
     6e7:	84 c0                	test   al,al
     6e9:	4c 89 7d 98          	mov    QWORD PTR [rbp-0x68],r15
     6ed:	74 40                	je     0x72f
     6ef:	41 0f 29 85 60 04 00 	movaps XMMWORD PTR [r13+0x460],xmm0
     6f6:	00 
     6f7:	41 0f 29 8d 70 04 00 	movaps XMMWORD PTR [r13+0x470],xmm1
     6fe:	00 
     6ff:	41 0f 29 95 80 04 00 	movaps XMMWORD PTR [r13+0x480],xmm2
     706:	00 
     707:	41 0f 29 9d 90 04 00 	movaps XMMWORD PTR [r13+0x490],xmm3
     70e:	00 
     70f:	41 0f 29 a5 a0 04 00 	movaps XMMWORD PTR [r13+0x4a0],xmm4
     716:	00 
     717:	41 0f 29 ad b0 04 00 	movaps XMMWORD PTR [r13+0x4b0],xmm5
     71e:	00 
     71f:	41 0f 29 b5 c0 04 00 	movaps XMMWORD PTR [r13+0x4c0],xmm6
     726:	00 
     727:	41 0f 29 bd d0 04 00 	movaps XMMWORD PTR [r13+0x4d0],xmm7
     72e:	00 
     72f:	4c 8b 7d 88          	mov    r15,QWORD PTR [rbp-0x78]
     733:	49 8b 47 28          	mov    rax,QWORD PTR [r15+0x28]
     737:	49 89 85 28 04 00 00 	mov    QWORD PTR [r13+0x428],rax
     73e:	31 c0                	xor    eax,eax
     740:	49 8d 5d 20          	lea    rbx,[r13+0x20]
     744:	49 8d 4d 08          	lea    rcx,[r13+0x8]
     748:	4c 89 d2             	mov    rdx,r10
     74b:	49 8d 85 00 05 00 00 	lea    rax,[r13+0x500]
     752:	49 8d b5 1f 04 00 00 	lea    rsi,[r13+0x41f]
     759:	48 89 df             	mov    rdi,rbx
     75c:	41 c7 45 08 10 00 00 	mov    DWORD PTR [r13+0x8],0x10
     763:	00 
     764:	49 89 45 10          	mov    QWORD PTR [r13+0x10],rax
     768:	49 8d 85 30 04 00 00 	lea    rax,[r13+0x430]
     76f:	41 c7 45 0c 30 00 00 	mov    DWORD PTR [r13+0xc],0x30
     776:	00 
     777:	49 89 45 18          	mov    QWORD PTR [r13+0x18],rax
     77b:	49 be b2 b8 57 55 55 	movabs r14,0x55555557b8b2
     782:	55 00 00 
     785:	4d 8d 6d f8          	lea    r13,[r13-0x8]
     789:	4d 89 75 00          	mov    QWORD PTR [r13+0x0],r14
     78d:	e9 4d ea 00 00       	jmp    0xf1df
     792:	49 bf b9 b8 57 55 55 	movabs r15,0x55555557b8b9
     799:	55 00 00 
     79c:	49 8d 97 cf 70 11 00 	lea    rdx,[r15+0x1170cf]
     7a3:	48 8b 12             	mov    rdx,QWORD PTR [rdx]
     7a6:	48 8b 4a 10          	mov    rcx,QWORD PTR [rdx+0x10]
     7aa:	48 83 39 01          	cmp    QWORD PTR [rcx],0x1
     7ae:	76 47                	jbe    0x7f7
     7b0:	48 29 d8             	sub    rax,rbx
     7b3:	48 8b 72 10          	mov    rsi,QWORD PTR [rdx+0x10]
     7b7:	49 89 d9             	mov    r9,rbx
     7ba:	4c 8b 7d 98          	mov    r15,QWORD PTR [rbp-0x68]
     7be:	44 89 fa             	mov    edx,r15d
     7c1:	49 89 c0             	mov    r8,rax
     7c4:	49 be dd b8 57 55 55 	movabs r14,0x55555557b8dd
     7cb:	55 00 00 
     7ce:	49 8d 8e 22 6b 0c 00 	lea    rcx,[r14+0xc6b22]
     7d5:	bf 02 00 00 00       	mov    edi,0x2
     7da:	31 c0                	xor    eax,eax
     7dc:	49 be e9 b8 57 55 55 	movabs r14,0x55555557b8e9
     7e3:	55 00 00 
     7e6:	4d 8d 6d f8          	lea    r13,[r13-0x8]
     7ea:	4d 89 75 00          	mov    QWORD PTR [r13+0x0],r14
     7ee:	4c 89 7d 98          	mov    QWORD PTR [rbp-0x68],r15
     7f2:	e9 83 f8 ff ff       	jmp    0x7a
     7f7:	49 8b 85 28 04 00 00 	mov    rax,QWORD PTR [r13+0x428]
     7fe:	4c 8b 7d 88          	mov    r15,QWORD PTR [rbp-0x78]
     802:	49 33 47 28          	xor    rax,QWORD PTR [r15+0x28]
     806:	75 28                	jne    0x830
     808:	49 81 c5 e8 04 00 00 	add    r13,0x4e8
     80f:	49 8b 5d 00          	mov    rbx,QWORD PTR [r13+0x0]
     813:	4d 8d 6d 08          	lea    r13,[r13+0x8]
     817:	4c 8b 7d 98          	mov    r15,QWORD PTR [rbp-0x68]
     81b:	4d 8b 7d 00          	mov    r15,QWORD PTR [r13+0x0]
     81f:	4d 8d 6d 08          	lea    r13,[r13+0x8]
     823:	4d 8b 75 00          	mov    r14,QWORD PTR [r13+0x0]
     827:	4d 8d 6d 08          	lea    r13,[r13+0x8]
     82b:	e9 94 c6 00 00       	jmp    0xcec4
     830:	49 bf 0c b9 57 55 55 	movabs r15,0x55555557b90c
     837:	55 00 00 
     83a:	4d 8d 6d f8          	lea    r13,[r13-0x8]
     83e:	4d 89 7d 00          	mov    QWORD PTR [r13+0x0],r15
     842:	e9 f8 e7 00 00       	jmp    0xf03f
     847:	90                   	nop
     848:	90                   	nop
     849:	4d 8d 6d f8          	lea    r13,[r13-0x8]
     84d:	49 89 5d 00          	mov    QWORD PTR [r13+0x0],rbx
     851:	48 89 fb             	mov    rbx,rdi
     854:	f6 07 10             	test   BYTE PTR [rdi],0x10
     857:	75 20                	jne    0x879
     859:	48 c7 43 38 00 00 00 	mov    QWORD PTR [rbx+0x38],0x0
     860:	00 
     861:	49 8b 5d 00          	mov    rbx,QWORD PTR [r13+0x0]
     865:	4d 8d 6d 08          	lea    r13,[r13+0x8]
     869:	4d 8b 7d 00          	mov    r15,QWORD PTR [r13+0x0]
     86d:	4d 8d 6d 08          	lea    r13,[r13+0x8]
     871:	4d 89 fe             	mov    r14,r15
     874:	e9 4b ce 00 00       	jmp    0xd6c4
     879:	48 89 fe             	mov    rsi,rdi
     87c:	49 bf 3a b9 57 55 55 	movabs r15,0x55555557b93a
     883:	55 00 00 
     886:	49 8d 8f 7c 59 0b 00 	lea    rcx,[r15+0xb597c]
     88d:	31 d2                	xor    edx,edx
     88f:	31 c0                	xor    eax,eax
     891:	bf 08 00 00 00       	mov    edi,0x8
     896:	49 bf 48 b9 57 55 55 	movabs r15,0x55555557b948
     89d:	55 00 00 
     8a0:	4d 8d 6d f8          	lea    r13,[r13-0x8]
     8a4:	4d 89 7d 00          	mov    QWORD PTR [r13+0x0],r15
     8a8:	e9 cd f7 ff ff       	jmp    0x7a
     8ad:	48 c7 43 38 00 00 00 	mov    QWORD PTR [rbx+0x38],0x0
     8b4:	00 
     8b5:	49 8b 5d 00          	mov    rbx,QWORD PTR [r13+0x0]
     8b9:	4d 8d 6d 08          	lea    r13,[r13+0x8]
     8bd:	4d 8b 7d 00          	mov    r15,QWORD PTR [r13+0x0]
     8c1:	4d 8d 6d 08          	lea    r13,[r13+0x8]
     8c5:	4d 89 fe             	mov    r14,r15
     8c8:	e9 f7 d5 00 00       	jmp    0xdec4
     8cd:	90                   	nop
     8ce:	4d 8d 6d f8          	lea    r13,[r13-0x8]
     8d2:	4c 8b 7d 98          	mov    r15,QWORD PTR [rbp-0x68]
     8d6:	4d 89 7d 00          	mov    QWORD PTR [r13+0x0],r15
     8da:	4d 8d 6d f8          	lea    r13,[r13-0x8]
     8de:	4d 89 65 00          	mov    QWORD PTR [r13+0x0],r12
     8e2:	49 89 fc             	mov    r12,rdi
     8e5:	4d 8d 6d f8          	lea    r13,[r13-0x8]
     8e9:	49 89 5d 00          	mov    QWORD PTR [r13+0x0],rbx
     8ed:	48 8b 77 48          	mov    rsi,QWORD PTR [rdi+0x48]
     8f1:	48 8b 5f 40          	mov    rbx,QWORD PTR [rdi+0x40]
     8f5:	48 8b 06             	mov    rax,QWORD PTR [rsi]
     8f8:	48 85 db             	test   rbx,rbx
     8fb:	4c 89 7d 98          	mov    QWORD PTR [rbp-0x68],r15
     8ff:	0f 84 91 00 00 00    	je     0x996
     905:	4c 8b 7d 98          	mov    r15,QWORD PTR [rbp-0x68]
     909:	49 be 42 c5 57 55 55 	movabs r14,0x55555557c542
     910:	55 00 00 
     913:	4d 8d be 00 4f 0b 00 	lea    r15,[r14+0xb4f00]
     91a:	4c 89 7d 98          	mov    QWORD PTR [rbp-0x68],r15
     91e:	eb 37                	jmp    0x957
     920:	48 8b 7b 08          	mov    rdi,QWORD PTR [rbx+0x8]
     924:	49 bf 4e c5 57 55 55 	movabs r15,0x55555557c54e
     92b:	55 00 00 
     92e:	4d 8d 6d f8          	lea    r13,[r13-0x8]
     932:	4d 89 7d 00          	mov    QWORD PTR [r13+0x0],r15
     936:	4c 8b 34 25 00 00 00 	mov    r14,QWORD PTR ds:0x0
     93d:	00 
     93e:	49 89 d6             	mov    r14,rdx
     941:	e9 2c e2 00 00       	jmp    0xeb72
     946:	49 8b 74 24 48       	mov    rsi,QWORD PTR [r12+0x48]
     94b:	48 8b 06             	mov    rax,QWORD PTR [rsi]
     94e:	48 8b 5b 10          	mov    rbx,QWORD PTR [rbx+0x10]
     952:	48 85 db             	test   rbx,rbx
     955:	74 3f                	je     0x996
     957:	48 8b 13             	mov    rdx,QWORD PTR [rbx]
     95a:	48 85 d2             	test   rdx,rdx
     95d:	74 ef                	je     0x94e
     95f:	a8 20                	test   al,0x20
     961:	74 bd                	je     0x920
     963:	31 d2                	xor    edx,edx
     965:	49 89 d8             	mov    r8,rbx
     968:	4c 8b 7d 98          	mov    r15,QWORD PTR [rbp-0x68]
     96c:	4c 89 f9             	mov    rcx,r15
     96f:	bf 08 00 00 00       	mov    edi,0x8
     974:	31 c0                	xor    eax,eax
     976:	49 be 7e c5 57 55 55 	movabs r14,0x55555557c57e
     97d:	55 00 00 
     980:	4d 8d 6d f8          	lea    r13,[r13-0x8]
     984:	4d 89 75 00          	mov    QWORD PTR [r13+0x0],r14
     988:	4c 89 7d 98          	mov    QWORD PTR [rbp-0x68],r15
     98c:	e9 e9 f6 ff ff       	jmp    0x7a
     991:	48 8b 13             	mov    rdx,QWORD PTR [rbx]
     994:	eb 8a                	jmp    0x920
     996:	49 8b 5c 24 38       	mov    rbx,QWORD PTR [r12+0x38]
     99b:	48 85 db             	test   rbx,rbx
     99e:	74 66                	je     0xa06
     9a0:	4c 8b 7d 98          	mov    r15,QWORD PTR [rbp-0x68]
     9a4:	49 be 98 c5 57 55 55 	movabs r14,0x55555557c598
     9ab:	55 00 00 
     9ae:	4d 8d be 3b 5b 0b 00 	lea    r15,[r14+0xb5b3b]
     9b5:	4c 89 7d 98          	mov    QWORD PTR [rbp-0x68],r15
     9b9:	eb 08                	jmp    0x9c3
     9bb:	48 8b 1b             	mov    rbx,QWORD PTR [rbx]
     9be:	48 85 db             	test   rbx,rbx
     9c1:	74 43                	je     0xa06
     9c3:	a8 20                	test   al,0x20
     9c5:	74 f4                	je     0x9bb
     9c7:	4c 8b 43 08          	mov    r8,QWORD PTR [rbx+0x8]
     9cb:	31 c0                	xor    eax,eax
     9cd:	4c 8b 7d 98          	mov    r15,QWORD PTR [rbp-0x68]
     9d1:	4c 89 f9             	mov    rcx,r15
     9d4:	31 d2                	xor    edx,edx
     9d6:	bf 08 00 00 00       	mov    edi,0x8
     9db:	49 be c1 c5 57 55 55 	movabs r14,0x55555557c5c1
     9e2:	55 00 00 
     9e5:	4d 8d 6d f8          	lea    r13,[r13-0x8]
     9e9:	4d 89 75 00          	mov    QWORD PTR [r13+0x0],r14
     9ed:	4c 89 7d 98          	mov    QWORD PTR [rbp-0x68],r15
     9f1:	e9 84 f6 ff ff       	jmp    0x7a
     9f6:	49 8b 74 24 48       	mov    rsi,QWORD PTR [r12+0x48]
     9fb:	48 8b 1b             	mov    rbx,QWORD PTR [rbx]
     9fe:	48 8b 06             	mov    rax,QWORD PTR [rsi]
     a01:	48 85 db             	test   rbx,rbx
     a04:	75 bd                	jne    0x9c3
     a06:	49 8b 5c 24 10       	mov    rbx,QWORD PTR [r12+0x10]
     a0b:	4d 89 e0             	mov    r8,r12
     a0e:	4c 8b 7d 98          	mov    r15,QWORD PTR [rbp-0x68]
     a12:	49 be de c5 57 55 55 	movabs r14,0x55555557c5de
     a19:	55 00 00 
     a1c:	4d 8d be 74 4e 0b 00 	lea    r15,[r14+0xb4e74]
     a23:	4c 89 7d 98          	mov    QWORD PTR [rbp-0x68],r15
     a27:	eb 14                	jmp    0xa3d
     a29:	48 85 db             	test   rbx,rbx
     a2c:	74 4a                	je     0xa78
     a2e:	49 8b 74 24 48       	mov    rsi,QWORD PTR [r12+0x48]
     a33:	49 89 d8             	mov    r8,rbx
     a36:	48 8b 5b 10          	mov    rbx,QWORD PTR [rbx+0x10]
     a3a:	48 8b 06             	mov    rax,QWORD PTR [rsi]
     a3d:	a8 20                	test   al,0x20
     a3f:	74 e8                	je     0xa29
     a41:	4d 8b 48 08          	mov    r9,QWORD PTR [r8+0x8]
     a45:	31 d2                	xor    edx,edx
     a47:	4d 2b 08             	sub    r9,QWORD PTR [r8]
     a4a:	31 c0                	xor    eax,eax
     a4c:	4c 8b 7d 98          	mov    r15,QWORD PTR [rbp-0x68]
     a50:	4c 89 f9             	mov    rcx,r15
     a53:	bf 08 00 00 00       	mov    edi,0x8
     a58:	49 be 0f c6 57 55 55 	movabs r14,0x55555557c60f
     a5f:	55 00 00 
     a62:	4d 8d 6d f8          	lea    r13,[r13-0x8]
     a66:	4d 89 75 00          	mov    QWORD PTR [r13+0x0],r14
     a6a:	4c 89 7d 98          	mov    QWORD PTR [rbp-0x68],r15
     a6e:	e9 07 f6 ff ff       	jmp    0x7a
     a73:	48 85 db             	test   rbx,rbx
     a76:	75 b6                	jne    0xa2e
     a78:	49 8b 5c 24 38       	mov    rbx,QWORD PTR [r12+0x38]
     a7d:	48 85 db             	test   rbx,rbx
     a80:	74 29                	je     0xaab
     a82:	90                   	nop
     a83:	48 8b 7b 08          	mov    rdi,QWORD PTR [rbx+0x8]
     a87:	48 85 ff             	test   rdi,rdi
     a8a:	74 17                	je     0xaa3
     a8c:	49 bf 2e c6 57 55 55 	movabs r15,0x55555557c62e
     a93:	55 00 00 
     a96:	4d 8d 6d f8          	lea    r13,[r13-0x8]
     a9a:	4d 89 7d 00          	mov    QWORD PTR [r13+0x0],r15
     a9e:	e9 22 e7 00 00       	jmp    0xf1c5
     aa3:	48 8b 1b             	mov    rbx,QWORD PTR [rbx]
     aa6:	48 85 db             	test   rbx,rbx
     aa9:	75 d8                	jne    0xa83
     aab:	49 8b 5c 24 10       	mov    rbx,QWORD PTR [r12+0x10]
     ab0:	eb 07                	jmp    0xab9
     ab2:	49 89 dc             	mov    r12,rbx
     ab5:	48 8b 5b 10          	mov    rbx,QWORD PTR [rbx+0x10]
     ab9:	4c 89 e7             	mov    rdi,r12
     abc:	49 bf 4f c6 57 55 55 	movabs r15,0x55555557c64f
     ac3:	55 00 00 
     ac6:	4d 8d 6d f8          	lea    r13,[r13-0x8]
     aca:	4d 89 7d 00          	mov    QWORD PTR [r13+0x0],r15
     ace:	e9 f2 e6 00 00       	jmp    0xf1c5
     ad3:	48 85 db             	test   rbx,rbx
     ad6:	75 da                	jne    0xab2
     ad8:	49 8b 5d 00          	mov    rbx,QWORD PTR [r13+0x0]
     adc:	4d 8d 6d 08          	lea    r13,[r13+0x8]
     ae0:	4d 8b 65 00          	mov    r12,QWORD PTR [r13+0x0]
     ae4:	4d 8d 6d 08          	lea    r13,[r13+0x8]
     ae8:	4c 8b 7d 98          	mov    r15,QWORD PTR [rbp-0x68]
     aec:	4d 8b 7d 00          	mov    r15,QWORD PTR [r13+0x0]
     af0:	4d 8d 6d 08          	lea    r13,[r13+0x8]
     af4:	4d 8b 75 00          	mov    r14,QWORD PTR [r13+0x0]
     af8:	4d 8d 6d 08          	lea    r13,[r13+0x8]
     afc:	e9 fb dd 00 00       	jmp    0xe8fc
     b01:	90                   	nop
     b02:	48 89 f8             	mov    rax,rdi
     b05:	48 85 ff             	test   rdi,rdi
     b08:	0f 84 86 00 00 00    	je     0xb94
     b0e:	48 8b 10             	mov    rdx,QWORD PTR [rax]
     b11:	0f b6 4a 48          	movzx  ecx,BYTE PTR [rdx+0x48]
     b15:	f6 c1 e0             	test   cl,0xe0
     b18:	74 05                	je     0xb1f
     b1a:	f6 c1 17             	test   cl,0x17
     b1d:	74 68                	je     0xb87
     b1f:	48 85 f6             	test   rsi,rsi
     b22:	74 36                	je     0xb5a
     b24:	f6 c1 07             	test   cl,0x7
     b27:	74 41                	je     0xb6a
     b29:	4c 8b 42 08          	mov    r8,QWORD PTR [rdx+0x8]
     b2d:	48 8b 3a             	mov    rdi,QWORD PTR [rdx]
     b30:	4d 89 c1             	mov    r9,r8
     b33:	49 29 f9             	sub    r9,rdi
     b36:	4c 39 ce             	cmp    rsi,r9
     b39:	7d 6b                	jge    0xba6
     b3b:	48 01 f7             	add    rdi,rsi
     b3e:	48 89 3a             	mov    QWORD PTR [rdx],rdi
     b41:	83 e1 10             	and    ecx,0x10
     b44:	74 14                	je     0xb5a
     b46:	48 01 72 10          	add    QWORD PTR [rdx+0x10],rsi
     b4a:	4d 8b 7d 00          	mov    r15,QWORD PTR [r13+0x0]
     b4e:	4d 8d 6d 08          	lea    r13,[r13+0x8]
     b52:	4d 89 fe             	mov    r14,r15
     b55:	e9 9f db 00 00       	jmp    0xe6f9
     b5a:	4d 8b 7d 00          	mov    r15,QWORD PTR [r13+0x0]
     b5e:	4d 8d 6d 08          	lea    r13,[r13+0x8]
     b62:	4d 89 fe             	mov    r14,r15
     b65:	e9 c4 db 00 00       	jmp    0xe72e
     b6a:	48 8b 7a 18          	mov    rdi,QWORD PTR [rdx+0x18]
     b6e:	48 2b 7a 10          	sub    rdi,QWORD PTR [rdx+0x10]
     b72:	48 39 fe             	cmp    rsi,rdi
     b75:	7c ca                	jl     0xb41
     b77:	48 29 fe             	sub    rsi,rdi
     b7a:	83 e1 10             	and    ecx,0x10
     b7d:	74 08                	je     0xb87
     b7f:	48 8b 4a 18          	mov    rcx,QWORD PTR [rdx+0x18]
     b83:	48 89 4a 10          	mov    QWORD PTR [rdx+0x10],rcx
     b87:	48 8b 40 08          	mov    rax,QWORD PTR [rax+0x8]
     b8b:	48 85 c0             	test   rax,rax
     b8e:	0f 85 7a ff ff ff    	jne    0xb0e
     b94:	31 c0                	xor    eax,eax
     b96:	4d 8b 7d 00          	mov    r15,QWORD PTR [r13+0x0]
     b9a:	4d 8d 6d 08          	lea    r13,[r13+0x8]
     b9e:	4d 89 fe             	mov    r14,r15
     ba1:	e9 1e db 00 00       	jmp    0xe6c4
     ba6:	4c 89 02             	mov    QWORD PTR [rdx],r8
     ba9:	4c 29 ce             	sub    rsi,r9
     bac:	eb cc                	jmp    0xb7a
     bae:	49 8b 45 38          	mov    rax,QWORD PTR [r13+0x38]
     bb2:	4c 8b 7d 88          	mov    r15,QWORD PTR [rbp-0x78]
     bb6:	49 33 47 28          	xor    rax,QWORD PTR [r15+0x28]
     bba:	75 6a                	jne    0xc26
     bbc:	49 8b 45 20          	mov    rax,QWORD PTR [r13+0x20]
     bc0:	49 83 c5 48          	add    r13,0x48
     bc4:	49 8b 5d 00          	mov    rbx,QWORD PTR [r13+0x0]
     bc8:	4d 8d 6d 08          	lea    r13,[r13+0x8]
     bcc:	4d 8b 65 00          	mov    r12,QWORD PTR [r13+0x0]
     bd0:	4d 8d 6d 08          	lea    r13,[r13+0x8]
     bd4:	4c 8b 7d 98          	mov    r15,QWORD PTR [rbp-0x68]
     bd8:	4d 8b 7d 00          	mov    r15,QWORD PTR [r13+0x0]
     bdc:	4d 8d 6d 08          	lea    r13,[r13+0x8]
     be0:	4c 8b 75 a0          	mov    r14,QWORD PTR [rbp-0x60]
     be4:	4d 8b 75 00          	mov    r14,QWORD PTR [r13+0x0]
     be8:	4d 8d 6d 08          	lea    r13,[r13+0x8]
     bec:	4c 89 7d 98          	mov    QWORD PTR [rbp-0x68],r15
     bf0:	4c 8b 7d a8          	mov    r15,QWORD PTR [rbp-0x58]
     bf4:	4d 8b 7d 00          	mov    r15,QWORD PTR [r13+0x0]
     bf8:	4d 8d 6d 08          	lea    r13,[r13+0x8]
     bfc:	4c 89 7d a8          	mov    QWORD PTR [rbp-0x58],r15
     c00:	4c 8b 7d b0          	mov    r15,QWORD PTR [rbp-0x50]
     c04:	4d 8b 7d 00          	mov    r15,QWORD PTR [r13+0x0]
     c08:	4d 8d 6d 08          	lea    r13,[r13+0x8]
     c0c:	4c 89 7d b0          	mov    QWORD PTR [rbp-0x50],r15
     c10:	4d 8b 7d 00          	mov    r15,QWORD PTR [r13+0x0]
     c14:	4d 8d 6d 08          	lea    r13,[r13+0x8]
     c18:	4d 89 fe             	mov    r14,r15
     c1b:	e9 ed b7 00 00       	jmp    0xc40d
     c20:	49 89 45 20          	mov    QWORD PTR [r13+0x20],rax
     c24:	eb 88                	jmp    0xbae
     c26:	49 bf 47 f2 57 55 55 	movabs r15,0x55555557f247
     c2d:	55 00 00 
     c30:	4d 8d 6d f8          	lea    r13,[r13-0x8]
     c34:	4d 89 7d 00          	mov    QWORD PTR [r13+0x0],r15
     c38:	e9 02 e4 00 00       	jmp    0xf03f
     c3d:	90                   	nop
     c3e:	90                   	nop
     c3f:	4d 8d 6d f8          	lea    r13,[r13-0x8]
     c43:	4c 8b 7d a8          	mov    r15,QWORD PTR [rbp-0x58]
     c47:	4d 89 7d 00          	mov    QWORD PTR [r13+0x0],r15
     c4b:	49 89 ff             	mov    r15,rdi
     c4e:	4d 8d 6d f8          	lea    r13,[r13-0x8]
     c52:	4c 8b 75 a0          	mov    r14,QWORD PTR [rbp-0x60]
     c56:	4d 89 75 00          	mov    QWORD PTR [r13+0x0],r14
     c5a:	4d 8d 6d f8          	lea    r13,[r13-0x8]
     c5e:	4c 89 7d a8          	mov    QWORD PTR [rbp-0x58],r15
     c62:	4c 8b 7d 98          	mov    r15,QWORD PTR [rbp-0x68]
     c66:	4d 89 7d 00          	mov    QWORD PTR [r13+0x0],r15
     c6a:	4d 8d 6d f8          	lea    r13,[r13-0x8]
     c6e:	4d 89 65 00          	mov    QWORD PTR [r13+0x0],r12
     c72:	4d 8d 6d f8          	lea    r13,[r13-0x8]
     c76:	49 89 5d 00          	mov    QWORD PTR [r13+0x0],rbx
     c7a:	4c 8b 67 10          	mov    r12,QWORD PTR [rdi+0x10]
     c7e:	48 85 f6             	test   rsi,rsi
     c81:	4c 89 7d 98          	mov    QWORD PTR [rbp-0x68],r15
     c85:	4c 89 75 a0          	mov    QWORD PTR [rbp-0x60],r14
     c89:	0f 84 43 07 00 00    	je     0x13d2
     c8f:	4c 8b 7d a0          	mov    r15,QWORD PTR [rbp-0x60]
     c93:	49 89 f7             	mov    r15,rsi
     c96:	31 db                	xor    ebx,ebx
     c98:	4c 8b 75 98          	mov    r14,QWORD PTR [rbp-0x68]
     c9c:	4c 89 7d a0          	mov    QWORD PTR [rbp-0x60],r15
     ca0:	49 bf 78 f2 57 55 55 	movabs r15,0x55555557f278
     ca7:	55 00 00 
     caa:	4d 8d b7 bc 24 0b 00 	lea    r14,[r15+0xb24bc]
     cb1:	4c 89 75 98          	mov    QWORD PTR [rbp-0x68],r14
     cb5:	e9 b0 00 00 00       	jmp    0xd6a
     cba:	4c 8b 48 08          	mov    r9,QWORD PTR [rax+0x8]
     cbe:	48 8b 10             	mov    rdx,QWORD PTR [rax]
     cc1:	49 39 d1             	cmp    r9,rdx
     cc4:	75 24                	jne    0xcea
     cc6:	41 f6 c0 e0          	test   r8b,0xe0
     cca:	0f 84 d1 00 00 00    	je     0xda1
     cd0:	41 f6 c0 17          	test   r8b,0x17
     cd4:	0f 85 c7 00 00 00    	jne    0xda1
     cda:	84 c9                	test   cl,cl
     cdc:	0f 85 15 05 00 00    	jne    0x11f7
     ce2:	4c 8b 48 18          	mov    r9,QWORD PTR [rax+0x18]
     ce6:	48 8b 50 10          	mov    rdx,QWORD PTR [rax+0x10]
     cea:	49 29 d1             	sub    r9,rdx
     ced:	0f 88 15 05 00 00    	js     0x1208
     cf3:	49 8b 74 24 50       	mov    rsi,QWORD PTR [r12+0x50]
     cf8:	4c 01 cb             	add    rbx,r9
     cfb:	f6 06 10             	test   BYTE PTR [rsi],0x10
     cfe:	0f 85 41 04 00 00    	jne    0x1145
     d04:	4c 8b 7d a8          	mov    r15,QWORD PTR [rbp-0x58]
     d08:	49 8b 7f 18          	mov    rdi,QWORD PTR [r15+0x18]
     d0c:	49 be d2 f2 57 55 55 	movabs r14,0x55555557f2d2
     d13:	55 00 00 
     d16:	4d 8d 6d f8          	lea    r13,[r13-0x8]
     d1a:	4d 89 75 00          	mov    QWORD PTR [r13+0x0],r14
     d1e:	4c 89 7d a8          	mov    QWORD PTR [rbp-0x58],r15
     d22:	e9 9a e3 00 00       	jmp    0xf0c1
     d27:	48 85 c0             	test   rax,rax
     d2a:	0f 84 74 04 00 00    	je     0x11a4
     d30:	4c 8b 7d a0          	mov    r15,QWORD PTR [rbp-0x60]
     d34:	49 8b 17             	mov    rdx,QWORD PTR [r15]
     d37:	48 c7 40 08 00 00 00 	mov    QWORD PTR [rax+0x8],0x0
     d3e:	00 
     d3f:	48 89 10             	mov    QWORD PTR [rax],rdx
     d42:	4c 8b 75 a8          	mov    r14,QWORD PTR [rbp-0x58]
     d46:	49 8b 56 08          	mov    rdx,QWORD PTR [r14+0x8]
     d4a:	48 89 02             	mov    QWORD PTR [rdx],rax
     d4d:	4d 8b 7f 08          	mov    r15,QWORD PTR [r15+0x8]
     d51:	48 83 c0 08          	add    rax,0x8
     d55:	49 89 46 08          	mov    QWORD PTR [r14+0x8],rax
     d59:	4d 85 ff             	test   r15,r15
     d5c:	4c 89 7d a0          	mov    QWORD PTR [rbp-0x60],r15
     d60:	4c 89 75 a8          	mov    QWORD PTR [rbp-0x58],r14
     d64:	0f 84 1e 01 00 00    	je     0xe88
     d6a:	4c 8b 7d a0          	mov    r15,QWORD PTR [rbp-0x60]
     d6e:	49 8b 07             	mov    rax,QWORD PTR [r15]
     d71:	44 0f b6 40 48       	movzx  r8d,BYTE PTR [rax+0x48]
     d76:	44 89 c1             	mov    ecx,r8d
     d79:	83 e1 07             	and    ecx,0x7
     d7c:	4c 89 7d a0          	mov    QWORD PTR [rbp-0x60],r15
     d80:	0f 85 34 ff ff ff    	jne    0xcba
     d86:	4c 8b 48 18          	mov    r9,QWORD PTR [rax+0x18]
     d8a:	48 8b 50 10          	mov    rdx,QWORD PTR [rax+0x10]
     d8e:	49 39 d1             	cmp    r9,rdx
     d91:	0f 85 53 ff ff ff    	jne    0xcea
     d97:	41 f6 c0 e0          	test   r8b,0xe0
     d9b:	0f 85 2f ff ff ff    	jne    0xcd0
     da1:	4c 8b 7d a8          	mov    r15,QWORD PTR [rbp-0x58]
     da5:	49 8b 57 18          	mov    rdx,QWORD PTR [r15+0x18]
     da9:	48 8b 72 48          	mov    rsi,QWORD PTR [rdx+0x48]
     dad:	48 83 3e 01          	cmp    QWORD PTR [rsi],0x1
     db1:	4c 89 7d a8          	mov    QWORD PTR [rbp-0x58],r15
     db5:	0f 86 a1 00 00 00    	jbe    0xe5c
     dbb:	49 83 ed 08          	sub    r13,0x8
     dbf:	4d 8d 6d f8          	lea    r13,[r13-0x8]
     dc3:	4c 8b 78 18          	mov    r15,QWORD PTR [rax+0x18]
     dc7:	4d 89 7d 00          	mov    QWORD PTR [r13+0x0],r15
     dcb:	45 89 c1             	mov    r9d,r8d
     dce:	31 d2                	xor    edx,edx
     dd0:	4d 8d 6d f8          	lea    r13,[r13-0x8]
     dd4:	4c 8b 78 10          	mov    r15,QWORD PTR [rax+0x10]
     dd8:	4d 89 7d 00          	mov    QWORD PTR [r13+0x0],r15
     ddc:	41 c0 e9 03          	shr    r9b,0x3
     de0:	41 83 e0 01          	and    r8d,0x1
     de4:	bf 02 00 00 00       	mov    edi,0x2
     de9:	4d 8d 6d f8          	lea    r13,[r13-0x8]
     ded:	4c 8b 78 38          	mov    r15,QWORD PTR [rax+0x38]
     df1:	4d 89 7d 00          	mov    QWORD PTR [r13+0x0],r15
     df5:	41 83 e1 01          	and    r9d,0x1
     df9:	49 bf 6a f3 57 55 55 	movabs r15,0x55555557f36a
     e00:	55 00 00 
     e03:	49 8d 8f 0e 23 0b 00 	lea    rcx,[r15+0xb230e]
     e0a:	4d 8d 6d f8          	lea    r13,[r13-0x8]
     e0e:	4c 8b 78 08          	mov    r15,QWORD PTR [rax+0x8]
     e12:	4d 89 7d 00          	mov    QWORD PTR [r13+0x0],r15
     e16:	4d 8d 6d f8          	lea    r13,[r13-0x8]
     e1a:	4c 8b 38             	mov    r15,QWORD PTR [rax]
     e1d:	4d 89 7d 00          	mov    QWORD PTR [r13+0x0],r15
     e21:	4d 8d 6d f8          	lea    r13,[r13-0x8]
     e25:	4c 8b 78 20          	mov    r15,QWORD PTR [rax+0x20]
     e29:	4d 89 7d 00          	mov    QWORD PTR [r13+0x0],r15
     e2d:	0f b6 40 48          	movzx  eax,BYTE PTR [rax+0x48]
     e31:	c0 e8 04             	shr    al,0x4
     e34:	83 e0 01             	and    eax,0x1
     e37:	4d 8d 6d f8          	lea    r13,[r13-0x8]
     e3b:	49 89 45 00          	mov    QWORD PTR [r13+0x0],rax
     e3f:	31 c0                	xor    eax,eax
     e41:	49 bf 84 f3 57 55 55 	movabs r15,0x55555557f384
     e48:	55 00 00 
     e4b:	4d 8d 6d f8          	lea    r13,[r13-0x8]
     e4f:	4d 89 7d 00          	mov    QWORD PTR [r13+0x0],r15
     e53:	e9 22 f2 ff ff       	jmp    0x7a
     e58:	49 83 c5 40          	add    r13,0x40
     e5c:	49 bf 8d f3 57 55 55 	movabs r15,0x55555557f38d
     e63:	55 00 00 
     e66:	4d 8d 6d f8          	lea    r13,[r13-0x8]
     e6a:	4d 89 7d 00          	mov    QWORD PTR [r13+0x0],r15
     e6e:	e9 2e e7 00 00       	jmp    0xf5a1
     e73:	4c 8b 7d a0          	mov    r15,QWORD PTR [rbp-0x60]
     e77:	4d 8b 7f 08          	mov    r15,QWORD PTR [r15+0x8]
     e7b:	4d 85 ff             	test   r15,r15
     e7e:	4c 89 7d a0          	mov    QWORD PTR [rbp-0x60],r15
     e82:	0f 85 e2 fe ff ff    	jne    0xd6a
     e88:	49 8b 74 24 50       	mov    rsi,QWORD PTR [r12+0x50]
     e8d:	4c 8b 7d a0          	mov    r15,QWORD PTR [rbp-0x60]
     e91:	4c 8b 75 a8          	mov    r14,QWORD PTR [rbp-0x58]
     e95:	4d 8b 3e             	mov    r15,QWORD PTR [r14]
     e98:	f6 06 10             	test   BYTE PTR [rsi],0x10
     e9b:	4c 89 7d a0          	mov    QWORD PTR [rbp-0x60],r15
     e9f:	4c 89 75 a8          	mov    QWORD PTR [rbp-0x58],r14
     ea3:	0f 85 c9 04 00 00    	jne    0x1372
     ea9:	4c 8b 7d a0          	mov    r15,QWORD PTR [rbp-0x60]
     ead:	4d 85 ff             	test   r15,r15
     eb0:	4c 89 7d a0          	mov    QWORD PTR [rbp-0x60],r15
     eb4:	0f 84 72 01 00 00    	je     0x102c
     eba:	4c 8b 7d 98          	mov    r15,QWORD PTR [rbp-0x68]
     ebe:	49 be ba f3 57 55 55 	movabs r14,0x55555557f3ba
     ec5:	55 00 00 
     ec8:	4d 8d be be 22 0b 00 	lea    r15,[r14+0xb22be]
     ecf:	4c 89 7d 98          	mov    QWORD PTR [rbp-0x68],r15
     ed3:	eb 4b                	jmp    0xf20
     ed5:	48 8b 50 08          	mov    rdx,QWORD PTR [rax+0x8]
     ed9:	48 8b 08             	mov    rcx,QWORD PTR [rax]
     edc:	48 39 ca             	cmp    rdx,rcx
     edf:	75 1e                	jne    0xeff
     ee1:	41 f6 c0 e0          	test   r8b,0xe0
     ee5:	74 64                	je     0xf4b
     ee7:	41 f6 c0 17          	test   r8b,0x17
     eeb:	75 5e                	jne    0xf4b
     eed:	40 84 f6             	test   sil,sil
     ef0:	0f 85 37 04 00 00    	jne    0x132d
     ef6:	48 8b 50 18          	mov    rdx,QWORD PTR [rax+0x18]
     efa:	48 8b 48 10          	mov    rcx,QWORD PTR [rax+0x10]
     efe:	90                   	nop
     eff:	48 29 ca             	sub    rdx,rcx
     f02:	0f 88 00 03 00 00    	js     0x1208
     f08:	4c 8b 7d a0          	mov    r15,QWORD PTR [rbp-0x60]
     f0c:	4d 8b 7f 08          	mov    r15,QWORD PTR [r15+0x8]
     f10:	48 01 d3             	add    rbx,rdx
     f13:	4d 85 ff             	test   r15,r15
     f16:	4c 89 7d a0          	mov    QWORD PTR [rbp-0x60],r15
     f1a:	0f 84 0c 01 00 00    	je     0x102c
     f20:	4c 8b 7d a0          	mov    r15,QWORD PTR [rbp-0x60]
     f24:	49 8b 07             	mov    rax,QWORD PTR [r15]
     f27:	44 0f b6 40 48       	movzx  r8d,BYTE PTR [rax+0x48]
     f2c:	44 89 c6             	mov    esi,r8d
     f2f:	83 e6 07             	and    esi,0x7
     f32:	4c 89 7d a0          	mov    QWORD PTR [rbp-0x60],r15
     f36:	75 9d                	jne    0xed5
     f38:	48 8b 50 18          	mov    rdx,QWORD PTR [rax+0x18]
     f3c:	48 8b 48 10          	mov    rcx,QWORD PTR [rax+0x10]
     f40:	48 39 ca             	cmp    rdx,rcx
     f43:	75 ba                	jne    0xeff
     f45:	41 f6 c0 e0          	test   r8b,0xe0
     f49:	75 9c                	jne    0xee7
     f4b:	4c 8b 7d a8          	mov    r15,QWORD PTR [rbp-0x58]
     f4f:	49 8b 57 18          	mov    rdx,QWORD PTR [r15+0x18]
     f53:	48 8b 72 48          	mov    rsi,QWORD PTR [rdx+0x48]
     f57:	48 83 3e 01          	cmp    QWORD PTR [rsi],0x1
     f5b:	4c 89 7d a8          	mov    QWORD PTR [rbp-0x58],r15
     f5f:	0f 86 9b 00 00 00    	jbe    0x1000
     f65:	49 83 ed 08          	sub    r13,0x8
     f69:	4d 8d 6d f8          	lea    r13,[r13-0x8]
     f6d:	4c 8b 78 18          	mov    r15,QWORD PTR [rax+0x18]
     f71:	4d 89 7d 00          	mov    QWORD PTR [r13+0x0],r15
     f75:	45 89 c1             	mov    r9d,r8d
     f78:	4c 8b 7d 98          	mov    r15,QWORD PTR [rbp-0x68]
     f7c:	4c 89 f9             	mov    rcx,r15
     f7f:	4d 8d 6d f8          	lea    r13,[r13-0x8]
     f83:	4c 8b 70 10          	mov    r14,QWORD PTR [rax+0x10]
     f87:	4d 89 75 00          	mov    QWORD PTR [r13+0x0],r14
     f8b:	41 c0 e9 03          	shr    r9b,0x3
     f8f:	41 83 e0 01          	and    r8d,0x1
     f93:	31 d2                	xor    edx,edx
     f95:	4d 8d 6d f8          	lea    r13,[r13-0x8]
     f99:	4c 8b 70 38          	mov    r14,QWORD PTR [rax+0x38]
     f9d:	4d 89 75 00          	mov    QWORD PTR [r13+0x0],r14
     fa1:	41 83 e1 01          	and    r9d,0x1
     fa5:	bf 02 00 00 00       	mov    edi,0x2
     faa:	4d 8d 6d f8          	lea    r13,[r13-0x8]
     fae:	4c 8b 70 08          	mov    r14,QWORD PTR [rax+0x8]
     fb2:	4d 89 75 00          	mov    QWORD PTR [r13+0x0],r14
     fb6:	4d 8d 6d f8          	lea    r13,[r13-0x8]
     fba:	4c 8b 30             	mov    r14,QWORD PTR [rax]
     fbd:	4d 89 75 00          	mov    QWORD PTR [r13+0x0],r14
     fc1:	4d 8d 6d f8          	lea    r13,[r13-0x8]
     fc5:	4c 8b 70 20          	mov    r14,QWORD PTR [rax+0x20]
     fc9:	4d 89 75 00          	mov    QWORD PTR [r13+0x0],r14
     fcd:	0f b6 40 48          	movzx  eax,BYTE PTR [rax+0x48]
     fd1:	c0 e8 04             	shr    al,0x4
     fd4:	83 e0 01             	and    eax,0x1
     fd7:	4d 8d 6d f8          	lea    r13,[r13-0x8]
     fdb:	49 89 45 00          	mov    QWORD PTR [r13+0x0],rax
     fdf:	31 c0                	xor    eax,eax
     fe1:	49 be 7b f4 57 55 55 	movabs r14,0x55555557f47b
     fe8:	55 00 00 
     feb:	4d 8d 6d f8          	lea    r13,[r13-0x8]
     fef:	4d 89 75 00          	mov    QWORD PTR [r13+0x0],r14
     ff3:	4c 89 7d 98          	mov    QWORD PTR [rbp-0x68],r15
     ff7:	e9 7e f0 ff ff       	jmp    0x7a
     ffc:	49 83 c5 40          	add    r13,0x40
    1000:	49 bf 84 f4 57 55 55 	movabs r15,0x55555557f484
    1007:	55 00 00 
    100a:	4d 8d 6d f8          	lea    r13,[r13-0x8]
    100e:	4d 89 7d 00          	mov    QWORD PTR [r13+0x0],r15
    1012:	e9 8a e5 00 00       	jmp    0xf5a1
    1017:	4c 8b 7d a0          	mov    r15,QWORD PTR [rbp-0x60]
    101b:	4d 8b 7f 08          	mov    r15,QWORD PTR [r15+0x8]
    101f:	4d 85 ff             	test   r15,r15
    1022:	4c 89 7d a0          	mov    QWORD PTR [rbp-0x60],r15
    1026:	0f 85 f4 fe ff ff    	jne    0xf20
    102c:	48 85 db             	test   rbx,rbx
    102f:	75 0f                	jne    0x1040
    1031:	41 80 bc 24 e0 00 00 	cmp    BYTE PTR [r12+0xe0],0x0
    1038:	00 00 
    103a:	0f 84 b7 00 00 00    	je     0x10f7
    1040:	4c 8b 7d a8          	mov    r15,QWORD PTR [rbp-0x58]
    1044:	49 8b 37             	mov    rsi,QWORD PTR [r15]
    1047:	49 8b 57 20          	mov    rdx,QWORD PTR [r15+0x20]
    104b:	4c 89 e7             	mov    rdi,r12
    104e:	49 be ac f4 57 55 55 	movabs r14,0x55555557f4ac
    1055:	55 00 00 
    1058:	4d 8d 6d f8          	lea    r13,[r13-0x8]
    105c:	4d 89 75 00          	mov    QWORD PTR [r13+0x0],r14
    1060:	4d 8b 74 24 38       	mov    r14,QWORD PTR [r12+0x38]
    1065:	e9 35 db 00 00       	jmp    0xeb9f
    106a:	49 8b 74 24 50       	mov    rsi,QWORD PTR [r12+0x50]
    106f:	48 89 c3             	mov    rbx,rax
    1072:	f6 06 10             	test   BYTE PTR [rsi],0x10
    1075:	0f 85 be 02 00 00    	jne    0x1339
    107b:	48 83 fb ff          	cmp    rbx,0xffffffffffffffff
    107f:	0f 84 1f 01 00 00    	je     0x11a4
    1085:	4c 8b 7d a8          	mov    r15,QWORD PTR [rbp-0x58]
    1089:	49 8b 07             	mov    rax,QWORD PTR [r15]
    108c:	48 39 c3             	cmp    rbx,rax
    108f:	4c 89 7d a8          	mov    QWORD PTR [rbp-0x58],r15
    1093:	74 33                	je     0x10c8
    1095:	48 85 c0             	test   rax,rax
    1098:	74 2e                	je     0x10c8
    109a:	4c 8b 7d a8          	mov    r15,QWORD PTR [rbp-0x58]
    109e:	49 8b 77 18          	mov    rsi,QWORD PTR [r15+0x18]
    10a2:	48 8b 4e 30          	mov    rcx,QWORD PTR [rsi+0x30]
    10a6:	4c 89 7d a8          	mov    QWORD PTR [rbp-0x58],r15
    10aa:	eb 08                	jmp    0x10b4
    10ac:	48 39 d3             	cmp    rbx,rdx
    10af:	74 13                	je     0x10c4
    10b1:	48 89 d0             	mov    rax,rdx
    10b4:	48 8b 50 08          	mov    rdx,QWORD PTR [rax+0x8]
    10b8:	48 89 48 08          	mov    QWORD PTR [rax+0x8],rcx
    10bc:	48 89 c1             	mov    rcx,rax
    10bf:	48 85 d2             	test   rdx,rdx
    10c2:	75 e8                	jne    0x10ac
    10c4:	48 89 46 30          	mov    QWORD PTR [rsi+0x30],rax
    10c8:	4c 8b 7d a8          	mov    r15,QWORD PTR [rbp-0x58]
    10cc:	49 89 1f             	mov    QWORD PTR [r15],rbx
    10cf:	48 85 db             	test   rbx,rbx
    10d2:	4c 89 7d a8          	mov    QWORD PTR [rbp-0x58],r15
    10d6:	0f 85 ea 02 00 00    	jne    0x13c6
    10dc:	41 80 bc 24 e0 00 00 	cmp    BYTE PTR [r12+0xe0],0x0
    10e3:	00 00 
    10e5:	4c 8b 7d a8          	mov    r15,QWORD PTR [rbp-0x58]
    10e9:	4d 89 7f 08          	mov    QWORD PTR [r15+0x8],r15
    10ed:	4c 89 7d a8          	mov    QWORD PTR [rbp-0x58],r15
    10f1:	0f 85 cf 02 00 00    	jne    0x13c6
    10f7:	49 8b 5d 00          	mov    rbx,QWORD PTR [r13+0x0]
    10fb:	4d 8d 6d 08          	lea    r13,[r13+0x8]
    10ff:	31 c0                	xor    eax,eax
    1101:	4d 8b 65 00          	mov    r12,QWORD PTR [r13+0x0]
    1105:	4d 8d 6d 08          	lea    r13,[r13+0x8]
    1109:	4c 8b 7d 98          	mov    r15,QWORD PTR [rbp-0x68]
    110d:	4d 8b 7d 00          	mov    r15,QWORD PTR [r13+0x0]
    1111:	4d 8d 6d 08          	lea    r13,[r13+0x8]
    1115:	4c 8b 75 a0          	mov    r14,QWORD PTR [rbp-0x60]
    1119:	4d 8b 75 00          	mov    r14,QWORD PTR [r13+0x0]
    111d:	4d 8d 6d 08          	lea    r13,[r13+0x8]
    1121:	4c 89 7d 98          	mov    QWORD PTR [rbp-0x68],r15
    1125:	4c 8b 7d a8          	mov    r15,QWORD PTR [rbp-0x58]
    1129:	4d 8b 7d 00          	mov    r15,QWORD PTR [r13+0x0]
    112d:	4d 8d 6d 08          	lea    r13,[r13+0x8]
    1131:	4c 89 7d a8          	mov    QWORD PTR [rbp-0x58],r15
    1135:	4d 8b 7d 00          	mov    r15,QWORD PTR [r13+0x0]
    1139:	4d 8d 6d 08          	lea    r13,[r13+0x8]
    113d:	4d 89 fe             	mov    r14,r15
    1140:	e9 69 da 00 00       	jmp    0xebae
    1145:	41 c0 e8 05          	shr    r8b,0x5
    1149:	31 d2                	xor    edx,edx
    114b:	bf 08 00 00 00       	mov    edi,0x8
    1150:	31 c0                	xor    eax,eax
    1152:	41 83 e0 01          	and    r8d,0x1
    1156:	4c 8b 7d 98          	mov    r15,QWORD PTR [rbp-0x68]
    115a:	4c 89 f9             	mov    rcx,r15
    115d:	49 be 41 f5 57 55 55 	movabs r14,0x55555557f541
    1164:	55 00 00 
    1167:	4d 8d 6d f8          	lea    r13,[r13-0x8]
    116b:	4d 89 75 00          	mov    QWORD PTR [r13+0x0],r14
    116f:	4c 89 7d 98          	mov    QWORD PTR [rbp-0x68],r15
    1173:	e9 02 ef ff ff       	jmp    0x7a
    1178:	4c 8b 7d a8          	mov    r15,QWORD PTR [rbp-0x58]
    117c:	49 8b 7f 18          	mov    rdi,QWORD PTR [r15+0x18]
    1180:	49 be 4a f5 57 55 55 	movabs r14,0x55555557f54a
    1187:	55 00 00 
    118a:	4d 8d 6d f8          	lea    r13,[r13-0x8]
    118e:	4d 89 75 00          	mov    QWORD PTR [r13+0x0],r14
    1192:	4c 89 7d a8          	mov    QWORD PTR [rbp-0x58],r15
    1196:	e9 26 df 00 00       	jmp    0xf0c1
    119b:	48 85 c0             	test   rax,rax
    119e:	0f 85 8c fb ff ff    	jne    0xd30
    11a4:	49 8b 5d 00          	mov    rbx,QWORD PTR [r13+0x0]
    11a8:	4d 8d 6d 08          	lea    r13,[r13+0x8]
    11ac:	48 c7 c0 ff ff ff ff 	mov    rax,0xffffffffffffffff
    11b3:	4d 8b 65 00          	mov    r12,QWORD PTR [r13+0x0]
    11b7:	4d 8d 6d 08          	lea    r13,[r13+0x8]
    11bb:	4c 8b 7d 98          	mov    r15,QWORD PTR [rbp-0x68]
    11bf:	4d 8b 7d 00          	mov    r15,QWORD PTR [r13+0x0]
    11c3:	4d 8d 6d 08          	lea    r13,[r13+0x8]
    11c7:	4c 8b 75 a0          	mov    r14,QWORD PTR [rbp-0x60]
    11cb:	4d 8b 75 00          	mov    r14,QWORD PTR [r13+0x0]
    11cf:	4d 8d 6d 08          	lea    r13,[r13+0x8]
    11d3:	4c 89 7d 98          	mov    QWORD PTR [rbp-0x68],r15
    11d7:	4c 8b 7d a8          	mov    r15,QWORD PTR [rbp-0x58]
    11db:	4d 8b 7d 00          	mov    r15,QWORD PTR [r13+0x0]
    11df:	4d 8d 6d 08          	lea    r13,[r13+0x8]
    11e3:	4c 89 7d a8          	mov    QWORD PTR [rbp-0x58],r15
    11e7:	4d 8b 7d 00          	mov    r15,QWORD PTR [r13+0x0]
    11eb:	4d 8d 6d 08          	lea    r13,[r13+0x8]
    11ef:	4d 89 fe             	mov    r14,r15
    11f2:	e9 c6 d9 00 00       	jmp    0xebbd
    11f7:	4c 8b 48 08          	mov    r9,QWORD PTR [rax+0x8]
    11fb:	48 8b 10             	mov    rdx,QWORD PTR [rax]
    11fe:	49 29 d1             	sub    r9,rdx
    1201:	0f 89 ec fa ff ff    	jns    0xcf3
    1207:	90                   	nop
    1208:	4c 8b 7d a8          	mov    r15,QWORD PTR [rbp-0x58]
    120c:	49 8b 57 18          	mov    rdx,QWORD PTR [r15+0x18]
    1210:	48 8b 72 48          	mov    rsi,QWORD PTR [rdx+0x48]
    1214:	48 83 3e 01          	cmp    QWORD PTR [rsi],0x1
    1218:	4c 89 7d a8          	mov    QWORD PTR [rbp-0x58],r15
    121c:	0f 86 a1 00 00 00    	jbe    0x12c3
    1222:	49 83 ed 08          	sub    r13,0x8
    1226:	4d 8d 6d f8          	lea    r13,[r13-0x8]
    122a:	4c 8b 78 18          	mov    r15,QWORD PTR [rax+0x18]
    122e:	4d 89 7d 00          	mov    QWORD PTR [r13+0x0],r15
    1232:	45 89 c1             	mov    r9d,r8d
    1235:	31 d2                	xor    edx,edx
    1237:	4d 8d 6d f8          	lea    r13,[r13-0x8]
    123b:	4c 8b 78 10          	mov    r15,QWORD PTR [rax+0x10]
    123f:	4d 89 7d 00          	mov    QWORD PTR [r13+0x0],r15
    1243:	41 c0 e9 03          	shr    r9b,0x3
    1247:	41 83 e0 01          	and    r8d,0x1
    124b:	bf 02 00 00 00       	mov    edi,0x2
    1250:	4d 8d 6d f8          	lea    r13,[r13-0x8]
    1254:	4c 8b 78 38          	mov    r15,QWORD PTR [rax+0x38]
    1258:	4d 89 7d 00          	mov    QWORD PTR [r13+0x0],r15
    125c:	41 83 e1 01          	and    r9d,0x1
    1260:	49 bf b8 f5 57 55 55 	movabs r15,0x55555557f5b8
    1267:	55 00 00 
    126a:	49 8d 8f 00 21 0b 00 	lea    rcx,[r15+0xb2100]
    1271:	4d 8d 6d f8          	lea    r13,[r13-0x8]
    1275:	4c 8b 78 08          	mov    r15,QWORD PTR [rax+0x8]
    1279:	4d 89 7d 00          	mov    QWORD PTR [r13+0x0],r15
    127d:	4d 8d 6d f8          	lea    r13,[r13-0x8]
    1281:	4c 8b 38             	mov    r15,QWORD PTR [rax]
    1284:	4d 89 7d 00          	mov    QWORD PTR [r13+0x0],r15
    1288:	4d 8d 6d f8          	lea    r13,[r13-0x8]
    128c:	4c 8b 78 20          	mov    r15,QWORD PTR [rax+0x20]
    1290:	4d 89 7d 00          	mov    QWORD PTR [r13+0x0],r15
    1294:	0f b6 40 48          	movzx  eax,BYTE PTR [rax+0x48]
    1298:	c0 e8 04             	shr    al,0x4
    129b:	83 e0 01             	and    eax,0x1
    129e:	4d 8d 6d f8          	lea    r13,[r13-0x8]
    12a2:	49 89 45 00          	mov    QWORD PTR [r13+0x0],rax
    12a6:	31 c0                	xor    eax,eax
    12a8:	49 bf d2 f5 57 55 55 	movabs r15,0x55555557f5d2
    12af:	55 00 00 
    12b2:	4d 8d 6d f8          	lea    r13,[r13-0x8]
    12b6:	4d 89 7d 00          	mov    QWORD PTR [r13+0x0],r15
    12ba:	e9 bb ed ff ff       	jmp    0x7a
    12bf:	49 83 c5 40          	add    r13,0x40
    12c3:	49 bf db f5 57 55 55 	movabs r15,0x55555557f5db
    12ca:	55 00 00 
    12cd:	4d 8d 6d f8          	lea    r13,[r13-0x8]
    12d1:	4d 89 7d 00          	mov    QWORD PTR [r13+0x0],r15
    12d5:	e9 c7 e2 00 00       	jmp    0xf5a1
    12da:	48 c7 c0 ff ff ff ff 	mov    rax,0xffffffffffffffff
    12e1:	49 8b 5d 00          	mov    rbx,QWORD PTR [r13+0x0]
    12e5:	4d 8d 6d 08          	lea    r13,[r13+0x8]
    12e9:	4d 8b 65 00          	mov    r12,QWORD PTR [r13+0x0]
    12ed:	4d 8d 6d 08          	lea    r13,[r13+0x8]
    12f1:	4c 8b 7d 98          	mov    r15,QWORD PTR [rbp-0x68]
    12f5:	4d 8b 7d 00          	mov    r15,QWORD PTR [r13+0x0]
    12f9:	4d 8d 6d 08          	lea    r13,[r13+0x8]
    12fd:	4c 8b 75 a0          	mov    r14,QWORD PTR [rbp-0x60]
    1301:	4d 8b 75 00          	mov    r14,QWORD PTR [r13+0x0]
    1305:	4d 8d 6d 08          	lea    r13,[r13+0x8]
    1309:	4c 89 7d 98          	mov    QWORD PTR [rbp-0x68],r15
    130d:	4c 8b 7d a8          	mov    r15,QWORD PTR [rbp-0x58]
    1311:	4d 8b 7d 00          	mov    r15,QWORD PTR [r13+0x0]
    1315:	4d 8d 6d 08          	lea    r13,[r13+0x8]
    1319:	4c 89 7d a8          	mov    QWORD PTR [rbp-0x58],r15
    131d:	4d 8b 7d 00          	mov    r15,QWORD PTR [r13+0x0]
    1321:	4d 8d 6d 08          	lea    r13,[r13+0x8]
    1325:	4d 89 fe             	mov    r14,r15
    1328:	e9 9f d8 00 00       	jmp    0xebcc
    132d:	48 8b 50 08          	mov    rdx,QWORD PTR [rax+0x8]
    1331:	48 8b 08             	mov    rcx,QWORD PTR [rax]
    1334:	e9 c6 fb ff ff       	jmp    0xeff
    1339:	49 89 c0             	mov    r8,rax
    133c:	49 bf 06 f6 57 55 55 	movabs r15,0x55555557f606
    1343:	55 00 00 
    1346:	49 8d 8f 5f 21 0b 00 	lea    rcx,[r15+0xb215f]
    134d:	31 d2                	xor    edx,edx
    134f:	31 c0                	xor    eax,eax
    1351:	bf 08 00 00 00       	mov    edi,0x8
    1356:	49 bf 14 f6 57 55 55 	movabs r15,0x55555557f614
    135d:	55 00 00 
    1360:	4d 8d 6d f8          	lea    r13,[r13-0x8]
    1364:	4d 89 7d 00          	mov    QWORD PTR [r13+0x0],r15
    1368:	e9 0d ed ff ff       	jmp    0x7a
    136d:	e9 09 fd ff ff       	jmp    0x107b
    1372:	4c 8b 7d a0          	mov    r15,QWORD PTR [rbp-0x60]
    1376:	4d 89 f8             	mov    r8,r15
    1379:	49 be 2a f6 57 55 55 	movabs r14,0x55555557f62a
    1380:	55 00 00 
    1383:	49 8d 8e 27 21 0b 00 	lea    rcx,[r14+0xb2127]
    138a:	31 d2                	xor    edx,edx
    138c:	31 c0                	xor    eax,eax
    138e:	bf 08 00 00 00       	mov    edi,0x8
    1393:	49 be 38 f6 57 55 55 	movabs r14,0x55555557f638
    139a:	55 00 00 
    139d:	4d 8d 6d f8          	lea    r13,[r13-0x8]
    13a1:	4d 89 75 00          	mov    QWORD PTR [r13+0x0],r14
    13a5:	4c 89 7d a0          	mov    QWORD PTR [rbp-0x60],r15
    13a9:	e9 cc ec ff ff       	jmp    0x7a
    13ae:	4c 8b 7d a0          	mov    r15,QWORD PTR [rbp-0x60]
    13b2:	4c 8b 75 a8          	mov    r14,QWORD PTR [rbp-0x58]
    13b6:	4d 8b 3e             	mov    r15,QWORD PTR [r14]
    13b9:	4c 89 7d a0          	mov    QWORD PTR [rbp-0x60],r15
    13bd:	4c 89 75 a8          	mov    QWORD PTR [rbp-0x58],r14
    13c1:	e9 e3 fa ff ff       	jmp    0xea9
    13c6:	48 c7 c0 fe ff ff ff 	mov    rax,0xfffffffffffffffe
    13cd:	e9 0f ff ff ff       	jmp    0x12e1
    13d2:	31 db                	xor    ebx,ebx
    13d4:	e9 af fa ff ff       	jmp    0xe88
    13d9:	49 8b 55 00          	mov    rdx,QWORD PTR [r13+0x0]
    13dd:	4c 8b 7d 98          	mov    r15,QWORD PTR [rbp-0x68]
    13e1:	49 8b 4f 50          	mov    rcx,QWORD PTR [r15+0x50]
    13e5:	4c 89 e6             	mov    rsi,r12
    13e8:	4c 8b 75 b0          	mov    r14,QWORD PTR [rbp-0x50]
    13ec:	4c 89 f7             	mov    rdi,r14
    13ef:	48 29 da             	sub    rdx,rbx
    13f2:	4c 89 7d 98          	mov    QWORD PTR [rbp-0x68],r15
    13f6:	49 bf ef 98 5a 55 55 	movabs r15,0x5555555a98ef
    13fd:	55 00 00 
    1400:	4d 8d 6d f8          	lea    r13,[r13-0x8]
    1404:	4d 89 7d 00          	mov    QWORD PTR [r13+0x0],r15
    1408:	4c 89 75 b0          	mov    QWORD PTR [rbp-0x50],r14
    140c:	e9 66 dd 00 00       	jmp    0xf177
    1411:	49 89 45 40          	mov    QWORD PTR [r13+0x40],rax
    1415:	48 83 f8 ff          	cmp    rax,0xffffffffffffffff
    1419:	0f 84 72 05 00 00    	je     0x1991
    141f:	4d 8b 55 60          	mov    r10,QWORD PTR [r13+0x60]
    1423:	4c 8b 7d a8          	mov    r15,QWORD PTR [rbp-0x58]
    1427:	4d 8b 7d 58          	mov    r15,QWORD PTR [r13+0x58]
    142b:	4c 8b 75 98          	mov    r14,QWORD PTR [rbp-0x68]
    142f:	41 0f b6 96 e2 00 00 	movzx  edx,BYTE PTR [r14+0xe2]
    1436:	00 
    1437:	49 01 da             	add    r10,rbx
    143a:	4c 89 7d a8          	mov    QWORD PTR [rbp-0x58],r15
    143e:	4c 8b 7d a0          	mov    r15,QWORD PTR [rbp-0x60]
    1442:	4d 89 d7             	mov    r15,r10
    1445:	f6 c2 c0             	test   dl,0xc0
    1448:	4c 89 7d a0          	mov    QWORD PTR [rbp-0x60],r15
    144c:	4c 89 75 98          	mov    QWORD PTR [rbp-0x68],r14
    1450:	0f 85 ef 01 00 00    	jne    0x1645
    1456:	48 85 c0             	test   rax,rax
    1459:	0f 84 e6 01 00 00    	je     0x1645
    145f:	4c 8b 7d a8          	mov    r15,QWORD PTR [rbp-0x58]
    1463:	4d 85 ff             	test   r15,r15
    1466:	4c 89 7d a8          	mov    QWORD PTR [rbp-0x58],r15
    146a:	0f 84 e6 01 00 00    	je     0x1656
    1470:	48 8b 00             	mov    rax,QWORD PTR [rax]
    1473:	f6 40 48 10          	test   BYTE PTR [rax+0x48],0x10
    1477:	74 15                	je     0x148e
    1479:	83 e2 30             	and    edx,0x30
    147c:	80 fa 10             	cmp    dl,0x10
    147f:	0f 84 d6 00 00 00    	je     0x155b
    1485:	84 d2                	test   dl,dl
    1487:	0f 84 51 01 00 00    	je     0x15de
    148d:	90                   	nop
    148e:	4c 8b 7d b0          	mov    r15,QWORD PTR [rbp-0x50]
    1492:	4c 89 fe             	mov    rsi,r15
    1495:	4c 8b 75 98          	mov    r14,QWORD PTR [rbp-0x68]
    1499:	4c 89 f7             	mov    rdi,r14
    149c:	4c 89 7d b0          	mov    QWORD PTR [rbp-0x50],r15
    14a0:	49 bf 5b 99 5a 55 55 	movabs r15,0x5555555a995b
    14a7:	55 00 00 
    14aa:	4d 8d 6d f8          	lea    r13,[r13-0x8]
    14ae:	4d 89 7d 00          	mov    QWORD PTR [r13+0x0],r15
    14b2:	4c 89 75 98          	mov    QWORD PTR [rbp-0x68],r14
    14b6:	e9 c8 df 00 00       	jmp    0xf483
    14bb:	49 89 c0             	mov    r8,rax
    14be:	48 83 f8 ff          	cmp    rax,0xffffffffffffffff
    14c2:	0f 84 c9 04 00 00    	je     0x1991
    14c8:	4c 8b 7d 98          	mov    r15,QWORD PTR [rbp-0x68]
    14cc:	49 8b 47 48          	mov    rax,QWORD PTR [r15+0x48]
    14d0:	49 83 f8 fe          	cmp    r8,0xfffffffffffffffe
    14d4:	4c 89 7d 98          	mov    QWORD PTR [rbp-0x68],r15
    14d8:	0f 84 f9 02 00 00    	je     0x17d7
    14de:	4c 01 c0             	add    rax,r8
    14e1:	4c 8b 7d a8          	mov    r15,QWORD PTR [rbp-0x58]
    14e5:	4d 89 c7             	mov    r15,r8
    14e8:	4c 8b 75 98          	mov    r14,QWORD PTR [rbp-0x68]
    14ec:	49 89 46 48          	mov    QWORD PTR [r14+0x48],rax
    14f0:	4c 89 7d a8          	mov    QWORD PTR [rbp-0x58],r15
    14f4:	4c 89 75 98          	mov    QWORD PTR [rbp-0x68],r14
    14f8:	4c 89 c6             	mov    rsi,r8
    14fb:	4c 89 e7             	mov    rdi,r12
    14fe:	4d 89 45 08          	mov    QWORD PTR [r13+0x8],r8
    1502:	49 bf 92 99 5a 55 55 	movabs r15,0x5555555a9992
    1509:	55 00 00 
    150c:	4d 8d 6d f8          	lea    r13,[r13-0x8]
    1510:	4d 89 7d 00          	mov    QWORD PTR [r13+0x0],r15
    1514:	e9 e8 f5 ff ff       	jmp    0xb01
    1519:	4d 8b 45 08          	mov    r8,QWORD PTR [r13+0x8]
    151d:	49 89 c4             	mov    r12,rax
    1520:	4c 8b 7d a0          	mov    r15,QWORD PTR [rbp-0x60]
    1524:	4c 89 f8             	mov    rax,r15
    1527:	48 29 d8             	sub    rax,rbx
    152a:	4c 39 c0             	cmp    rax,r8
    152d:	4c 89 7d a0          	mov    QWORD PTR [rbp-0x60],r15
    1531:	0f 84 3d 03 00 00    	je     0x1874
    1537:	4c 8b 7d a0          	mov    r15,QWORD PTR [rbp-0x60]
    153b:	4c 8b 75 a8          	mov    r14,QWORD PTR [rbp-0x58]
    153f:	4d 8d 3c 1e          	lea    r15,[r14+rbx*1]
    1543:	4c 89 7d a0          	mov    QWORD PTR [rbp-0x60],r15
    1547:	4c 89 75 a8          	mov    QWORD PTR [rbp-0x58],r14
    154b:	4c 8b 7d a0          	mov    r15,QWORD PTR [rbp-0x60]
    154f:	4c 89 fb             	mov    rbx,r15
    1552:	4c 89 7d a0          	mov    QWORD PTR [rbp-0x60],r15
    1556:	e9 7e fe ff ff       	jmp    0x13d9
    155b:	4c 8b 7d 98          	mov    r15,QWORD PTR [rbp-0x68]
    155f:	41 8b 7f 18          	mov    edi,DWORD PTR [r15+0x18]
    1563:	49 8d 4d 3c          	lea    rcx,[r13+0x3c]
    1567:	41 b8 04 00 00 00    	mov    r8d,0x4
    156d:	ba 01 00 00 00       	mov    edx,0x1
    1572:	be 06 00 00 00       	mov    esi,0x6
    1577:	4d 89 55 08          	mov    QWORD PTR [r13+0x8],r10
    157b:	41 c7 45 3c 00 00 00 	mov    DWORD PTR [r13+0x3c],0x0
    1582:	00 
    1583:	49 be e4 99 5a 55 55 	movabs r14,0x5555555a99e4
    158a:	55 00 00 
    158d:	4d 8d 6d f8          	lea    r13,[r13-0x8]
    1591:	4d 89 75 00          	mov    QWORD PTR [r13+0x0],r14
    1595:	4c 89 7d 98          	mov    QWORD PTR [rbp-0x68],r15
    1599:	e9 c7 dd 00 00       	jmp    0xf365
    159e:	4d 8b 55 08          	mov    r10,QWORD PTR [r13+0x8]
    15a2:	83 f8 ff             	cmp    eax,0xffffffff
    15a5:	0f 84 84 03 00 00    	je     0x192f
    15ab:	4c 8b 7d 98          	mov    r15,QWORD PTR [rbp-0x68]
    15af:	41 80 a7 e2 00 00 00 	and    BYTE PTR [r15+0xe2],0xcf
    15b6:	cf 
    15b7:	49 8b 77 50          	mov    rsi,QWORD PTR [r15+0x50]
    15bb:	f6 06 80             	test   BYTE PTR [rsi],0x80
    15be:	4c 89 7d 98          	mov    QWORD PTR [rbp-0x68],r15
    15c2:	0f 85 7f 06 00 00    	jne    0x1c47
    15c8:	4c 8b 7d 98          	mov    r15,QWORD PTR [rbp-0x68]
    15cc:	41 f6 87 e2 00 00 00 	test   BYTE PTR [r15+0xe2],0x30
    15d3:	30 
    15d4:	4c 89 7d 98          	mov    QWORD PTR [rbp-0x68],r15
    15d8:	0f 85 90 04 00 00    	jne    0x1a6e
    15de:	4c 8b 7d 98          	mov    r15,QWORD PTR [rbp-0x68]
    15e2:	41 8b 7f 18          	mov    edi,DWORD PTR [r15+0x18]
    15e6:	4d 89 55 08          	mov    QWORD PTR [r13+0x8],r10
    15ea:	49 be 27 9a 5a 55 55 	movabs r14,0x5555555a9a27
    15f1:	55 00 00 
    15f4:	4d 8d 6d f8          	lea    r13,[r13-0x8]
    15f8:	4d 89 75 00          	mov    QWORD PTR [r13+0x0],r14
    15fc:	4c 89 7d 98          	mov    QWORD PTR [rbp-0x68],r15
    1600:	e9 8c db 00 00       	jmp    0xf191
    1605:	4d 8b 55 08          	mov    r10,QWORD PTR [r13+0x8]
    1609:	83 f8 ff             	cmp    eax,0xffffffff
    160c:	0f 85 32 04 00 00    	jne    0x1a44
    1612:	49 bf 3a 9a 5a 55 55 	movabs r15,0x5555555a9a3a
    1619:	55 00 00 
    161c:	4d 8d 6d f8          	lea    r13,[r13-0x8]
    1620:	4d 89 7d 00          	mov    QWORD PTR [r13+0x0],r15
    1624:	e9 86 dc 00 00       	jmp    0xf2af
    1629:	8b 30                	mov    esi,DWORD PTR [rax]
    162b:	83 fe 04             	cmp    esi,0x4
    162e:	0f 85 35 07 00 00    	jne    0x1d69
    1634:	4c 8b 7d a8          	mov    r15,QWORD PTR [rbp-0x58]
    1638:	4d 8b 7d 58          	mov    r15,QWORD PTR [r13+0x58]
    163c:	4d 8b 55 08          	mov    r10,QWORD PTR [r13+0x8]
    1640:	90                   	nop
    1641:	4c 89 7d a8          	mov    QWORD PTR [rbp-0x58],r15
    1645:	4c 8b 7d a8          	mov    r15,QWORD PTR [rbp-0x58]
    1649:	4d 85 ff             	test   r15,r15
    164c:	4c 89 7d a8          	mov    QWORD PTR [rbp-0x58],r15
    1650:	0f 85 38 fe ff ff    	jne    0x148e
    1656:	49 8b 45 40          	mov    rax,QWORD PTR [r13+0x40]
    165a:	48 85 c0             	test   rax,rax
    165d:	0f 84 2b fe ff ff    	je     0x148e
    1663:	4c 8b 18             	mov    r11,QWORD PTR [rax]
    1666:	41 f6 43 48 10       	test   BYTE PTR [r11+0x48],0x10
    166b:	0f 84 1d fe ff ff    	je     0x148e
    1671:	4d 39 55 00          	cmp    QWORD PTR [r13+0x0],r10
    1675:	0f 8e 13 fe ff ff    	jle    0x148e
    167b:	49 8b 75 00          	mov    rsi,QWORD PTR [r13+0x0]
    167f:	49 8b 7d 18          	mov    rdi,QWORD PTR [r13+0x18]
    1683:	4d 89 5d 10          	mov    QWORD PTR [r13+0x10],r11
    1687:	4d 89 55 08          	mov    QWORD PTR [r13+0x8],r10
    168b:	4c 29 d6             	sub    rsi,r10
    168e:	49 bf 9a 9a 5a 55 55 	movabs r15,0x5555555a9a9a
    1695:	55 00 00 
    1698:	4d 8d 6d f8          	lea    r13,[r13-0x8]
    169c:	4d 89 7d 00          	mov    QWORD PTR [r13+0x0],r15
    16a0:	e9 e2 de 00 00       	jmp    0xf587
    16a5:	4d 8b 55 08          	mov    r10,QWORD PTR [r13+0x8]
    16a9:	4d 8b 5d 10          	mov    r11,QWORD PTR [r13+0x10]
    16ad:	48 85 c0             	test   rax,rax
    16b0:	4c 8b 7d a0          	mov    r15,QWORD PTR [rbp-0x60]
    16b4:	49 89 c7             	mov    r15,rax
    16b7:	4c 89 7d a0          	mov    QWORD PTR [rbp-0x60],r15
    16bb:	0f 84 85 06 00 00    	je     0x1d46
    16c1:	49 8b 53 38          	mov    rdx,QWORD PTR [r11+0x38]
    16c5:	4c 8b 7d 98          	mov    r15,QWORD PTR [rbp-0x68]
    16c9:	49 8b 77 50          	mov    rsi,QWORD PTR [r15+0x50]
    16cd:	48 83 ba c0 00 00 00 	cmp    QWORD PTR [rdx+0xc0],0x0
    16d4:	00 
    16d5:	48 8b 06             	mov    rax,QWORD PTR [rsi]
    16d8:	4c 89 7d 98          	mov    QWORD PTR [rbp-0x68],r15
    16dc:	0f 85 b2 01 00 00    	jne    0x1894
    16e2:	49 8b 53 10          	mov    rdx,QWORD PTR [r11+0x10]
    16e6:	4d 89 55 08          	mov    QWORD PTR [r13+0x8],r10
    16ea:	4c 8b 7d a8          	mov    r15,QWORD PTR [rbp-0x58]
    16ee:	4d 89 df             	mov    r15,r11
    16f1:	49 89 5d 10          	mov    QWORD PTR [r13+0x10],rbx
    16f5:	49 8b 5d 28          	mov    rbx,QWORD PTR [r13+0x28]
    16f9:	49 89 55 48          	mov    QWORD PTR [r13+0x48],rdx
    16fd:	4c 89 7d a8          	mov    QWORD PTR [rbp-0x58],r15
    1701:	a8 80                	test   al,0x80
    1703:	74 48                	je     0x174d
    1705:	4c 8b 7d a8          	mov    r15,QWORD PTR [rbp-0x58]
    1709:	4d 8b 47 10          	mov    r8,QWORD PTR [r15+0x10]
    170d:	4c 8b 75 a0          	mov    r14,QWORD PTR [rbp-0x60]
    1711:	4d 89 f1             	mov    r9,r14
    1714:	4c 89 7d a8          	mov    QWORD PTR [rbp-0x58],r15
    1718:	49 bf f7 9a 5a 55 55 	movabs r15,0x5555555a9af7
    171f:	55 00 00 
    1722:	49 8d 8f 97 c3 08 00 	lea    rcx,[r15+0x8c397]
    1729:	31 d2                	xor    edx,edx
    172b:	bf 08 00 00 00       	mov    edi,0x8
    1730:	31 c0                	xor    eax,eax
    1732:	49 bf 05 9b 5a 55 55 	movabs r15,0x5555555a9b05
    1739:	55 00 00 
    173c:	4d 8d 6d f8          	lea    r13,[r13-0x8]
    1740:	4d 89 7d 00          	mov    QWORD PTR [r13+0x0],r15
    1744:	4c 89 75 a0          	mov    QWORD PTR [rbp-0x60],r14
    1748:	e9 2d e9 ff ff       	jmp    0x7a
    174d:	4c 8b 7d a8          	mov    r15,QWORD PTR [rbp-0x58]
    1751:	49 8b 47 38          	mov    rax,QWORD PTR [r15+0x38]
    1755:	4c 8b 75 98          	mov    r14,QWORD PTR [rbp-0x68]
    1759:	41 8b 7e 18          	mov    edi,DWORD PTR [r14+0x18]
    175d:	4c 89 7d a8          	mov    QWORD PTR [rbp-0x58],r15
    1761:	4c 8b 7d a0          	mov    r15,QWORD PTR [rbp-0x60]
    1765:	4c 89 f9             	mov    rcx,r15
    1768:	48 89 da             	mov    rdx,rbx
    176b:	8b 30                	mov    esi,DWORD PTR [rax]
    176d:	4c 89 7d a0          	mov    QWORD PTR [rbp-0x60],r15
    1771:	49 bf 1b 9b 5a 55 55 	movabs r15,0x5555555a9b1b
    1778:	55 00 00 
    177b:	4d 8d 6d f8          	lea    r13,[r13-0x8]
    177f:	4d 89 7d 00          	mov    QWORD PTR [r13+0x0],r15
    1783:	4c 89 75 98          	mov    QWORD PTR [rbp-0x68],r14
    1787:	e9 dd dc 00 00       	jmp    0xf469
    178c:	48 83 f8 ff          	cmp    rax,0xffffffffffffffff
    1790:	0f 85 01 05 00 00    	jne    0x1c97
    1796:	49 bf 2a 9b 5a 55 55 	movabs r15,0x5555555a9b2a
    179d:	55 00 00 
    17a0:	4d 8d 6d f8          	lea    r13,[r13-0x8]
    17a4:	4d 89 7d 00          	mov    QWORD PTR [r13+0x0],r15
    17a8:	e9 02 db 00 00       	jmp    0xf2af
    17ad:	8b 30                	mov    esi,DWORD PTR [rax]
    17af:	83 fe 04             	cmp    esi,0x4
    17b2:	0f 84 2c 02 00 00    	je     0x19e4
    17b8:	83 fe 0b             	cmp    esi,0xb
    17bb:	0f 85 dc 01 00 00    	jne    0x199d
    17c1:	4c 8b 7d 98          	mov    r15,QWORD PTR [rbp-0x68]
    17c5:	49 8b 77 50          	mov    rsi,QWORD PTR [r15+0x50]
    17c9:	f6 06 80             	test   BYTE PTR [rsi],0x80
    17cc:	4c 89 7d 98          	mov    QWORD PTR [rbp-0x68],r15
    17d0:	0f 85 91 03 00 00    	jne    0x1b67
    17d6:	90                   	nop
    17d7:	4c 89 e7             	mov    rdi,r12
    17da:	31 f6                	xor    esi,esi
    17dc:	49 bf 5a 9b 5a 55 55 	movabs r15,0x5555555a9b5a
    17e3:	55 00 00 
    17e6:	4d 8d 6d f8          	lea    r13,[r13-0x8]
    17ea:	4d 89 7d 00          	mov    QWORD PTR [r13+0x0],r15
    17ee:	e9 0e f3 ff ff       	jmp    0xb01
    17f3:	49 8b 7d 20          	mov    rdi,QWORD PTR [r13+0x20]
    17f7:	80 67 08 df          	and    BYTE PTR [rdi+0x8],0xdf
    17fb:	90                   	nop
    17fc:	49 8b 8d 78 04 00 00 	mov    rcx,QWORD PTR [r13+0x478]
    1803:	4c 8b 7d 88          	mov    r15,QWORD PTR [rbp-0x78]
    1807:	49 33 4f 28          	xor    rcx,QWORD PTR [r15+0x28]
    180b:	0f 85 3b 06 00 00    	jne    0x1e4c
    1811:	49 81 c5 88 04 00 00 	add    r13,0x488
    1818:	49 8b 5d 00          	mov    rbx,QWORD PTR [r13+0x0]
    181c:	4d 8d 6d 08          	lea    r13,[r13+0x8]
    1820:	4d 8b 65 00          	mov    r12,QWORD PTR [r13+0x0]
    1824:	4d 8d 6d 08          	lea    r13,[r13+0x8]
    1828:	4c 8b 7d 98          	mov    r15,QWORD PTR [rbp-0x68]
    182c:	4d 8b 7d 00          	mov    r15,QWORD PTR [r13+0x0]
    1830:	4d 8d 6d 08          	lea    r13,[r13+0x8]
    1834:	4c 8b 75 a0          	mov    r14,QWORD PTR [rbp-0x60]
    1838:	4d 8b 75 00          	mov    r14,QWORD PTR [r13+0x0]
    183c:	4d 8d 6d 08          	lea    r13,[r13+0x8]
    1840:	4c 89 7d 98          	mov    QWORD PTR [rbp-0x68],r15
    1844:	4c 8b 7d a8          	mov    r15,QWORD PTR [rbp-0x58]
    1848:	4d 8b 7d 00          	mov    r15,QWORD PTR [r13+0x0]
    184c:	4d 8d 6d 08          	lea    r13,[r13+0x8]
    1850:	4c 89 7d a8          	mov    QWORD PTR [rbp-0x58],r15
    1854:	4c 8b 7d b0          	mov    r15,QWORD PTR [rbp-0x50]
    1858:	4d 8b 7d 00          	mov    r15,QWORD PTR [r13+0x0]
    185c:	4d 8d 6d 08          	lea    r13,[r13+0x8]
    1860:	4c 89 7d b0          	mov    QWORD PTR [rbp-0x50],r15
    1864:	4d 8b 7d 00          	mov    r15,QWORD PTR [r13+0x0]
    1868:	4d 8d 6d 08          	lea    r13,[r13+0x8]
    186c:	4d 89 fe             	mov    r14,r15
    186f:	e9 21 ac 00 00       	jmp    0xc495
    1874:	4c 8b 7d a0          	mov    r15,QWORD PTR [rbp-0x60]
    1878:	4d 39 7d 00          	cmp    QWORD PTR [r13+0x0],r15
    187c:	4c 89 7d a0          	mov    QWORD PTR [rbp-0x60],r15
    1880:	0f 8e a1 00 00 00    	jle    0x1927
    1886:	4d 85 e4             	test   r12,r12
    1889:	0f 85 bc fc ff ff    	jne    0x154b
    188f:	e9 93 00 00 00       	jmp    0x1927
    1894:	a8 10                	test   al,0x10
    1896:	0f 85 57 02 00 00    	jne    0x1af3
    189c:	4c 8b 7d 98          	mov    r15,QWORD PTR [rbp-0x68]
    18a0:	49 8b bf e8 00 00 00 	mov    rdi,QWORD PTR [r15+0xe8]
    18a7:	48 85 ff             	test   rdi,rdi
    18aa:	4c 89 7d 98          	mov    QWORD PTR [rbp-0x68],r15
    18ae:	0f 84 26 03 00 00    	je     0x1bda
    18b4:	0f b6 47 28          	movzx  eax,BYTE PTR [rdi+0x28]
    18b8:	48 8b 57 10          	mov    rdx,QWORD PTR [rdi+0x10]
    18bc:	4c 8b 7d 98          	mov    r15,QWORD PTR [rbp-0x68]
    18c0:	49 8b 4f 10          	mov    rcx,QWORD PTR [r15+0x10]
    18c4:	84 c0                	test   al,al
    18c6:	4c 89 7d 98          	mov    QWORD PTR [rbp-0x68],r15
    18ca:	0f 88 af 01 00 00    	js     0x1a7f
    18d0:	4c 89 db             	mov    rbx,r11
    18d3:	a8 08                	test   al,0x8
    18d5:	74 05                	je     0x18dc
    18d7:	4c 3b 1a             	cmp    r11,QWORD PTR [rdx]
    18da:	74 4b                	je     0x1927
    18dc:	4c 8b 7d 98          	mov    r15,QWORD PTR [rbp-0x68]
    18e0:	41 8b 47 18          	mov    eax,DWORD PTR [r15+0x18]
    18e4:	48 89 1a             	mov    QWORD PTR [rdx],rbx
    18e7:	4c 8b 75 a0          	mov    r14,QWORD PTR [rbp-0x60]
    18eb:	4c 89 72 10          	mov    QWORD PTR [rdx+0x10],r14
    18ef:	89 42 08             	mov    DWORD PTR [rdx+0x8],eax
    18f2:	80 61 08 7f          	and    BYTE PTR [rcx+0x8],0x7f
    18f6:	48 8b 43 38          	mov    rax,QWORD PTR [rbx+0x38]
    18fa:	48 89 c6             	mov    rsi,rax
    18fd:	4c 89 7d 98          	mov    QWORD PTR [rbp-0x68],r15
    1901:	49 bf 1a 9c 5a 55 55 	movabs r15,0x5555555a9c1a
    1908:	55 00 00 
    190b:	4d 8d 6d f8          	lea    r13,[r13-0x8]
    190f:	4d 89 7d 00          	mov    QWORD PTR [r13+0x0],r15
    1913:	4c 8b b8 c0 00 00 00 	mov    r15,QWORD PTR [rax+0xc0]
    191a:	4d 89 fe             	mov    r14,r15
    191d:	e9 41 ce 00 00       	jmp    0xe763
    1922:	48 85 c0             	test   rax,rax
    1925:	75 6a                	jne    0x1991
    1927:	4c 89 e0             	mov    rax,r12
    192a:	e9 cd fe ff ff       	jmp    0x17fc
    192f:	49 bf 2c 9c 5a 55 55 	movabs r15,0x5555555a9c2c
    1936:	55 00 00 
    1939:	4d 8d 6d f8          	lea    r13,[r13-0x8]
    193d:	4d 89 7d 00          	mov    QWORD PTR [r13+0x0],r15
    1941:	e9 69 d9 00 00       	jmp    0xf2af
    1946:	4d 8b 55 08          	mov    r10,QWORD PTR [r13+0x8]
    194a:	8b 30                	mov    esi,DWORD PTR [rax]
    194c:	83 fe 04             	cmp    esi,0x4
    194f:	0f 84 73 fc ff ff    	je     0x15c8
    1955:	49 8b 45 20          	mov    rax,QWORD PTR [r13+0x20]
    1959:	49 bf 48 9c 5a 55 55 	movabs r15,0x5555555a9c48
    1960:	55 00 00 
    1963:	49 8d 97 f8 8c 08 00 	lea    rdx,[r15+0x88cf8]
    196a:	4c 8b 7d 98          	mov    r15,QWORD PTR [rbp-0x68]
    196e:	4c 89 ff             	mov    rdi,r15
    1971:	80 48 09 02          	or     BYTE PTR [rax+0x9],0x2
    1975:	49 be 54 9c 5a 55 55 	movabs r14,0x5555555a9c54
    197c:	55 00 00 
    197f:	4d 8d 6d f8          	lea    r13,[r13-0x8]
    1983:	4d 89 75 00          	mov    QWORD PTR [r13+0x0],r14
    1987:	4c 89 7d 98          	mov    QWORD PTR [rbp-0x68],r15
    198b:	e9 b1 dd 00 00       	jmp    0xf741
    1990:	90                   	nop
    1991:	48 c7 c0 ff ff ff ff 	mov    rax,0xffffffffffffffff
    1998:	e9 5f fe ff ff       	jmp    0x17fc
    199d:	4c 8b 7d 98          	mov    r15,QWORD PTR [rbp-0x68]
    19a1:	49 8b 47 10          	mov    rax,QWORD PTR [r15+0x10]
    19a5:	49 be 74 9c 5a 55 55 	movabs r14,0x5555555a9c74
    19ac:	55 00 00 
    19af:	49 8d 96 08 c2 08 00 	lea    rdx,[r14+0x8c208]
    19b6:	4c 89 ff             	mov    rdi,r15
    19b9:	80 48 09 02          	or     BYTE PTR [rax+0x9],0x2
    19bd:	49 be 80 9c 5a 55 55 	movabs r14,0x5555555a9c80
    19c4:	55 00 00 
    19c7:	4d 8d 6d f8          	lea    r13,[r13-0x8]
    19cb:	4d 89 75 00          	mov    QWORD PTR [r13+0x0],r14
    19cf:	4c 89 7d 98          	mov    QWORD PTR [rbp-0x68],r15
    19d3:	e9 69 dd 00 00       	jmp    0xf741
    19d8:	48 c7 c0 ff ff ff ff 	mov    rax,0xffffffffffffffff
    19df:	e9 18 fe ff ff       	jmp    0x17fc
    19e4:	4c 8b 7d 98          	mov    r15,QWORD PTR [rbp-0x68]
    19e8:	49 8b 77 50          	mov    rsi,QWORD PTR [r15+0x50]
    19ec:	48 8b 06             	mov    rax,QWORD PTR [rsi]
    19ef:	a8 80                	test   al,0x80
    19f1:	4c 89 7d 98          	mov    QWORD PTR [rbp-0x68],r15
    19f5:	0f 84 52 fd ff ff    	je     0x174d
    19fb:	90                   	nop
    19fc:	31 c0                	xor    eax,eax
    19fe:	ba 04 00 00 00       	mov    edx,0x4
    1a03:	bf 08 00 00 00       	mov    edi,0x8
    1a08:	49 bf b7 9c 5a 55 55 	movabs r15,0x5555555a9cb7
    1a0f:	55 00 00 
    1a12:	49 8d 8f 01 c2 08 00 	lea    rcx,[r15+0x8c201]
    1a19:	49 bf bc 9c 5a 55 55 	movabs r15,0x5555555a9cbc
    1a20:	55 00 00 
    1a23:	4d 8d 6d f8          	lea    r13,[r13-0x8]
    1a27:	4d 89 7d 00          	mov    QWORD PTR [r13+0x0],r15
    1a2b:	e9 4a e6 ff ff       	jmp    0x7a
    1a30:	4c 8b 7d 98          	mov    r15,QWORD PTR [rbp-0x68]
    1a34:	49 8b 77 50          	mov    rsi,QWORD PTR [r15+0x50]
    1a38:	48 8b 06             	mov    rax,QWORD PTR [rsi]
    1a3b:	4c 89 7d 98          	mov    QWORD PTR [rbp-0x68],r15
    1a3f:	e9 bd fc ff ff       	jmp    0x1701
    1a44:	4c 8b 7d 98          	mov    r15,QWORD PTR [rbp-0x68]
    1a48:	41 0f b6 87 e2 00 00 	movzx  eax,BYTE PTR [r15+0xe2]
    1a4f:	00 
    1a50:	49 8b 77 50          	mov    rsi,QWORD PTR [r15+0x50]
    1a54:	83 e0 3f             	and    eax,0x3f
    1a57:	83 c8 40             	or     eax,0x40
    1a5a:	41 88 87 e2 00 00 00 	mov    BYTE PTR [r15+0xe2],al
    1a61:	f6 06 80             	test   BYTE PTR [rsi],0x80
    1a64:	4c 89 7d 98          	mov    QWORD PTR [rbp-0x68],r15
    1a68:	0f 85 32 01 00 00    	jne    0x1ba0
    1a6e:	4c 8b 7d a8          	mov    r15,QWORD PTR [rbp-0x58]
    1a72:	4d 8b 7d 58          	mov    r15,QWORD PTR [r13+0x58]
    1a76:	4c 89 7d a8          	mov    QWORD PTR [rbp-0x58],r15
    1a7a:	e9 c6 fb ff ff       	jmp    0x1645
    1a7f:	83 e0 7f             	and    eax,0x7f
    1a82:	88 47 28             	mov    BYTE PTR [rdi+0x28],al
    1a85:	8b 72 20             	mov    esi,DWORD PTR [rdx+0x20]
    1a88:	83 fe 0b             	cmp    esi,0xb
    1a8b:	0f 84 f4 01 00 00    	je     0x1c85
    1a91:	85 f6                	test   esi,esi
    1a93:	0f 85 73 03 00 00    	jne    0x1e0c
    1a99:	4c 8b 42 18          	mov    r8,QWORD PTR [rdx+0x18]
    1a9d:	4d 85 c0             	test   r8,r8
    1aa0:	0f 84 0a 03 00 00    	je     0x1db0
    1aa6:	49 83 f8 ff          	cmp    r8,0xffffffffffffffff
    1aaa:	0f 84 e1 fe ff ff    	je     0x1991
    1ab0:	49 83 f8 fc          	cmp    r8,0xfffffffffffffffc
    1ab4:	0f 84 6d fe ff ff    	je     0x1927
    1aba:	49 83 f8 fe          	cmp    r8,0xfffffffffffffffe
    1abe:	0f 84 13 fd ff ff    	je     0x17d7
    1ac4:	4c 8b 7d a8          	mov    r15,QWORD PTR [rbp-0x58]
    1ac8:	4d 89 c7             	mov    r15,r8
    1acb:	4c 89 7d a8          	mov    QWORD PTR [rbp-0x58],r15
    1acf:	4c 8b 7d 98          	mov    r15,QWORD PTR [rbp-0x68]
    1ad3:	4c 8b 75 a8          	mov    r14,QWORD PTR [rbp-0x58]
    1ad7:	4d 01 77 48          	add    QWORD PTR [r15+0x48],r14
    1adb:	4c 89 7d 98          	mov    QWORD PTR [rbp-0x68],r15
    1adf:	4c 8b 7d a0          	mov    r15,QWORD PTR [rbp-0x60]
    1ae3:	4d 01 d7             	add    r15,r10
    1ae6:	4c 89 7d a0          	mov    QWORD PTR [rbp-0x60],r15
    1aea:	4c 89 75 a8          	mov    QWORD PTR [rbp-0x58],r14
    1aee:	e9 05 fa ff ff       	jmp    0x14f8
    1af3:	4d 89 55 10          	mov    QWORD PTR [r13+0x10],r10
    1af7:	49 83 ed 08          	sub    r13,0x8
    1afb:	44 8b 02             	mov    r8d,DWORD PTR [rdx]
    1afe:	4c 8b 7d a0          	mov    r15,QWORD PTR [rbp-0x60]
    1b02:	4d 89 f9             	mov    r9,r15
    1b05:	4d 8d 6d f8          	lea    r13,[r13-0x8]
    1b09:	4d 8b 73 10          	mov    r14,QWORD PTR [r11+0x10]
    1b0d:	4d 89 75 00          	mov    QWORD PTR [r13+0x0],r14
    1b11:	49 be 6f 9d 5a 55 55 	movabs r14,0x5555555a9d6f
    1b18:	55 00 00 
    1b1b:	49 8d 8e a9 c1 08 00 	lea    rcx,[r14+0x8c1a9]
    1b22:	31 d2                	xor    edx,edx
    1b24:	31 c0                	xor    eax,eax
    1b26:	bf 08 00 00 00       	mov    edi,0x8
    1b2b:	4d 89 5d 18          	mov    QWORD PTR [r13+0x18],r11
    1b2f:	49 be 82 9d 5a 55 55 	movabs r14,0x5555555a9d82
    1b36:	55 00 00 
    1b39:	4d 8d 6d f8          	lea    r13,[r13-0x8]
    1b3d:	4d 89 75 00          	mov    QWORD PTR [r13+0x0],r14
    1b41:	4c 89 7d a0          	mov    QWORD PTR [rbp-0x60],r15
    1b45:	e9 30 e5 ff ff       	jmp    0x7a
    1b4a:	49 8b 4d 00          	mov    rcx,QWORD PTR [r13+0x0]
    1b4e:	4d 8d 6d 08          	lea    r13,[r13+0x8]
    1b52:	49 8b 75 00          	mov    rsi,QWORD PTR [r13+0x0]
    1b56:	4d 8d 6d 08          	lea    r13,[r13+0x8]
    1b5a:	4d 8b 55 10          	mov    r10,QWORD PTR [r13+0x10]
    1b5e:	4d 8b 5d 08          	mov    r11,QWORD PTR [r13+0x8]
    1b62:	e9 35 fd ff ff       	jmp    0x189c
    1b67:	49 bf 9a 9d 5a 55 55 	movabs r15,0x5555555a9d9a
    1b6e:	55 00 00 
    1b71:	49 8d 8f 06 c1 08 00 	lea    rcx,[r15+0x8c106]
    1b78:	ba 0b 00 00 00       	mov    edx,0xb
    1b7d:	bf 08 00 00 00       	mov    edi,0x8
    1b82:	31 c0                	xor    eax,eax
    1b84:	49 bf ab 9d 5a 55 55 	movabs r15,0x5555555a9dab
    1b8b:	55 00 00 
    1b8e:	4d 8d 6d f8          	lea    r13,[r13-0x8]
    1b92:	4d 89 7d 00          	mov    QWORD PTR [r13+0x0],r15
    1b96:	e9 df e4 ff ff       	jmp    0x7a
    1b9b:	e9 37 fc ff ff       	jmp    0x17d7
    1ba0:	49 bf b7 9d 5a 55 55 	movabs r15,0x5555555a9db7
    1ba7:	55 00 00 
    1baa:	49 8d 8f ba c0 08 00 	lea    rcx,[r15+0x8c0ba]
    1bb1:	31 d2                	xor    edx,edx
    1bb3:	bf 08 00 00 00       	mov    edi,0x8
    1bb8:	31 c0                	xor    eax,eax
    1bba:	4d 89 55 08          	mov    QWORD PTR [r13+0x8],r10
    1bbe:	49 bf ca 9d 5a 55 55 	movabs r15,0x5555555a9dca
    1bc5:	55 00 00 
    1bc8:	4d 8d 6d f8          	lea    r13,[r13-0x8]
    1bcc:	4d 89 7d 00          	mov    QWORD PTR [r13+0x0],r15
    1bd0:	e9 a5 e4 ff ff       	jmp    0x7a
    1bd5:	e9 5a fa ff ff       	jmp    0x1634
    1bda:	4c 8b 7d 98          	mov    r15,QWORD PTR [rbp-0x68]
    1bde:	49 8b 7f 58          	mov    rdi,QWORD PTR [r15+0x58]
    1be2:	be 28 00 00 00       	mov    esi,0x28
    1be7:	4d 89 5d 10          	mov    QWORD PTR [r13+0x10],r11
    1beb:	4d 89 55 08          	mov    QWORD PTR [r13+0x8],r10
    1bef:	49 be e8 9d 5a 55 55 	movabs r14,0x5555555a9de8
    1bf6:	55 00 00 
    1bf9:	4d 8d 6d f8          	lea    r13,[r13-0x8]
    1bfd:	4d 89 75 00          	mov    QWORD PTR [r13+0x0],r14
    1c01:	4c 89 7d 98          	mov    QWORD PTR [rbp-0x68],r15
    1c05:	e9 81 da 00 00       	jmp    0xf68b
    1c0a:	4d 8b 55 08          	mov    r10,QWORD PTR [r13+0x8]
    1c0e:	4d 8b 5d 10          	mov    r11,QWORD PTR [r13+0x10]
    1c12:	48 85 c0             	test   rax,rax
    1c15:	48 89 c7             	mov    rdi,rax
    1c18:	0f 84 73 fd ff ff    	je     0x1991
    1c1e:	49 bf 05 9e 5a 55 55 	movabs r15,0x5555555a9e05
    1c25:	55 00 00 
    1c28:	49 8d 87 2b f9 ff ff 	lea    rax,[r15-0x6d5]
    1c2f:	48 89 47 18          	mov    QWORD PTR [rdi+0x18],rax
    1c33:	4c 8b 7d 98          	mov    r15,QWORD PTR [rbp-0x68]
    1c37:	49 89 bf e8 00 00 00 	mov    QWORD PTR [r15+0xe8],rdi
    1c3e:	4c 89 7d 98          	mov    QWORD PTR [rbp-0x68],r15
    1c42:	e9 6d fc ff ff       	jmp    0x18b4
    1c47:	49 bf 1d 9e 5a 55 55 	movabs r15,0x5555555a9e1d
    1c4e:	55 00 00 
    1c51:	49 8d 8f 29 c0 08 00 	lea    rcx,[r15+0x8c029]
    1c58:	31 d2                	xor    edx,edx
    1c5a:	bf 08 00 00 00       	mov    edi,0x8
    1c5f:	31 c0                	xor    eax,eax
    1c61:	4d 89 55 08          	mov    QWORD PTR [r13+0x8],r10
    1c65:	49 bf 30 9e 5a 55 55 	movabs r15,0x5555555a9e30
    1c6c:	55 00 00 
    1c6f:	4d 8d 6d f8          	lea    r13,[r13-0x8]
    1c73:	4d 89 7d 00          	mov    QWORD PTR [r13+0x0],r15
    1c77:	e9 fe e3 ff ff       	jmp    0x7a
    1c7c:	4d 8b 55 08          	mov    r10,QWORD PTR [r13+0x8]
    1c80:	e9 43 f9 ff ff       	jmp    0x15c8
    1c85:	80 79 08 00          	cmp    BYTE PTR [rcx+0x8],0x0
    1c89:	0f 89 48 fb ff ff    	jns    0x17d7
    1c8f:	45 31 c0             	xor    r8d,r8d
    1c92:	e9 38 fe ff ff       	jmp    0x1acf
    1c97:	4c 8b 7d 98          	mov    r15,QWORD PTR [rbp-0x68]
    1c9b:	49 8b 77 50          	mov    rsi,QWORD PTR [r15+0x50]
    1c9f:	49 89 c0             	mov    r8,rax
    1ca2:	4d 8b 55 08          	mov    r10,QWORD PTR [r13+0x8]
    1ca6:	4c 8b 75 a8          	mov    r14,QWORD PTR [rbp-0x58]
    1caa:	4d 89 f3             	mov    r11,r14
    1cad:	49 8b 5d 10          	mov    rbx,QWORD PTR [r13+0x10]
    1cb1:	48 8b 06             	mov    rax,QWORD PTR [rsi]
    1cb4:	4d 85 c0             	test   r8,r8
    1cb7:	4c 89 7d 98          	mov    QWORD PTR [rbp-0x68],r15
    1cbb:	4c 89 75 a8          	mov    QWORD PTR [rbp-0x58],r14
    1cbf:	0f 84 9e 01 00 00    	je     0x1e63
    1cc5:	a8 80                	test   al,0x80
    1cc7:	0f 84 e3 fd ff ff    	je     0x1ab0
    1ccd:	4d 89 55 10          	mov    QWORD PTR [r13+0x10],r10
    1cd1:	49 83 ed 08          	sub    r13,0x8
    1cd5:	31 d2                	xor    edx,edx
    1cd7:	31 c0                	xor    eax,eax
    1cd9:	4d 8d 6d f8          	lea    r13,[r13-0x8]
    1cdd:	4c 8b 75 a8          	mov    r14,QWORD PTR [rbp-0x58]
    1ce1:	4d 8b 7e 10          	mov    r15,QWORD PTR [r14+0x10]
    1ce5:	4d 89 7d 00          	mov    QWORD PTR [r13+0x0],r15
    1ce9:	4c 8b 7d a0          	mov    r15,QWORD PTR [rbp-0x60]
    1ced:	4d 89 f9             	mov    r9,r15
    1cf0:	bf 08 00 00 00       	mov    edi,0x8
    1cf5:	4c 89 7d a0          	mov    QWORD PTR [rbp-0x60],r15
    1cf9:	49 bf 95 9e 5a 55 55 	movabs r15,0x5555555a9e95
    1d00:	55 00 00 
    1d03:	49 8d 8f 3e c0 08 00 	lea    rcx,[r15+0x8c03e]
    1d0a:	4d 89 45 18          	mov    QWORD PTR [r13+0x18],r8
    1d0e:	49 bf 9f 9e 5a 55 55 	movabs r15,0x5555555a9e9f
    1d15:	55 00 00 
    1d18:	4d 8d 6d f8          	lea    r13,[r13-0x8]
    1d1c:	4d 89 7d 00          	mov    QWORD PTR [r13+0x0],r15
    1d20:	4c 89 75 a8          	mov    QWORD PTR [rbp-0x58],r14
    1d24:	e9 51 e3 ff ff       	jmp    0x7a
    1d29:	49 8b 45 00          	mov    rax,QWORD PTR [r13+0x0]
    1d2d:	4d 8d 6d 08          	lea    r13,[r13+0x8]
    1d31:	49 8b 55 00          	mov    rdx,QWORD PTR [r13+0x0]
    1d35:	4d 8d 6d 08          	lea    r13,[r13+0x8]
    1d39:	4d 8b 55 10          	mov    r10,QWORD PTR [r13+0x10]
    1d3d:	4d 8b 45 08          	mov    r8,QWORD PTR [r13+0x8]
    1d41:	e9 6a fd ff ff       	jmp    0x1ab0
    1d46:	49 bf b5 9e 5a 55 55 	movabs r15,0x5555555a9eb5
    1d4d:	55 00 00 
    1d50:	4d 8d 6d f8          	lea    r13,[r13-0x8]
    1d54:	4d 89 7d 00          	mov    QWORD PTR [r13+0x0],r15
    1d58:	e9 44 d8 00 00       	jmp    0xf5a1
    1d5d:	48 c7 c0 ff ff ff ff 	mov    rax,0xffffffffffffffff
    1d64:	e9 93 fa ff ff       	jmp    0x17fc
    1d69:	49 8b 45 20          	mov    rax,QWORD PTR [r13+0x20]
    1d6d:	49 bf cd 9e 5a 55 55 	movabs r15,0x5555555a9ecd
    1d74:	55 00 00 
    1d77:	49 8d 97 88 bf 08 00 	lea    rdx,[r15+0x8bf88]
    1d7e:	4c 8b 7d 98          	mov    r15,QWORD PTR [rbp-0x68]
    1d82:	4c 89 ff             	mov    rdi,r15
    1d85:	80 48 09 02          	or     BYTE PTR [rax+0x9],0x2
    1d89:	49 be d9 9e 5a 55 55 	movabs r14,0x5555555a9ed9
    1d90:	55 00 00 
    1d93:	4d 8d 6d f8          	lea    r13,[r13-0x8]
    1d97:	4d 89 75 00          	mov    QWORD PTR [r13+0x0],r14
    1d9b:	4c 89 7d 98          	mov    QWORD PTR [rbp-0x68],r15
    1d9f:	e9 9d d9 00 00       	jmp    0xf741
    1da4:	48 c7 c0 ff ff ff ff 	mov    rax,0xffffffffffffffff
    1dab:	e9 4c fa ff ff       	jmp    0x17fc
    1db0:	4c 8b 7d 98          	mov    r15,QWORD PTR [rbp-0x68]
    1db4:	49 8b 77 50          	mov    rsi,QWORD PTR [r15+0x50]
    1db8:	48 83 3e 01          	cmp    QWORD PTR [rsi],0x1
    1dbc:	4c 89 7d 98          	mov    QWORD PTR [rbp-0x68],r15
    1dc0:	0f 86 cb fb ff ff    	jbe    0x1991
    1dc6:	49 8b 43 38          	mov    rax,QWORD PTR [r11+0x38]
    1dca:	4d 8b 4b 10          	mov    r9,QWORD PTR [r11+0x10]
    1dce:	31 d2                	xor    edx,edx
    1dd0:	bf 02 00 00 00       	mov    edi,0x2
    1dd5:	49 bf 0a 9f 5a 55 55 	movabs r15,0x5555555a9f0a
    1ddc:	55 00 00 
    1ddf:	49 8d 8f 36 c0 08 00 	lea    rcx,[r15+0x8c036]
    1de6:	4c 8b 40 10          	mov    r8,QWORD PTR [rax+0x10]
    1dea:	31 c0                	xor    eax,eax
    1dec:	49 bf 15 9f 5a 55 55 	movabs r15,0x5555555a9f15
    1df3:	55 00 00 
    1df6:	4d 8d 6d f8          	lea    r13,[r13-0x8]
    1dfa:	4d 89 7d 00          	mov    QWORD PTR [r13+0x0],r15
    1dfe:	e9 77 e2 ff ff       	jmp    0x7a
    1e03:	48 83 c8 ff          	or     rax,0xffffffffffffffff
    1e07:	e9 f0 f9 ff ff       	jmp    0x17fc
    1e0c:	80 49 09 02          	or     BYTE PTR [rcx+0x9],0x2
    1e10:	49 bf 29 9f 5a 55 55 	movabs r15,0x5555555a9f29
    1e17:	55 00 00 
    1e1a:	49 8d 97 53 bf 08 00 	lea    rdx,[r15+0x8bf53]
    1e21:	4c 8b 7d 98          	mov    r15,QWORD PTR [rbp-0x68]
    1e25:	4c 89 ff             	mov    rdi,r15
    1e28:	49 be 31 9f 5a 55 55 	movabs r14,0x5555555a9f31
    1e2f:	55 00 00 
    1e32:	4d 8d 6d f8          	lea    r13,[r13-0x8]
    1e36:	4d 89 75 00          	mov    QWORD PTR [r13+0x0],r14
    1e3a:	4c 89 7d 98          	mov    QWORD PTR [rbp-0x68],r15
    1e3e:	e9 fe d8 00 00       	jmp    0xf741
    1e43:	48 83 c8 ff          	or     rax,0xffffffffffffffff
    1e47:	e9 b0 f9 ff ff       	jmp    0x17fc
    1e4c:	49 bf 3f 9f 5a 55 55 	movabs r15,0x5555555a9f3f
    1e53:	55 00 00 
    1e56:	4d 8d 6d f8          	lea    r13,[r13-0x8]
    1e5a:	4d 89 7d 00          	mov    QWORD PTR [r13+0x0],r15
    1e5e:	e9 dc d1 00 00       	jmp    0xf03f
    1e63:	48 83 f8 01          	cmp    rax,0x1
    1e67:	0f 86 24 fb ff ff    	jbe    0x1991
    1e6d:	e9 54 ff ff ff       	jmp    0x1dc6
    1e72:	90                   	nop
    1e73:	4d 8d 6d f8          	lea    r13,[r13-0x8]
    1e77:	4d 89 65 00          	mov    QWORD PTR [r13+0x0],r12
    1e7b:	4d 8d 6d f8          	lea    r13,[r13-0x8]
    1e7f:	49 89 5d 00          	mov    QWORD PTR [r13+0x0],rbx
    1e83:	48 89 fb             	mov    rbx,rdi
    1e86:	49 83 ed 08          	sub    r13,0x8
    1e8a:	49 bf e4 90 5b 55 55 	movabs r15,0x5555555b90e4
    1e91:	55 00 00 
    1e94:	49 8d 87 9c e0 0a 00 	lea    rax,[r15+0xae09c]
    1e9b:	48 8b 10             	mov    rdx,QWORD PTR [rax]
    1e9e:	48 8b 47 18          	mov    rax,QWORD PTR [rdi+0x18]
    1ea2:	48 8b 04 d0          	mov    rax,QWORD PTR [rax+rdx*8]
    1ea6:	4c 8b 60 28          	mov    r12,QWORD PTR [rax+0x28]
    1eaa:	eb 2a                	jmp    0x1ed6
    1eac:	48 89 df             	mov    rdi,rbx
    1eaf:	49 bf fd 90 5b 55 55 	movabs r15,0x5555555b90fd
    1eb6:	55 00 00 
    1eb9:	4d 8d 6d f8          	lea    r13,[r13-0x8]
    1ebd:	4d 89 7d 00          	mov    QWORD PTR [r13+0x0],r15
    1ec1:	4c 8b 34 25 00 00 00 	mov    r14,QWORD PTR ds:0x0
    1ec8:	00 
    1ec9:	49 89 c6             	mov    r14,rax
    1ecc:	e9 dc cd 00 00       	jmp    0xecad
    1ed1:	48 85 c0             	test   rax,rax
    1ed4:	74 17                	je     0x1eed
    1ed6:	48 8b 83 90 04 00 00 	mov    rax,QWORD PTR [rbx+0x490]
    1edd:	48 8d 04 40          	lea    rax,[rax+rax*2]
    1ee1:	49 8d 34 c4          	lea    rsi,[r12+rax*8]
    1ee5:	48 8b 06             	mov    rax,QWORD PTR [rsi]
    1ee8:	48 85 c0             	test   rax,rax
    1eeb:	75 bf                	jne    0x1eac
    1eed:	49 83 c5 08          	add    r13,0x8
    1ef1:	49 8b 5d 00          	mov    rbx,QWORD PTR [r13+0x0]
    1ef5:	4d 8d 6d 08          	lea    r13,[r13+0x8]
    1ef9:	4d 8b 65 00          	mov    r12,QWORD PTR [r13+0x0]
    1efd:	4d 8d 6d 08          	lea    r13,[r13+0x8]
    1f01:	4d 8b 7d 00          	mov    r15,QWORD PTR [r13+0x0]
    1f05:	4d 8d 6d 08          	lea    r13,[r13+0x8]
    1f09:	4d 89 fe             	mov    r14,r15
    1f0c:	e9 fa a6 00 00       	jmp    0xc60b
    1f11:	48 83 f8 ff          	cmp    rax,0xffffffffffffffff
    1f15:	75 07                	jne    0x1f1e
    1f17:	80 8b e1 00 00 00 10 	or     BYTE PTR [rbx+0xe1],0x10
    1f1e:	49 8b 5d 00          	mov    rbx,QWORD PTR [r13+0x0]
    1f22:	4d 8d 6d 08          	lea    r13,[r13+0x8]
    1f26:	4d 8b 65 00          	mov    r12,QWORD PTR [r13+0x0]
    1f2a:	4d 8d 6d 08          	lea    r13,[r13+0x8]
    1f2e:	4c 8b 7d 98          	mov    r15,QWORD PTR [rbp-0x68]
    1f32:	4d 8b 7d 00          	mov    r15,QWORD PTR [r13+0x0]
    1f36:	4d 8d 6d 08          	lea    r13,[r13+0x8]
    1f3a:	4d 8b 75 00          	mov    r14,QWORD PTR [r13+0x0]
    1f3e:	4d 8d 6d 08          	lea    r13,[r13+0x8]
    1f42:	e9 2c a5 00 00       	jmp    0xc473
    1f47:	49 8b 4d 28          	mov    rcx,QWORD PTR [r13+0x28]
    1f4b:	4c 8b 7d 88          	mov    r15,QWORD PTR [rbp-0x78]
    1f4f:	49 33 4f 28          	xor    rcx,QWORD PTR [r15+0x28]
    1f53:	0f 85 8a 01 00 00    	jne    0x20e3
    1f59:	49 83 c5 38          	add    r13,0x38
    1f5d:	49 8b 5d 00          	mov    rbx,QWORD PTR [r13+0x0]
    1f61:	4d 8d 6d 08          	lea    r13,[r13+0x8]
    1f65:	4d 8b 65 00          	mov    r12,QWORD PTR [r13+0x0]
    1f69:	4d 8d 6d 08          	lea    r13,[r13+0x8]
    1f6d:	4d 8b 7d 00          	mov    r15,QWORD PTR [r13+0x0]
    1f71:	4d 8d 6d 08          	lea    r13,[r13+0x8]
    1f75:	4d 89 fe             	mov    r14,r15
    1f78:	e9 4a a6 00 00       	jmp    0xc5c7
    1f7d:	48 83 f8 fb          	cmp    rax,0xfffffffffffffffb
    1f81:	0f 85 8e 00 00 00    	jne    0x2015
    1f87:	48 83 7b 18 00       	cmp    QWORD PTR [rbx+0x18],0x0
    1f8c:	0f 85 3c 01 00 00    	jne    0x20ce
    1f92:	49 8b 94 24 f8 03 00 	mov    rdx,QWORD PTR [r12+0x3f8]
    1f99:	00 
    1f9a:	49 8b 84 24 f0 03 00 	mov    rax,QWORD PTR [r12+0x3f0]
    1fa1:	00 
    1fa2:	80 7c 10 ff 2f       	cmp    BYTE PTR [rax+rdx*1-0x1],0x2f
    1fa7:	0f 84 8c 00 00 00    	je     0x2039
    1fad:	49 8b 44 24 08       	mov    rax,QWORD PTR [r12+0x8]
    1fb2:	48 8b 70 50          	mov    rsi,QWORD PTR [rax+0x50]
    1fb6:	48 83 3e 02          	cmp    QWORD PTR [rsi],0x2
    1fba:	77 26                	ja     0x1fe2
    1fbc:	be 94 01 00 00       	mov    esi,0x194
    1fc1:	4c 89 e7             	mov    rdi,r12
    1fc4:	49 bf af ed 5b 55 55 	movabs r15,0x5555555bedaf
    1fcb:	55 00 00 
    1fce:	4d 8d 6d f8          	lea    r13,[r13-0x8]
    1fd2:	4d 89 7d 00          	mov    QWORD PTR [r13+0x0],r15
    1fd6:	e9 8c 33 00 00       	jmp    0x5367
    1fdb:	31 c0                	xor    eax,eax
    1fdd:	e9 65 ff ff ff       	jmp    0x1f47
    1fe2:	49 bf bf ed 5b 55 55 	movabs r15,0x5555555bedbf
    1fe9:	55 00 00 
    1fec:	49 8d 8f e6 94 07 00 	lea    rcx,[r15+0x794e6]
    1ff3:	31 d2                	xor    edx,edx
    1ff5:	bf 04 00 00 00       	mov    edi,0x4
    1ffa:	31 c0                	xor    eax,eax
    1ffc:	49 bf cd ed 5b 55 55 	movabs r15,0x5555555bedcd
    2003:	55 00 00 
    2006:	4d 8d 6d f8          	lea    r13,[r13-0x8]
    200a:	4d 89 7d 00          	mov    QWORD PTR [r13+0x0],r15
    200e:	e9 67 e0 ff ff       	jmp    0x7a
    2013:	eb a7                	jmp    0x1fbc
    2015:	48 89 c6             	mov    rsi,rax
    2018:	4c 89 e7             	mov    rdi,r12
    201b:	49 bf db ed 5b 55 55 	movabs r15,0x5555555beddb
    2022:	55 00 00 
    2025:	4d 8d 6d f8          	lea    r13,[r13-0x8]
    2029:	4d 89 7d 00          	mov    QWORD PTR [r13+0x0],r15
    202d:	e9 35 33 00 00       	jmp    0x5367
    2032:	31 c0                	xor    eax,eax
    2034:	e9 0e ff ff ff       	jmp    0x1f47
    2039:	31 c9                	xor    ecx,ecx
    203b:	49 8d 55 08          	lea    rdx,[r13+0x8]
    203f:	49 8d 75 10          	lea    rsi,[r13+0x10]
    2043:	4c 89 e7             	mov    rdi,r12
    2046:	49 bf 24 ee 5b 55 55 	movabs r15,0x5555555bee24
    204d:	55 00 00 
    2050:	4d 8d 6d f8          	lea    r13,[r13-0x8]
    2054:	4d 89 7d 00          	mov    QWORD PTR [r13+0x0],r15
    2058:	e9 fa d5 00 00       	jmp    0xf657
    205d:	48 85 c0             	test   rax,rax
    2060:	74 0f                	je     0x2071
    2062:	49 8b 44 24 08       	mov    rax,QWORD PTR [r12+0x8]
    2067:	48 8b 70 50          	mov    rsi,QWORD PTR [rax+0x50]
    206b:	48 83 3e 02          	cmp    QWORD PTR [rsi],0x2
    206f:	77 26                	ja     0x2097
    2071:	be 93 01 00 00       	mov    esi,0x193
    2076:	4c 89 e7             	mov    rdi,r12
    2079:	49 bf 44 ee 5b 55 55 	movabs r15,0x5555555bee44
    2080:	55 00 00 
    2083:	4d 8d 6d f8          	lea    r13,[r13-0x8]
    2087:	4d 89 7d 00          	mov    QWORD PTR [r13+0x0],r15
    208b:	e9 d7 32 00 00       	jmp    0x5367
    2090:	31 c0                	xor    eax,eax
    2092:	e9 b0 fe ff ff       	jmp    0x1f47
    2097:	4d 8b 45 18          	mov    r8,QWORD PTR [r13+0x18]
    209b:	49 bf 57 ee 5b 55 55 	movabs r15,0x5555555bee57
    20a2:	55 00 00 
    20a5:	49 8d 8f b1 a0 07 00 	lea    rcx,[r15+0x7a0b1]
    20ac:	31 d2                	xor    edx,edx
    20ae:	31 c0                	xor    eax,eax
    20b0:	bf 04 00 00 00       	mov    edi,0x4
    20b5:	49 bf 65 ee 5b 55 55 	movabs r15,0x5555555bee65
    20bc:	55 00 00 
    20bf:	4d 8d 6d f8          	lea    r13,[r13-0x8]
    20c3:	4d 89 7d 00          	mov    QWORD PTR [r13+0x0],r15
    20c7:	e9 ae df ff ff       	jmp    0x7a
    20cc:	eb a3                	jmp    0x2071
    20ce:	49 83 84 24 90 04 00 	add    QWORD PTR [r12+0x490],0x1
    20d5:	00 01 
    20d7:	48 c7 c0 fe ff ff ff 	mov    rax,0xfffffffffffffffe
    20de:	e9 64 fe ff ff       	jmp    0x1f47
    20e3:	49 bf 80 ee 5b 55 55 	movabs r15,0x5555555bee80
    20ea:	55 00 00 
    20ed:	4d 8d 6d f8          	lea    r13,[r13-0x8]
    20f1:	4d 89 7d 00          	mov    QWORD PTR [r13+0x0],r15
    20f5:	e9 45 cf 00 00       	jmp    0xf03f
    20fa:	90                   	nop
    20fb:	4d 8d 6d f8          	lea    r13,[r13-0x8]
    20ff:	49 89 5d 00          	mov    QWORD PTR [r13+0x0],rbx
    2103:	48 89 fb             	mov    rbx,rdi
    2106:	49 83 ed 30          	sub    r13,0x30
    210a:	4c 8b 7d 88          	mov    r15,QWORD PTR [rbp-0x78]
    210e:	49 8b 47 28          	mov    rax,QWORD PTR [r15+0x28]
    2112:	49 89 45 28          	mov    QWORD PTR [r13+0x28],rax
    2116:	31 c0                	xor    eax,eax
    2118:	48 83 bf a8 01 00 00 	cmp    QWORD PTR [rdi+0x1a8],0x0
    211f:	00 
    2120:	75 0e                	jne    0x2130
    2122:	48 83 bf b0 01 00 00 	cmp    QWORD PTR [rdi+0x1b0],0x0
    2129:	00 
    212a:	0f 85 aa 01 00 00    	jne    0x22da
    2130:	48 8b 83 38 01 00 00 	mov    rax,QWORD PTR [rbx+0x138]
    2137:	48 85 c0             	test   rax,rax
    213a:	0f 84 79 01 00 00    	je     0x22b9
    2140:	f3 0f 6f 40 18       	movdqu xmm0,XMMWORD PTR [rax+0x18]
    2145:	41 0f 29 45 10       	movaps XMMWORD PTR [r13+0x10],xmm0
    214a:	49 8b 45 10          	mov    rax,QWORD PTR [r13+0x10]
    214e:	48 83 f8 05          	cmp    rax,0x5
    2152:	0f 86 61 01 00 00    	jbe    0x22b9
    2158:	49 8b 7d 18          	mov    rdi,QWORD PTR [r13+0x18]
    215c:	ba 06 00 00 00       	mov    edx,0x6
    2161:	49 bf ee ee 5b 55 55 	movabs r15,0x5555555beeee
    2168:	55 00 00 
    216b:	49 8d b7 c8 93 07 00 	lea    rsi,[r15+0x793c8]
    2172:	49 bf f3 ee 5b 55 55 	movabs r15,0x5555555beef3
    2179:	55 00 00 
    217c:	4d 8d 6d f8          	lea    r13,[r13-0x8]
    2180:	4d 89 7d 00          	mov    QWORD PTR [r13+0x0],r15
    2184:	e9 52 cf 00 00       	jmp    0xf0db
    2189:	48 85 c0             	test   rax,rax
    218c:	0f 85 27 01 00 00    	jne    0x22b9
    2192:	49 8b 45 10          	mov    rax,QWORD PTR [r13+0x10]
    2196:	49 8b 7d 18          	mov    rdi,QWORD PTR [r13+0x18]
    219a:	48 83 e8 06          	sub    rax,0x6
    219e:	48 8d 57 06          	lea    rdx,[rdi+0x6]
    21a2:	49 89 45 10          	mov    QWORD PTR [r13+0x10],rax
    21a6:	49 89 55 18          	mov    QWORD PTR [r13+0x18],rdx
    21aa:	75 1e                	jne    0x21ca
    21ac:	e9 08 01 00 00       	jmp    0x22b9
    21b1:	48 83 e8 01          	sub    rax,0x1
    21b5:	48 83 c2 01          	add    rdx,0x1
    21b9:	49 89 45 10          	mov    QWORD PTR [r13+0x10],rax
    21bd:	49 89 55 18          	mov    QWORD PTR [r13+0x18],rdx
    21c1:	48 85 c0             	test   rax,rax
    21c4:	0f 84 ef 00 00 00    	je     0x22b9
    21ca:	80 3a 20             	cmp    BYTE PTR [rdx],0x20
    21cd:	74 e2                	je     0x21b1
    21cf:	48 83 c0 02          	add    rax,0x2
    21d3:	48 8b 7b 58          	mov    rdi,QWORD PTR [rbx+0x58]
    21d7:	48 c1 e8 02          	shr    rax,0x2
    21db:	48 8d 34 45 00 00 00 	lea    rsi,[rax*2+0x0]
    21e2:	00 
    21e3:	49 89 75 00          	mov    QWORD PTR [r13+0x0],rsi
    21e7:	48 83 c6 01          	add    rsi,0x1
    21eb:	49 bf 5d ef 5b 55 55 	movabs r15,0x5555555bef5d
    21f2:	55 00 00 
    21f5:	4d 8d 6d f8          	lea    r13,[r13-0x8]
    21f9:	4d 89 7d 00          	mov    QWORD PTR [r13+0x0],r15
    21fd:	e9 b5 d2 00 00       	jmp    0xf4b7
    2202:	49 89 45 08          	mov    QWORD PTR [r13+0x8],rax
    2206:	48 85 c0             	test   rax,rax
    2209:	0f 84 d4 00 00 00    	je     0x22e3
    220f:	49 8d 75 10          	lea    rsi,[r13+0x10]
    2213:	4c 89 ef             	mov    rdi,r13
    2216:	49 bf 78 ef 5b 55 55 	movabs r15,0x5555555bef78
    221d:	55 00 00 
    2220:	4d 8d 6d f8          	lea    r13,[r13-0x8]
    2224:	4d 89 7d 00          	mov    QWORD PTR [r13+0x0],r15
    2228:	e9 d8 d2 00 00       	jmp    0xf505
    222d:	48 85 c0             	test   rax,rax
    2230:	0f 85 83 00 00 00    	jne    0x22b9
    2236:	49 8b 4d 08          	mov    rcx,QWORD PTR [r13+0x8]
    223a:	49 8b 55 00          	mov    rdx,QWORD PTR [r13+0x0]
    223e:	c6 04 11 00          	mov    BYTE PTR [rcx+rdx*1],0x0
    2242:	49 8b 4d 00          	mov    rcx,QWORD PTR [r13+0x0]
    2246:	48 85 c9             	test   rcx,rcx
    2249:	74 6e                	je     0x22b9
    224b:	49 8b 75 08          	mov    rsi,QWORD PTR [r13+0x8]
    224f:	31 d2                	xor    edx,edx
    2251:	eb 09                	jmp    0x225c
    2253:	48 83 c2 01          	add    rdx,0x1
    2257:	48 39 ca             	cmp    rdx,rcx
    225a:	74 5d                	je     0x22b9
    225c:	80 3c 32 3a          	cmp    BYTE PTR [rdx+rsi*1],0x3a
    2260:	75 f1                	jne    0x2253
    2262:	48 85 d2             	test   rdx,rdx
    2265:	74 52                	je     0x22b9
    2267:	48 83 e9 01          	sub    rcx,0x1
    226b:	48 89 93 a8 01 00 00 	mov    QWORD PTR [rbx+0x1a8],rdx
    2272:	48 29 d1             	sub    rcx,rdx
    2275:	48 8d 54 32 01       	lea    rdx,[rdx+rsi*1+0x1]
    227a:	48 89 b3 b0 01 00 00 	mov    QWORD PTR [rbx+0x1b0],rsi
    2281:	48 89 8b b8 01 00 00 	mov    QWORD PTR [rbx+0x1b8],rcx
    2288:	48 89 93 c0 01 00 00 	mov    QWORD PTR [rbx+0x1c0],rdx
    228f:	49 8b 5d 28          	mov    rbx,QWORD PTR [r13+0x28]
    2293:	4c 8b 7d 88          	mov    r15,QWORD PTR [rbp-0x78]
    2297:	49 33 5f 28          	xor    rbx,QWORD PTR [r15+0x28]
    229b:	75 4f                	jne    0x22ec
    229d:	49 83 c5 30          	add    r13,0x30
    22a1:	49 8b 5d 00          	mov    rbx,QWORD PTR [r13+0x0]
    22a5:	4d 8d 6d 08          	lea    r13,[r13+0x8]
    22a9:	4d 8b 7d 00          	mov    r15,QWORD PTR [r13+0x0]
    22ad:	4d 8d 6d 08          	lea    r13,[r13+0x8]
    22b1:	4d 89 fe             	mov    r14,r15
    22b4:	e9 f0 cc 00 00       	jmp    0xefa9
    22b9:	49 bf ff ef 5b 55 55 	movabs r15,0x5555555befff
    22c0:	55 00 00 
    22c3:	49 8d 87 7d e2 07 00 	lea    rax,[r15+0x7e27d]
    22ca:	48 89 83 b0 01 00 00 	mov    QWORD PTR [rbx+0x1b0],rax
    22d1:	48 c7 c0 fb ff ff ff 	mov    rax,0xfffffffffffffffb
    22d8:	eb b5                	jmp    0x228f
    22da:	48 c7 c0 fb ff ff ff 	mov    rax,0xfffffffffffffffb
    22e1:	eb ac                	jmp    0x228f
    22e3:	48 c7 c0 ff ff ff ff 	mov    rax,0xffffffffffffffff
    22ea:	eb a3                	jmp    0x228f
    22ec:	49 bf 26 f0 5b 55 55 	movabs r15,0x5555555bf026
    22f3:	55 00 00 
    22f6:	4d 8d 6d f8          	lea    r13,[r13-0x8]
    22fa:	4d 89 7d 00          	mov    QWORD PTR [r13+0x0],r15
    22fe:	e9 3c cd 00 00       	jmp    0xf03f
    2303:	90                   	nop
    2304:	90                   	nop
    2305:	80 8f 17 05 00 00 80 	or     BYTE PTR [rdi+0x517],0x80
    230c:	48 39 bf 68 04 00 00 	cmp    QWORD PTR [rdi+0x468],rdi
    2313:	0f 85 fe 05 00 00    	jne    0x2917
    2319:	4d 8d 6d f8          	lea    r13,[r13-0x8]
    231d:	4c 8b 7d a8          	mov    r15,QWORD PTR [rbp-0x58]
    2321:	4d 89 7d 00          	mov    QWORD PTR [r13+0x0],r15
    2325:	4d 8d 6d f8          	lea    r13,[r13-0x8]
    2329:	4c 8b 75 a0          	mov    r14,QWORD PTR [rbp-0x60]
    232d:	4d 89 75 00          	mov    QWORD PTR [r13+0x0],r14
    2331:	4d 8d 6d f8          	lea    r13,[r13-0x8]
    2335:	4c 89 7d a8          	mov    QWORD PTR [rbp-0x58],r15
    2339:	4c 8b 7d 98          	mov    r15,QWORD PTR [rbp-0x68]
    233d:	4d 89 7d 00          	mov    QWORD PTR [r13+0x0],r15
    2341:	4d 8d 6d f8          	lea    r13,[r13-0x8]
    2345:	4d 89 65 00          	mov    QWORD PTR [r13+0x0],r12
    2349:	4d 8d 6d f8          	lea    r13,[r13-0x8]
    234d:	49 89 5d 00          	mov    QWORD PTR [r13+0x0],rbx
    2351:	48 8b 87 28 01 00 00 	mov    rax,QWORD PTR [rdi+0x128]
    2358:	48 89 fb             	mov    rbx,rdi
    235b:	48 85 c0             	test   rax,rax
    235e:	4c 89 7d 98          	mov    QWORD PTR [rbp-0x68],r15
    2362:	4c 89 75 a0          	mov    QWORD PTR [rbp-0x60],r14
    2366:	0f 84 ac 00 00 00    	je     0x2418
    236c:	48 83 78 18 02       	cmp    QWORD PTR [rax+0x18],0x2
    2371:	0f 86 a1 00 00 00    	jbe    0x2418
    2377:	48 8b 50 20          	mov    rdx,QWORD PTR [rax+0x20]
    237b:	81 3a 67 7a 69 70    	cmp    DWORD PTR [rdx],0x70697a67
    2381:	0f 84 e4 00 00 00    	je     0x246b
    2387:	4c 8b 7d 98          	mov    r15,QWORD PTR [rbp-0x68]
    238b:	4c 8b 78 20          	mov    r15,QWORD PTR [rax+0x20]
    238f:	4c 8b 75 a0          	mov    r14,QWORD PTR [rbp-0x60]
    2393:	4c 8b 70 18          	mov    r14,QWORD PTR [rax+0x18]
    2397:	4c 89 7d 98          	mov    QWORD PTR [rbp-0x68],r15
    239b:	49 bf 81 f0 5b 55 55 	movabs r15,0x5555555bf081
    23a2:	55 00 00 
    23a5:	4c 89 75 a0          	mov    QWORD PTR [rbp-0x60],r14
    23a9:	4c 8b 75 a8          	mov    r14,QWORD PTR [rbp-0x58]
    23ad:	4d 8d b7 42 92 07 00 	lea    r14,[r15+0x79242]
    23b4:	4c 8b 7d 98          	mov    r15,QWORD PTR [rbp-0x68]
    23b8:	4d 89 fc             	mov    r12,r15
    23bb:	4c 89 7d 98          	mov    QWORD PTR [rbp-0x68],r15
    23bf:	4c 89 75 a8          	mov    QWORD PTR [rbp-0x58],r14
    23c3:	eb 24                	jmp    0x23e9
    23c5:	48 8d 50 04          	lea    rdx,[rax+0x4]
    23c9:	49 39 c4             	cmp    r12,rax
    23cc:	0f 84 80 02 00 00    	je     0x2652
    23d2:	0f b6 40 ff          	movzx  eax,BYTE PTR [rax-0x1]
    23d6:	3c 2c                	cmp    al,0x2c
    23d8:	0f 84 74 02 00 00    	je     0x2652
    23de:	3c 20                	cmp    al,0x20
    23e0:	0f 84 6c 02 00 00    	je     0x2652
    23e6:	49 89 d4             	mov    r12,rdx
    23e9:	ba 03 00 00 00       	mov    edx,0x3
    23ee:	4c 8b 7d a8          	mov    r15,QWORD PTR [rbp-0x58]
    23f2:	4c 89 fe             	mov    rsi,r15
    23f5:	4c 89 e7             	mov    rdi,r12
    23f8:	49 be c4 f0 5b 55 55 	movabs r14,0x5555555bf0c4
    23ff:	55 00 00 
    2402:	4d 8d 6d f8          	lea    r13,[r13-0x8]
    2406:	4d 89 75 00          	mov    QWORD PTR [r13+0x0],r14
    240a:	4c 89 7d a8          	mov    QWORD PTR [rbp-0x58],r15
    240e:	e9 0c d1 00 00       	jmp    0xf51f
    2413:	48 85 c0             	test   rax,rax
    2416:	75 ad                	jne    0x23c5
    2418:	49 8b 5d 00          	mov    rbx,QWORD PTR [r13+0x0]
    241c:	4d 8d 6d 08          	lea    r13,[r13+0x8]
    2420:	48 c7 c0 fb ff ff ff 	mov    rax,0xfffffffffffffffb
    2427:	4d 8b 65 00          	mov    r12,QWORD PTR [r13+0x0]
    242b:	4d 8d 6d 08          	lea    r13,[r13+0x8]
    242f:	4c 8b 7d 98          	mov    r15,QWORD PTR [rbp-0x68]
    2433:	4d 8b 7d 00          	mov    r15,QWORD PTR [r13+0x0]
    2437:	4d 8d 6d 08          	lea    r13,[r13+0x8]
    243b:	4c 8b 75 a0          	mov    r14,QWORD PTR [rbp-0x60]
    243f:	4d 8b 75 00          	mov    r14,QWORD PTR [r13+0x0]
    2443:	4d 8d 6d 08          	lea    r13,[r13+0x8]
    2447:	4c 89 7d 98          	mov    QWORD PTR [rbp-0x68],r15
    244b:	4c 8b 7d a8          	mov    r15,QWORD PTR [rbp-0x58]
    244f:	4d 8b 7d 00          	mov    r15,QWORD PTR [r13+0x0]
    2453:	4d 8d 6d 08          	lea    r13,[r13+0x8]
    2457:	4c 89 7d a8          	mov    QWORD PTR [rbp-0x58],r15
    245b:	4d 8b 7d 00          	mov    r15,QWORD PTR [r13+0x0]
    245f:	4d 8d 6d 08          	lea    r13,[r13+0x8]
    2463:	4d 89 fe             	mov    r14,r15
    2466:	e9 5c cb 00 00       	jmp    0xefc7
    246b:	80 7a 04 2c          	cmp    BYTE PTR [rdx+0x4],0x2c
    246f:	0f 85 12 ff ff ff    	jne    0x2387
    2475:	49 bf ed f0 5b 55 55 	movabs r15,0x5555555bf0ed
    247c:	55 00 00 
    247f:	49 8d 87 93 80 0a 00 	lea    rax,[r15+0xa8093]
    2486:	48 8b 10             	mov    rdx,QWORD PTR [rax]
    2489:	48 8b 43 28          	mov    rax,QWORD PTR [rbx+0x28]
    248d:	4c 8b 24 d0          	mov    r12,QWORD PTR [rax+rdx*8]
    2491:	f6 83 10 02 00 00 10 	test   BYTE PTR [rbx+0x210],0x10
    2498:	74 0c                	je     0x24a6
    249a:	41 f6 44 24 18 c0    	test   BYTE PTR [r12+0x18],0xc0
    24a0:	0f 85 72 ff ff ff    	jne    0x2418
    24a6:	49 8b 84 24 30 02 00 	mov    rax,QWORD PTR [r12+0x230]
    24ad:	00 
    24ae:	48 39 83 d8 03 00 00 	cmp    QWORD PTR [rbx+0x3d8],rax
    24b5:	0f 82 5d ff ff ff    	jb     0x2418
    24bb:	48 83 bb 30 01 00 00 	cmp    QWORD PTR [rbx+0x130],0x0
    24c2:	00 
    24c3:	0f 84 ee 00 00 00    	je     0x25b7
    24c9:	4c 8b 7d 98          	mov    r15,QWORD PTR [rbp-0x68]
    24cd:	4d 8b bc 24 38 02 00 	mov    r15,QWORD PTR [r12+0x238]
    24d4:	00 
    24d5:	41 f6 c7 02          	test   r15b,0x2
    24d9:	4c 89 7d 98          	mov    QWORD PTR [rbp-0x68],r15
    24dd:	0f 85 35 ff ff ff    	jne    0x2418
    24e3:	4c 8b 7d 98          	mov    r15,QWORD PTR [rbp-0x68]
    24e7:	41 f7 c7 00 02 00 00 	test   r15d,0x200
    24ee:	4c 89 7d 98          	mov    QWORD PTR [rbp-0x68],r15
    24f2:	0f 85 bf 00 00 00    	jne    0x25b7
    24f8:	48 83 bb 38 01 00 00 	cmp    QWORD PTR [rbx+0x138],0x0
    24ff:	00 
    2500:	74 15                	je     0x2517
    2502:	4c 8b 7d 98          	mov    r15,QWORD PTR [rbp-0x68]
    2506:	41 f7 c7 00 01 00 00 	test   r15d,0x100
    250d:	4c 89 7d 98          	mov    QWORD PTR [rbp-0x68],r15
    2511:	0f 85 a0 00 00 00    	jne    0x25b7
    2517:	48 8b 83 f0 02 00 00 	mov    rax,QWORD PTR [rbx+0x2f0]
    251e:	48 85 c0             	test   rax,rax
    2521:	0f 84 bc 01 00 00    	je     0x26e3
    2527:	4c 8b 7d 98          	mov    r15,QWORD PTR [rbp-0x68]
    252b:	41 83 e7 04          	and    r15d,0x4
    252f:	4c 89 7d 98          	mov    QWORD PTR [rbp-0x68],r15
    2533:	0f 84 df fe ff ff    	je     0x2418
    2539:	48 8b 70 18          	mov    rsi,QWORD PTR [rax+0x18]
    253d:	48 8b 78 20          	mov    rdi,QWORD PTR [rax+0x20]
    2541:	49 bf 75 f1 5b 55 55 	movabs r15,0x5555555bf175
    2548:	55 00 00 
    254b:	4d 8d 6d f8          	lea    r13,[r13-0x8]
    254f:	4d 89 7d 00          	mov    QWORD PTR [r13+0x0],r15
    2553:	e9 dd ce 00 00       	jmp    0xf435
    2558:	4c 8b 7d 98          	mov    r15,QWORD PTR [rbp-0x68]
    255c:	49 89 c7             	mov    r15,rax
    255f:	48 83 f8 ff          	cmp    rax,0xffffffffffffffff
    2563:	4c 89 7d 98          	mov    QWORD PTR [rbp-0x68],r15
    2567:	0f 84 ab fe ff ff    	je     0x2418
    256d:	48 8b 83 a8 02 00 00 	mov    rax,QWORD PTR [rbx+0x2a8]
    2574:	48 85 c0             	test   rax,rax
    2577:	0f 84 16 01 00 00    	je     0x2693
    257d:	48 8b 70 18          	mov    rsi,QWORD PTR [rax+0x18]
    2581:	48 8b 78 20          	mov    rdi,QWORD PTR [rax+0x20]
    2585:	49 bf 9f f1 5b 55 55 	movabs r15,0x5555555bf19f
    258c:	55 00 00 
    258f:	4d 8d 6d f8          	lea    r13,[r13-0x8]
    2593:	4d 89 7d 00          	mov    QWORD PTR [r13+0x0],r15
    2597:	e9 99 ce 00 00       	jmp    0xf435
    259c:	48 83 f8 ff          	cmp    rax,0xffffffffffffffff
    25a0:	0f 84 72 fe ff ff    	je     0x2418
    25a6:	4c 8b 7d 98          	mov    r15,QWORD PTR [rbp-0x68]
    25aa:	4c 39 f8             	cmp    rax,r15
    25ad:	4c 89 7d 98          	mov    QWORD PTR [rbp-0x68],r15
    25b1:	0f 8e 61 fe ff ff    	jle    0x2418
    25b7:	49 8b bc 24 40 02 00 	mov    rdi,QWORD PTR [r12+0x240]
    25be:	00 
    25bf:	48 85 ff             	test   rdi,rdi
    25c2:	74 39                	je     0x25fd
    25c4:	48 8b b3 d0 00 00 00 	mov    rsi,QWORD PTR [rbx+0xd0]
    25cb:	48 85 f6             	test   rsi,rsi
    25ce:	74 2d                	je     0x25fd
    25d0:	48 8b 43 08          	mov    rax,QWORD PTR [rbx+0x8]
    25d4:	48 83 c6 18          	add    rsi,0x18
    25d8:	48 8b 50 50          	mov    rdx,QWORD PTR [rax+0x50]
    25dc:	49 bf db f1 5b 55 55 	movabs r15,0x5555555bf1db
    25e3:	55 00 00 
    25e6:	4d 8d 6d f8          	lea    r13,[r13-0x8]
    25ea:	4d 89 7d 00          	mov    QWORD PTR [r13+0x0],r15
    25ee:	e9 46 cf 00 00       	jmp    0xf539
    25f3:	48 83 f8 fb          	cmp    rax,0xfffffffffffffffb
    25f7:	0f 85 1b fe ff ff    	jne    0x2418
    25fd:	80 8b 18 05 00 00 01 	or     BYTE PTR [rbx+0x518],0x1
    2604:	31 c0                	xor    eax,eax
    2606:	49 8b 5d 00          	mov    rbx,QWORD PTR [r13+0x0]
    260a:	4d 8d 6d 08          	lea    r13,[r13+0x8]
    260e:	4d 8b 65 00          	mov    r12,QWORD PTR [r13+0x0]
    2612:	4d 8d 6d 08          	lea    r13,[r13+0x8]
    2616:	4c 8b 7d 98          	mov    r15,QWORD PTR [rbp-0x68]
    261a:	4d 8b 7d 00          	mov    r15,QWORD PTR [r13+0x0]
    261e:	4d 8d 6d 08          	lea    r13,[r13+0x8]
    2622:	4c 8b 75 a0          	mov    r14,QWORD PTR [rbp-0x60]
    2626:	4d 8b 75 00          	mov    r14,QWORD PTR [r13+0x0]
    262a:	4d 8d 6d 08          	lea    r13,[r13+0x8]
    262e:	4c 89 7d 98          	mov    QWORD PTR [rbp-0x68],r15
    2632:	4c 8b 7d a8          	mov    r15,QWORD PTR [rbp-0x58]
    2636:	4d 8b 7d 00          	mov    r15,QWORD PTR [r13+0x0]
    263a:	4d 8d 6d 08          	lea    r13,[r13+0x8]
    263e:	4c 89 7d a8          	mov    QWORD PTR [rbp-0x58],r15
    2642:	4d 8b 7d 00          	mov    r15,QWORD PTR [r13+0x0]
    2646:	4d 8d 6d 08          	lea    r13,[r13+0x8]
    264a:	4d 89 fe             	mov    r14,r15
    264d:	e9 84 c9 00 00       	jmp    0xefd6
    2652:	4c 8b 7d 98          	mov    r15,QWORD PTR [rbp-0x68]
    2656:	4c 8b 75 a0          	mov    r14,QWORD PTR [rbp-0x60]
    265a:	4d 01 f7             	add    r15,r14
    265d:	4c 89 7d 98          	mov    QWORD PTR [rbp-0x68],r15
    2661:	4c 89 75 a0          	mov    QWORD PTR [rbp-0x60],r14
    2665:	4c 8b 7d 98          	mov    r15,QWORD PTR [rbp-0x68]
    2669:	49 39 d7             	cmp    r15,rdx
    266c:	4c 89 7d 98          	mov    QWORD PTR [rbp-0x68],r15
    2670:	0f 86 ff fd ff ff    	jbe    0x2475
    2676:	0f b6 02             	movzx  eax,BYTE PTR [rdx]
    2679:	48 83 c2 01          	add    rdx,0x1
    267d:	3c 2c                	cmp    al,0x2c
    267f:	0f 84 f0 fd ff ff    	je     0x2475
    2685:	3c 3b                	cmp    al,0x3b
    2687:	74 29                	je     0x26b2
    2689:	3c 20                	cmp    al,0x20
    268b:	0f 85 87 fd ff ff    	jne    0x2418
    2691:	eb d2                	jmp    0x2665
    2693:	49 bf 37 f2 5b 55 55 	movabs r15,0x5555555bf237
    269a:	55 00 00 
    269d:	49 8d 87 79 36 0d 00 	lea    rax,[r15+0xd3679]
    26a4:	48 8b 00             	mov    rax,QWORD PTR [rax]
    26a7:	48 8b 00             	mov    rax,QWORD PTR [rax]
    26aa:	e9 f7 fe ff ff       	jmp    0x25a6
    26af:	48 89 ca             	mov    rdx,rcx
    26b2:	4c 8b 7d 98          	mov    r15,QWORD PTR [rbp-0x68]
    26b6:	49 39 d7             	cmp    r15,rdx
    26b9:	4c 89 7d 98          	mov    QWORD PTR [rbp-0x68],r15
    26bd:	0f 86 b2 fd ff ff    	jbe    0x2475
    26c3:	0f b6 02             	movzx  eax,BYTE PTR [rdx]
    26c6:	48 8d 4a 01          	lea    rcx,[rdx+0x1]
    26ca:	89 c6                	mov    esi,eax
    26cc:	83 e6 df             	and    esi,0xffffffdf
    26cf:	40 80 fe 51          	cmp    sil,0x51
    26d3:	0f 84 23 01 00 00    	je     0x27fc
    26d9:	3c 20                	cmp    al,0x20
    26db:	0f 85 37 fd ff ff    	jne    0x2418
    26e1:	eb cc                	jmp    0x26af
    26e3:	48 83 bb 40 03 00 00 	cmp    QWORD PTR [rbx+0x340],0x0
    26ea:	00 
    26eb:	0f 84 c7 00 00 00    	je     0x27b8
    26f1:	4c 8b 7d a0          	mov    r15,QWORD PTR [rbp-0x60]
    26f5:	4c 8d bb 40 03 00 00 	lea    r15,[rbx+0x340]
    26fc:	4c 8b 75 98          	mov    r14,QWORD PTR [rbp-0x68]
    2700:	41 f6 c6 08          	test   r14b,0x8
    2704:	4c 89 7d a0          	mov    QWORD PTR [rbp-0x60],r15
    2708:	4c 89 75 98          	mov    QWORD PTR [rbp-0x68],r14
    270c:	0f 85 c2 01 00 00    	jne    0x28d4
    2712:	4c 8b 7d 98          	mov    r15,QWORD PTR [rbp-0x68]
    2716:	41 f6 c7 10          	test   r15b,0x10
    271a:	4c 89 7d 98          	mov    QWORD PTR [rbp-0x68],r15
    271e:	75 55                	jne    0x2775
    2720:	4c 8b 7d 98          	mov    r15,QWORD PTR [rbp-0x68]
    2724:	41 83 e7 20          	and    r15d,0x20
    2728:	4c 89 7d 98          	mov    QWORD PTR [rbp-0x68],r15
    272c:	0f 84 e6 fc ff ff    	je     0x2418
    2732:	31 d2                	xor    edx,edx
    2734:	49 bf ac f2 5b 55 55 	movabs r15,0x5555555bf2ac
    273b:	55 00 00 
    273e:	49 8d b7 f4 7f 0a 00 	lea    rsi,[r15+0xa7ff4]
    2745:	4c 8b 7d a0          	mov    r15,QWORD PTR [rbp-0x60]
    2749:	4c 89 ff             	mov    rdi,r15
    274c:	49 be b4 f2 5b 55 55 	movabs r14,0x5555555bf2b4
    2753:	55 00 00 
    2756:	4d 8d 6d f8          	lea    r13,[r13-0x8]
    275a:	4d 89 75 00          	mov    QWORD PTR [r13+0x0],r14
    275e:	4c 89 7d a0          	mov    QWORD PTR [rbp-0x60],r15
    2762:	e9 e8 cc 00 00       	jmp    0xf44f
    2767:	48 85 c0             	test   rax,rax
    276a:	0f 89 47 fe ff ff    	jns    0x25b7
    2770:	e9 a3 fc ff ff       	jmp    0x2418
    2775:	31 d2                	xor    edx,edx
    2777:	49 bf d1 f2 5b 55 55 	movabs r15,0x5555555bf2d1
    277e:	55 00 00 
    2781:	49 8d b7 df 7f 0a 00 	lea    rsi,[r15+0xa7fdf]
    2788:	4c 8b 7d a0          	mov    r15,QWORD PTR [rbp-0x60]
    278c:	4c 89 ff             	mov    rdi,r15
    278f:	49 be d9 f2 5b 55 55 	movabs r14,0x5555555bf2d9
    2796:	55 00 00 
    2799:	4d 8d 6d f8          	lea    r13,[r13-0x8]
    279d:	4d 89 75 00          	mov    QWORD PTR [r13+0x0],r14
    27a1:	4c 89 7d a0          	mov    QWORD PTR [rbp-0x60],r15
    27a5:	e9 a5 cc 00 00       	jmp    0xf44f
    27aa:	48 85 c0             	test   rax,rax
    27ad:	0f 88 6d ff ff ff    	js     0x2720
    27b3:	e9 ff fd ff ff       	jmp    0x25b7
    27b8:	4c 8b 7d 98          	mov    r15,QWORD PTR [rbp-0x68]
    27bc:	41 f6 c7 40          	test   r15b,0x40
    27c0:	4c 89 7d 98          	mov    QWORD PTR [rbp-0x68],r15
    27c4:	74 0e                	je     0x27d4
    27c6:	48 83 bb d0 02 00 00 	cmp    QWORD PTR [rbx+0x2d0],0x0
    27cd:	00 
    27ce:	0f 85 44 fc ff ff    	jne    0x2418
    27d4:	4c 8b 7d 98          	mov    r15,QWORD PTR [rbp-0x68]
    27d8:	41 81 e7 80 00 00 00 	and    r15d,0x80
    27df:	4c 89 7d 98          	mov    QWORD PTR [rbp-0x68],r15
    27e3:	0f 84 ce fd ff ff    	je     0x25b7
    27e9:	48 83 bb f8 02 00 00 	cmp    QWORD PTR [rbx+0x2f8],0x0
    27f0:	00 
    27f1:	0f 84 c0 fd ff ff    	je     0x25b7
    27f7:	e9 1c fc ff ff       	jmp    0x2418
    27fc:	48 8d 72 02          	lea    rsi,[rdx+0x2]
    2800:	4c 8b 7d 98          	mov    r15,QWORD PTR [rbp-0x68]
    2804:	49 39 f7             	cmp    r15,rsi
    2807:	4c 89 7d 98          	mov    QWORD PTR [rbp-0x68],r15
    280b:	0f 82 07 fc ff ff    	jb     0x2418
    2811:	80 39 3d             	cmp    BYTE PTR [rcx],0x3d
    2814:	0f 85 fe fb ff ff    	jne    0x2418
    281a:	0f b6 42 02          	movzx  eax,BYTE PTR [rdx+0x2]
    281e:	8d 48 d0             	lea    ecx,[rax-0x30]
    2821:	80 f9 01             	cmp    cl,0x1
    2824:	0f 87 ee fb ff ff    	ja     0x2418
    282a:	83 e8 30             	sub    eax,0x30
    282d:	6b c0 64             	imul   eax,eax,0x64
    2830:	48 98                	cdqe   
    2832:	4c 8b 7d 98          	mov    r15,QWORD PTR [rbp-0x68]
    2836:	49 39 f7             	cmp    r15,rsi
    2839:	4c 89 7d 98          	mov    QWORD PTR [rbp-0x68],r15
    283d:	0f 84 83 00 00 00    	je     0x28c6
    2843:	0f b6 4a 02          	movzx  ecx,BYTE PTR [rdx+0x2]
    2847:	80 f9 2c             	cmp    cl,0x2c
    284a:	74 7a                	je     0x28c6
    284c:	80 f9 20             	cmp    cl,0x20
    284f:	74 75                	je     0x28c6
    2851:	80 f9 2e             	cmp    cl,0x2e
    2854:	0f 85 be fb ff ff    	jne    0x2418
    285a:	48 8d 4a 04          	lea    rcx,[rdx+0x4]
    285e:	4c 8b 7d 98          	mov    r15,QWORD PTR [rbp-0x68]
    2862:	49 39 cf             	cmp    r15,rcx
    2865:	4c 89 7d 98          	mov    QWORD PTR [rbp-0x68],r15
    2869:	76 5b                	jbe    0x28c6
    286b:	4c 8b 7d 98          	mov    r15,QWORD PTR [rbp-0x68]
    286f:	49 83 ef 04          	sub    r15,0x4
    2873:	31 f6                	xor    esi,esi
    2875:	49 29 d7             	sub    r15,rdx
    2878:	4c 89 7d 98          	mov    QWORD PTR [rbp-0x68],r15
    287c:	0f b6 4c 32 04       	movzx  ecx,BYTE PTR [rdx+rsi*1+0x4]
    2881:	80 f9 2c             	cmp    cl,0x2c
    2884:	74 2c                	je     0x28b2
    2886:	80 f9 20             	cmp    cl,0x20
    2889:	74 27                	je     0x28b2
    288b:	8d 79 d0             	lea    edi,[rcx-0x30]
    288e:	40 80 ff 09          	cmp    dil,0x9
    2892:	0f 87 80 fb ff ff    	ja     0x2418
    2898:	83 e9 30             	sub    ecx,0x30
    289b:	48 83 c6 01          	add    rsi,0x1
    289f:	48 63 c9             	movsxd rcx,ecx
    28a2:	48 01 c8             	add    rax,rcx
    28a5:	4c 8b 7d 98          	mov    r15,QWORD PTR [rbp-0x68]
    28a9:	4c 39 fe             	cmp    rsi,r15
    28ac:	4c 89 7d 98          	mov    QWORD PTR [rbp-0x68],r15
    28b0:	75 ca                	jne    0x287c
    28b2:	48 83 f8 64          	cmp    rax,0x64
    28b6:	0f 87 5c fb ff ff    	ja     0x2418
    28bc:	48 83 fe 02          	cmp    rsi,0x2
    28c0:	0f 87 52 fb ff ff    	ja     0x2418
    28c6:	48 85 c0             	test   rax,rax
    28c9:	0f 85 a6 fb ff ff    	jne    0x2475
    28cf:	e9 44 fb ff ff       	jmp    0x2418
    28d4:	31 d2                	xor    edx,edx
    28d6:	49 bf d9 f3 5b 55 55 	movabs r15,0x5555555bf3d9
    28dd:	55 00 00 
    28e0:	49 8d b7 e7 7e 0a 00 	lea    rsi,[r15+0xa7ee7]
    28e7:	4c 8b 7d a0          	mov    r15,QWORD PTR [rbp-0x60]
    28eb:	4c 89 ff             	mov    rdi,r15
    28ee:	49 be e1 f3 5b 55 55 	movabs r14,0x5555555bf3e1
    28f5:	55 00 00 
    28f8:	4d 8d 6d f8          	lea    r13,[r13-0x8]
    28fc:	4d 89 75 00          	mov    QWORD PTR [r13+0x0],r14
    2900:	4c 89 7d a0          	mov    QWORD PTR [rbp-0x60],r15
    2904:	e9 46 cb 00 00       	jmp    0xf44f
    2909:	48 85 c0             	test   rax,rax
    290c:	0f 88 00 fe ff ff    	js     0x2712
    2912:	e9 a0 fc ff ff       	jmp    0x25b7
    2917:	48 c7 c0 fb ff ff ff 	mov    rax,0xfffffffffffffffb
    291e:	4d 8b 7d 00          	mov    r15,QWORD PTR [r13+0x0]
    2922:	4d 8d 6d 08          	lea    r13,[r13+0x8]
    2926:	4d 89 fe             	mov    r14,r15
    2929:	e9 8a c6 00 00       	jmp    0xefb8
    292e:	48 c7 c0 fc ff ff ff 	mov    rax,0xfffffffffffffffc
    2935:	4d 8b 65 00          	mov    r12,QWORD PTR [r13+0x0]
    2939:	4d 8d 6d 08          	lea    r13,[r13+0x8]
    293d:	4d 8b 7d 00          	mov    r15,QWORD PTR [r13+0x0]
    2941:	4d 8d 6d 08          	lea    r13,[r13+0x8]
    2945:	4d 89 fe             	mov    r14,r15
    2948:	e9 38 9a 00 00       	jmp    0xc385
    294d:	49 bf f7 0c 5c 55 55 	movabs r15,0x5555555c0cf7
    2954:	55 00 00 
    2957:	49 8d 87 89 64 0a 00 	lea    rax,[r15+0xa6489]
    295e:	4d 8d 6d f8          	lea    r13,[r13-0x8]
    2962:	4c 8b 7d 98          	mov    r15,QWORD PTR [rbp-0x68]
    2966:	4d 89 7d 00          	mov    QWORD PTR [r13+0x0],r15
    296a:	4d 8d 6d f8          	lea    r13,[r13-0x8]
    296e:	4d 89 65 00          	mov    QWORD PTR [r13+0x0],r12
    2972:	4d 8d 6d f8          	lea    r13,[r13-0x8]
    2976:	49 89 5d 00          	mov    QWORD PTR [r13+0x0],rbx
    297a:	48 8b 10             	mov    rdx,QWORD PTR [rax]
    297d:	48 8b 47 18          	mov    rax,QWORD PTR [rdi+0x18]
    2981:	48 8b 04 d0          	mov    rax,QWORD PTR [rax+rdx*8]
    2985:	48 8b 98 78 02 00 00 	mov    rbx,QWORD PTR [rax+0x278]
    298c:	48 8b 80 80 02 00 00 	mov    rax,QWORD PTR [rax+0x280]
    2993:	48 85 c0             	test   rax,rax
    2996:	4c 89 7d 98          	mov    QWORD PTR [rbp-0x68],r15
    299a:	74 40                	je     0x29dc
    299c:	49 89 fc             	mov    r12,rdi
    299f:	4c 8b 7d 98          	mov    r15,QWORD PTR [rbp-0x68]
    29a3:	4c 8d 3c c3          	lea    r15,[rbx+rax*8]
    29a7:	4c 89 7d 98          	mov    QWORD PTR [rbp-0x68],r15
    29ab:	4c 89 e7             	mov    rdi,r12
    29ae:	49 bf 25 0d 5c 55 55 	movabs r15,0x5555555c0d25
    29b5:	55 00 00 
    29b8:	4d 8d 6d f8          	lea    r13,[r13-0x8]
    29bc:	4d 89 7d 00          	mov    QWORD PTR [r13+0x0],r15
    29c0:	4c 8b 3b             	mov    r15,QWORD PTR [rbx]
    29c3:	4d 89 fe             	mov    r14,r15
    29c6:	e9 98 99 00 00       	jmp    0xc363
    29cb:	48 83 c3 08          	add    rbx,0x8
    29cf:	4c 8b 7d 98          	mov    r15,QWORD PTR [rbp-0x68]
    29d3:	4c 39 fb             	cmp    rbx,r15
    29d6:	4c 89 7d 98          	mov    QWORD PTR [rbp-0x68],r15
    29da:	75 cf                	jne    0x29ab
    29dc:	49 8b 5d 00          	mov    rbx,QWORD PTR [r13+0x0]
    29e0:	4d 8d 6d 08          	lea    r13,[r13+0x8]
    29e4:	4d 8b 65 00          	mov    r12,QWORD PTR [r13+0x0]
    29e8:	4d 8d 6d 08          	lea    r13,[r13+0x8]
    29ec:	4c 8b 7d 98          	mov    r15,QWORD PTR [rbp-0x68]
    29f0:	4d 8b 7d 00          	mov    r15,QWORD PTR [r13+0x0]
    29f4:	4d 8d 6d 08          	lea    r13,[r13+0x8]
    29f8:	4d 8b 75 00          	mov    r14,QWORD PTR [r13+0x0]
    29fc:	4d 8d 6d 08          	lea    r13,[r13+0x8]
    2a00:	e9 6d bd 00 00       	jmp    0xe772
    2a05:	49 bf 37 18 5c 55 55 	movabs r15,0x5555555c1837
    2a0c:	55 00 00 
    2a0f:	49 8d 87 49 59 0a 00 	lea    rax,[r15+0xa5949]
    2a16:	4d 8d 6d f8          	lea    r13,[r13-0x8]
    2a1a:	4c 8b 7d 98          	mov    r15,QWORD PTR [rbp-0x68]
    2a1e:	4d 89 7d 00          	mov    QWORD PTR [r13+0x0],r15
    2a22:	4d 8d 6d f8          	lea    r13,[r13-0x8]
    2a26:	4d 89 65 00          	mov    QWORD PTR [r13+0x0],r12
    2a2a:	4d 8d 6d f8          	lea    r13,[r13-0x8]
    2a2e:	49 89 5d 00          	mov    QWORD PTR [r13+0x0],rbx
    2a32:	48 8b 10             	mov    rdx,QWORD PTR [rax]
    2a35:	48 8b 47 28          	mov    rax,QWORD PTR [rdi+0x28]
    2a39:	48 8b 1c d0          	mov    rbx,QWORD PTR [rax+rdx*8]
    2a3d:	48 8b 43 70          	mov    rax,QWORD PTR [rbx+0x70]
    2a41:	48 85 c0             	test   rax,rax
    2a44:	4c 89 7d 98          	mov    QWORD PTR [rbp-0x68],r15
    2a48:	0f 84 d5 00 00 00    	je     0x2b23
    2a4e:	49 89 fc             	mov    r12,rdi
    2a51:	f6 87 1b 05 00 00 01 	test   BYTE PTR [rdi+0x51b],0x1
    2a58:	0f 85 b5 00 00 00    	jne    0x2b13
    2a5e:	49 8b 54 24 08       	mov    rdx,QWORD PTR [r12+0x8]
    2a63:	4c 8b 7d 98          	mov    r15,QWORD PTR [rbp-0x68]
    2a67:	4c 8d 7b 68          	lea    r15,[rbx+0x68]
    2a6b:	48 8b 72 50          	mov    rsi,QWORD PTR [rdx+0x50]
    2a6f:	48 f7 06 00 01 00 00 	test   QWORD PTR [rsi],0x100
    2a76:	4c 89 7d 98          	mov    QWORD PTR [rbp-0x68],r15
    2a7a:	0f 85 fe 00 00 00    	jne    0x2b7e
    2a80:	49 8b 94 24 68 04 00 	mov    rdx,QWORD PTR [r12+0x468]
    2a87:	00 
    2a88:	66 83 aa 10 05 00 00 	sub    WORD PTR [rdx+0x510],0x1
    2a8f:	01 
    2a90:	49 bf 8a 18 5c 55 55 	movabs r15,0x5555555c188a
    2a97:	55 00 00 
    2a9a:	49 8d 97 b6 1f 00 00 	lea    rdx,[r15+0x1fb6]
    2aa1:	41 81 8c 24 18 05 00 	or     DWORD PTR [r12+0x518],0x1008000
    2aa8:	00 00 80 00 01 
    2aad:	49 c7 84 24 d8 03 00 	mov    QWORD PTR [r12+0x3d8],0x9
    2ab4:	00 09 00 00 00 
    2ab9:	49 89 54 24 30       	mov    QWORD PTR [r12+0x30],rdx
    2abe:	80 38 2f             	cmp    BYTE PTR [rax],0x2f
    2ac1:	74 69                	je     0x2b2c
    2ac3:	4c 8b 7d 98          	mov    r15,QWORD PTR [rbp-0x68]
    2ac7:	4c 89 fe             	mov    rsi,r15
    2aca:	4c 89 e7             	mov    rdi,r12
    2acd:	49 be b3 18 5c 55 55 	movabs r14,0x5555555c18b3
    2ad4:	55 00 00 
    2ad7:	4d 8d 6d f8          	lea    r13,[r13-0x8]
    2adb:	4d 89 75 00          	mov    QWORD PTR [r13+0x0],r14
    2adf:	4c 89 7d 98          	mov    QWORD PTR [rbp-0x68],r15
    2ae3:	e9 97 c8 00 00       	jmp    0xf37f
    2ae8:	31 c0                	xor    eax,eax
    2aea:	49 8b 5d 00          	mov    rbx,QWORD PTR [r13+0x0]
    2aee:	4d 8d 6d 08          	lea    r13,[r13+0x8]
    2af2:	4d 8b 65 00          	mov    r12,QWORD PTR [r13+0x0]
    2af6:	4d 8d 6d 08          	lea    r13,[r13+0x8]
    2afa:	4c 8b 7d 98          	mov    r15,QWORD PTR [rbp-0x68]
    2afe:	4d 8b 7d 00          	mov    r15,QWORD PTR [r13+0x0]
    2b02:	4d 8d 6d 08          	lea    r13,[r13+0x8]
    2b06:	4d 8b 75 00          	mov    r14,QWORD PTR [r13+0x0]
    2b0a:	4d 8d 6d 08          	lea    r13,[r13+0x8]
    2b0e:	e9 94 bc 00 00       	jmp    0xe7a7
    2b13:	f7 87 14 05 00 00 00 	test   DWORD PTR [rdi+0x514],0x78000
    2b1a:	80 07 00 
    2b1d:	0f 85 3b ff ff ff    	jne    0x2a5e
    2b23:	48 c7 c0 fb ff ff ff 	mov    rax,0xfffffffffffffffb
    2b2a:	eb be                	jmp    0x2aea
    2b2c:	4c 8b 7d 98          	mov    r15,QWORD PTR [rbp-0x68]
    2b30:	4c 89 fe             	mov    rsi,r15
    2b33:	4c 89 e7             	mov    rdi,r12
    2b36:	31 d2                	xor    edx,edx
    2b38:	49 be e5 18 5c 55 55 	movabs r14,0x5555555c18e5
    2b3f:	55 00 00 
    2b42:	4d 8d 6d f8          	lea    r13,[r13-0x8]
    2b46:	4d 89 75 00          	mov    QWORD PTR [r13+0x0],r14
    2b4a:	4c 89 7d 98          	mov    QWORD PTR [rbp-0x68],r15
    2b4e:	e9 58 c6 00 00       	jmp    0xf1ab
    2b53:	49 8b 5d 00          	mov    rbx,QWORD PTR [r13+0x0]
    2b57:	4d 8d 6d 08          	lea    r13,[r13+0x8]
    2b5b:	31 c0                	xor    eax,eax
    2b5d:	4d 8b 65 00          	mov    r12,QWORD PTR [r13+0x0]
    2b61:	4d 8d 6d 08          	lea    r13,[r13+0x8]
    2b65:	4c 8b 7d 98          	mov    r15,QWORD PTR [rbp-0x68]
    2b69:	4d 8b 7d 00          	mov    r15,QWORD PTR [r13+0x0]
    2b6d:	4d 8d 6d 08          	lea    r13,[r13+0x8]
    2b71:	4d 8b 75 00          	mov    r14,QWORD PTR [r13+0x0]
    2b75:	4d 8d 6d 08          	lea    r13,[r13+0x8]
    2b79:	e9 5e bc 00 00       	jmp    0xe7dc
    2b7e:	31 c0                	xor    eax,eax
    2b80:	4c 8b 7d 98          	mov    r15,QWORD PTR [rbp-0x68]
    2b84:	4d 89 f8             	mov    r8,r15
    2b87:	49 be fc 18 5c 55 55 	movabs r14,0x5555555c18fc
    2b8e:	55 00 00 
    2b91:	49 8d 8e b4 78 07 00 	lea    rcx,[r14+0x778b4]
    2b98:	31 d2                	xor    edx,edx
    2b9a:	bf 08 00 00 00       	mov    edi,0x8
    2b9f:	49 be 08 19 5c 55 55 	movabs r14,0x5555555c1908
    2ba6:	55 00 00 
    2ba9:	4d 8d 6d f8          	lea    r13,[r13-0x8]
    2bad:	4d 89 75 00          	mov    QWORD PTR [r13+0x0],r14
    2bb1:	4c 89 7d 98          	mov    QWORD PTR [rbp-0x68],r15
    2bb5:	e9 c0 d4 ff ff       	jmp    0x7a
    2bba:	48 8b 43 70          	mov    rax,QWORD PTR [rbx+0x70]
    2bbe:	e9 bd fe ff ff       	jmp    0x2a80
    2bc3:	90                   	nop
    2bc4:	4d 8d 6d f8          	lea    r13,[r13-0x8]
    2bc8:	4c 8b 7d 98          	mov    r15,QWORD PTR [rbp-0x68]
    2bcc:	4d 89 7d 00          	mov    QWORD PTR [r13+0x0],r15
    2bd0:	4d 8d 6d f8          	lea    r13,[r13-0x8]
    2bd4:	4d 89 65 00          	mov    QWORD PTR [r13+0x0],r12
    2bd8:	49 89 fc             	mov    r12,rdi
    2bdb:	49 83 ed 08          	sub    r13,0x8
    2bdf:	48 8b 77 50          	mov    rsi,QWORD PTR [rdi+0x50]
    2be3:	48 f7 06 00 01 00 00 	test   QWORD PTR [rsi],0x100
    2bea:	4c 89 7d 98          	mov    QWORD PTR [rbp-0x68],r15
    2bee:	0f 85 9c 00 00 00    	jne    0x2c90
    2bf4:	49 83 bc 24 90 00 00 	cmp    QWORD PTR [r12+0x90],0x0
    2bfb:	00 00 
    2bfd:	74 24                	je     0x2c23
    2bff:	4c 89 e7             	mov    rdi,r12
    2c02:	49 bf 4d 19 5c 55 55 	movabs r15,0x5555555c194d
    2c09:	55 00 00 
    2c0c:	4d 8d 6d f8          	lea    r13,[r13-0x8]
    2c10:	4d 89 7d 00          	mov    QWORD PTR [r13+0x0],r15
    2c14:	e9 b0 c6 00 00       	jmp    0xf2c9
    2c19:	48 83 f8 fe          	cmp    rax,0xfffffffffffffffe
    2c1d:	0f 84 a7 00 00 00    	je     0x2cca
    2c23:	49 bf 5a 19 5c 55 55 	movabs r15,0x5555555c195a
    2c2a:	55 00 00 
    2c2d:	49 8d 87 2e 4a 0a 00 	lea    rax,[r15+0xa4a2e]
    2c34:	48 8b 00             	mov    rax,QWORD PTR [rax]
    2c37:	f0 48 83 28 01       	lock sub QWORD PTR [rax],0x1
    2c3c:	41 80 8c 24 e1 00 00 	or     BYTE PTR [r12+0xe1],0x20
    2c43:	00 20 
    2c45:	4c 8b 7d 98          	mov    r15,QWORD PTR [rbp-0x68]
    2c49:	4d 8b 7c 24 58       	mov    r15,QWORD PTR [r12+0x58]
    2c4e:	4c 89 e7             	mov    rdi,r12
    2c51:	49 be 75 19 5c 55 55 	movabs r14,0x5555555c1975
    2c58:	55 00 00 
    2c5b:	4d 8d 6d f8          	lea    r13,[r13-0x8]
    2c5f:	4d 89 75 00          	mov    QWORD PTR [r13+0x0],r14
    2c63:	4c 89 7d 98          	mov    QWORD PTR [rbp-0x68],r15
    2c67:	e9 31 c8 00 00       	jmp    0xf49d
    2c6c:	49 83 c5 08          	add    r13,0x8
    2c70:	4c 8b 7d 98          	mov    r15,QWORD PTR [rbp-0x68]
    2c74:	4c 89 ff             	mov    rdi,r15
    2c77:	4d 8b 65 00          	mov    r12,QWORD PTR [r13+0x0]
    2c7b:	4d 8d 6d 08          	lea    r13,[r13+0x8]
    2c7f:	4d 8b 7d 00          	mov    r15,QWORD PTR [r13+0x0]
    2c83:	4d 8d 6d 08          	lea    r13,[r13+0x8]
    2c87:	4c 89 7d 98          	mov    QWORD PTR [rbp-0x68],r15
    2c8b:	e9 3d dc ff ff       	jmp    0x8cd
    2c90:	44 8b 47 18          	mov    r8d,DWORD PTR [rdi+0x18]
    2c94:	49 bf 93 19 5c 55 55 	movabs r15,0x5555555c1993
    2c9b:	55 00 00 
    2c9e:	49 8d 8f 2f 78 07 00 	lea    rcx,[r15+0x7782f]
    2ca5:	31 d2                	xor    edx,edx
    2ca7:	31 c0                	xor    eax,eax
    2ca9:	bf 08 00 00 00       	mov    edi,0x8
    2cae:	49 bf a1 19 5c 55 55 	movabs r15,0x5555555c19a1
    2cb5:	55 00 00 
    2cb8:	4d 8d 6d f8          	lea    r13,[r13-0x8]
    2cbc:	4d 89 7d 00          	mov    QWORD PTR [r13+0x0],r15
    2cc0:	e9 b5 d3 ff ff       	jmp    0x7a
    2cc5:	e9 2a ff ff ff       	jmp    0x2bf4
    2cca:	49 8b 84 24 90 00 00 	mov    rax,QWORD PTR [r12+0x90]
    2cd1:	00 
    2cd2:	49 bf b6 19 5c 55 55 	movabs r15,0x5555555c19b6
    2cd9:	55 00 00 
    2cdc:	49 8d 97 6a ff ff ff 	lea    rdx,[r15-0x96]
    2ce3:	48 89 50 28          	mov    QWORD PTR [rax+0x28],rdx
    2ce7:	49 83 c5 08          	add    r13,0x8
    2ceb:	4d 8b 65 00          	mov    r12,QWORD PTR [r13+0x0]
    2cef:	4d 8d 6d 08          	lea    r13,[r13+0x8]
    2cf3:	4c 8b 7d 98          	mov    r15,QWORD PTR [rbp-0x68]
    2cf7:	4d 8b 7d 00          	mov    r15,QWORD PTR [r13+0x0]
    2cfb:	4d 8d 6d 08          	lea    r13,[r13+0x8]
    2cff:	4d 8b 75 00          	mov    r14,QWORD PTR [r13+0x0]
    2d03:	4d 8d 6d 08          	lea    r13,[r13+0x8]
    2d07:	e9 d2 bd 00 00       	jmp    0xeade
    2d0c:	90                   	nop
    2d0d:	4d 8d 6d f8          	lea    r13,[r13-0x8]
    2d11:	49 89 5d 00          	mov    QWORD PTR [r13+0x0],rbx
    2d15:	48 89 fb             	mov    rbx,rdi
    2d18:	48 85 f6             	test   rsi,rsi
    2d1b:	74 4c                	je     0x2d69
    2d1d:	48 8b 8b 68 04 00 00 	mov    rcx,QWORD PTR [rbx+0x468]
    2d24:	48 c7 46 08 00 00 00 	mov    QWORD PTR [rsi+0x8],0x0
    2d2b:	00 
    2d2c:	48 89 1e             	mov    QWORD PTR [rsi],rbx
    2d2f:	48 8b 91 88 04 00 00 	mov    rdx,QWORD PTR [rcx+0x488]
    2d36:	48 85 d2             	test   rdx,rdx
    2d39:	74 72                	je     0x2dad
    2d3b:	90                   	nop
    2d3c:	48 89 d1             	mov    rcx,rdx
    2d3f:	48 8b 52 08          	mov    rdx,QWORD PTR [rdx+0x8]
    2d43:	48 85 d2             	test   rdx,rdx
    2d46:	75 f4                	jne    0x2d3c
    2d48:	48 83 c1 08          	add    rcx,0x8
    2d4c:	48 89 31             	mov    QWORD PTR [rcx],rsi
    2d4f:	31 c0                	xor    eax,eax
    2d51:	49 8b 5d 00          	mov    rbx,QWORD PTR [r13+0x0]
    2d55:	4d 8d 6d 08          	lea    r13,[r13+0x8]
    2d59:	4d 8b 7d 00          	mov    r15,QWORD PTR [r13+0x0]
    2d5d:	4d 8d 6d 08          	lea    r13,[r13+0x8]
    2d61:	4d 89 fe             	mov    r14,r15
    2d64:	e9 aa bf 00 00       	jmp    0xed13
    2d69:	48 8b 7f 58          	mov    rdi,QWORD PTR [rdi+0x58]
    2d6d:	be 10 00 00 00       	mov    esi,0x10
    2d72:	49 bf de 28 5c 55 55 	movabs r15,0x5555555c28de
    2d79:	55 00 00 
    2d7c:	4d 8d 6d f8          	lea    r13,[r13-0x8]
    2d80:	4d 89 7d 00          	mov    QWORD PTR [r13+0x0],r15
    2d84:	e9 36 c9 00 00       	jmp    0xf6bf
    2d89:	48 89 c6             	mov    rsi,rax
    2d8c:	48 85 c0             	test   rax,rax
    2d8f:	75 8c                	jne    0x2d1d
    2d91:	48 83 c8 ff          	or     rax,0xffffffffffffffff
    2d95:	49 8b 5d 00          	mov    rbx,QWORD PTR [r13+0x0]
    2d99:	4d 8d 6d 08          	lea    r13,[r13+0x8]
    2d9d:	4d 8b 7d 00          	mov    r15,QWORD PTR [r13+0x0]
    2da1:	4d 8d 6d 08          	lea    r13,[r13+0x8]
    2da5:	4d 89 fe             	mov    r14,r15
    2da8:	e9 c1 bf 00 00       	jmp    0xed6e
    2dad:	48 81 c1 88 04 00 00 	add    rcx,0x488
    2db4:	eb 96                	jmp    0x2d4c
    2db6:	90                   	nop
    2db7:	4d 8d 6d f8          	lea    r13,[r13-0x8]
    2dbb:	4c 8b 7d a0          	mov    r15,QWORD PTR [rbp-0x60]
    2dbf:	4d 89 7d 00          	mov    QWORD PTR [r13+0x0],r15
    2dc3:	49 89 f7             	mov    r15,rsi
    2dc6:	4d 8d 6d f8          	lea    r13,[r13-0x8]
    2dca:	4c 8b 75 98          	mov    r14,QWORD PTR [rbp-0x68]
    2dce:	4d 89 75 00          	mov    QWORD PTR [r13+0x0],r14
    2dd2:	4d 8d 6d f8          	lea    r13,[r13-0x8]
    2dd6:	4d 89 65 00          	mov    QWORD PTR [r13+0x0],r12
    2dda:	49 89 fc             	mov    r12,rdi
    2ddd:	4d 8d 6d f8          	lea    r13,[r13-0x8]
    2de1:	49 89 5d 00          	mov    QWORD PTR [r13+0x0],rbx
    2de5:	49 83 ed 18          	sub    r13,0x18
    2de9:	4c 89 7d a0          	mov    QWORD PTR [rbp-0x60],r15
    2ded:	4c 8b 7d 88          	mov    r15,QWORD PTR [rbp-0x78]
    2df1:	49 8b 47 28          	mov    rax,QWORD PTR [r15+0x28]
    2df5:	49 89 45 08          	mov    QWORD PTR [r13+0x8],rax
    2df9:	31 c0                	xor    eax,eax
    2dfb:	48 8b 47 08          	mov    rax,QWORD PTR [rdi+0x8]
    2dff:	4c 8b 70 50          	mov    r14,QWORD PTR [rax+0x50]
    2e03:	49 f7 06 00 01 00 00 	test   QWORD PTR [r14],0x100
    2e0a:	4c 89 75 98          	mov    QWORD PTR [rbp-0x68],r14
    2e0e:	0f 85 35 02 00 00    	jne    0x3049
    2e14:	49 83 7c 24 58 00    	cmp    QWORD PTR [r12+0x58],0x0
    2e1a:	0f 84 71 02 00 00    	je     0x3091
    2e20:	49 8b 9c 24 08 05 00 	mov    rbx,QWORD PTR [r12+0x508]
    2e27:	00 
    2e28:	49 c7 84 24 08 05 00 	mov    QWORD PTR [r12+0x508],0x0
    2e2f:	00 00 00 00 00 
    2e34:	48 85 db             	test   rbx,rbx
    2e37:	74 38                	je     0x2e71
    2e39:	90                   	nop
    2e3a:	48 8b 03             	mov    rax,QWORD PTR [rbx]
    2e3d:	48 85 c0             	test   rax,rax
    2e40:	74 26                	je     0x2e68
    2e42:	48 8b 7b 08          	mov    rdi,QWORD PTR [rbx+0x8]
    2e46:	49 bf 1e 2a 5c 55 55 	movabs r15,0x5555555c2a1e
    2e4d:	55 00 00 
    2e50:	4d 8d 6d f8          	lea    r13,[r13-0x8]
    2e54:	4d 89 7d 00          	mov    QWORD PTR [r13+0x0],r15
    2e58:	4c 8b 34 25 00 00 00 	mov    r14,QWORD PTR ds:0x0
    2e5f:	00 
    2e60:	49 89 c6             	mov    r14,rax
    2e63:	e9 f1 b9 00 00       	jmp    0xe859
    2e68:	48 8b 5b 10          	mov    rbx,QWORD PTR [rbx+0x10]
    2e6c:	48 85 db             	test   rbx,rbx
    2e6f:	75 c9                	jne    0x2e3a
    2e71:	41 0f b6 84 24 1d 05 	movzx  eax,BYTE PTR [r12+0x51d]
    2e78:	00 00 
    2e7a:	a8 10                	test   al,0x10
    2e7c:	0f 85 80 02 00 00    	jne    0x3102
    2e82:	a8 20                	test   al,0x20
    2e84:	0f 85 5a 02 00 00    	jne    0x30e4
    2e8a:	4c 8b 7d a0          	mov    r15,QWORD PTR [rbp-0x60]
    2e8e:	4d 85 ff             	test   r15,r15
    2e91:	4c 89 7d a0          	mov    QWORD PTR [rbp-0x60],r15
    2e95:	7e 27                	jle    0x2ebe
    2e97:	49 83 bc 24 88 02 00 	cmp    QWORD PTR [r12+0x288],0x0
    2e9e:	00 00 
    2ea0:	74 0c                	je     0x2eae
    2ea2:	49 8b 44 24 08       	mov    rax,QWORD PTR [r12+0x8]
    2ea7:	48 83 78 48 00       	cmp    QWORD PTR [rax+0x48],0x0
    2eac:	75 10                	jne    0x2ebe
    2eae:	4c 8b 7d a0          	mov    r15,QWORD PTR [rbp-0x60]
    2eb2:	4d 89 bc 24 88 02 00 	mov    QWORD PTR [r12+0x288],r15
    2eb9:	00 
    2eba:	4c 89 7d a0          	mov    QWORD PTR [rbp-0x60],r15
    2ebe:	41 80 bc 24 1b 05 00 	cmp    BYTE PTR [r12+0x51b],0x0
    2ec5:	00 00 
    2ec7:	0f 89 40 01 00 00    	jns    0x300d
    2ecd:	49 bf 73 2a 5c 55 55 	movabs r15,0x5555555c2a73
    2ed4:	55 00 00 
    2ed7:	49 8d 87 71 68 07 00 	lea    rax,[r15+0x76871]
    2ede:	4c 8b 7d 98          	mov    r15,QWORD PTR [rbp-0x68]
    2ee2:	49 89 47 40          	mov    QWORD PTR [r15+0x40],rax
    2ee6:	49 8b 44 24 08       	mov    rax,QWORD PTR [r12+0x8]
    2eeb:	f6 80 e1 00 00 00 08 	test   BYTE PTR [rax+0xe1],0x8
    2ef2:	4c 89 7d 98          	mov    QWORD PTR [rbp-0x68],r15
    2ef6:	0f 85 9e 00 00 00    	jne    0x2f9a
    2efc:	4c 8b 7d 98          	mov    r15,QWORD PTR [rbp-0x68]
    2f00:	49 8b 57 28          	mov    rdx,QWORD PTR [r15+0x28]
    2f04:	48 c7 42 08 00 00 00 	mov    QWORD PTR [rdx+0x8],0x0
    2f0b:	00 
    2f0c:	49 c7 84 24 e0 03 00 	mov    QWORD PTR [r12+0x3e0],0x0
    2f13:	00 00 00 00 00 
    2f18:	80 88 e1 00 00 00 20 	or     BYTE PTR [rax+0xe1],0x20
    2f1f:	49 8b 7c 24 58       	mov    rdi,QWORD PTR [r12+0x58]
    2f24:	49 c7 44 24 58 00 00 	mov    QWORD PTR [r12+0x58],0x0
    2f2b:	00 00 
    2f2d:	49 be b5 2a 5c 55 55 	movabs r14,0x5555555c2ab5
    2f34:	55 00 00 
    2f37:	4d 8d 6d f8          	lea    r13,[r13-0x8]
    2f3b:	4d 89 75 00          	mov    QWORD PTR [r13+0x0],r14
    2f3f:	4c 89 7d 98          	mov    QWORD PTR [rbp-0x68],r15
    2f43:	e9 85 d9 ff ff       	jmp    0x8cd
    2f48:	49 8b 45 08          	mov    rax,QWORD PTR [r13+0x8]
    2f4c:	4c 8b 7d 88          	mov    r15,QWORD PTR [rbp-0x78]
    2f50:	49 33 47 28          	xor    rax,QWORD PTR [r15+0x28]
    2f54:	0f 85 39 02 00 00    	jne    0x3193
    2f5a:	49 83 c5 18          	add    r13,0x18
    2f5e:	49 8b 5d 00          	mov    rbx,QWORD PTR [r13+0x0]
    2f62:	4d 8d 6d 08          	lea    r13,[r13+0x8]
    2f66:	4d 8b 65 00          	mov    r12,QWORD PTR [r13+0x0]
    2f6a:	4d 8d 6d 08          	lea    r13,[r13+0x8]
    2f6e:	4c 8b 7d 98          	mov    r15,QWORD PTR [rbp-0x68]
    2f72:	4d 8b 7d 00          	mov    r15,QWORD PTR [r13+0x0]
    2f76:	4d 8d 6d 08          	lea    r13,[r13+0x8]
    2f7a:	4c 8b 75 a0          	mov    r14,QWORD PTR [rbp-0x60]
    2f7e:	4d 8b 75 00          	mov    r14,QWORD PTR [r13+0x0]
    2f82:	4d 8d 6d 08          	lea    r13,[r13+0x8]
    2f86:	4c 89 7d 98          	mov    QWORD PTR [rbp-0x68],r15
    2f8a:	4d 8b 7d 00          	mov    r15,QWORD PTR [r13+0x0]
    2f8e:	4d 8d 6d 08          	lea    r13,[r13+0x8]
    2f92:	4d 89 fe             	mov    r14,r15
    2f95:	e9 77 b8 00 00       	jmp    0xe811
    2f9a:	49 bf df 2a 5c 55 55 	movabs r15,0x5555555c2adf
    2fa1:	55 00 00 
    2fa4:	49 8d 97 a1 46 0a 00 	lea    rdx,[r15+0xa46a1]
    2fab:	48 8b 0a             	mov    rcx,QWORD PTR [rdx]
    2fae:	49 8b 54 24 28       	mov    rdx,QWORD PTR [r12+0x28]
    2fb3:	48 8b 14 ca          	mov    rdx,QWORD PTR [rdx+rcx*8]
    2fb7:	48 83 ba c8 01 00 00 	cmp    QWORD PTR [rdx+0x1c8],0x0
    2fbe:	00 
    2fbf:	0f 84 37 ff ff ff    	je     0x2efc
    2fc5:	8b 78 18             	mov    edi,DWORD PTR [rax+0x18]
    2fc8:	4c 89 e9             	mov    rcx,r13
    2fcb:	ba 0d 00 00 00       	mov    edx,0xd
    2fd0:	be 01 00 00 00       	mov    esi,0x1
    2fd5:	41 b8 08 00 00 00    	mov    r8d,0x8
    2fdb:	49 c7 45 00 01 00 00 	mov    QWORD PTR [r13+0x0],0x1
    2fe2:	00 
    2fe3:	49 bf 17 2b 5c 55 55 	movabs r15,0x5555555c2b17
    2fea:	55 00 00 
    2fed:	4d 8d 6d f8          	lea    r13,[r13-0x8]
    2ff1:	4d 89 7d 00          	mov    QWORD PTR [r13+0x0],r15
    2ff5:	e9 6b c3 00 00       	jmp    0xf365
    2ffa:	83 f8 ff             	cmp    eax,0xffffffff
    2ffd:	0f 84 26 01 00 00    	je     0x3129
    3003:	49 8b 44 24 08       	mov    rax,QWORD PTR [r12+0x8]
    3008:	e9 ef fe ff ff       	jmp    0x2efc
    300d:	49 bf 37 2b 5c 55 55 	movabs r15,0x5555555c2b37
    3014:	55 00 00 
    3017:	49 8d 87 9d 67 07 00 	lea    rax,[r15+0x7679d]
    301e:	4c 89 e7             	mov    rdi,r12
    3021:	4c 8b 7d 98          	mov    r15,QWORD PTR [rbp-0x68]
    3025:	49 89 47 40          	mov    QWORD PTR [r15+0x40],rax
    3029:	49 be 44 2b 5c 55 55 	movabs r14,0x5555555c2b44
    3030:	55 00 00 
    3033:	4d 8d 6d f8          	lea    r13,[r13-0x8]
    3037:	4d 89 75 00          	mov    QWORD PTR [r13+0x0],r14
    303b:	4c 89 7d 98          	mov    QWORD PTR [rbp-0x68],r15
    303f:	e9 09 f9 ff ff       	jmp    0x294d
    3044:	e9 84 fe ff ff       	jmp    0x2ecd
    3049:	31 d2                	xor    edx,edx
    304b:	31 c0                	xor    eax,eax
    304d:	49 bf 5b 2b 5c 55 55 	movabs r15,0x5555555c2b5b
    3054:	55 00 00 
    3057:	49 8d 8f 4a 67 07 00 	lea    rcx,[r15+0x7674a]
    305e:	4c 8b 7d 98          	mov    r15,QWORD PTR [rbp-0x68]
    3062:	4c 89 fe             	mov    rsi,r15
    3065:	bf 08 00 00 00       	mov    edi,0x8
    306a:	49 be 68 2b 5c 55 55 	movabs r14,0x5555555c2b68
    3071:	55 00 00 
    3074:	4d 8d 6d f8          	lea    r13,[r13-0x8]
    3078:	4d 89 75 00          	mov    QWORD PTR [r13+0x0],r14
    307c:	4c 89 7d 98          	mov    QWORD PTR [rbp-0x68],r15
    3080:	e9 f5 cf ff ff       	jmp    0x7a
    3085:	49 83 7c 24 58 00    	cmp    QWORD PTR [r12+0x58],0x0
    308b:	0f 85 8f fd ff ff    	jne    0x2e20
    3091:	4c 8b 7d 98          	mov    r15,QWORD PTR [rbp-0x68]
    3095:	49 83 3f 01          	cmp    QWORD PTR [r15],0x1
    3099:	4c 89 7d 98          	mov    QWORD PTR [rbp-0x68],r15
    309d:	0f 86 a5 fe ff ff    	jbe    0x2f48
    30a3:	49 bf 85 2b 5c 55 55 	movabs r15,0x5555555c2b85
    30aa:	55 00 00 
    30ad:	49 8d 8f 33 67 07 00 	lea    rcx,[r15+0x76733]
    30b4:	31 d2                	xor    edx,edx
    30b6:	4c 8b 7d 98          	mov    r15,QWORD PTR [rbp-0x68]
    30ba:	4c 89 fe             	mov    rsi,r15
    30bd:	31 c0                	xor    eax,eax
    30bf:	bf 02 00 00 00       	mov    edi,0x2
    30c4:	49 be 96 2b 5c 55 55 	movabs r14,0x5555555c2b96
    30cb:	55 00 00 
    30ce:	4d 8d 6d f8          	lea    r13,[r13-0x8]
    30d2:	4d 89 75 00          	mov    QWORD PTR [r13+0x0],r14
    30d6:	4c 89 7d 98          	mov    QWORD PTR [rbp-0x68],r15
    30da:	e9 9b cf ff ff       	jmp    0x7a
    30df:	e9 64 fe ff ff       	jmp    0x2f48
    30e4:	49 bf a7 2b 5c 55 55 	movabs r15,0x5555555c2ba7
    30eb:	55 00 00 
    30ee:	49 8d 87 d1 37 0a 00 	lea    rax,[r15+0xa37d1]
    30f5:	48 8b 00             	mov    rax,QWORD PTR [rax]
    30f8:	f0 48 83 28 01       	lock sub QWORD PTR [rax],0x1
    30fd:	e9 88 fd ff ff       	jmp    0x2e8a
    3102:	49 bf bf 2b 5c 55 55 	movabs r15,0x5555555c2bbf
    3109:	55 00 00 
    310c:	49 8d 87 c1 37 0a 00 	lea    rax,[r15+0xa37c1]
    3113:	48 8b 00             	mov    rax,QWORD PTR [rax]
    3116:	f0 48 83 28 01       	lock sub QWORD PTR [rax],0x1
    311b:	41 0f b6 84 24 1d 05 	movzx  eax,BYTE PTR [r12+0x51d]
    3122:	00 00 
    3124:	e9 59 fd ff ff       	jmp    0x2e82
    3129:	4c 8b 7d 98          	mov    r15,QWORD PTR [rbp-0x68]
    312d:	49 83 3f 01          	cmp    QWORD PTR [r15],0x1
    3131:	4c 89 7d 98          	mov    QWORD PTR [rbp-0x68],r15
    3135:	0f 86 c8 fe ff ff    	jbe    0x3003
    313b:	49 bf e3 2b 5c 55 55 	movabs r15,0x5555555c2be3
    3142:	55 00 00 
    3145:	4d 8d 6d f8          	lea    r13,[r13-0x8]
    3149:	4d 89 7d 00          	mov    QWORD PTR [r13+0x0],r15
    314d:	e9 5d c1 00 00       	jmp    0xf2af
    3152:	49 bf ea 2b 5c 55 55 	movabs r15,0x5555555c2bea
    3159:	55 00 00 
    315c:	49 8d 8f 0a 67 07 00 	lea    rcx,[r15+0x7670a]
    3163:	4c 8b 7d 98          	mov    r15,QWORD PTR [rbp-0x68]
    3167:	4c 89 fe             	mov    rsi,r15
    316a:	bf 02 00 00 00       	mov    edi,0x2
    316f:	8b 10                	mov    edx,DWORD PTR [rax]
    3171:	31 c0                	xor    eax,eax
    3173:	49 be fb 2b 5c 55 55 	movabs r14,0x5555555c2bfb
    317a:	55 00 00 
    317d:	4d 8d 6d f8          	lea    r13,[r13-0x8]
    3181:	4d 89 75 00          	mov    QWORD PTR [r13+0x0],r14
    3185:	4c 89 7d 98          	mov    QWORD PTR [rbp-0x68],r15
    3189:	e9 ec ce ff ff       	jmp    0x7a
    318e:	e9 70 fe ff ff       	jmp    0x3003
    3193:	49 bf 05 2c 5c 55 55 	movabs r15,0x5555555c2c05
    319a:	55 00 00 
    319d:	4d 8d 6d f8          	lea    r13,[r13-0x8]
    31a1:	4d 89 7d 00          	mov    QWORD PTR [r13+0x0],r15
    31a5:	e9 95 be 00 00       	jmp    0xf03f
    31aa:	90                   	nop
    31ab:	4d 8d 6d f8          	lea    r13,[r13-0x8]
    31af:	4c 8b 7d a0          	mov    r15,QWORD PTR [rbp-0x60]
    31b3:	4d 89 7d 00          	mov    QWORD PTR [r13+0x0],r15
    31b7:	4d 8d 6d f8          	lea    r13,[r13-0x8]
    31bb:	4c 8b 75 98          	mov    r14,QWORD PTR [rbp-0x68]
    31bf:	4d 89 75 00          	mov    QWORD PTR [r13+0x0],r14
    31c3:	49 89 f6             	mov    r14,rsi
    31c6:	4d 8d 6d f8          	lea    r13,[r13-0x8]
    31ca:	4d 89 65 00          	mov    QWORD PTR [r13+0x0],r12
    31ce:	4c 8b 7f 08          	mov    r15,QWORD PTR [rdi+0x8]
    31d2:	49 89 fc             	mov    r12,rdi
    31d5:	44 0f b7 87 10 05 00 	movzx  r8d,WORD PTR [rdi+0x510]
    31dc:	00 
    31dd:	49 8b 77 50          	mov    rsi,QWORD PTR [r15+0x50]
    31e1:	48 f7 06 00 01 00 00 	test   QWORD PTR [rsi],0x100
    31e8:	4c 89 7d a0          	mov    QWORD PTR [rbp-0x60],r15
    31ec:	4c 89 75 98          	mov    QWORD PTR [rbp-0x68],r14
    31f0:	0f 85 3d 01 00 00    	jne    0x3333
    31f6:	66 45 85 c0          	test   r8w,r8w
    31fa:	75 16                	jne    0x3212
    31fc:	4c 8b 7d a0          	mov    r15,QWORD PTR [rbp-0x60]
    3200:	49 8b 77 50          	mov    rsi,QWORD PTR [r15+0x50]
    3204:	48 83 3e 01          	cmp    QWORD PTR [rsi],0x1
    3208:	4c 89 7d a0          	mov    QWORD PTR [rbp-0x60],r15
    320c:	0f 87 ae 00 00 00    	ja     0x32c0
    3212:	41 83 e8 01          	sub    r8d,0x1
    3216:	66 45 89 84 24 10 05 	mov    WORD PTR [r12+0x510],r8w
    321d:	00 00 
    321f:	41 f7 84 24 10 05 00 	test   DWORD PTR [r12+0x510],0xff00ffff
    3226:	00 ff ff 00 ff 
    322b:	0f 85 ce 00 00 00    	jne    0x32ff
    3231:	49 8b bc 24 f8 04 00 	mov    rdi,QWORD PTR [r12+0x4f8]
    3238:	00 
    3239:	4c 8b 7d 98          	mov    r15,QWORD PTR [rbp-0x68]
    323d:	4c 89 fe             	mov    rsi,r15
    3240:	48 85 ff             	test   rdi,rdi
    3243:	4c 89 7d 98          	mov    QWORD PTR [rbp-0x68],r15
    3247:	74 2d                	je     0x3276
    3249:	4d 8b 65 00          	mov    r12,QWORD PTR [r13+0x0]
    324d:	4d 8d 6d 08          	lea    r13,[r13+0x8]
    3251:	4c 8b 7d 98          	mov    r15,QWORD PTR [rbp-0x68]
    3255:	4d 8b 7d 00          	mov    r15,QWORD PTR [r13+0x0]
    3259:	4d 8d 6d 08          	lea    r13,[r13+0x8]
    325d:	4c 8b 75 a0          	mov    r14,QWORD PTR [rbp-0x60]
    3261:	4d 8b 75 00          	mov    r14,QWORD PTR [r13+0x0]
    3265:	4d 8d 6d 08          	lea    r13,[r13+0x8]
    3269:	4c 89 7d 98          	mov    QWORD PTR [rbp-0x68],r15
    326d:	4c 89 75 a0          	mov    QWORD PTR [rbp-0x60],r14
    3271:	e9 54 86 00 00       	jmp    0xb8ca
    3276:	4c 89 e7             	mov    rdi,r12
    3279:	49 bf 88 2c 5c 55 55 	movabs r15,0x5555555c2c88
    3280:	55 00 00 
    3283:	4d 8d 6d f8          	lea    r13,[r13-0x8]
    3287:	4d 89 7d 00          	mov    QWORD PTR [r13+0x0],r15
    328b:	e9 26 fb ff ff       	jmp    0x2db6
    3290:	4d 8b 65 00          	mov    r12,QWORD PTR [r13+0x0]
    3294:	4d 8d 6d 08          	lea    r13,[r13+0x8]
    3298:	4c 8b 7d a0          	mov    r15,QWORD PTR [rbp-0x60]
    329c:	4c 89 ff             	mov    rdi,r15
    329f:	4c 8b 75 98          	mov    r14,QWORD PTR [rbp-0x68]
    32a3:	4d 8b 75 00          	mov    r14,QWORD PTR [r13+0x0]
    32a7:	4d 8d 6d 08          	lea    r13,[r13+0x8]
    32ab:	4d 8b 7d 00          	mov    r15,QWORD PTR [r13+0x0]
    32af:	4d 8d 6d 08          	lea    r13,[r13+0x8]
    32b3:	4c 89 7d a0          	mov    QWORD PTR [rbp-0x60],r15
    32b7:	4c 89 75 98          	mov    QWORD PTR [rbp-0x68],r14
    32bb:	e9 03 f9 ff ff       	jmp    0x2bc3
    32c0:	49 bf 9f 2c 5c 55 55 	movabs r15,0x5555555c2c9f
    32c7:	55 00 00 
    32ca:	49 8d 8f 8f 66 07 00 	lea    rcx,[r15+0x7668f]
    32d1:	31 d2                	xor    edx,edx
    32d3:	bf 02 00 00 00       	mov    edi,0x2
    32d8:	31 c0                	xor    eax,eax
    32da:	49 bf ad 2c 5c 55 55 	movabs r15,0x5555555c2cad
    32e1:	55 00 00 
    32e4:	4d 8d 6d f8          	lea    r13,[r13-0x8]
    32e8:	4d 89 7d 00          	mov    QWORD PTR [r13+0x0],r15
    32ec:	e9 89 cd ff ff       	jmp    0x7a
    32f1:	45 0f b7 84 24 10 05 	movzx  r8d,WORD PTR [r12+0x510]
    32f8:	00 00 
    32fa:	e9 13 ff ff ff       	jmp    0x3212
    32ff:	4d 8b 65 00          	mov    r12,QWORD PTR [r13+0x0]
    3303:	4d 8d 6d 08          	lea    r13,[r13+0x8]
    3307:	4c 8b 7d 98          	mov    r15,QWORD PTR [rbp-0x68]
    330b:	4d 8b 7d 00          	mov    r15,QWORD PTR [r13+0x0]
    330f:	4d 8d 6d 08          	lea    r13,[r13+0x8]
    3313:	4c 8b 75 a0          	mov    r14,QWORD PTR [rbp-0x60]
    3317:	4d 8b 75 00          	mov    r14,QWORD PTR [r13+0x0]
    331b:	4d 8d 6d 08          	lea    r13,[r13+0x8]
    331f:	4c 89 7d 98          	mov    QWORD PTR [rbp-0x68],r15
    3323:	4d 8b 7d 00          	mov    r15,QWORD PTR [r13+0x0]
    3327:	4d 8d 6d 08          	lea    r13,[r13+0x8]
    332b:	4d 89 fe             	mov    r14,r15
    332e:	e9 35 b5 00 00       	jmp    0xe868
    3333:	44 0f b6 8f 13 05 00 	movzx  r9d,BYTE PTR [rdi+0x513]
    333a:	00 
    333b:	49 bf df 2c 5c 55 55 	movabs r15,0x5555555c2cdf
    3342:	55 00 00 
    3345:	49 8d 8f 32 66 07 00 	lea    rcx,[r15+0x76632]
    334c:	31 d2                	xor    edx,edx
    334e:	bf 08 00 00 00       	mov    edi,0x8
    3353:	31 c0                	xor    eax,eax
    3355:	49 bf ed 2c 5c 55 55 	movabs r15,0x5555555c2ced
    335c:	55 00 00 
    335f:	4d 8d 6d f8          	lea    r13,[r13-0x8]
    3363:	4d 89 7d 00          	mov    QWORD PTR [r13+0x0],r15
    3367:	e9 0e cd ff ff       	jmp    0x7a
    336c:	45 0f b7 84 24 10 05 	movzx  r8d,WORD PTR [r12+0x510]
    3373:	00 00 
    3375:	e9 7c fe ff ff       	jmp    0x31f6
    337a:	4d 8d 6d f8          	lea    r13,[r13-0x8]
    337e:	4c 8b 7d a0          	mov    r15,QWORD PTR [rbp-0x60]
    3382:	4d 89 7d 00          	mov    QWORD PTR [r13+0x0],r15
    3386:	49 89 f7             	mov    r15,rsi
    3389:	4d 8d 6d f8          	lea    r13,[r13-0x8]
    338d:	4c 8b 75 98          	mov    r14,QWORD PTR [rbp-0x68]
    3391:	4d 89 75 00          	mov    QWORD PTR [r13+0x0],r14
    3395:	49 89 fe             	mov    r14,rdi
    3398:	4d 8d 6d f8          	lea    r13,[r13-0x8]
    339c:	4d 89 65 00          	mov    QWORD PTR [r13+0x0],r12
    33a0:	4d 8d 6d f8          	lea    r13,[r13-0x8]
    33a4:	49 89 5d 00          	mov    QWORD PTR [r13+0x0],rbx
    33a8:	49 83 ed 08          	sub    r13,0x8
    33ac:	48 8b 47 08          	mov    rax,QWORD PTR [rdi+0x8]
    33b0:	4c 8b a7 68 04 00 00 	mov    r12,QWORD PTR [rdi+0x468]
    33b7:	48 8b 70 50          	mov    rsi,QWORD PTR [rax+0x50]
    33bb:	48 f7 06 00 01 00 00 	test   QWORD PTR [rsi],0x100
    33c2:	4c 89 7d a0          	mov    QWORD PTR [rbp-0x60],r15
    33c6:	4c 89 75 98          	mov    QWORD PTR [rbp-0x68],r14
    33ca:	0f 85 3a 01 00 00    	jne    0x350a
    33d0:	4c 8b 7d a0          	mov    r15,QWORD PTR [rbp-0x60]
    33d4:	4d 85 ff             	test   r15,r15
    33d7:	4c 89 7d a0          	mov    QWORD PTR [rbp-0x60],r15
    33db:	7e 1f                	jle    0x33fc
    33dd:	49 83 bc 24 88 02 00 	cmp    QWORD PTR [r12+0x288],0x0
    33e4:	00 00 
    33e6:	0f 85 f9 00 00 00    	jne    0x34e5
    33ec:	4c 8b 7d a0          	mov    r15,QWORD PTR [rbp-0x60]
    33f0:	4d 89 bc 24 88 02 00 	mov    QWORD PTR [r12+0x288],r15
    33f7:	00 
    33f8:	4c 89 7d a0          	mov    QWORD PTR [rbp-0x60],r15
    33fc:	49 8b 9c 24 08 05 00 	mov    rbx,QWORD PTR [r12+0x508]
    3403:	00 
    3404:	49 c7 84 24 08 05 00 	mov    QWORD PTR [r12+0x508],0x0
    340b:	00 00 00 00 00 
    3410:	48 85 db             	test   rbx,rbx
    3413:	74 38                	je     0x344d
    3415:	90                   	nop
    3416:	48 8b 03             	mov    rax,QWORD PTR [rbx]
    3419:	48 85 c0             	test   rax,rax
    341c:	74 26                	je     0x3444
    341e:	48 8b 7b 08          	mov    rdi,QWORD PTR [rbx+0x8]
    3422:	49 bf fe 2d 5c 55 55 	movabs r15,0x5555555c2dfe
    3429:	55 00 00 
    342c:	4d 8d 6d f8          	lea    r13,[r13-0x8]
    3430:	4d 89 7d 00          	mov    QWORD PTR [r13+0x0],r15
    3434:	4c 8b 34 25 00 00 00 	mov    r14,QWORD PTR ds:0x0
    343b:	00 
    343c:	49 89 c6             	mov    r14,rax
    343f:	e9 c0 b8 00 00       	jmp    0xed04
    3444:	48 8b 5b 10          	mov    rbx,QWORD PTR [rbx+0x10]
    3448:	48 85 db             	test   rbx,rbx
    344b:	75 c9                	jne    0x3416
    344d:	4c 8b 7d 98          	mov    r15,QWORD PTR [rbp-0x68]
    3451:	49 8b 47 08          	mov    rax,QWORD PTR [r15+0x8]
    3455:	48 8b 70 50          	mov    rsi,QWORD PTR [rax+0x50]
    3459:	48 f7 06 00 01 00 00 	test   QWORD PTR [rsi],0x100
    3460:	4c 89 7d 98          	mov    QWORD PTR [rbp-0x68],r15
    3464:	0f 85 df 00 00 00    	jne    0x3549
    346a:	49 83 7c 24 38 00    	cmp    QWORD PTR [r12+0x38],0x0
    3470:	0f 84 22 01 00 00    	je     0x3598
    3476:	41 80 bc 24 13 05 00 	cmp    BYTE PTR [r12+0x513],0x0
    347d:	00 00 
    347f:	0f 84 57 01 00 00    	je     0x35dc
    3485:	4c 8b 7d 98          	mov    r15,QWORD PTR [rbp-0x68]
    3489:	49 8b 47 08          	mov    rax,QWORD PTR [r15+0x8]
    348d:	80 88 e1 00 00 00 10 	or     BYTE PTR [rax+0xe1],0x10
    3494:	49 be 48 2e 5c 55 55 	movabs r14,0x5555555c2e48
    349b:	55 00 00 
    349e:	49 8d 86 28 3e 00 00 	lea    rax,[r14+0x3e28]
    34a5:	49 89 47 38          	mov    QWORD PTR [r15+0x38],rax
    34a9:	49 83 c5 08          	add    r13,0x8
    34ad:	49 8b 5d 00          	mov    rbx,QWORD PTR [r13+0x0]
    34b1:	4d 8d 6d 08          	lea    r13,[r13+0x8]
    34b5:	4d 8b 65 00          	mov    r12,QWORD PTR [r13+0x0]
    34b9:	4d 8d 6d 08          	lea    r13,[r13+0x8]
    34bd:	4d 8b 7d 00          	mov    r15,QWORD PTR [r13+0x0]
    34c1:	4d 8d 6d 08          	lea    r13,[r13+0x8]
    34c5:	4c 8b 75 a0          	mov    r14,QWORD PTR [rbp-0x60]
    34c9:	4d 8b 75 00          	mov    r14,QWORD PTR [r13+0x0]
    34cd:	4d 8d 6d 08          	lea    r13,[r13+0x8]
    34d1:	4c 89 7d 98          	mov    QWORD PTR [rbp-0x68],r15
    34d5:	4d 8b 7d 00          	mov    r15,QWORD PTR [r13+0x0]
    34d9:	4d 8d 6d 08          	lea    r13,[r13+0x8]
    34dd:	4d 89 fe             	mov    r14,r15
    34e0:	e9 2c b9 00 00       	jmp    0xee11
    34e5:	49 8b 44 24 08       	mov    rax,QWORD PTR [r12+0x8]
    34ea:	48 83 78 48 00       	cmp    QWORD PTR [rax+0x48],0x0
    34ef:	0f 85 07 ff ff ff    	jne    0x33fc
    34f5:	4c 8b 7d a0          	mov    r15,QWORD PTR [rbp-0x60]
    34f9:	4d 89 bc 24 88 02 00 	mov    QWORD PTR [r12+0x288],r15
    3500:	00 
    3501:	4c 89 7d a0          	mov    QWORD PTR [rbp-0x60],r15
    3505:	e9 f2 fe ff ff       	jmp    0x33fc
    350a:	49 bf 87 2e 5c 55 55 	movabs r15,0x5555555c2e87
    3511:	55 00 00 
    3514:	49 8d 8f b1 69 07 00 	lea    rcx,[r15+0x769b1]
    351b:	31 d2                	xor    edx,edx
    351d:	bf 08 00 00 00       	mov    edi,0x8
    3522:	31 c0                	xor    eax,eax
    3524:	45 0f b7 84 24 10 05 	movzx  r8d,WORD PTR [r12+0x510]
    352b:	00 00 
    352d:	49 bf 9d 2e 5c 55 55 	movabs r15,0x5555555c2e9d
    3534:	55 00 00 
    3537:	4d 8d 6d f8          	lea    r13,[r13-0x8]
    353b:	4d 89 7d 00          	mov    QWORD PTR [r13+0x0],r15
    353f:	e9 36 cb ff ff       	jmp    0x7a
    3544:	e9 87 fe ff ff       	jmp    0x33d0
    3549:	31 d2                	xor    edx,edx
    354b:	31 c0                	xor    eax,eax
    354d:	49 bf b3 2e 5c 55 55 	movabs r15,0x5555555c2eb3
    3554:	55 00 00 
    3557:	49 8d 8f a5 69 07 00 	lea    rcx,[r15+0x769a5]
    355e:	bf 08 00 00 00       	mov    edi,0x8
    3563:	45 0f b6 8c 24 13 05 	movzx  r9d,BYTE PTR [r12+0x513]
    356a:	00 00 
    356c:	45 0f b7 84 24 10 05 	movzx  r8d,WORD PTR [r12+0x510]
    3573:	00 00 
    3575:	49 bf cd 2e 5c 55 55 	movabs r15,0x5555555c2ecd
    357c:	55 00 00 
    357f:	4d 8d 6d f8          	lea    r13,[r13-0x8]
    3583:	4d 89 7d 00          	mov    QWORD PTR [r13+0x0],r15
    3587:	e9 ee ca ff ff       	jmp    0x7a
    358c:	49 83 7c 24 38 00    	cmp    QWORD PTR [r12+0x38],0x0
    3592:	0f 85 de fe ff ff    	jne    0x3476
    3598:	49 8b bc 24 68 04 00 	mov    rdi,QWORD PTR [r12+0x468]
    359f:	00 
    35a0:	49 83 c5 08          	add    r13,0x8
    35a4:	4c 8b 7d a0          	mov    r15,QWORD PTR [rbp-0x60]
    35a8:	4c 89 fe             	mov    rsi,r15
    35ab:	49 8b 5d 00          	mov    rbx,QWORD PTR [r13+0x0]
    35af:	4d 8d 6d 08          	lea    r13,[r13+0x8]
    35b3:	4d 8b 65 00          	mov    r12,QWORD PTR [r13+0x0]
    35b7:	4d 8d 6d 08          	lea    r13,[r13+0x8]
    35bb:	4c 8b 75 98          	mov    r14,QWORD PTR [rbp-0x68]
    35bf:	4d 8b 75 00          	mov    r14,QWORD PTR [r13+0x0]
    35c3:	4d 8d 6d 08          	lea    r13,[r13+0x8]
    35c7:	4d 8b 7d 00          	mov    r15,QWORD PTR [r13+0x0]
    35cb:	4d 8d 6d 08          	lea    r13,[r13+0x8]
    35cf:	4c 89 7d a0          	mov    QWORD PTR [rbp-0x60],r15
    35d3:	4c 89 75 98          	mov    QWORD PTR [rbp-0x68],r14
    35d7:	e9 cf fb ff ff       	jmp    0x31ab
    35dc:	49 bf ff 2e 5c 55 55 	movabs r15,0x5555555c2eff
    35e3:	55 00 00 
    35e6:	49 8d 87 01 01 00 00 	lea    rax,[r15+0x101]
    35ed:	49 8d b4 24 78 05 00 	lea    rsi,[r12+0x578]
    35f4:	00 
    35f5:	4c 89 e7             	mov    rdi,r12
    35f8:	49 c7 84 24 88 04 00 	mov    QWORD PTR [r12+0x488],0x0
    35ff:	00 00 00 00 00 
    3604:	49 89 44 24 38       	mov    QWORD PTR [r12+0x38],rax
    3609:	49 83 c5 08          	add    r13,0x8
    360d:	49 8b 5d 00          	mov    rbx,QWORD PTR [r13+0x0]
    3611:	4d 8d 6d 08          	lea    r13,[r13+0x8]
    3615:	4d 8b 65 00          	mov    r12,QWORD PTR [r13+0x0]
    3619:	4d 8d 6d 08          	lea    r13,[r13+0x8]
    361d:	4c 8b 7d 98          	mov    r15,QWORD PTR [rbp-0x68]
    3621:	4d 8b 7d 00          	mov    r15,QWORD PTR [r13+0x0]
    3625:	4d 8d 6d 08          	lea    r13,[r13+0x8]
    3629:	4c 8b 75 a0          	mov    r14,QWORD PTR [rbp-0x60]
    362d:	4d 8b 75 00          	mov    r14,QWORD PTR [r13+0x0]
    3631:	4d 8d 6d 08          	lea    r13,[r13+0x8]
    3635:	4c 89 7d 98          	mov    QWORD PTR [rbp-0x68],r15
    3639:	4c 89 75 a0          	mov    QWORD PTR [rbp-0x60],r14
    363d:	e9 ca f6 ff ff       	jmp    0x2d0c
    3642:	90                   	nop
    3643:	4d 8d 6d f8          	lea    r13,[r13-0x8]
    3647:	4c 8b 7d b0          	mov    r15,QWORD PTR [rbp-0x50]
    364b:	4d 89 7d 00          	mov    QWORD PTR [r13+0x0],r15
    364f:	4d 8d 6d f8          	lea    r13,[r13-0x8]
    3653:	4c 8b 75 a8          	mov    r14,QWORD PTR [rbp-0x58]
    3657:	4d 89 75 00          	mov    QWORD PTR [r13+0x0],r14
    365b:	4d 8d 6d f8          	lea    r13,[r13-0x8]
    365f:	4c 89 7d b0          	mov    QWORD PTR [rbp-0x50],r15
    3663:	4c 8b 7d a0          	mov    r15,QWORD PTR [rbp-0x60]
    3667:	4d 89 7d 00          	mov    QWORD PTR [r13+0x0],r15
    366b:	4d 8d 6d f8          	lea    r13,[r13-0x8]
    366f:	4c 89 7d a0          	mov    QWORD PTR [rbp-0x60],r15
    3673:	4c 8b 7d 98          	mov    r15,QWORD PTR [rbp-0x68]
    3677:	4d 89 7d 00          	mov    QWORD PTR [r13+0x0],r15
    367b:	4d 8d 6d f8          	lea    r13,[r13-0x8]
    367f:	4d 89 65 00          	mov    QWORD PTR [r13+0x0],r12
    3683:	4d 8d 6d f8          	lea    r13,[r13-0x8]
    3687:	49 89 5d 00          	mov    QWORD PTR [r13+0x0],rbx
    368b:	49 81 ed 00 10 00 00 	sub    r13,0x1000
    3692:	49 83 4d 00 00       	or     QWORD PTR [r13+0x0],0x0
    3697:	49 83 ed 28          	sub    r13,0x28
    369b:	4c 89 7d 98          	mov    QWORD PTR [rbp-0x68],r15
    369f:	4c 8b 7d a0          	mov    r15,QWORD PTR [rbp-0x60]
    36a3:	4c 8b 3f             	mov    r15,QWORD PTR [rdi]
    36a6:	49 8b 77 50          	mov    rsi,QWORD PTR [r15+0x50]
    36aa:	4d 8b 37             	mov    r14,QWORD PTR [r15]
    36ad:	4c 89 7d a0          	mov    QWORD PTR [rbp-0x60],r15
    36b1:	4c 8b 7d 88          	mov    r15,QWORD PTR [rbp-0x78]
    36b5:	49 8b 47 28          	mov    rax,QWORD PTR [r15+0x28]
    36b9:	49 89 85 18 10 00 00 	mov    QWORD PTR [r13+0x1018],rax
    36c0:	31 c0                	xor    eax,eax
    36c2:	49 89 fc             	mov    r12,rdi
    36c5:	48 f7 06 00 01 00 00 	test   QWORD PTR [rsi],0x100
    36cc:	4c 89 75 a8          	mov    QWORD PTR [rbp-0x58],r14
    36d0:	0f 85 c3 02 00 00    	jne    0x3999
    36d6:	41 f6 44 24 09 04    	test   BYTE PTR [r12+0x9],0x4
    36dc:	75 6e                	jne    0x374c
    36de:	4c 8b 7d a0          	mov    r15,QWORD PTR [rbp-0x60]
    36e2:	41 f6 87 e2 00 00 00 	test   BYTE PTR [r15+0xe2],0x1
    36e9:	01 
    36ea:	4c 89 7d a0          	mov    QWORD PTR [rbp-0x60],r15
    36ee:	75 5c                	jne    0x374c
    36f0:	49 bf f3 32 5c 55 55 	movabs r15,0x5555555c32f3
    36f7:	55 00 00 
    36fa:	49 8d 87 bd f5 0c 00 	lea    rax,[r15+0xcf5bd]
    3701:	4c 8b 7d a8          	mov    r15,QWORD PTR [rbp-0x58]
    3705:	49 8b 8f b8 03 00 00 	mov    rcx,QWORD PTR [r15+0x3b8]
    370c:	4c 8b 75 98          	mov    r14,QWORD PTR [rbp-0x68]
    3710:	4d 8d 75 10          	lea    r14,[r13+0x10]
    3714:	4c 89 7d a8          	mov    QWORD PTR [rbp-0x58],r15
    3718:	4c 8b 7d b0          	mov    r15,QWORD PTR [rbp-0x50]
    371c:	4c 89 75 98          	mov    QWORD PTR [rbp-0x68],r14
    3720:	49 be 06 33 5c 55 55 	movabs r14,0x5555555c3306
    3727:	55 00 00 
    372a:	4d 8d be 7a 60 07 00 	lea    r15,[r14+0x7607a]
    3731:	48 8b 00             	mov    rax,QWORD PTR [rax]
    3734:	48 8b 00             	mov    rax,QWORD PTR [rax]
    3737:	48 29 c1             	sub    rcx,rax
    373a:	49 89 4d 08          	mov    QWORD PTR [r13+0x8],rcx
    373e:	48 85 c9             	test   rcx,rcx
    3741:	4c 89 7d b0          	mov    QWORD PTR [rbp-0x50],r15
    3745:	0f 8f eb 00 00 00    	jg     0x3836
    374b:	90                   	nop
    374c:	4c 8b 7d a8          	mov    r15,QWORD PTR [rbp-0x58]
    3750:	49 8b bf 68 04 00 00 	mov    rdi,QWORD PTR [r15+0x468]
    3757:	31 f6                	xor    esi,esi
    3759:	49 be 2e 33 5c 55 55 	movabs r14,0x5555555c332e
    3760:	55 00 00 
    3763:	4d 8d 6d f8          	lea    r13,[r13-0x8]
    3767:	4d 89 75 00          	mov    QWORD PTR [r13+0x0],r14
    376b:	4c 89 7d a8          	mov    QWORD PTR [rbp-0x58],r15
    376f:	e9 37 fa ff ff       	jmp    0x31ab
    3774:	49 8b 85 18 10 00 00 	mov    rax,QWORD PTR [r13+0x1018]
    377b:	4c 8b 7d 88          	mov    r15,QWORD PTR [rbp-0x78]
    377f:	49 33 47 28          	xor    rax,QWORD PTR [r15+0x28]
    3783:	0f 85 e4 03 00 00    	jne    0x3b6d
    3789:	49 81 c5 28 10 00 00 	add    r13,0x1028
    3790:	49 8b 5d 00          	mov    rbx,QWORD PTR [r13+0x0]
    3794:	4d 8d 6d 08          	lea    r13,[r13+0x8]
    3798:	4d 8b 65 00          	mov    r12,QWORD PTR [r13+0x0]
    379c:	4d 8d 6d 08          	lea    r13,[r13+0x8]
    37a0:	4c 8b 7d 98          	mov    r15,QWORD PTR [rbp-0x68]
    37a4:	4d 8b 7d 00          	mov    r15,QWORD PTR [r13+0x0]
    37a8:	4d 8d 6d 08          	lea    r13,[r13+0x8]
    37ac:	4c 8b 75 a0          	mov    r14,QWORD PTR [rbp-0x60]
    37b0:	4d 8b 75 00          	mov    r14,QWORD PTR [r13+0x0]
    37b4:	4d 8d 6d 08          	lea    r13,[r13+0x8]
    37b8:	4c 89 7d 98          	mov    QWORD PTR [rbp-0x68],r15
    37bc:	4c 8b 7d a8          	mov    r15,QWORD PTR [rbp-0x58]
    37c0:	4d 8b 7d 00          	mov    r15,QWORD PTR [r13+0x0]
    37c4:	4d 8d 6d 08          	lea    r13,[r13+0x8]
    37c8:	4c 89 7d a8          	mov    QWORD PTR [rbp-0x58],r15
    37cc:	4c 8b 7d b0          	mov    r15,QWORD PTR [rbp-0x50]
    37d0:	4d 8b 7d 00          	mov    r15,QWORD PTR [r13+0x0]
    37d4:	4d 8d 6d 08          	lea    r13,[r13+0x8]
    37d8:	4c 89 7d b0          	mov    QWORD PTR [rbp-0x50],r15
    37dc:	4d 8b 7d 00          	mov    r15,QWORD PTR [r13+0x0]
    37e0:	4d 8d 6d 08          	lea    r13,[r13+0x8]
    37e4:	4d 89 fe             	mov    r14,r15
    37e7:	e9 1b b7 00 00       	jmp    0xef07
    37ec:	49 89 c0             	mov    r8,rax
    37ef:	31 d2                	xor    edx,edx
    37f1:	31 c0                	xor    eax,eax
    37f3:	4c 8b 7d b0          	mov    r15,QWORD PTR [rbp-0x50]
    37f7:	4c 89 f9             	mov    rcx,r15
    37fa:	bf 08 00 00 00       	mov    edi,0x8
    37ff:	49 be 74 33 5c 55 55 	movabs r14,0x5555555c3374
    3806:	55 00 00 
    3809:	4d 8d 6d f8          	lea    r13,[r13-0x8]
    380d:	4d 89 75 00          	mov    QWORD PTR [r13+0x0],r14
    3811:	4c 89 7d b0          	mov    QWORD PTR [rbp-0x50],r15
    3815:	e9 60 c8 ff ff       	jmp    0x7a
    381a:	48 83 fb fe          	cmp    rbx,0xfffffffffffffffe
    381e:	74 6d                	je     0x388d
    3820:	48 83 c3 01          	add    rbx,0x1
    3824:	48 83 fb 01          	cmp    rbx,0x1
    3828:	0f 86 1e ff ff ff    	jbe    0x374c
    382e:	41 f6 44 24 08 20    	test   BYTE PTR [r12+0x8],0x20
    3834:	74 57                	je     0x388d
    3836:	4c 8b 7d 98          	mov    r15,QWORD PTR [rbp-0x68]
    383a:	4c 89 fe             	mov    rsi,r15
    383d:	ba 00 10 00 00       	mov    edx,0x1000
    3842:	4c 8b 75 a0          	mov    r14,QWORD PTR [rbp-0x60]
    3846:	4c 89 f7             	mov    rdi,r14
    3849:	4c 89 7d 98          	mov    QWORD PTR [rbp-0x68],r15
    384d:	49 bf 99 33 5c 55 55 	movabs r15,0x5555555c3399
    3854:	55 00 00 
    3857:	4d 8d 6d f8          	lea    r13,[r13-0x8]
    385b:	4d 89 7d 00          	mov    QWORD PTR [r13+0x0],r15
    385f:	4d 8b 7e 20          	mov    r15,QWORD PTR [r14+0x20]
    3863:	4d 89 fe             	mov    r14,r15
    3866:	e9 e4 b6 00 00       	jmp    0xef4f
    386b:	4c 8b 7d a0          	mov    r15,QWORD PTR [rbp-0x60]
    386f:	49 8b 77 50          	mov    rsi,QWORD PTR [r15+0x50]
    3873:	48 89 c3             	mov    rbx,rax
    3876:	48 f7 06 00 01 00 00 	test   QWORD PTR [rsi],0x100
    387d:	4c 89 7d a0          	mov    QWORD PTR [rbp-0x60],r15
    3881:	0f 85 65 ff ff ff    	jne    0x37ec
    3887:	48 83 fb fe          	cmp    rbx,0xfffffffffffffffe
    388b:	75 93                	jne    0x3820
    388d:	31 f6                	xor    esi,esi
    388f:	4c 89 e7             	mov    rdi,r12
    3892:	49 bf b9 33 5c 55 55 	movabs r15,0x5555555c33b9
    3899:	55 00 00 
    389c:	4d 8d 6d f8          	lea    r13,[r13-0x8]
    38a0:	4d 89 7d 00          	mov    QWORD PTR [r13+0x0],r15
    38a4:	e9 66 b8 00 00       	jmp    0xf10f
    38a9:	48 85 c0             	test   rax,rax
    38ac:	0f 85 9a fe ff ff    	jne    0x374c
    38b2:	49 bf c9 33 5c 55 55 	movabs r15,0x5555555c33c9
    38b9:	55 00 00 
    38bc:	49 8d 87 b7 3d 0a 00 	lea    rax,[r15+0xa3db7]
    38c3:	49 8b 74 24 20       	mov    rsi,QWORD PTR [r12+0x20]
    38c8:	4c 8b 7d a0          	mov    r15,QWORD PTR [rbp-0x60]
    38cc:	4d 69 7d 08 e8 03 00 	imul   r15,QWORD PTR [r13+0x8],0x3e8
    38d3:	00 
    38d4:	48 8b 10             	mov    rdx,QWORD PTR [rax]
    38d7:	4c 8b 75 a8          	mov    r14,QWORD PTR [rbp-0x58]
    38db:	49 8b 46 28          	mov    rax,QWORD PTR [r14+0x28]
    38df:	48 8b 04 d0          	mov    rax,QWORD PTR [rax+rdx*8]
    38e3:	4c 39 b8 30 01 00 00 	cmp    QWORD PTR [rax+0x130],r15
    38ea:	4c 0f 46 b8 30 01 00 	cmovbe r15,QWORD PTR [rax+0x130]
    38f1:	00 
    38f2:	4c 89 7d a0          	mov    QWORD PTR [rbp-0x60],r15
    38f6:	49 bf f7 33 5c 55 55 	movabs r15,0x5555555c33f7
    38fd:	55 00 00 
    3900:	49 8d 87 e9 f4 0c 00 	lea    rax,[r15+0xcf4e9]
    3907:	48 8b 18             	mov    rbx,QWORD PTR [rax]
    390a:	48 8b 06             	mov    rax,QWORD PTR [rsi]
    390d:	4c 8b 7d a0          	mov    r15,QWORD PTR [rbp-0x60]
    3911:	4c 01 fb             	add    rbx,r15
    3914:	25 80 00 00 00       	and    eax,0x80
    3919:	41 f6 44 24 09 08    	test   BYTE PTR [r12+0x9],0x8
    391f:	4c 89 7d a0          	mov    QWORD PTR [rbp-0x60],r15
    3923:	4c 89 75 a8          	mov    QWORD PTR [rbp-0x58],r14
    3927:	0f 85 a0 00 00 00    	jne    0x39cd
    392d:	4c 8b 7d 98          	mov    r15,QWORD PTR [rbp-0x68]
    3931:	49 be 12 34 5c 55 55 	movabs r14,0x5555555c3412
    3938:	55 00 00 
    393b:	4d 8d be 8e f6 0c 00 	lea    r15,[r14+0xcf68e]
    3942:	4c 8b 75 a8          	mov    r14,QWORD PTR [rbp-0x58]
    3946:	4d 8d 74 24 28       	lea    r14,[r12+0x28]
    394b:	4c 89 7d 98          	mov    QWORD PTR [rbp-0x68],r15
    394f:	4c 89 75 a8          	mov    QWORD PTR [rbp-0x58],r14
    3953:	49 89 5c 24 28       	mov    QWORD PTR [r12+0x28],rbx
    3958:	48 85 c0             	test   rax,rax
    395b:	0f 85 69 01 00 00    	jne    0x3aca
    3961:	4c 8b 7d a8          	mov    r15,QWORD PTR [rbp-0x58]
    3965:	4c 89 fe             	mov    rsi,r15
    3968:	4c 8b 75 98          	mov    r14,QWORD PTR [rbp-0x68]
    396c:	4c 89 f7             	mov    rdi,r14
    396f:	4c 89 7d a8          	mov    QWORD PTR [rbp-0x58],r15
    3973:	49 bf 2e 34 5c 55 55 	movabs r15,0x5555555c342e
    397a:	55 00 00 
    397d:	4d 8d 6d f8          	lea    r13,[r13-0x8]
    3981:	4d 89 7d 00          	mov    QWORD PTR [r13+0x0],r15
    3985:	4c 89 75 98          	mov    QWORD PTR [rbp-0x68],r14
    3989:	e9 a3 b9 00 00       	jmp    0xf331
    398e:	41 80 4c 24 09 08    	or     BYTE PTR [r12+0x9],0x8
    3994:	e9 db fd ff ff       	jmp    0x3774
    3999:	49 bf 47 34 5c 55 55 	movabs r15,0x5555555c3447
    39a0:	55 00 00 
    39a3:	49 8d 8f 1c 5f 07 00 	lea    rcx,[r15+0x75f1c]
    39aa:	31 d2                	xor    edx,edx
    39ac:	bf 08 00 00 00       	mov    edi,0x8
    39b1:	49 bf 53 34 5c 55 55 	movabs r15,0x5555555c3453
    39b8:	55 00 00 
    39bb:	4d 8d 6d f8          	lea    r13,[r13-0x8]
    39bf:	4d 89 7d 00          	mov    QWORD PTR [r13+0x0],r15
    39c3:	e9 b2 c6 ff ff       	jmp    0x7a
    39c8:	e9 09 fd ff ff       	jmp    0x36d6
    39cd:	4d 8b 4c 24 28       	mov    r9,QWORD PTR [r12+0x28]
    39d2:	48 89 da             	mov    rdx,rbx
    39d5:	4c 29 ca             	sub    rdx,r9
    39d8:	48 81 c2 2b 01 00 00 	add    rdx,0x12b
    39df:	48 81 fa 56 02 00 00 	cmp    rdx,0x256
    39e6:	77 63                	ja     0x3a4b
    39e8:	48 85 c0             	test   rax,rax
    39eb:	0f 84 83 fd ff ff    	je     0x3774
    39f1:	49 8b 04 24          	mov    rax,QWORD PTR [r12]
    39f5:	49 83 ed 08          	sub    r13,0x8
    39f9:	31 d2                	xor    edx,edx
    39fb:	bf 08 00 00 00       	mov    edi,0x8
    3a00:	49 bf 99 34 5c 55 55 	movabs r15,0x5555555c3499
    3a07:	55 00 00 
    3a0a:	49 8d 8f 37 f7 06 00 	lea    rcx,[r15+0x6f737]
    3a11:	44 8b 40 18          	mov    r8d,DWORD PTR [rax+0x18]
    3a15:	4d 8d 6d f8          	lea    r13,[r13-0x8]
    3a19:	49 89 5d 00          	mov    QWORD PTR [r13+0x0],rbx
    3a1d:	31 c0                	xor    eax,eax
    3a1f:	49 bf a5 34 5c 55 55 	movabs r15,0x5555555c34a5
    3a26:	55 00 00 
    3a29:	4d 8d 6d f8          	lea    r13,[r13-0x8]
    3a2d:	4d 89 7d 00          	mov    QWORD PTR [r13+0x0],r15
    3a31:	e9 44 c6 ff ff       	jmp    0x7a
    3a36:	49 8b 4d 00          	mov    rcx,QWORD PTR [r13+0x0]
    3a3a:	4d 8d 6d 08          	lea    r13,[r13+0x8]
    3a3e:	49 8b 75 00          	mov    rsi,QWORD PTR [r13+0x0]
    3a42:	4d 8d 6d 08          	lea    r13,[r13+0x8]
    3a46:	e9 29 fd ff ff       	jmp    0x3774
    3a4b:	48 85 c0             	test   rax,rax
    3a4e:	0f 85 db 00 00 00    	jne    0x3b2f
    3a54:	4c 8b 7d 98          	mov    r15,QWORD PTR [rbp-0x68]
    3a58:	49 be bc 34 5c 55 55 	movabs r14,0x5555555c34bc
    3a5f:	55 00 00 
    3a62:	4d 8d be e4 f5 0c 00 	lea    r15,[r14+0xcf5e4]
    3a69:	4c 8b 75 a8          	mov    r14,QWORD PTR [rbp-0x58]
    3a6d:	4d 8d 74 24 28       	lea    r14,[r12+0x28]
    3a72:	4c 89 f6             	mov    rsi,r14
    3a75:	4c 89 ff             	mov    rdi,r15
    3a78:	4c 89 7d 98          	mov    QWORD PTR [rbp-0x68],r15
    3a7c:	49 bf cb 34 5c 55 55 	movabs r15,0x5555555c34cb
    3a83:	55 00 00 
    3a86:	4d 8d 6d f8          	lea    r13,[r13-0x8]
    3a8a:	4d 89 7d 00          	mov    QWORD PTR [r13+0x0],r15
    3a8e:	4c 89 75 a8          	mov    QWORD PTR [rbp-0x58],r14
    3a92:	e9 24 bb 00 00       	jmp    0xf5bb
    3a97:	49 8b 74 24 20       	mov    rsi,QWORD PTR [r12+0x20]
    3a9c:	41 80 64 24 09 f7    	and    BYTE PTR [r12+0x9],0xf7
    3aa2:	49 c7 44 24 30 00 00 	mov    QWORD PTR [r12+0x30],0x0
    3aa9:	00 00 
    3aab:	48 8b 06             	mov    rax,QWORD PTR [rsi]
    3aae:	49 c7 44 24 38 00 00 	mov    QWORD PTR [r12+0x38],0x0
    3ab5:	00 00 
    3ab7:	49 c7 44 24 40 00 00 	mov    QWORD PTR [r12+0x40],0x0
    3abe:	00 00 
    3ac0:	25 80 00 00 00       	and    eax,0x80
    3ac5:	e9 89 fe ff ff       	jmp    0x3953
    3aca:	49 8b 04 24          	mov    rax,QWORD PTR [r12]
    3ace:	49 83 ed 08          	sub    r13,0x8
    3ad2:	31 d2                	xor    edx,edx
    3ad4:	4c 8b 7d a0          	mov    r15,QWORD PTR [rbp-0x60]
    3ad8:	4d 89 f9             	mov    r9,r15
    3adb:	49 be 14 35 5c 55 55 	movabs r14,0x5555555c3514
    3ae2:	55 00 00 
    3ae5:	49 8d 8e 2e f6 06 00 	lea    rcx,[r14+0x6f62e]
    3aec:	bf 08 00 00 00       	mov    edi,0x8
    3af1:	44 8b 40 18          	mov    r8d,DWORD PTR [rax+0x18]
    3af5:	4d 8d 6d f8          	lea    r13,[r13-0x8]
    3af9:	49 89 5d 00          	mov    QWORD PTR [r13+0x0],rbx
    3afd:	31 c0                	xor    eax,eax
    3aff:	49 be 25 35 5c 55 55 	movabs r14,0x5555555c3525
    3b06:	55 00 00 
    3b09:	4d 8d 6d f8          	lea    r13,[r13-0x8]
    3b0d:	4d 89 75 00          	mov    QWORD PTR [r13+0x0],r14
    3b11:	4c 89 7d a0          	mov    QWORD PTR [rbp-0x60],r15
    3b15:	e9 60 c5 ff ff       	jmp    0x7a
    3b1a:	49 8b 45 00          	mov    rax,QWORD PTR [r13+0x0]
    3b1e:	4d 8d 6d 08          	lea    r13,[r13+0x8]
    3b22:	49 8b 55 00          	mov    rdx,QWORD PTR [r13+0x0]
    3b26:	4d 8d 6d 08          	lea    r13,[r13+0x8]
    3b2a:	e9 32 fe ff ff       	jmp    0x3961
    3b2f:	49 8b 04 24          	mov    rax,QWORD PTR [r12]
    3b33:	49 bf 37 35 5c 55 55 	movabs r15,0x5555555c3537
    3b3a:	55 00 00 
    3b3d:	49 8d 8f 4f f5 06 00 	lea    rcx,[r15+0x6f54f]
    3b44:	31 d2                	xor    edx,edx
    3b46:	bf 08 00 00 00       	mov    edi,0x8
    3b4b:	44 8b 40 18          	mov    r8d,DWORD PTR [rax+0x18]
    3b4f:	31 c0                	xor    eax,eax
    3b51:	49 bf 49 35 5c 55 55 	movabs r15,0x5555555c3549
    3b58:	55 00 00 
    3b5b:	4d 8d 6d f8          	lea    r13,[r13-0x8]
    3b5f:	4d 89 7d 00          	mov    QWORD PTR [r13+0x0],r15
    3b63:	e9 12 c5 ff ff       	jmp    0x7a
    3b68:	e9 e7 fe ff ff       	jmp    0x3a54
    3b6d:	49 bf 53 35 5c 55 55 	movabs r15,0x5555555c3553
    3b74:	55 00 00 
    3b77:	4d 8d 6d f8          	lea    r13,[r13-0x8]
    3b7b:	4d 89 7d 00          	mov    QWORD PTR [r13+0x0],r15
    3b7f:	e9 bb b4 00 00       	jmp    0xf03f
    3b84:	90                   	nop
    3b85:	90                   	nop
    3b86:	90                   	nop
    3b87:	4d 8d 6d f8          	lea    r13,[r13-0x8]
    3b8b:	4c 8b 7d a8          	mov    r15,QWORD PTR [rbp-0x58]
    3b8f:	4d 89 7d 00          	mov    QWORD PTR [r13+0x0],r15
    3b93:	49 be 6d 35 5c 55 55 	movabs r14,0x5555555c356d
    3b9a:	55 00 00 
    3b9d:	49 8d 86 13 3c 0a 00 	lea    rax,[r14+0xa3c13]
    3ba4:	4d 8d 6d f8          	lea    r13,[r13-0x8]
    3ba8:	4c 8b 75 a0          	mov    r14,QWORD PTR [rbp-0x60]
    3bac:	4d 89 75 00          	mov    QWORD PTR [r13+0x0],r14
    3bb0:	4d 8d 6d f8          	lea    r13,[r13-0x8]
    3bb4:	4c 89 7d a8          	mov    QWORD PTR [rbp-0x58],r15
    3bb8:	4c 8b 7d 98          	mov    r15,QWORD PTR [rbp-0x68]
    3bbc:	4d 89 7d 00          	mov    QWORD PTR [r13+0x0],r15
    3bc0:	4d 8d 6d f8          	lea    r13,[r13-0x8]
    3bc4:	4d 89 65 00          	mov    QWORD PTR [r13+0x0],r12
    3bc8:	49 89 fc             	mov    r12,rdi
    3bcb:	4d 8d 6d f8          	lea    r13,[r13-0x8]
    3bcf:	49 89 5d 00          	mov    QWORD PTR [r13+0x0],rbx
    3bd3:	4c 8b 37             	mov    r14,QWORD PTR [rdi]
    3bd6:	48 8b 10             	mov    rdx,QWORD PTR [rax]
    3bd9:	49 8b 46 28          	mov    rax,QWORD PTR [r14+0x28]
    3bdd:	49 83 be b8 03 00 00 	cmp    QWORD PTR [r14+0x3b8],0x0
    3be4:	00 
    3be5:	48 8b 1c d0          	mov    rbx,QWORD PTR [rax+rdx*8]
    3be9:	4c 89 7d 98          	mov    QWORD PTR [rbp-0x68],r15
    3bed:	4c 89 75 a0          	mov    QWORD PTR [rbp-0x60],r14
    3bf1:	75 48                	jne    0x3c3b
    3bf3:	49 bf 95 35 5c 55 55 	movabs r15,0x5555555c3595
    3bfa:	55 00 00 
    3bfd:	49 8d 87 1b f3 0c 00 	lea    rax,[r15+0xcf31b]
    3c04:	48 8b 93 28 01 00 00 	mov    rdx,QWORD PTR [rbx+0x128]
    3c0b:	48 be cf f7 53 e3 a5 	movabs rsi,0x20c49ba5e353f7cf
    3c12:	9b c4 20 
    3c15:	48 8b 00             	mov    rax,QWORD PTR [rax]
    3c18:	48 c1 ea 03          	shr    rdx,0x3
    3c1c:	48 8b 08             	mov    rcx,QWORD PTR [rax]
    3c1f:	48 89 d0             	mov    rax,rdx
    3c22:	48 f7 e6             	mul    rsi
    3c25:	48 c1 ea 04          	shr    rdx,0x4
    3c29:	48 01 ca             	add    rdx,rcx
    3c2c:	4c 8b 7d a0          	mov    r15,QWORD PTR [rbp-0x60]
    3c30:	49 89 97 b8 03 00 00 	mov    QWORD PTR [r15+0x3b8],rdx
    3c37:	4c 89 7d a0          	mov    QWORD PTR [rbp-0x60],r15
    3c3b:	49 83 bc 24 90 00 00 	cmp    QWORD PTR [r12+0x90],0x0
    3c42:	00 00 
    3c44:	74 2e                	je     0x3c74
    3c46:	4c 89 e7             	mov    rdi,r12
    3c49:	49 bf d6 35 5c 55 55 	movabs r15,0x5555555c35d6
    3c50:	55 00 00 
    3c53:	4d 8d 6d f8          	lea    r13,[r13-0x8]
    3c57:	4d 89 7d 00          	mov    QWORD PTR [r13+0x0],r15
    3c5b:	e9 69 b6 00 00       	jmp    0xf2c9
    3c60:	48 83 f8 ff          	cmp    rax,0xffffffffffffffff
    3c64:	0f 84 64 02 00 00    	je     0x3ece
    3c6a:	48 83 f8 fe          	cmp    rax,0xfffffffffffffffe
    3c6e:	0f 84 44 03 00 00    	je     0x3fb8
    3c74:	4c 8b 7d 98          	mov    r15,QWORD PTR [rbp-0x68]
    3c78:	4d 8b 7c 24 08       	mov    r15,QWORD PTR [r12+0x8]
    3c7d:	49 be f5 35 5c 55 55 	movabs r14,0x5555555c35f5
    3c84:	55 00 00 
    3c87:	49 8d 86 9b fc ff ff 	lea    rax,[r14-0x365]
    3c8e:	31 f6                	xor    esi,esi
    3c90:	49 89 47 10          	mov    QWORD PTR [r15+0x10],rax
    3c94:	4c 89 ff             	mov    rdi,r15
    3c97:	49 be 04 36 5c 55 55 	movabs r14,0x5555555c3604
    3c9e:	55 00 00 
    3ca1:	4d 8d 6d f8          	lea    r13,[r13-0x8]
    3ca5:	4d 89 75 00          	mov    QWORD PTR [r13+0x0],r14
    3ca9:	4c 89 7d 98          	mov    QWORD PTR [rbp-0x68],r15
    3cad:	e9 5d b4 00 00       	jmp    0xf10f
    3cb2:	48 85 c0             	test   rax,rax
    3cb5:	0f 85 13 02 00 00    	jne    0x3ece
    3cbb:	49 8b 7c 24 10       	mov    rdi,QWORD PTR [r12+0x10]
    3cc0:	49 bf 18 36 5c 55 55 	movabs r15,0x5555555c3618
    3cc7:	55 00 00 
    3cca:	49 8d 87 28 d7 ff ff 	lea    rax,[r15-0x28d8]
    3cd1:	48 89 47 10          	mov    QWORD PTR [rdi+0x10],rax
    3cd5:	f6 47 08 08          	test   BYTE PTR [rdi+0x8],0x8
    3cd9:	74 55                	je     0x3d30
    3cdb:	49 bf 29 36 5c 55 55 	movabs r15,0x5555555c3629
    3ce2:	55 00 00 
    3ce5:	49 8d 87 5f f4 0c 00 	lea    rax,[r15+0xcf45f]
    3cec:	f6 00 01             	test   BYTE PTR [rax],0x1
    3cef:	74 3f                	je     0x3d30
    3cf1:	49 bf 35 36 5c 55 55 	movabs r15,0x5555555c3635
    3cf8:	55 00 00 
    3cfb:	49 8d 87 eb f3 0c 00 	lea    rax,[r15+0xcf3eb]
    3d02:	31 d2                	xor    edx,edx
    3d04:	be 04 00 00 00       	mov    esi,0x4
    3d09:	49 bf 3f 36 5c 55 55 	movabs r15,0x5555555c363f
    3d10:	55 00 00 
    3d13:	4d 8d 6d f8          	lea    r13,[r13-0x8]
    3d17:	4d 89 7d 00          	mov    QWORD PTR [r13+0x0],r15
    3d1b:	4c 8b 78 08          	mov    r15,QWORD PTR [rax+0x8]
    3d1f:	4d 89 fe             	mov    r14,r15
    3d22:	e9 32 b1 00 00       	jmp    0xee59
    3d27:	48 85 c0             	test   rax,rax
    3d2a:	0f 85 9e 01 00 00    	jne    0x3ece
    3d30:	41 8b 7c 24 18       	mov    edi,DWORD PTR [r12+0x18]
    3d35:	be 01 00 00 00       	mov    esi,0x1
    3d3a:	49 bf 55 36 5c 55 55 	movabs r15,0x5555555c3655
    3d41:	55 00 00 
    3d44:	4d 8d 6d f8          	lea    r13,[r13-0x8]
    3d48:	4d 89 7d 00          	mov    QWORD PTR [r13+0x0],r15
    3d4c:	e9 b0 b6 00 00       	jmp    0xf401
    3d51:	83 f8 ff             	cmp    eax,0xffffffff
    3d54:	0f 84 30 01 00 00    	je     0x3e8a
    3d5a:	41 80 a4 24 e2 00 00 	and    BYTE PTR [r12+0xe2],0xfe
    3d61:	00 fe 
    3d63:	4c 89 e7             	mov    rdi,r12
    3d66:	be 01 00 00 00       	mov    esi,0x1
    3d6b:	49 bf 6e 36 5c 55 55 	movabs r15,0x5555555c366e
    3d72:	55 00 00 
    3d75:	4d 8d 6d f8          	lea    r13,[r13-0x8]
    3d79:	4d 89 7d 00          	mov    QWORD PTR [r13+0x0],r15
    3d7d:	e9 df b4 00 00       	jmp    0xf261
    3d82:	49 bf 75 36 5c 55 55 	movabs r15,0x5555555c3675
    3d89:	55 00 00 
    3d8c:	49 8d 87 6b f2 0c 00 	lea    rax,[r15+0xcf26b]
    3d93:	4c 8b a3 30 01 00 00 	mov    r12,QWORD PTR [rbx+0x130]
    3d9a:	48 8b 18             	mov    rbx,QWORD PTR [rax]
    3d9d:	4c 01 e3             	add    rbx,r12
    3da0:	4c 8b 7d 98          	mov    r15,QWORD PTR [rbp-0x68]
    3da4:	41 f6 47 09 08       	test   BYTE PTR [r15+0x9],0x8
    3da9:	4c 89 7d 98          	mov    QWORD PTR [rbp-0x68],r15
    3dad:	0f 85 69 01 00 00    	jne    0x3f1c
    3db3:	4c 8b 7d 98          	mov    r15,QWORD PTR [rbp-0x68]
    3db7:	49 8b 77 20          	mov    rsi,QWORD PTR [r15+0x20]
    3dbb:	49 89 5f 28          	mov    QWORD PTR [r15+0x28],rbx
    3dbf:	4c 8b 75 a8          	mov    r14,QWORD PTR [rbp-0x58]
    3dc3:	4d 8d 77 28          	lea    r14,[r15+0x28]
    3dc7:	4c 89 7d 98          	mov    QWORD PTR [rbp-0x68],r15
    3dcb:	4c 8b 7d a0          	mov    r15,QWORD PTR [rbp-0x60]
    3dcf:	4c 89 75 a8          	mov    QWORD PTR [rbp-0x58],r14
    3dd3:	49 be a0 36 5c 55 55 	movabs r14,0x5555555c36a0
    3dda:	55 00 00 
    3ddd:	4d 8d be 00 f4 0c 00 	lea    r15,[r14+0xcf400]
    3de4:	f6 06 80             	test   BYTE PTR [rsi],0x80
    3de7:	4c 89 7d a0          	mov    QWORD PTR [rbp-0x60],r15
    3deb:	0f 85 c1 02 00 00    	jne    0x40b2
    3df1:	4c 8b 7d a8          	mov    r15,QWORD PTR [rbp-0x58]
    3df5:	4c 89 fe             	mov    rsi,r15
    3df8:	4c 8b 75 a0          	mov    r14,QWORD PTR [rbp-0x60]
    3dfc:	4c 89 f7             	mov    rdi,r14
    3dff:	4c 89 7d a8          	mov    QWORD PTR [rbp-0x58],r15
    3e03:	49 bf b4 36 5c 55 55 	movabs r15,0x5555555c36b4
    3e0a:	55 00 00 
    3e0d:	4d 8d 6d f8          	lea    r13,[r13-0x8]
    3e11:	4d 89 7d 00          	mov    QWORD PTR [r13+0x0],r15
    3e15:	4c 89 75 a0          	mov    QWORD PTR [rbp-0x60],r14
    3e19:	e9 13 b5 00 00       	jmp    0xf331
    3e1e:	4c 8b 7d 98          	mov    r15,QWORD PTR [rbp-0x68]
    3e22:	41 80 4f 09 08       	or     BYTE PTR [r15+0x9],0x8
    3e27:	4c 89 7d 98          	mov    QWORD PTR [rbp-0x68],r15
    3e2b:	4c 8b 7d 98          	mov    r15,QWORD PTR [rbp-0x68]
    3e2f:	41 f6 47 08 20       	test   BYTE PTR [r15+0x8],0x20
    3e34:	4c 89 7d 98          	mov    QWORD PTR [rbp-0x68],r15
    3e38:	0f 85 d8 02 00 00    	jne    0x4116
    3e3e:	49 8b 5d 00          	mov    rbx,QWORD PTR [r13+0x0]
    3e42:	4d 8d 6d 08          	lea    r13,[r13+0x8]
    3e46:	4d 8b 65 00          	mov    r12,QWORD PTR [r13+0x0]
    3e4a:	4d 8d 6d 08          	lea    r13,[r13+0x8]
    3e4e:	4c 8b 7d 98          	mov    r15,QWORD PTR [rbp-0x68]
    3e52:	4d 8b 7d 00          	mov    r15,QWORD PTR [r13+0x0]
    3e56:	4d 8d 6d 08          	lea    r13,[r13+0x8]
    3e5a:	4c 8b 75 a0          	mov    r14,QWORD PTR [rbp-0x60]
    3e5e:	4d 8b 75 00          	mov    r14,QWORD PTR [r13+0x0]
    3e62:	4d 8d 6d 08          	lea    r13,[r13+0x8]
    3e66:	4c 89 7d 98          	mov    QWORD PTR [rbp-0x68],r15
    3e6a:	4c 8b 7d a8          	mov    r15,QWORD PTR [rbp-0x58]
    3e6e:	4d 8b 7d 00          	mov    r15,QWORD PTR [r13+0x0]
    3e72:	4d 8d 6d 08          	lea    r13,[r13+0x8]
    3e76:	4c 89 7d a8          	mov    QWORD PTR [rbp-0x58],r15
    3e7a:	4d 8b 7d 00          	mov    r15,QWORD PTR [r13+0x0]
    3e7e:	4d 8d 6d 08          	lea    r13,[r13+0x8]
    3e82:	4d 89 fe             	mov    r14,r15
    3e85:	e9 de af 00 00       	jmp    0xee68
    3e8a:	49 bf d5 36 5c 55 55 	movabs r15,0x5555555c36d5
    3e91:	55 00 00 
    3e94:	4d 8d 6d f8          	lea    r13,[r13-0x8]
    3e98:	4d 89 7d 00          	mov    QWORD PTR [r13+0x0],r15
    3e9c:	e9 0e b4 00 00       	jmp    0xf2af
    3ea1:	49 bf dc 36 5c 55 55 	movabs r15,0x5555555c36dc
    3ea8:	55 00 00 
    3eab:	49 8d 97 92 31 07 00 	lea    rdx,[r15+0x73192]
    3eb2:	4c 89 e7             	mov    rdi,r12
    3eb5:	8b 30                	mov    esi,DWORD PTR [rax]
    3eb7:	49 bf e6 36 5c 55 55 	movabs r15,0x5555555c36e6
    3ebe:	55 00 00 
    3ec1:	4d 8d 6d f8          	lea    r13,[r13-0x8]
    3ec5:	4d 89 7d 00          	mov    QWORD PTR [r13+0x0],r15
    3ec9:	e9 73 b8 00 00       	jmp    0xf741
    3ece:	4c 8b 7d a0          	mov    r15,QWORD PTR [rbp-0x60]
    3ed2:	49 8b bf 68 04 00 00 	mov    rdi,QWORD PTR [r15+0x468]
    3ed9:	49 8b 5d 00          	mov    rbx,QWORD PTR [r13+0x0]
    3edd:	4d 8d 6d 08          	lea    r13,[r13+0x8]
    3ee1:	31 f6                	xor    esi,esi
    3ee3:	4d 8b 65 00          	mov    r12,QWORD PTR [r13+0x0]
    3ee7:	4d 8d 6d 08          	lea    r13,[r13+0x8]
    3eeb:	4c 8b 75 98          	mov    r14,QWORD PTR [rbp-0x68]
    3eef:	4d 8b 75 00          	mov    r14,QWORD PTR [r13+0x0]
    3ef3:	4d 8d 6d 08          	lea    r13,[r13+0x8]
    3ef7:	4d 8b 7d 00          	mov    r15,QWORD PTR [r13+0x0]
    3efb:	4d 8d 6d 08          	lea    r13,[r13+0x8]
    3eff:	4c 89 7d a0          	mov    QWORD PTR [rbp-0x60],r15
    3f03:	4c 8b 7d a8          	mov    r15,QWORD PTR [rbp-0x58]
    3f07:	4d 8b 7d 00          	mov    r15,QWORD PTR [r13+0x0]
    3f0b:	4d 8d 6d 08          	lea    r13,[r13+0x8]
    3f0f:	4c 89 7d a8          	mov    QWORD PTR [rbp-0x58],r15
    3f13:	4c 89 75 98          	mov    QWORD PTR [rbp-0x68],r14
    3f17:	e9 8f f2 ff ff       	jmp    0x31ab
    3f1c:	4c 8b 7d 98          	mov    r15,QWORD PTR [rbp-0x68]
    3f20:	4d 8b 4f 28          	mov    r9,QWORD PTR [r15+0x28]
    3f24:	49 8b 77 20          	mov    rsi,QWORD PTR [r15+0x20]
    3f28:	48 89 da             	mov    rdx,rbx
    3f2b:	48 8b 06             	mov    rax,QWORD PTR [rsi]
    3f2e:	4c 29 ca             	sub    rdx,r9
    3f31:	48 81 c2 2b 01 00 00 	add    rdx,0x12b
    3f38:	25 80 00 00 00       	and    eax,0x80
    3f3d:	48 81 fa 56 02 00 00 	cmp    rdx,0x256
    3f44:	4c 89 7d 98          	mov    QWORD PTR [rbp-0x68],r15
    3f48:	0f 87 d3 00 00 00    	ja     0x4021
    3f4e:	48 85 c0             	test   rax,rax
    3f51:	0f 84 d4 fe ff ff    	je     0x3e2b
    3f57:	4c 8b 7d 98          	mov    r15,QWORD PTR [rbp-0x68]
    3f5b:	49 8b 07             	mov    rax,QWORD PTR [r15]
    3f5e:	49 83 ed 08          	sub    r13,0x8
    3f62:	31 d2                	xor    edx,edx
    3f64:	bf 08 00 00 00       	mov    edi,0x8
    3f69:	49 be 43 37 5c 55 55 	movabs r14,0x5555555c3743
    3f70:	55 00 00 
    3f73:	49 8d 8e 8d f4 06 00 	lea    rcx,[r14+0x6f48d]
    3f7a:	44 8b 40 18          	mov    r8d,DWORD PTR [rax+0x18]
    3f7e:	4d 8d 6d f8          	lea    r13,[r13-0x8]
    3f82:	49 89 5d 00          	mov    QWORD PTR [r13+0x0],rbx
    3f86:	31 c0                	xor    eax,eax
    3f88:	49 be 4f 37 5c 55 55 	movabs r14,0x5555555c374f
    3f8f:	55 00 00 
    3f92:	4d 8d 6d f8          	lea    r13,[r13-0x8]
    3f96:	4d 89 75 00          	mov    QWORD PTR [r13+0x0],r14
    3f9a:	4c 89 7d 98          	mov    QWORD PTR [rbp-0x68],r15
    3f9e:	e9 d7 c0 ff ff       	jmp    0x7a
    3fa3:	49 8b 4d 00          	mov    rcx,QWORD PTR [r13+0x0]
    3fa7:	4d 8d 6d 08          	lea    r13,[r13+0x8]
    3fab:	49 8b 75 00          	mov    rsi,QWORD PTR [r13+0x0]
    3faf:	4d 8d 6d 08          	lea    r13,[r13+0x8]
    3fb3:	e9 73 fe ff ff       	jmp    0x3e2b
    3fb8:	49 8b 84 24 90 00 00 	mov    rax,QWORD PTR [r12+0x90]
    3fbf:	00 
    3fc0:	49 bf 6e 37 5c 55 55 	movabs r15,0x5555555c376e
    3fc7:	55 00 00 
    3fca:	49 8d 8f f2 fd ff ff 	lea    rcx,[r15-0x20e]
    3fd1:	48 89 48 28          	mov    QWORD PTR [rax+0x28],rcx
    3fd5:	49 8b 5d 00          	mov    rbx,QWORD PTR [r13+0x0]
    3fd9:	4d 8d 6d 08          	lea    r13,[r13+0x8]
    3fdd:	4d 8b 65 00          	mov    r12,QWORD PTR [r13+0x0]
    3fe1:	4d 8d 6d 08          	lea    r13,[r13+0x8]
    3fe5:	4c 8b 7d 98          	mov    r15,QWORD PTR [rbp-0x68]
    3fe9:	4d 8b 7d 00          	mov    r15,QWORD PTR [r13+0x0]
    3fed:	4d 8d 6d 08          	lea    r13,[r13+0x8]
    3ff1:	4c 8b 75 a0          	mov    r14,QWORD PTR [rbp-0x60]
    3ff5:	4d 8b 75 00          	mov    r14,QWORD PTR [r13+0x0]
    3ff9:	4d 8d 6d 08          	lea    r13,[r13+0x8]
    3ffd:	4c 89 7d 98          	mov    QWORD PTR [rbp-0x68],r15
    4001:	4c 8b 7d a8          	mov    r15,QWORD PTR [rbp-0x58]
    4005:	4d 8b 7d 00          	mov    r15,QWORD PTR [r13+0x0]
    4009:	4d 8d 6d 08          	lea    r13,[r13+0x8]
    400d:	4c 89 7d a8          	mov    QWORD PTR [rbp-0x58],r15
    4011:	4d 8b 7d 00          	mov    r15,QWORD PTR [r13+0x0]
    4015:	4d 8d 6d 08          	lea    r13,[r13+0x8]
    4019:	4d 89 fe             	mov    r14,r15
    401c:	e9 a8 ad 00 00       	jmp    0xedc9
    4021:	48 85 c0             	test   rax,rax
    4024:	0f 85 34 01 00 00    	jne    0x415e
    402a:	4c 8b 7d a0          	mov    r15,QWORD PTR [rbp-0x60]
    402e:	49 be 90 37 5c 55 55 	movabs r14,0x5555555c3790
    4035:	55 00 00 
    4038:	4d 8d be 10 f3 0c 00 	lea    r15,[r14+0xcf310]
    403f:	4c 8b 75 98          	mov    r14,QWORD PTR [rbp-0x68]
    4043:	4c 89 7d a0          	mov    QWORD PTR [rbp-0x60],r15
    4047:	4c 8b 7d a8          	mov    r15,QWORD PTR [rbp-0x58]
    404b:	4d 8d 7e 28          	lea    r15,[r14+0x28]
    404f:	4c 89 fe             	mov    rsi,r15
    4052:	4c 89 7d a8          	mov    QWORD PTR [rbp-0x58],r15
    4056:	4c 8b 7d a0          	mov    r15,QWORD PTR [rbp-0x60]
    405a:	4c 89 ff             	mov    rdi,r15
    405d:	4c 89 7d a0          	mov    QWORD PTR [rbp-0x60],r15
    4061:	49 bf a0 37 5c 55 55 	movabs r15,0x5555555c37a0
    4068:	55 00 00 
    406b:	4d 8d 6d f8          	lea    r13,[r13-0x8]
    406f:	4d 89 7d 00          	mov    QWORD PTR [r13+0x0],r15
    4073:	4c 89 75 98          	mov    QWORD PTR [rbp-0x68],r14
    4077:	e9 3f b5 00 00       	jmp    0xf5bb
    407c:	4c 8b 7d 98          	mov    r15,QWORD PTR [rbp-0x68]
    4080:	49 8b 77 20          	mov    rsi,QWORD PTR [r15+0x20]
    4084:	41 80 67 09 f7       	and    BYTE PTR [r15+0x9],0xf7
    4089:	49 c7 47 30 00 00 00 	mov    QWORD PTR [r15+0x30],0x0
    4090:	00 
    4091:	49 c7 47 38 00 00 00 	mov    QWORD PTR [r15+0x38],0x0
    4098:	00 
    4099:	49 c7 47 40 00 00 00 	mov    QWORD PTR [r15+0x40],0x0
    40a0:	00 
    40a1:	49 89 5f 28          	mov    QWORD PTR [r15+0x28],rbx
    40a5:	f6 06 80             	test   BYTE PTR [rsi],0x80
    40a8:	4c 89 7d 98          	mov    QWORD PTR [rbp-0x68],r15
    40ac:	0f 84 3f fd ff ff    	je     0x3df1
    40b2:	4c 8b 7d 98          	mov    r15,QWORD PTR [rbp-0x68]
    40b6:	49 8b 07             	mov    rax,QWORD PTR [r15]
    40b9:	49 83 ed 08          	sub    r13,0x8
    40bd:	31 d2                	xor    edx,edx
    40bf:	4d 89 e1             	mov    r9,r12
    40c2:	49 be e8 37 5c 55 55 	movabs r14,0x5555555c37e8
    40c9:	55 00 00 
    40cc:	49 8d 8e 5a f3 06 00 	lea    rcx,[r14+0x6f35a]
    40d3:	bf 08 00 00 00       	mov    edi,0x8
    40d8:	44 8b 40 18          	mov    r8d,DWORD PTR [rax+0x18]
    40dc:	4d 8d 6d f8          	lea    r13,[r13-0x8]
    40e0:	49 89 5d 00          	mov    QWORD PTR [r13+0x0],rbx
    40e4:	31 c0                	xor    eax,eax
    40e6:	49 be f9 37 5c 55 55 	movabs r14,0x5555555c37f9
    40ed:	55 00 00 
    40f0:	4d 8d 6d f8          	lea    r13,[r13-0x8]
    40f4:	4d 89 75 00          	mov    QWORD PTR [r13+0x0],r14
    40f8:	4c 89 7d 98          	mov    QWORD PTR [rbp-0x68],r15
    40fc:	e9 79 bf ff ff       	jmp    0x7a
    4101:	49 8b 45 00          	mov    rax,QWORD PTR [r13+0x0]
    4105:	4d 8d 6d 08          	lea    r13,[r13+0x8]
    4109:	49 8b 55 00          	mov    rdx,QWORD PTR [r13+0x0]
    410d:	4d 8d 6d 08          	lea    r13,[r13+0x8]
    4111:	e9 db fc ff ff       	jmp    0x3df1
    4116:	49 8b 5d 00          	mov    rbx,QWORD PTR [r13+0x0]
    411a:	4d 8d 6d 08          	lea    r13,[r13+0x8]
    411e:	4c 8b 7d 98          	mov    r15,QWORD PTR [rbp-0x68]
    4122:	4c 89 ff             	mov    rdi,r15
    4125:	4d 8b 65 00          	mov    r12,QWORD PTR [r13+0x0]
    4129:	4d 8d 6d 08          	lea    r13,[r13+0x8]
    412d:	4d 8b 7d 00          	mov    r15,QWORD PTR [r13+0x0]
    4131:	4d 8d 6d 08          	lea    r13,[r13+0x8]
    4135:	4c 8b 75 a0          	mov    r14,QWORD PTR [rbp-0x60]
    4139:	4d 8b 75 00          	mov    r14,QWORD PTR [r13+0x0]
    413d:	4d 8d 6d 08          	lea    r13,[r13+0x8]
    4141:	4c 89 7d 98          	mov    QWORD PTR [rbp-0x68],r15
    4145:	4c 8b 7d a8          	mov    r15,QWORD PTR [rbp-0x58]
    4149:	4d 8b 7d 00          	mov    r15,QWORD PTR [r13+0x0]
    414d:	4d 8d 6d 08          	lea    r13,[r13+0x8]
    4151:	4c 89 7d a8          	mov    QWORD PTR [rbp-0x58],r15
    4155:	4c 89 75 a0          	mov    QWORD PTR [rbp-0x60],r14
    4159:	e9 e4 f4 ff ff       	jmp    0x3642
    415e:	4c 8b 7d 98          	mov    r15,QWORD PTR [rbp-0x68]
    4162:	49 8b 07             	mov    rax,QWORD PTR [r15]
    4165:	49 be 1b 38 5c 55 55 	movabs r14,0x5555555c381b
    416c:	55 00 00 
    416f:	49 8d 8e 6b f2 06 00 	lea    rcx,[r14+0x6f26b]
    4176:	31 d2                	xor    edx,edx
    4178:	bf 08 00 00 00       	mov    edi,0x8
    417d:	44 8b 40 18          	mov    r8d,DWORD PTR [rax+0x18]
    4181:	31 c0                	xor    eax,eax
    4183:	49 be 2d 38 5c 55 55 	movabs r14,0x5555555c382d
    418a:	55 00 00 
    418d:	4d 8d 6d f8          	lea    r13,[r13-0x8]
    4191:	4d 89 75 00          	mov    QWORD PTR [r13+0x0],r14
    4195:	4c 89 7d 98          	mov    QWORD PTR [rbp-0x68],r15
    4199:	e9 dc be ff ff       	jmp    0x7a
    419e:	e9 87 fe ff ff       	jmp    0x402a
    41a3:	4d 8d 6d f8          	lea    r13,[r13-0x8]
    41a7:	4c 8b 7d b0          	mov    r15,QWORD PTR [rbp-0x50]
    41ab:	4d 89 7d 00          	mov    QWORD PTR [r13+0x0],r15
    41af:	4d 8d 6d f8          	lea    r13,[r13-0x8]
    41b3:	4c 8b 75 a8          	mov    r14,QWORD PTR [rbp-0x58]
    41b7:	4d 89 75 00          	mov    QWORD PTR [r13+0x0],r14
    41bb:	4d 8d 6d f8          	lea    r13,[r13-0x8]
    41bf:	4c 89 7d b0          	mov    QWORD PTR [rbp-0x50],r15
    41c3:	4c 8b 7d a0          	mov    r15,QWORD PTR [rbp-0x60]
    41c7:	4d 89 7d 00          	mov    QWORD PTR [r13+0x0],r15
    41cb:	4d 8d 6d f8          	lea    r13,[r13-0x8]
    41cf:	4c 89 7d a0          	mov    QWORD PTR [rbp-0x60],r15
    41d3:	4c 8b 7d 98          	mov    r15,QWORD PTR [rbp-0x68]
    41d7:	4d 89 7d 00          	mov    QWORD PTR [r13+0x0],r15
    41db:	4d 8d 6d f8          	lea    r13,[r13-0x8]
    41df:	4d 89 65 00          	mov    QWORD PTR [r13+0x0],r12
    41e3:	4d 8d 6d f8          	lea    r13,[r13-0x8]
    41e7:	49 89 5d 00          	mov    QWORD PTR [r13+0x0],rbx
    41eb:	49 83 ed 18          	sub    r13,0x18
    41ef:	48 83 bf f8 04 00 00 	cmp    QWORD PTR [rdi+0x4f8],0x0
    41f6:	00 
    41f7:	4c 8b a7 68 04 00 00 	mov    r12,QWORD PTR [rdi+0x468]
    41fe:	4c 89 7d 98          	mov    QWORD PTR [rbp-0x68],r15
    4202:	4c 89 75 a8          	mov    QWORD PTR [rbp-0x58],r14
    4206:	0f 85 1b 05 00 00    	jne    0x4727
    420c:	49 bf ca 3a 5c 55 55 	movabs r15,0x5555555c3aca
    4213:	55 00 00 
    4216:	49 8d 87 b6 36 0a 00 	lea    rax,[r15+0xa36b6]
    421d:	48 8b 57 28          	mov    rdx,QWORD PTR [rdi+0x28]
    4221:	48 89 fb             	mov    rbx,rdi
    4224:	66 41 83 bc 24 10 05 	cmp    WORD PTR [r12+0x510],0x1
    422b:	00 00 01 
    422e:	48 8b 00             	mov    rax,QWORD PTR [rax]
    4231:	4c 8b 7d 98          	mov    r15,QWORD PTR [rbp-0x68]
    4235:	4c 8b 3c c2          	mov    r15,QWORD PTR [rdx+rax*8]
    4239:	4c 89 7d 98          	mov    QWORD PTR [rbp-0x68],r15
    423d:	0f 85 8f 03 00 00    	jne    0x45d2
    4243:	4c 8b 7d a0          	mov    r15,QWORD PTR [rbp-0x60]
    4247:	4d 8b 7c 24 08       	mov    r15,QWORD PTR [r12+0x8]
    424c:	49 8b 5f 08          	mov    rbx,QWORD PTR [r15+0x8]
    4250:	f6 43 09 01          	test   BYTE PTR [rbx+0x9],0x1
    4254:	4c 89 7d a0          	mov    QWORD PTR [rbp-0x60],r15
    4258:	0f 85 61 05 00 00    	jne    0x47bf
    425e:	41 0f b6 94 24 1a 05 	movzx  edx,BYTE PTR [r12+0x51a]
    4265:	00 00 
    4267:	f6 c2 10             	test   dl,0x10
    426a:	74 0e                	je     0x427a
    426c:	83 e2 f9             	and    edx,0xfffffff9
    426f:	83 ca 04             	or     edx,0x4
    4272:	41 88 94 24 1a 05 00 	mov    BYTE PTR [r12+0x51a],dl
    4279:	00 
    427a:	49 bf 17 3b 5c 55 55 	movabs r15,0x5555555c3b17
    4281:	55 00 00 
    4284:	49 8d 97 c1 b0 0d 00 	lea    rdx,[r15+0xdb0c1]
    428b:	44 8b 12             	mov    r10d,DWORD PTR [rdx]
    428e:	45 85 d2             	test   r10d,r10d
    4291:	0f 85 ee 04 00 00    	jne    0x4785
    4297:	49 bf 2a 3b 5c 55 55 	movabs r15,0x5555555c3b2a
    429e:	55 00 00 
    42a1:	49 8d 97 96 b0 0d 00 	lea    rdx,[r15+0xdb096]
    42a8:	48 83 3a 00          	cmp    QWORD PTR [rdx],0x0
    42ac:	0f 85 d3 04 00 00    	jne    0x4785
    42b2:	41 f6 84 24 1a 05 00 	test   BYTE PTR [r12+0x51a],0x2
    42b9:	00 02 
    42bb:	0f 84 c4 04 00 00    	je     0x4785
    42c1:	4c 8b 7d 98          	mov    r15,QWORD PTR [rbp-0x68]
    42c5:	49 83 bf 20 01 00 00 	cmp    QWORD PTR [r15+0x120],0x0
    42cc:	00 
    42cd:	4c 89 7d 98          	mov    QWORD PTR [rbp-0x68],r15
    42d1:	0f 84 ae 04 00 00    	je     0x4785
    42d7:	49 8b 54 24 28       	mov    rdx,QWORD PTR [r12+0x28]
    42dc:	4c 8b 7d a0          	mov    r15,QWORD PTR [rbp-0x60]
    42e0:	49 8b 77 50          	mov    rsi,QWORD PTR [r15+0x50]
    42e4:	48 8b 04 c2          	mov    rax,QWORD PTR [rdx+rax*8]
    42e8:	49 89 45 08          	mov    QWORD PTR [r13+0x8],rax
    42ec:	48 f7 06 00 01 00 00 	test   QWORD PTR [rsi],0x100
    42f3:	4c 89 7d a0          	mov    QWORD PTR [rbp-0x60],r15
    42f7:	0f 85 37 07 00 00    	jne    0x4a34
    42fd:	4c 8b 7d b0          	mov    r15,QWORD PTR [rbp-0x50]
    4301:	4d 8b 7c 24 60       	mov    r15,QWORD PTR [r12+0x60]
    4306:	49 be 79 3b 5c 55 55 	movabs r14,0x5555555c3b79
    430d:	55 00 00 
    4310:	49 8d 86 6b 57 07 00 	lea    rax,[r14+0x7576b]
    4317:	4c 8b 75 a8          	mov    r14,QWORD PTR [rbp-0x58]
    431b:	4d 8b b4 24 f0 04 00 	mov    r14,QWORD PTR [r12+0x4f0]
    4322:	00 
    4323:	48 89 46 40          	mov    QWORD PTR [rsi+0x40],rax
    4327:	49 8b 47 08          	mov    rax,QWORD PTR [r15+0x8]
    432b:	49 39 07             	cmp    QWORD PTR [r15],rax
    432e:	4c 89 7d b0          	mov    QWORD PTR [rbp-0x50],r15
    4332:	4c 89 75 a8          	mov    QWORD PTR [rbp-0x58],r14
    4336:	0f 83 c0 00 00 00    	jae    0x43fc
    433c:	4c 8b 7d b0          	mov    r15,QWORD PTR [rbp-0x50]
    4340:	4c 8b 75 a0          	mov    r14,QWORD PTR [rbp-0x60]
    4344:	4d 3b be b0 00 00 00 	cmp    r15,QWORD PTR [r14+0xb0]
    434b:	4c 89 7d b0          	mov    QWORD PTR [rbp-0x50],r15
    434f:	4c 89 75 a0          	mov    QWORD PTR [rbp-0x60],r14
    4353:	0f 84 a3 00 00 00    	je     0x43fc
    4359:	4c 8b 7d a8          	mov    r15,QWORD PTR [rbp-0x58]
    435d:	49 8b 57 20          	mov    rdx,QWORD PTR [r15+0x20]
    4361:	4c 8b 75 a0          	mov    r14,QWORD PTR [rbp-0x60]
    4365:	49 8b 7e 58          	mov    rdi,QWORD PTR [r14+0x58]
    4369:	4c 89 7d a8          	mov    QWORD PTR [rbp-0x58],r15
    436d:	4c 89 75 a0          	mov    QWORD PTR [rbp-0x60],r14
    4371:	48 85 d2             	test   rdx,rdx
    4374:	74 3f                	je     0x43b5
    4376:	48 89 d1             	mov    rcx,rdx
    4379:	48 8b 52 08          	mov    rdx,QWORD PTR [rdx+0x8]
    437d:	48 8b 01             	mov    rax,QWORD PTR [rcx]
    4380:	4c 8b 7d b0          	mov    r15,QWORD PTR [rbp-0x50]
    4384:	49 39 c7             	cmp    r15,rax
    4387:	4c 89 7d b0          	mov    QWORD PTR [rbp-0x50],r15
    438b:	0f 84 92 06 00 00    	je     0x4a23
    4391:	48 8b 70 20          	mov    rsi,QWORD PTR [rax+0x20]
    4395:	48 89 30             	mov    QWORD PTR [rax],rsi
    4398:	48 89 70 08          	mov    QWORD PTR [rax+0x8],rsi
    439c:	4c 8b 7d a8          	mov    r15,QWORD PTR [rbp-0x58]
    43a0:	49 8b 47 30          	mov    rax,QWORD PTR [r15+0x30]
    43a4:	48 89 41 08          	mov    QWORD PTR [rcx+0x8],rax
    43a8:	49 89 4f 30          	mov    QWORD PTR [r15+0x30],rcx
    43ac:	48 85 d2             	test   rdx,rdx
    43af:	4c 89 7d a8          	mov    QWORD PTR [rbp-0x58],r15
    43b3:	75 c1                	jne    0x4376
    43b5:	49 bf d7 3b 5c 55 55 	movabs r15,0x5555555c3bd7
    43bc:	55 00 00 
    43bf:	4d 8d 6d f8          	lea    r13,[r13-0x8]
    43c3:	4d 89 7d 00          	mov    QWORD PTR [r13+0x0],r15
    43c7:	e9 f5 ac 00 00       	jmp    0xf0c1
    43cc:	48 85 c0             	test   rax,rax
    43cf:	0f 84 ea 03 00 00    	je     0x47bf
    43d5:	4c 8b 7d b0          	mov    r15,QWORD PTR [rbp-0x50]
    43d9:	4c 89 38             	mov    QWORD PTR [rax],r15
    43dc:	48 c7 40 08 00 00 00 	mov    QWORD PTR [rax+0x8],0x0
    43e3:	00 
    43e4:	4c 8b 75 a8          	mov    r14,QWORD PTR [rbp-0x58]
    43e8:	49 89 46 20          	mov    QWORD PTR [r14+0x20],rax
    43ec:	49 c7 46 28 01 00 00 	mov    QWORD PTR [r14+0x28],0x1
    43f3:	00 
    43f4:	4c 89 7d b0          	mov    QWORD PTR [rbp-0x50],r15
    43f8:	4c 89 75 a8          	mov    QWORD PTR [rbp-0x58],r14
    43fc:	41 80 a4 24 1a 05 00 	and    BYTE PTR [r12+0x51a],0xfd
    4403:	00 fd 
    4405:	31 f6                	xor    esi,esi
    4407:	4c 89 e7             	mov    rdi,r12
    440a:	49 bf 08 3c 5c 55 55 	movabs r15,0x5555555c3c08
    4411:	55 00 00 
    4414:	4d 8d 6d f8          	lea    r13,[r13-0x8]
    4418:	4d 89 7d 00          	mov    QWORD PTR [r13+0x0],r15
    441c:	e9 95 e9 ff ff       	jmp    0x2db6
    4421:	4c 8b 7d a0          	mov    r15,QWORD PTR [rbp-0x60]
    4425:	4c 8b 75 a8          	mov    r14,QWORD PTR [rbp-0x58]
    4429:	4d 89 37             	mov    QWORD PTR [r15],r14
    442c:	31 f6                	xor    esi,esi
    442e:	48 89 df             	mov    rdi,rbx
    4431:	4c 89 7d a0          	mov    QWORD PTR [rbp-0x60],r15
    4435:	49 bf 16 3c 5c 55 55 	movabs r15,0x5555555c3c16
    443c:	55 00 00 
    443f:	4d 8d 6d f8          	lea    r13,[r13-0x8]
    4443:	4d 89 7d 00          	mov    QWORD PTR [r13+0x0],r15
    4447:	4c 89 75 a8          	mov    QWORD PTR [rbp-0x58],r14
    444b:	e9 bf ac 00 00       	jmp    0xf10f
    4450:	48 85 c0             	test   rax,rax
    4453:	0f 85 69 06 00 00    	jne    0x4ac2
    4459:	49 bf 26 3c 5c 55 55 	movabs r15,0x5555555c3c26
    4460:	55 00 00 
    4463:	49 8d 87 1a d1 ff ff 	lea    rax,[r15-0x2ee6]
    446a:	4c 8b 7d a0          	mov    r15,QWORD PTR [rbp-0x60]
    446e:	4d 8b 67 10          	mov    r12,QWORD PTR [r15+0x10]
    4472:	49 89 44 24 10       	mov    QWORD PTR [r12+0x10],rax
    4477:	4c 8b 75 b0          	mov    r14,QWORD PTR [rbp-0x50]
    447b:	49 8b 46 08          	mov    rax,QWORD PTR [r14+0x8]
    447f:	49 39 06             	cmp    QWORD PTR [r14],rax
    4482:	4c 89 7d a0          	mov    QWORD PTR [rbp-0x60],r15
    4486:	4c 89 75 b0          	mov    QWORD PTR [rbp-0x50],r14
    448a:	0f 83 8e 06 00 00    	jae    0x4b1e
    4490:	4c 8b 7d a0          	mov    r15,QWORD PTR [rbp-0x60]
    4494:	49 8b 77 50          	mov    rsi,QWORD PTR [r15+0x50]
    4498:	48 f7 06 00 01 00 00 	test   QWORD PTR [rsi],0x100
    449f:	4c 89 7d a0          	mov    QWORD PTR [rbp-0x60],r15
    44a3:	0f 85 1b 0b 00 00    	jne    0x4fc4
    44a9:	49 bf 53 3c 5c 55 55 	movabs r15,0x5555555c3c53
    44b0:	55 00 00 
    44b3:	49 8d 87 4d 5c 07 00 	lea    rax,[r15+0x75c4d]
    44ba:	4c 8b 7d a0          	mov    r15,QWORD PTR [rbp-0x60]
    44be:	4c 89 ff             	mov    rdi,r15
    44c1:	48 89 46 40          	mov    QWORD PTR [rsi+0x40],rax
    44c5:	49 be 5f 3c 5c 55 55 	movabs r14,0x5555555c3c5f
    44cc:	55 00 00 
    44cf:	4d 8d 6d f8          	lea    r13,[r13-0x8]
    44d3:	4d 89 75 00          	mov    QWORD PTR [r13+0x0],r14
    44d7:	4c 89 7d a0          	mov    QWORD PTR [rbp-0x60],r15
    44db:	e9 49 ac 00 00       	jmp    0xf129
    44e0:	48 85 c0             	test   rax,rax
    44e3:	0f 84 d9 05 00 00    	je     0x4ac2
    44e9:	80 88 19 05 00 00 20 	or     BYTE PTR [rax+0x519],0x20
    44f0:	4c 8b 7d a0          	mov    r15,QWORD PTR [rbp-0x60]
    44f4:	49 89 07             	mov    QWORD PTR [r15],rax
    44f7:	41 80 a7 e1 00 00 00 	and    BYTE PTR [r15+0xe1],0xdf
    44fe:	df 
    44ff:	48 8b 73 20          	mov    rsi,QWORD PTR [rbx+0x20]
    4503:	0f b6 43 09          	movzx  eax,BYTE PTR [rbx+0x9]
    4507:	49 c7 47 48 00 00 00 	mov    QWORD PTR [r15+0x48],0x0
    450e:	00 
    450f:	48 8b 16             	mov    rdx,QWORD PTR [rsi]
    4512:	a8 08                	test   al,0x8
    4514:	4c 89 7d a0          	mov    QWORD PTR [rbp-0x60],r15
    4518:	0f 85 e8 0a 00 00    	jne    0x5006
    451e:	49 bf 9d 3c 5c 55 55 	movabs r15,0x5555555c3c9d
    4525:	55 00 00 
    4528:	49 8d 8f d3 1e 00 00 	lea    rcx,[r15+0x1ed3]
    452f:	83 e2 10             	and    edx,0x10
    4532:	48 89 4b 10          	mov    QWORD PTR [rbx+0x10],rcx
    4536:	84 c0                	test   al,al
    4538:	0f 88 64 0a 00 00    	js     0x4fa2
    453e:	49 bf b3 3c 5c 55 55 	movabs r15,0x5555555c3cb3
    4545:	55 00 00 
    4548:	49 8d 87 0d ee 0c 00 	lea    rax,[r15+0xcee0d]
    454f:	80 4b 09 80          	or     BYTE PTR [rbx+0x9],0x80
    4553:	48 8d 4b 50          	lea    rcx,[rbx+0x50]
    4557:	48 8b 38             	mov    rdi,QWORD PTR [rax]
    455a:	48 89 08             	mov    QWORD PTR [rax],rcx
    455d:	48 89 7b 50          	mov    QWORD PTR [rbx+0x50],rdi
    4561:	48 89 4f 08          	mov    QWORD PTR [rdi+0x8],rcx
    4565:	48 89 43 58          	mov    QWORD PTR [rbx+0x58],rax
    4569:	48 85 d2             	test   rdx,rdx
    456c:	0f 85 ba 09 00 00    	jne    0x4f2c
    4572:	49 83 c5 18          	add    r13,0x18
    4576:	49 8b 5d 00          	mov    rbx,QWORD PTR [r13+0x0]
    457a:	4d 8d 6d 08          	lea    r13,[r13+0x8]
    457e:	4d 8b 65 00          	mov    r12,QWORD PTR [r13+0x0]
    4582:	4d 8d 6d 08          	lea    r13,[r13+0x8]
    4586:	4c 8b 7d 98          	mov    r15,QWORD PTR [rbp-0x68]
    458a:	4d 8b 7d 00          	mov    r15,QWORD PTR [r13+0x0]
    458e:	4d 8d 6d 08          	lea    r13,[r13+0x8]
    4592:	4c 8b 75 a0          	mov    r14,QWORD PTR [rbp-0x60]
    4596:	4d 8b 75 00          	mov    r14,QWORD PTR [r13+0x0]
    459a:	4d 8d 6d 08          	lea    r13,[r13+0x8]
    459e:	4c 89 7d 98          	mov    QWORD PTR [rbp-0x68],r15
    45a2:	4c 8b 7d a8          	mov    r15,QWORD PTR [rbp-0x58]
    45a6:	4d 8b 7d 00          	mov    r15,QWORD PTR [r13+0x0]
    45aa:	4d 8d 6d 08          	lea    r13,[r13+0x8]
    45ae:	4c 89 7d a8          	mov    QWORD PTR [rbp-0x58],r15
    45b2:	4c 8b 7d b0          	mov    r15,QWORD PTR [rbp-0x50]
    45b6:	4d 8b 7d 00          	mov    r15,QWORD PTR [r13+0x0]
    45ba:	4d 8d 6d 08          	lea    r13,[r13+0x8]
    45be:	4c 89 7d b0          	mov    QWORD PTR [rbp-0x50],r15
    45c2:	4d 8b 7d 00          	mov    r15,QWORD PTR [r13+0x0]
    45c6:	4d 8d 6d 08          	lea    r13,[r13+0x8]
    45ca:	4d 89 fe             	mov    r14,r15
    45cd:	e9 de a8 00 00       	jmp    0xeeb0
    45d2:	f6 87 1a 05 00 00 08 	test   BYTE PTR [rdi+0x51a],0x8
    45d9:	0f 84 48 01 00 00    	je     0x4727
    45df:	49 bf fc 3c 5c 55 55 	movabs r15,0x5555555c3cfc
    45e6:	55 00 00 
    45e9:	49 8d 87 24 9d 00 00 	lea    rax,[r15+0x9d24]
    45f0:	4c 8b 7d b0          	mov    r15,QWORD PTR [rbp-0x50]
    45f4:	4c 8b 75 98          	mov    r14,QWORD PTR [rbp-0x68]
    45f8:	4d 8b be 30 01 00 00 	mov    r15,QWORD PTR [r14+0x130]
    45ff:	48 89 47 30          	mov    QWORD PTR [rdi+0x30],rax
    4603:	48 8b 47 08          	mov    rax,QWORD PTR [rdi+0x8]
    4607:	4c 89 7d b0          	mov    QWORD PTR [rbp-0x50],r15
    460b:	4c 8b 7d a0          	mov    r15,QWORD PTR [rbp-0x60]
    460f:	4c 8b 78 08          	mov    r15,QWORD PTR [rax+0x8]
    4613:	4c 89 7d a0          	mov    QWORD PTR [rbp-0x60],r15
    4617:	49 bf 17 3d 5c 55 55 	movabs r15,0x5555555c3d17
    461e:	55 00 00 
    4621:	49 8d 87 c9 eb 0c 00 	lea    rax,[r15+0xcebc9]
    4628:	4c 8b 7d a0          	mov    r15,QWORD PTR [rbp-0x60]
    462c:	49 8b 77 20          	mov    rsi,QWORD PTR [r15+0x20]
    4630:	4c 89 7d a0          	mov    QWORD PTR [rbp-0x60],r15
    4634:	4c 8b 7d a8          	mov    r15,QWORD PTR [rbp-0x58]
    4638:	4c 8b 38             	mov    r15,QWORD PTR [rax]
    463b:	48 8b 06             	mov    rax,QWORD PTR [rsi]
    463e:	4c 89 75 98          	mov    QWORD PTR [rbp-0x68],r14
    4642:	4c 8b 75 b0          	mov    r14,QWORD PTR [rbp-0x50]
    4646:	4d 01 f7             	add    r15,r14
    4649:	25 80 00 00 00       	and    eax,0x80
    464e:	4c 89 7d a8          	mov    QWORD PTR [rbp-0x58],r15
    4652:	4c 8b 7d a0          	mov    r15,QWORD PTR [rbp-0x60]
    4656:	41 f6 47 09 08       	test   BYTE PTR [r15+0x9],0x8
    465b:	4c 89 7d a0          	mov    QWORD PTR [rbp-0x60],r15
    465f:	4c 89 75 b0          	mov    QWORD PTR [rbp-0x50],r14
    4663:	0f 85 c1 01 00 00    	jne    0x482a
    4669:	49 bf 3b 3d 5c 55 55 	movabs r15,0x5555555c3d3b
    4670:	55 00 00 
    4673:	4d 8d a7 65 ed 0c 00 	lea    r12,[r15+0xced65]
    467a:	4c 8b 7d a0          	mov    r15,QWORD PTR [rbp-0x60]
    467e:	4d 8d 57 28          	lea    r10,[r15+0x28]
    4682:	4c 89 7d a0          	mov    QWORD PTR [rbp-0x60],r15
    4686:	4c 8b 7d a0          	mov    r15,QWORD PTR [rbp-0x60]
    468a:	4c 8b 75 a8          	mov    r14,QWORD PTR [rbp-0x58]
    468e:	4d 89 77 28          	mov    QWORD PTR [r15+0x28],r14
    4692:	48 85 c0             	test   rax,rax
    4695:	4c 89 7d a0          	mov    QWORD PTR [rbp-0x60],r15
    4699:	4c 89 75 a8          	mov    QWORD PTR [rbp-0x58],r14
    469d:	0f 85 b7 02 00 00    	jne    0x495a
    46a3:	4c 89 e7             	mov    rdi,r12
    46a6:	4c 89 d6             	mov    rsi,r10
    46a9:	49 bf 57 3d 5c 55 55 	movabs r15,0x5555555c3d57
    46b0:	55 00 00 
    46b3:	4d 8d 6d f8          	lea    r13,[r13-0x8]
    46b7:	4d 89 7d 00          	mov    QWORD PTR [r13+0x0],r15
    46bb:	e9 71 ac 00 00       	jmp    0xf331
    46c0:	4c 8b 7d a0          	mov    r15,QWORD PTR [rbp-0x60]
    46c4:	41 80 4f 09 08       	or     BYTE PTR [r15+0x9],0x8
    46c9:	4c 8b a3 68 04 00 00 	mov    r12,QWORD PTR [rbx+0x468]
    46d0:	4c 89 7d a0          	mov    QWORD PTR [rbp-0x60],r15
    46d4:	48 83 bb b8 03 00 00 	cmp    QWORD PTR [rbx+0x3b8],0x0
    46db:	00 
    46dc:	75 49                	jne    0x4727
    46de:	49 bf 74 3d 5c 55 55 	movabs r15,0x5555555c3d74
    46e5:	55 00 00 
    46e8:	49 8d 87 3c eb 0c 00 	lea    rax,[r15+0xceb3c]
    46ef:	4c 8b 7d 98          	mov    r15,QWORD PTR [rbp-0x68]
    46f3:	49 8b 97 28 01 00 00 	mov    rdx,QWORD PTR [r15+0x128]
    46fa:	48 be cf f7 53 e3 a5 	movabs rsi,0x20c49ba5e353f7cf
    4701:	9b c4 20 
    4704:	48 8b 00             	mov    rax,QWORD PTR [rax]
    4707:	48 c1 ea 03          	shr    rdx,0x3
    470b:	48 8b 08             	mov    rcx,QWORD PTR [rax]
    470e:	48 89 d0             	mov    rax,rdx
    4711:	48 f7 e6             	mul    rsi
    4714:	48 c1 ea 04          	shr    rdx,0x4
    4718:	48 01 ca             	add    rdx,rcx
    471b:	48 89 93 b8 03 00 00 	mov    QWORD PTR [rbx+0x3b8],rdx
    4722:	90                   	nop
    4723:	4c 89 7d 98          	mov    QWORD PTR [rbp-0x68],r15
    4727:	31 f6                	xor    esi,esi
    4729:	4c 89 e7             	mov    rdi,r12
    472c:	49 83 c5 18          	add    r13,0x18
    4730:	49 8b 5d 00          	mov    rbx,QWORD PTR [r13+0x0]
    4734:	4d 8d 6d 08          	lea    r13,[r13+0x8]
    4738:	4d 8b 65 00          	mov    r12,QWORD PTR [r13+0x0]
    473c:	4d 8d 6d 08          	lea    r13,[r13+0x8]
    4740:	4c 8b 7d 98          	mov    r15,QWORD PTR [rbp-0x68]
    4744:	4d 8b 7d 00          	mov    r15,QWORD PTR [r13+0x0]
    4748:	4d 8d 6d 08          	lea    r13,[r13+0x8]
    474c:	4c 8b 75 a0          	mov    r14,QWORD PTR [rbp-0x60]
    4750:	4d 8b 75 00          	mov    r14,QWORD PTR [r13+0x0]
    4754:	4d 8d 6d 08          	lea    r13,[r13+0x8]
    4758:	4c 89 7d 98          	mov    QWORD PTR [rbp-0x68],r15
    475c:	4c 8b 7d a8          	mov    r15,QWORD PTR [rbp-0x58]
    4760:	4d 8b 7d 00          	mov    r15,QWORD PTR [r13+0x0]
    4764:	4d 8d 6d 08          	lea    r13,[r13+0x8]
    4768:	4c 89 7d a8          	mov    QWORD PTR [rbp-0x58],r15
    476c:	4c 8b 7d b0          	mov    r15,QWORD PTR [rbp-0x50]
    4770:	4d 8b 7d 00          	mov    r15,QWORD PTR [r13+0x0]
    4774:	4d 8d 6d 08          	lea    r13,[r13+0x8]
    4778:	4c 89 7d b0          	mov    QWORD PTR [rbp-0x50],r15
    477c:	4c 89 75 a0          	mov    QWORD PTR [rbp-0x60],r14
    4780:	e9 26 ea ff ff       	jmp    0x31ab
    4785:	4c 8b 7d 98          	mov    r15,QWORD PTR [rbp-0x68]
    4789:	49 8b 87 70 01 00 00 	mov    rax,QWORD PTR [r15+0x170]
    4790:	48 83 f8 02          	cmp    rax,0x2
    4794:	4c 89 7d 98          	mov    QWORD PTR [rbp-0x68],r15
    4798:	74 34                	je     0x47ce
    479a:	48 83 f8 01          	cmp    rax,0x1
    479e:	75 1f                	jne    0x47bf
    47a0:	41 f6 84 24 1a 05 00 	test   BYTE PTR [r12+0x51a],0x4
    47a7:	00 04 
    47a9:	75 23                	jne    0x47ce
    47ab:	49 8b 44 24 60       	mov    rax,QWORD PTR [r12+0x60]
    47b0:	48 8b 48 08          	mov    rcx,QWORD PTR [rax+0x8]
    47b4:	48 39 08             	cmp    QWORD PTR [rax],rcx
    47b7:	72 15                	jb     0x47ce
    47b9:	f6 43 08 20          	test   BYTE PTR [rbx+0x8],0x20
    47bd:	75 0f                	jne    0x47ce
    47bf:	49 8b bc 24 68 04 00 	mov    rdi,QWORD PTR [r12+0x468]
    47c6:	00 
    47c7:	31 f6                	xor    esi,esi
    47c9:	e9 5e ff ff ff       	jmp    0x472c
    47ce:	49 83 c5 18          	add    r13,0x18
    47d2:	4c 8b 7d a0          	mov    r15,QWORD PTR [rbp-0x60]
    47d6:	4c 89 ff             	mov    rdi,r15
    47d9:	49 8b 5d 00          	mov    rbx,QWORD PTR [r13+0x0]
    47dd:	4d 8d 6d 08          	lea    r13,[r13+0x8]
    47e1:	4d 8b 65 00          	mov    r12,QWORD PTR [r13+0x0]
    47e5:	4d 8d 6d 08          	lea    r13,[r13+0x8]
    47e9:	4c 8b 75 98          	mov    r14,QWORD PTR [rbp-0x68]
    47ed:	4d 8b 75 00          	mov    r14,QWORD PTR [r13+0x0]
    47f1:	4d 8d 6d 08          	lea    r13,[r13+0x8]
    47f5:	4d 8b 7d 00          	mov    r15,QWORD PTR [r13+0x0]
    47f9:	4d 8d 6d 08          	lea    r13,[r13+0x8]
    47fd:	4c 89 7d a0          	mov    QWORD PTR [rbp-0x60],r15
    4801:	4c 8b 7d a8          	mov    r15,QWORD PTR [rbp-0x58]
    4805:	4d 8b 7d 00          	mov    r15,QWORD PTR [r13+0x0]
    4809:	4d 8d 6d 08          	lea    r13,[r13+0x8]
    480d:	4c 89 7d a8          	mov    QWORD PTR [rbp-0x58],r15
    4811:	4c 8b 7d b0          	mov    r15,QWORD PTR [rbp-0x50]
    4815:	4d 8b 7d 00          	mov    r15,QWORD PTR [r13+0x0]
    4819:	4d 8d 6d 08          	lea    r13,[r13+0x8]
    481d:	4c 89 7d b0          	mov    QWORD PTR [rbp-0x50],r15
    4821:	4c 89 75 98          	mov    QWORD PTR [rbp-0x68],r14
    4825:	e9 5c f3 ff ff       	jmp    0x3b86
    482a:	4c 8b 7d a0          	mov    r15,QWORD PTR [rbp-0x60]
    482e:	4d 8b 4f 28          	mov    r9,QWORD PTR [r15+0x28]
    4832:	4c 8b 75 a8          	mov    r14,QWORD PTR [rbp-0x58]
    4836:	4c 89 f2             	mov    rdx,r14
    4839:	4c 29 ca             	sub    rdx,r9
    483c:	48 81 c2 2b 01 00 00 	add    rdx,0x12b
    4843:	48 81 fa 56 02 00 00 	cmp    rdx,0x256
    484a:	4c 89 7d a0          	mov    QWORD PTR [rbp-0x60],r15
    484e:	4c 89 75 a8          	mov    QWORD PTR [rbp-0x58],r14
    4852:	0f 87 81 00 00 00    	ja     0x48d9
    4858:	48 85 c0             	test   rax,rax
    485b:	0f 84 73 fe ff ff    	je     0x46d4
    4861:	4c 8b 7d a0          	mov    r15,QWORD PTR [rbp-0x60]
    4865:	49 8b 07             	mov    rax,QWORD PTR [r15]
    4868:	49 83 ed 08          	sub    r13,0x8
    486c:	31 d2                	xor    edx,edx
    486e:	bf 08 00 00 00       	mov    edi,0x8
    4873:	49 be 59 3e 5c 55 55 	movabs r14,0x5555555c3e59
    487a:	55 00 00 
    487d:	49 8d 8e 77 ed 06 00 	lea    rcx,[r14+0x6ed77]
    4884:	44 8b 40 18          	mov    r8d,DWORD PTR [rax+0x18]
    4888:	4d 8d 6d f8          	lea    r13,[r13-0x8]
    488c:	4c 8b 75 a8          	mov    r14,QWORD PTR [rbp-0x58]
    4890:	4d 89 75 00          	mov    QWORD PTR [r13+0x0],r14
    4894:	31 c0                	xor    eax,eax
    4896:	4c 89 7d a0          	mov    QWORD PTR [rbp-0x60],r15
    489a:	49 bf 66 3e 5c 55 55 	movabs r15,0x5555555c3e66
    48a1:	55 00 00 
    48a4:	4d 8d 6d f8          	lea    r13,[r13-0x8]
    48a8:	4d 89 7d 00          	mov    QWORD PTR [r13+0x0],r15
    48ac:	4c 89 75 a8          	mov    QWORD PTR [rbp-0x58],r14
    48b0:	e9 c5 b7 ff ff       	jmp    0x7a
    48b5:	4c 8b 7d b0          	mov    r15,QWORD PTR [rbp-0x50]
    48b9:	4d 8b 7d 00          	mov    r15,QWORD PTR [r13+0x0]
    48bd:	4d 8d 6d 08          	lea    r13,[r13+0x8]
    48c1:	4c 8b a3 68 04 00 00 	mov    r12,QWORD PTR [rbx+0x468]
    48c8:	49 8b 45 00          	mov    rax,QWORD PTR [r13+0x0]
    48cc:	4d 8d 6d 08          	lea    r13,[r13+0x8]
    48d0:	4c 89 7d b0          	mov    QWORD PTR [rbp-0x50],r15
    48d4:	e9 fb fd ff ff       	jmp    0x46d4
    48d9:	48 85 c0             	test   rax,rax
    48dc:	0f 85 fc 00 00 00    	jne    0x49de
    48e2:	49 bf 88 3e 5c 55 55 	movabs r15,0x5555555c3e88
    48e9:	55 00 00 
    48ec:	4d 8d a7 18 ec 0c 00 	lea    r12,[r15+0xcec18]
    48f3:	4c 8b 7d a0          	mov    r15,QWORD PTR [rbp-0x60]
    48f7:	4d 8d 57 28          	lea    r10,[r15+0x28]
    48fb:	4c 89 d6             	mov    rsi,r10
    48fe:	4d 89 55 08          	mov    QWORD PTR [r13+0x8],r10
    4902:	4c 89 e7             	mov    rdi,r12
    4905:	49 be 9c 3e 5c 55 55 	movabs r14,0x5555555c3e9c
    490c:	55 00 00 
    490f:	4d 8d 6d f8          	lea    r13,[r13-0x8]
    4913:	4d 89 75 00          	mov    QWORD PTR [r13+0x0],r14
    4917:	4c 89 7d a0          	mov    QWORD PTR [rbp-0x60],r15
    491b:	e9 9b ac 00 00       	jmp    0xf5bb
    4920:	4c 8b 7d a0          	mov    r15,QWORD PTR [rbp-0x60]
    4924:	49 8b 77 20          	mov    rsi,QWORD PTR [r15+0x20]
    4928:	41 80 67 09 f7       	and    BYTE PTR [r15+0x9],0xf7
    492d:	49 c7 47 30 00 00 00 	mov    QWORD PTR [r15+0x30],0x0
    4934:	00 
    4935:	4d 8b 55 08          	mov    r10,QWORD PTR [r13+0x8]
    4939:	48 8b 06             	mov    rax,QWORD PTR [rsi]
    493c:	49 c7 47 38 00 00 00 	mov    QWORD PTR [r15+0x38],0x0
    4943:	00 
    4944:	49 c7 47 40 00 00 00 	mov    QWORD PTR [r15+0x40],0x0
    494b:	00 
    494c:	25 80 00 00 00       	and    eax,0x80
    4951:	4c 89 7d a0          	mov    QWORD PTR [rbp-0x60],r15
    4955:	e9 2c fd ff ff       	jmp    0x4686
    495a:	4c 8b 7d a0          	mov    r15,QWORD PTR [rbp-0x60]
    495e:	49 8b 07             	mov    rax,QWORD PTR [r15]
    4961:	4d 89 55 08          	mov    QWORD PTR [r13+0x8],r10
    4965:	49 83 ed 08          	sub    r13,0x8
    4969:	4c 8b 75 b0          	mov    r14,QWORD PTR [rbp-0x50]
    496d:	4d 89 f1             	mov    r9,r14
    4970:	4c 89 7d a0          	mov    QWORD PTR [rbp-0x60],r15
    4974:	49 bf e7 3e 5c 55 55 	movabs r15,0x5555555c3ee7
    497b:	55 00 00 
    497e:	49 8d 8f 5b ec 06 00 	lea    rcx,[r15+0x6ec5b]
    4985:	31 d2                	xor    edx,edx
    4987:	bf 08 00 00 00       	mov    edi,0x8
    498c:	44 8b 40 18          	mov    r8d,DWORD PTR [rax+0x18]
    4990:	4d 8d 6d f8          	lea    r13,[r13-0x8]
    4994:	4c 8b 7d a8          	mov    r15,QWORD PTR [rbp-0x58]
    4998:	4d 89 7d 00          	mov    QWORD PTR [r13+0x0],r15
    499c:	31 c0                	xor    eax,eax
    499e:	4c 89 7d a8          	mov    QWORD PTR [rbp-0x58],r15
    49a2:	49 bf fb 3e 5c 55 55 	movabs r15,0x5555555c3efb
    49a9:	55 00 00 
    49ac:	4d 8d 6d f8          	lea    r13,[r13-0x8]
    49b0:	4d 89 7d 00          	mov    QWORD PTR [r13+0x0],r15
    49b4:	4c 89 75 b0          	mov    QWORD PTR [rbp-0x50],r14
    49b8:	e9 bd b6 ff ff       	jmp    0x7a
    49bd:	4d 8b 5d 00          	mov    r11,QWORD PTR [r13+0x0]
    49c1:	4d 8d 6d 08          	lea    r13,[r13+0x8]
    49c5:	4c 8b 7d a8          	mov    r15,QWORD PTR [rbp-0x58]
    49c9:	4d 8b 7d 00          	mov    r15,QWORD PTR [r13+0x0]
    49cd:	4d 8d 6d 08          	lea    r13,[r13+0x8]
    49d1:	4d 8b 55 08          	mov    r10,QWORD PTR [r13+0x8]
    49d5:	4c 89 7d a8          	mov    QWORD PTR [rbp-0x58],r15
    49d9:	e9 c5 fc ff ff       	jmp    0x46a3
    49de:	4c 8b 7d a0          	mov    r15,QWORD PTR [rbp-0x60]
    49e2:	49 8b 07             	mov    rax,QWORD PTR [r15]
    49e5:	49 be 14 3f 5c 55 55 	movabs r14,0x5555555c3f14
    49ec:	55 00 00 
    49ef:	49 8d 8e 72 eb 06 00 	lea    rcx,[r14+0x6eb72]
    49f6:	31 d2                	xor    edx,edx
    49f8:	bf 08 00 00 00       	mov    edi,0x8
    49fd:	44 8b 40 18          	mov    r8d,DWORD PTR [rax+0x18]
    4a01:	31 c0                	xor    eax,eax
    4a03:	49 be 26 3f 5c 55 55 	movabs r14,0x5555555c3f26
    4a0a:	55 00 00 
    4a0d:	4d 8d 6d f8          	lea    r13,[r13-0x8]
    4a11:	4d 89 75 00          	mov    QWORD PTR [r13+0x0],r14
    4a15:	4c 89 7d a0          	mov    QWORD PTR [rbp-0x60],r15
    4a19:	e9 5c b6 ff ff       	jmp    0x7a
    4a1e:	e9 bf fe ff ff       	jmp    0x48e2
    4a23:	48 8b 47 30          	mov    rax,QWORD PTR [rdi+0x30]
    4a27:	48 89 41 08          	mov    QWORD PTR [rcx+0x8],rax
    4a2b:	48 89 4f 30          	mov    QWORD PTR [rdi+0x30],rcx
    4a2f:	e9 3d f9 ff ff       	jmp    0x4371
    4a34:	49 bf 43 3f 5c 55 55 	movabs r15,0x5555555c3f43
    4a3b:	55 00 00 
    4a3e:	49 8d 8f 82 54 07 00 	lea    rcx,[r15+0x75482]
    4a45:	31 d2                	xor    edx,edx
    4a47:	bf 08 00 00 00       	mov    edi,0x8
    4a4c:	31 c0                	xor    eax,eax
    4a4e:	49 bf 51 3f 5c 55 55 	movabs r15,0x5555555c3f51
    4a55:	55 00 00 
    4a58:	4d 8d 6d f8          	lea    r13,[r13-0x8]
    4a5c:	4d 89 7d 00          	mov    QWORD PTR [r13+0x0],r15
    4a60:	e9 15 b6 ff ff       	jmp    0x7a
    4a65:	4c 8b 7d a0          	mov    r15,QWORD PTR [rbp-0x60]
    4a69:	49 8b 77 50          	mov    rsi,QWORD PTR [r15+0x50]
    4a6d:	4c 89 7d a0          	mov    QWORD PTR [rbp-0x60],r15
    4a71:	e9 87 f8 ff ff       	jmp    0x42fd
    4a76:	49 bf 5f 3f 5c 55 55 	movabs r15,0x5555555c3f5f
    4a7d:	55 00 00 
    4a80:	4d 8d 6d f8          	lea    r13,[r13-0x8]
    4a84:	4d 89 7d 00          	mov    QWORD PTR [r13+0x0],r15
    4a88:	e9 22 a8 00 00       	jmp    0xf2af
    4a8d:	49 bf 66 3f 5c 55 55 	movabs r15,0x5555555c3f66
    4a94:	55 00 00 
    4a97:	49 8d 97 a7 54 07 00 	lea    rdx,[r15+0x754a7]
    4a9e:	4c 8b 7d a0          	mov    r15,QWORD PTR [rbp-0x60]
    4aa2:	4c 89 ff             	mov    rdi,r15
    4aa5:	8b 30                	mov    esi,DWORD PTR [rax]
    4aa7:	49 be 70 3f 5c 55 55 	movabs r14,0x5555555c3f70
    4aae:	55 00 00 
    4ab1:	4d 8d 6d f8          	lea    r13,[r13-0x8]
    4ab5:	4d 89 75 00          	mov    QWORD PTR [r13+0x0],r14
    4ab9:	4c 89 7d a0          	mov    QWORD PTR [rbp-0x60],r15
    4abd:	e9 7f ac 00 00       	jmp    0xf741
    4ac2:	49 83 c5 18          	add    r13,0x18
    4ac6:	4c 8b 7d a0          	mov    r15,QWORD PTR [rbp-0x60]
    4aca:	4c 89 ff             	mov    rdi,r15
    4acd:	49 8b 5d 00          	mov    rbx,QWORD PTR [r13+0x0]
    4ad1:	4d 8d 6d 08          	lea    r13,[r13+0x8]
    4ad5:	4d 8b 65 00          	mov    r12,QWORD PTR [r13+0x0]
    4ad9:	4d 8d 6d 08          	lea    r13,[r13+0x8]
    4add:	4c 8b 75 98          	mov    r14,QWORD PTR [rbp-0x68]
    4ae1:	4d 8b 75 00          	mov    r14,QWORD PTR [r13+0x0]
    4ae5:	4d 8d 6d 08          	lea    r13,[r13+0x8]
    4ae9:	4d 8b 7d 00          	mov    r15,QWORD PTR [r13+0x0]
    4aed:	4d 8d 6d 08          	lea    r13,[r13+0x8]
    4af1:	4c 89 7d a0          	mov    QWORD PTR [rbp-0x60],r15
    4af5:	4c 8b 7d a8          	mov    r15,QWORD PTR [rbp-0x58]
    4af9:	4d 8b 7d 00          	mov    r15,QWORD PTR [r13+0x0]
    4afd:	4d 8d 6d 08          	lea    r13,[r13+0x8]
    4b01:	4c 89 7d a8          	mov    QWORD PTR [rbp-0x58],r15
    4b05:	4c 8b 7d b0          	mov    r15,QWORD PTR [rbp-0x50]
    4b09:	4d 8b 7d 00          	mov    r15,QWORD PTR [r13+0x0]
    4b0d:	4d 8d 6d 08          	lea    r13,[r13+0x8]
    4b11:	4c 89 7d b0          	mov    QWORD PTR [rbp-0x50],r15
    4b15:	4c 89 75 98          	mov    QWORD PTR [rbp-0x68],r14
    4b19:	e9 a5 e0 ff ff       	jmp    0x2bc3
    4b1e:	4c 8b 7d b0          	mov    r15,QWORD PTR [rbp-0x50]
    4b22:	4c 8b 75 a0          	mov    r14,QWORD PTR [rbp-0x60]
    4b26:	4d 8b be b0 00 00 00 	mov    r15,QWORD PTR [r14+0xb0]
    4b2d:	49 8b 7e 58          	mov    rdi,QWORD PTR [r14+0x58]
    4b31:	49 8b 77 20          	mov    rsi,QWORD PTR [r15+0x20]
    4b35:	4c 89 7d b0          	mov    QWORD PTR [rbp-0x50],r15
    4b39:	49 bf 9a 3f 5c 55 55 	movabs r15,0x5555555c3f9a
    4b40:	55 00 00 
    4b43:	4d 8d 6d f8          	lea    r13,[r13-0x8]
    4b47:	4d 89 7d 00          	mov    QWORD PTR [r13+0x0],r15
    4b4b:	4c 89 75 a0          	mov    QWORD PTR [rbp-0x60],r14
    4b4f:	e9 c7 a8 00 00       	jmp    0xf41b
    4b54:	48 85 c0             	test   rax,rax
    4b57:	0f 85 0c 05 00 00    	jne    0x5069
    4b5d:	4c 8b 7d b0          	mov    r15,QWORD PTR [rbp-0x50]
    4b61:	49 c7 07 00 00 00 00 	mov    QWORD PTR [r15],0x0
    4b68:	4c 89 7d b0          	mov    QWORD PTR [rbp-0x50],r15
    4b6c:	4c 8b 7d a0          	mov    r15,QWORD PTR [rbp-0x60]
    4b70:	49 8b 77 50          	mov    rsi,QWORD PTR [r15+0x50]
    4b74:	4c 8b 75 b0          	mov    r14,QWORD PTR [rbp-0x50]
    4b78:	4c 89 7d a0          	mov    QWORD PTR [rbp-0x60],r15
    4b7c:	4c 8b 7d a8          	mov    r15,QWORD PTR [rbp-0x58]
    4b80:	4d 8b 77 30          	mov    r14,QWORD PTR [r15+0x30]
    4b84:	48 f7 06 00 01 00 00 	test   QWORD PTR [rsi],0x100
    4b8b:	4c 89 7d a8          	mov    QWORD PTR [rbp-0x58],r15
    4b8f:	4c 89 75 b0          	mov    QWORD PTR [rbp-0x50],r14
    4b93:	0f 85 88 05 00 00    	jne    0x5121
    4b99:	4c 8b 7d b0          	mov    r15,QWORD PTR [rbp-0x50]
    4b9d:	4d 85 ff             	test   r15,r15
    4ba0:	4c 89 7d b0          	mov    QWORD PTR [rbp-0x50],r15
    4ba4:	0f 84 d4 00 00 00    	je     0x4c7e
    4baa:	4c 8b 7d a0          	mov    r15,QWORD PTR [rbp-0x60]
    4bae:	49 8b 7f 58          	mov    rdi,QWORD PTR [r15+0x58]
    4bb2:	4c 89 7d a0          	mov    QWORD PTR [rbp-0x60],r15
    4bb6:	4c 8b 7d b0          	mov    r15,QWORD PTR [rbp-0x50]
    4bba:	4c 8b 75 98          	mov    r14,QWORD PTR [rbp-0x68]
    4bbe:	4d 89 fe             	mov    r14,r15
    4bc1:	4d 8b 7f 08          	mov    r15,QWORD PTR [r15+0x8]
    4bc5:	49 8b 06             	mov    rax,QWORD PTR [r14]
    4bc8:	48 8b 70 20          	mov    rsi,QWORD PTR [rax+0x20]
    4bcc:	4c 89 7d b0          	mov    QWORD PTR [rbp-0x50],r15
    4bd0:	49 bf dc 3f 5c 55 55 	movabs r15,0x5555555c3fdc
    4bd7:	55 00 00 
    4bda:	4d 8d 6d f8          	lea    r13,[r13-0x8]
    4bde:	4d 89 7d 00          	mov    QWORD PTR [r13+0x0],r15
    4be2:	4c 89 75 98          	mov    QWORD PTR [rbp-0x68],r14
    4be6:	e9 30 a8 00 00       	jmp    0xf41b
    4beb:	4c 8b 7d a0          	mov    r15,QWORD PTR [rbp-0x60]
    4bef:	49 8b 7f 58          	mov    rdi,QWORD PTR [r15+0x58]
    4bf3:	48 8b 47 30          	mov    rax,QWORD PTR [rdi+0x30]
    4bf7:	4c 8b 75 98          	mov    r14,QWORD PTR [rbp-0x68]
    4bfb:	49 89 46 08          	mov    QWORD PTR [r14+0x8],rax
    4bff:	4c 89 77 30          	mov    QWORD PTR [rdi+0x30],r14
    4c03:	4c 89 7d a0          	mov    QWORD PTR [rbp-0x60],r15
    4c07:	4c 8b 7d b0          	mov    r15,QWORD PTR [rbp-0x50]
    4c0b:	4d 85 ff             	test   r15,r15
    4c0e:	4c 89 7d b0          	mov    QWORD PTR [rbp-0x50],r15
    4c12:	4c 89 75 98          	mov    QWORD PTR [rbp-0x68],r14
    4c16:	75 9e                	jne    0x4bb6
    4c18:	4c 8b 7d a8          	mov    r15,QWORD PTR [rbp-0x58]
    4c1c:	49 c7 47 30 00 00 00 	mov    QWORD PTR [r15+0x30],0x0
    4c23:	00 
    4c24:	4c 89 7d a8          	mov    QWORD PTR [rbp-0x58],r15
    4c28:	4c 8b 7d a0          	mov    r15,QWORD PTR [rbp-0x60]
    4c2c:	49 8b 77 50          	mov    rsi,QWORD PTR [r15+0x50]
    4c30:	48 f7 06 00 01 00 00 	test   QWORD PTR [rsi],0x100
    4c37:	4c 89 7d a0          	mov    QWORD PTR [rbp-0x60],r15
    4c3b:	74 41                	je     0x4c7e
    4c3d:	4c 8b 7d a8          	mov    r15,QWORD PTR [rbp-0x58]
    4c41:	4d 8b 4f 28          	mov    r9,QWORD PTR [r15+0x28]
    4c45:	4d 8b 47 20          	mov    r8,QWORD PTR [r15+0x20]
    4c49:	31 d2                	xor    edx,edx
    4c4b:	bf 08 00 00 00       	mov    edi,0x8
    4c50:	49 be 1d 40 5c 55 55 	movabs r14,0x5555555c401d
    4c57:	55 00 00 
    4c5a:	49 8d 8e e1 53 07 00 	lea    rcx,[r14+0x753e1]
    4c61:	31 c0                	xor    eax,eax
    4c63:	49 be 24 40 5c 55 55 	movabs r14,0x5555555c4024
    4c6a:	55 00 00 
    4c6d:	4d 8d 6d f8          	lea    r13,[r13-0x8]
    4c71:	4d 89 75 00          	mov    QWORD PTR [r13+0x0],r14
    4c75:	4c 89 7d a8          	mov    QWORD PTR [rbp-0x58],r15
    4c79:	e9 fc b3 ff ff       	jmp    0x7a
    4c7e:	4c 8b 7d b0          	mov    r15,QWORD PTR [rbp-0x50]
    4c82:	4c 8b 75 a8          	mov    r14,QWORD PTR [rbp-0x58]
    4c86:	4d 8b 7e 20          	mov    r15,QWORD PTR [r14+0x20]
    4c8a:	4d 85 ff             	test   r15,r15
    4c8d:	4c 89 7d b0          	mov    QWORD PTR [rbp-0x50],r15
    4c91:	4c 89 75 a8          	mov    QWORD PTR [rbp-0x58],r14
    4c95:	0f 84 86 00 00 00    	je     0x4d21
    4c9b:	4c 8b 7d a0          	mov    r15,QWORD PTR [rbp-0x60]
    4c9f:	49 8b 7f 58          	mov    rdi,QWORD PTR [r15+0x58]
    4ca3:	4c 89 7d a0          	mov    QWORD PTR [rbp-0x60],r15
    4ca7:	4c 8b 7d b0          	mov    r15,QWORD PTR [rbp-0x50]
    4cab:	4c 8b 75 98          	mov    r14,QWORD PTR [rbp-0x68]
    4caf:	4d 89 fe             	mov    r14,r15
    4cb2:	4d 8b 7f 08          	mov    r15,QWORD PTR [r15+0x8]
    4cb6:	49 8b 06             	mov    rax,QWORD PTR [r14]
    4cb9:	48 8b 70 20          	mov    rsi,QWORD PTR [rax+0x20]
    4cbd:	4c 89 7d b0          	mov    QWORD PTR [rbp-0x50],r15
    4cc1:	49 bf 45 40 5c 55 55 	movabs r15,0x5555555c4045
    4cc8:	55 00 00 
    4ccb:	4d 8d 6d f8          	lea    r13,[r13-0x8]
    4ccf:	4d 89 7d 00          	mov    QWORD PTR [r13+0x0],r15
    4cd3:	4c 89 75 98          	mov    QWORD PTR [rbp-0x68],r14
    4cd7:	e9 3f a7 00 00       	jmp    0xf41b
    4cdc:	4c 8b 7d a0          	mov    r15,QWORD PTR [rbp-0x60]
    4ce0:	49 8b 7f 58          	mov    rdi,QWORD PTR [r15+0x58]
    4ce4:	48 8b 47 30          	mov    rax,QWORD PTR [rdi+0x30]
    4ce8:	4c 8b 75 98          	mov    r14,QWORD PTR [rbp-0x68]
    4cec:	49 89 46 08          	mov    QWORD PTR [r14+0x8],rax
    4cf0:	4c 89 77 30          	mov    QWORD PTR [rdi+0x30],r14
    4cf4:	4c 89 7d a0          	mov    QWORD PTR [rbp-0x60],r15
    4cf8:	4c 8b 7d b0          	mov    r15,QWORD PTR [rbp-0x50]
    4cfc:	4d 85 ff             	test   r15,r15
    4cff:	4c 89 7d b0          	mov    QWORD PTR [rbp-0x50],r15
    4d03:	4c 89 75 98          	mov    QWORD PTR [rbp-0x68],r14
    4d07:	75 9e                	jne    0x4ca7
    4d09:	4c 8b 7d a8          	mov    r15,QWORD PTR [rbp-0x58]
    4d0d:	49 c7 47 20 00 00 00 	mov    QWORD PTR [r15+0x20],0x0
    4d14:	00 
    4d15:	49 c7 47 28 00 00 00 	mov    QWORD PTR [r15+0x28],0x0
    4d1c:	00 
    4d1d:	4c 89 7d a8          	mov    QWORD PTR [rbp-0x58],r15
    4d21:	4c 8b 7d a0          	mov    r15,QWORD PTR [rbp-0x60]
    4d25:	49 83 bf 90 00 00 00 	cmp    QWORD PTR [r15+0x90],0x0
    4d2c:	00 
    4d2d:	4c 89 7d a0          	mov    QWORD PTR [rbp-0x60],r15
    4d31:	74 22                	je     0x4d55
    4d33:	4c 8b 7d a0          	mov    r15,QWORD PTR [rbp-0x60]
    4d37:	4c 89 ff             	mov    rdi,r15
    4d3a:	49 be 7d 40 5c 55 55 	movabs r14,0x5555555c407d
    4d41:	55 00 00 
    4d44:	4d 8d 6d f8          	lea    r13,[r13-0x8]
    4d48:	4d 89 75 00          	mov    QWORD PTR [r13+0x0],r14
    4d4c:	4c 89 7d a0          	mov    QWORD PTR [rbp-0x60],r15
    4d50:	e9 ee a3 00 00       	jmp    0xf143
    4d55:	49 bf 84 40 5c 55 55 	movabs r15,0x5555555c4084
    4d5c:	55 00 00 
    4d5f:	49 8d 87 7c 29 00 00 	lea    rax,[r15+0x297c]
    4d66:	48 89 43 10          	mov    QWORD PTR [rbx+0x10],rax
    4d6a:	41 f6 44 24 08 08    	test   BYTE PTR [r12+0x8],0x8
    4d70:	74 58                	je     0x4dca
    4d72:	49 bf 95 40 5c 55 55 	movabs r15,0x5555555c4095
    4d79:	55 00 00 
    4d7c:	49 8d 87 f3 e9 0c 00 	lea    rax,[r15+0xce9f3]
    4d83:	f6 00 01             	test   BYTE PTR [rax],0x1
    4d86:	74 42                	je     0x4dca
    4d88:	49 bf a1 40 5c 55 55 	movabs r15,0x5555555c40a1
    4d8f:	55 00 00 
    4d92:	49 8d 87 7f e9 0c 00 	lea    rax,[r15+0xce97f]
    4d99:	31 d2                	xor    edx,edx
    4d9b:	be 04 00 00 00       	mov    esi,0x4
    4da0:	4c 89 e7             	mov    rdi,r12
    4da3:	49 bf ae 40 5c 55 55 	movabs r15,0x5555555c40ae
    4daa:	55 00 00 
    4dad:	4d 8d 6d f8          	lea    r13,[r13-0x8]
    4db1:	4d 89 7d 00          	mov    QWORD PTR [r13+0x0],r15
    4db5:	4c 8b 78 08          	mov    r15,QWORD PTR [rax+0x8]
    4db9:	4d 89 fe             	mov    r14,r15
    4dbc:	e9 37 a1 00 00       	jmp    0xeef8
    4dc1:	48 85 c0             	test   rax,rax
    4dc4:	0f 85 f8 fc ff ff    	jne    0x4ac2
    4dca:	4c 8b 7d a0          	mov    r15,QWORD PTR [rbp-0x60]
    4dce:	49 8b 47 50          	mov    rax,QWORD PTR [r15+0x50]
    4dd2:	49 be c2 40 5c 55 55 	movabs r14,0x5555555c40c2
    4dd9:	55 00 00 
    4ddc:	49 8d 8e 39 2e 08 00 	lea    rcx,[r14+0x82e39]
    4de3:	48 89 48 40          	mov    QWORD PTR [rax+0x40],rcx
    4de7:	41 0f b6 87 e2 00 00 	movzx  eax,BYTE PTR [r15+0xe2]
    4dee:	00 
    4def:	83 e0 c0             	and    eax,0xffffffc0
    4df2:	3c 40                	cmp    al,0x40
    4df4:	4c 89 7d a0          	mov    QWORD PTR [rbp-0x60],r15
    4df8:	0f 84 b1 03 00 00    	je     0x51af
    4dfe:	49 8b 45 08          	mov    rax,QWORD PTR [r13+0x8]
    4e02:	48 83 b8 c0 01 00 00 	cmp    QWORD PTR [rax+0x1c0],0x0
    4e09:	00 
    4e0a:	0f 85 6f 03 00 00    	jne    0x517f
    4e10:	4c 8b 7d a0          	mov    r15,QWORD PTR [rbp-0x60]
    4e14:	41 80 8f e1 00 00 00 	or     BYTE PTR [r15+0xe1],0x40
    4e1b:	40 
    4e1c:	be 01 00 00 00       	mov    esi,0x1
    4e21:	4c 89 ff             	mov    rdi,r15
    4e24:	49 be 01 41 5c 55 55 	movabs r14,0x5555555c4101
    4e2b:	55 00 00 
    4e2e:	4d 8d 6d f8          	lea    r13,[r13-0x8]
    4e32:	4d 89 75 00          	mov    QWORD PTR [r13+0x0],r14
    4e36:	4c 89 7d a0          	mov    QWORD PTR [rbp-0x60],r15
    4e3a:	e9 22 a4 00 00       	jmp    0xf261
    4e3f:	49 8b 45 08          	mov    rax,QWORD PTR [r13+0x8]
    4e43:	4c 8b 7d a8          	mov    r15,QWORD PTR [rbp-0x58]
    4e47:	4c 8b b8 20 01 00 00 	mov    r15,QWORD PTR [rax+0x120]
    4e4e:	49 be 14 41 5c 55 55 	movabs r14,0x5555555c4114
    4e55:	55 00 00 
    4e58:	49 8d 86 cc e7 0c 00 	lea    rax,[r14+0xce7cc]
    4e5f:	4c 8b 75 98          	mov    r14,QWORD PTR [rbp-0x68]
    4e63:	4c 8b 30             	mov    r14,QWORD PTR [rax]
    4e66:	4d 01 fe             	add    r14,r15
    4e69:	f6 43 09 08          	test   BYTE PTR [rbx+0x9],0x8
    4e6d:	4c 89 7d a8          	mov    QWORD PTR [rbp-0x58],r15
    4e71:	4c 89 75 98          	mov    QWORD PTR [rbp-0x68],r14
    4e75:	0f 85 06 02 00 00    	jne    0x5081
    4e7b:	49 bf 2b 41 5c 55 55 	movabs r15,0x5555555c412b
    4e82:	55 00 00 
    4e85:	4d 8d a7 75 e9 0c 00 	lea    r12,[r15+0xce975]
    4e8c:	4c 8b 7d a0          	mov    r15,QWORD PTR [rbp-0x60]
    4e90:	4c 8d 7b 28          	lea    r15,[rbx+0x28]
    4e94:	4c 89 7d a0          	mov    QWORD PTR [rbp-0x60],r15
    4e98:	48 8b 73 20          	mov    rsi,QWORD PTR [rbx+0x20]
    4e9c:	4c 8b 7d 98          	mov    r15,QWORD PTR [rbp-0x68]
    4ea0:	4c 89 7b 28          	mov    QWORD PTR [rbx+0x28],r15
    4ea4:	f6 06 80             	test   BYTE PTR [rsi],0x80
    4ea7:	4c 89 7d 98          	mov    QWORD PTR [rbp-0x68],r15
    4eab:	0f 85 a9 03 00 00    	jne    0x525a
    4eb1:	4c 8b 7d a0          	mov    r15,QWORD PTR [rbp-0x60]
    4eb5:	4c 89 fe             	mov    rsi,r15
    4eb8:	4c 89 e7             	mov    rdi,r12
    4ebb:	49 be 4b 41 5c 55 55 	movabs r14,0x5555555c414b
    4ec2:	55 00 00 
    4ec5:	4d 8d 6d f8          	lea    r13,[r13-0x8]
    4ec9:	4d 89 75 00          	mov    QWORD PTR [r13+0x0],r14
    4ecd:	4c 89 7d a0          	mov    QWORD PTR [rbp-0x60],r15
    4ed1:	e9 5b a4 00 00       	jmp    0xf331
    4ed6:	80 4b 09 08          	or     BYTE PTR [rbx+0x9],0x8
    4eda:	f6 43 08 20          	test   BYTE PTR [rbx+0x8],0x20
    4ede:	0f 84 8e f6 ff ff    	je     0x4572
    4ee4:	48 8b 73 20          	mov    rsi,QWORD PTR [rbx+0x20]
    4ee8:	48 8b 06             	mov    rax,QWORD PTR [rsi]
    4eeb:	83 e0 10             	and    eax,0x10
    4eee:	80 7b 09 00          	cmp    BYTE PTR [rbx+0x9],0x0
    4ef2:	0f 88 54 03 00 00    	js     0x524c
    4ef8:	49 bf 74 41 5c 55 55 	movabs r15,0x5555555c4174
    4eff:	55 00 00 
    4f02:	49 8d 97 4c e9 0c 00 	lea    rdx,[r15+0xce94c]
    4f09:	80 4b 09 80          	or     BYTE PTR [rbx+0x9],0x80
    4f0d:	48 8d 4b 50          	lea    rcx,[rbx+0x50]
    4f11:	48 8b 3a             	mov    rdi,QWORD PTR [rdx]
    4f14:	48 89 0a             	mov    QWORD PTR [rdx],rcx
    4f17:	48 89 7b 50          	mov    QWORD PTR [rbx+0x50],rdi
    4f1b:	48 89 4f 08          	mov    QWORD PTR [rdi+0x8],rcx
    4f1f:	48 89 53 58          	mov    QWORD PTR [rbx+0x58],rdx
    4f23:	48 85 c0             	test   rax,rax
    4f26:	0f 84 46 f6 ff ff    	je     0x4572
    4f2c:	49 89 d8             	mov    r8,rbx
    4f2f:	49 bf a1 41 5c 55 55 	movabs r15,0x5555555c41a1
    4f36:	55 00 00 
    4f39:	49 8d 8f 13 1a 07 00 	lea    rcx,[r15+0x71a13]
    4f40:	49 83 c5 18          	add    r13,0x18
    4f44:	31 d2                	xor    edx,edx
    4f46:	bf 08 00 00 00       	mov    edi,0x8
    4f4b:	31 c0                	xor    eax,eax
    4f4d:	49 8b 5d 00          	mov    rbx,QWORD PTR [r13+0x0]
    4f51:	4d 8d 6d 08          	lea    r13,[r13+0x8]
    4f55:	4d 8b 65 00          	mov    r12,QWORD PTR [r13+0x0]
    4f59:	4d 8d 6d 08          	lea    r13,[r13+0x8]
    4f5d:	4c 8b 7d 98          	mov    r15,QWORD PTR [rbp-0x68]
    4f61:	4d 8b 7d 00          	mov    r15,QWORD PTR [r13+0x0]
    4f65:	4d 8d 6d 08          	lea    r13,[r13+0x8]
    4f69:	4c 8b 75 a0          	mov    r14,QWORD PTR [rbp-0x60]
    4f6d:	4d 8b 75 00          	mov    r14,QWORD PTR [r13+0x0]
    4f71:	4d 8d 6d 08          	lea    r13,[r13+0x8]
    4f75:	4c 89 7d 98          	mov    QWORD PTR [rbp-0x68],r15
    4f79:	4c 8b 7d a8          	mov    r15,QWORD PTR [rbp-0x58]
    4f7d:	4d 8b 7d 00          	mov    r15,QWORD PTR [r13+0x0]
    4f81:	4d 8d 6d 08          	lea    r13,[r13+0x8]
    4f85:	4c 89 7d a8          	mov    QWORD PTR [rbp-0x58],r15
    4f89:	4c 8b 7d b0          	mov    r15,QWORD PTR [rbp-0x50]
    4f8d:	4d 8b 7d 00          	mov    r15,QWORD PTR [r13+0x0]
    4f91:	4d 8d 6d 08          	lea    r13,[r13+0x8]
    4f95:	4c 89 7d b0          	mov    QWORD PTR [rbp-0x50],r15
    4f99:	4c 89 75 a0          	mov    QWORD PTR [rbp-0x60],r14
    4f9d:	e9 d8 b0 ff ff       	jmp    0x7a
    4fa2:	48 85 d2             	test   rdx,rdx
    4fa5:	0f 84 c7 f5 ff ff    	je     0x4572
    4fab:	49 89 d8             	mov    r8,rbx
    4fae:	49 bf d0 41 5c 55 55 	movabs r15,0x5555555c41d0
    4fb5:	55 00 00 
    4fb8:	49 8d 8f f2 19 07 00 	lea    rcx,[r15+0x719f2]
    4fbf:	e9 7c ff ff ff       	jmp    0x4f40
    4fc4:	49 bf d9 41 5c 55 55 	movabs r15,0x5555555c41d9
    4fcb:	55 00 00 
    4fce:	49 8d 8f 07 52 07 00 	lea    rcx,[r15+0x75207]
    4fd5:	31 d2                	xor    edx,edx
    4fd7:	bf 08 00 00 00       	mov    edi,0x8
    4fdc:	31 c0                	xor    eax,eax
    4fde:	49 bf e7 41 5c 55 55 	movabs r15,0x5555555c41e7
    4fe5:	55 00 00 
    4fe8:	4d 8d 6d f8          	lea    r13,[r13-0x8]
    4fec:	4d 89 7d 00          	mov    QWORD PTR [r13+0x0],r15
    4ff0:	e9 85 b0 ff ff       	jmp    0x7a
    4ff5:	4c 8b 7d a0          	mov    r15,QWORD PTR [rbp-0x60]
    4ff9:	49 8b 77 50          	mov    rsi,QWORD PTR [r15+0x50]
    4ffd:	4c 89 7d a0          	mov    QWORD PTR [rbp-0x60],r15
    5001:	e9 a3 f4 ff ff       	jmp    0x44a9
    5006:	80 e2 80             	and    dl,0x80
    5009:	0f 85 fc 01 00 00    	jne    0x520b
    500f:	49 bf 00 42 5c 55 55 	movabs r15,0x5555555c4200
    5016:	55 00 00 
    5019:	49 8d bf a0 e8 0c 00 	lea    rdi,[r15+0xce8a0]
    5020:	48 8d 73 28          	lea    rsi,[rbx+0x28]
    5024:	49 bf 09 42 5c 55 55 	movabs r15,0x5555555c4209
    502b:	55 00 00 
    502e:	4d 8d 6d f8          	lea    r13,[r13-0x8]
    5032:	4d 89 7d 00          	mov    QWORD PTR [r13+0x0],r15
    5036:	e9 80 a5 00 00       	jmp    0xf5bb
    503b:	0f b6 43 09          	movzx  eax,BYTE PTR [rbx+0x9]
    503f:	48 8b 73 20          	mov    rsi,QWORD PTR [rbx+0x20]
    5043:	48 c7 43 30 00 00 00 	mov    QWORD PTR [rbx+0x30],0x0
    504a:	00 
    504b:	48 c7 43 38 00 00 00 	mov    QWORD PTR [rbx+0x38],0x0
    5052:	00 
    5053:	83 e0 f7             	and    eax,0xfffffff7
    5056:	48 c7 43 40 00 00 00 	mov    QWORD PTR [rbx+0x40],0x0
    505d:	00 
    505e:	88 43 09             	mov    BYTE PTR [rbx+0x9],al
    5061:	48 8b 16             	mov    rdx,QWORD PTR [rsi]
    5064:	e9 b5 f4 ff ff       	jmp    0x451e
    5069:	4c 8b 7d b0          	mov    r15,QWORD PTR [rbp-0x50]
    506d:	49 8b 47 20          	mov    rax,QWORD PTR [r15+0x20]
    5071:	49 89 07             	mov    QWORD PTR [r15],rax
    5074:	49 89 47 08          	mov    QWORD PTR [r15+0x8],rax
    5078:	4c 89 7d b0          	mov    QWORD PTR [rbp-0x50],r15
    507c:	e9 eb fa ff ff       	jmp    0x4b6c
    5081:	4c 8b 4b 28          	mov    r9,QWORD PTR [rbx+0x28]
    5085:	48 8b 73 20          	mov    rsi,QWORD PTR [rbx+0x20]
    5089:	4c 8b 7d 98          	mov    r15,QWORD PTR [rbp-0x68]
    508d:	4c 89 fa             	mov    rdx,r15
    5090:	48 8b 06             	mov    rax,QWORD PTR [rsi]
    5093:	4c 29 ca             	sub    rdx,r9
    5096:	48 81 c2 2b 01 00 00 	add    rdx,0x12b
    509d:	25 80 00 00 00       	and    eax,0x80
    50a2:	48 81 fa 56 02 00 00 	cmp    rdx,0x256
    50a9:	4c 89 7d 98          	mov    QWORD PTR [rbp-0x68],r15
    50ad:	0f 87 17 02 00 00    	ja     0x52ca
    50b3:	48 85 c0             	test   rax,rax
    50b6:	0f 84 1e fe ff ff    	je     0x4eda
    50bc:	48 8b 03             	mov    rax,QWORD PTR [rbx]
    50bf:	49 bf 84 42 5c 55 55 	movabs r15,0x5555555c4284
    50c6:	55 00 00 
    50c9:	49 8d 8f 4c e9 06 00 	lea    rcx,[r15+0x6e94c]
    50d0:	31 d2                	xor    edx,edx
    50d2:	44 8b 40 18          	mov    r8d,DWORD PTR [rax+0x18]
    50d6:	4d 8d 6d f8          	lea    r13,[r13-0x8]
    50da:	49 89 7d 00          	mov    QWORD PTR [r13+0x0],rdi
    50de:	31 c0                	xor    eax,eax
    50e0:	bf 08 00 00 00       	mov    edi,0x8
    50e5:	4d 8d 6d f8          	lea    r13,[r13-0x8]
    50e9:	4c 8b 7d 98          	mov    r15,QWORD PTR [rbp-0x68]
    50ed:	4d 89 7d 00          	mov    QWORD PTR [r13+0x0],r15
    50f1:	49 be 99 42 5c 55 55 	movabs r14,0x5555555c4299
    50f8:	55 00 00 
    50fb:	4d 8d 6d f8          	lea    r13,[r13-0x8]
    50ff:	4d 89 75 00          	mov    QWORD PTR [r13+0x0],r14
    5103:	4c 89 7d 98          	mov    QWORD PTR [rbp-0x68],r15
    5107:	e9 6e af ff ff       	jmp    0x7a
    510c:	4d 8b 45 00          	mov    r8,QWORD PTR [r13+0x0]
    5110:	4d 8d 6d 08          	lea    r13,[r13+0x8]
    5114:	4d 8b 4d 00          	mov    r9,QWORD PTR [r13+0x0]
    5118:	4d 8d 6d 08          	lea    r13,[r13+0x8]
    511c:	e9 b9 fd ff ff       	jmp    0x4eda
    5121:	4c 8b 7d b0          	mov    r15,QWORD PTR [rbp-0x50]
    5125:	4d 89 f8             	mov    r8,r15
    5128:	49 be ac 42 5c 55 55 	movabs r14,0x5555555c42ac
    512f:	55 00 00 
    5132:	49 8d 8e 46 51 07 00 	lea    rcx,[r14+0x75146]
    5139:	31 d2                	xor    edx,edx
    513b:	31 c0                	xor    eax,eax
    513d:	bf 08 00 00 00       	mov    edi,0x8
    5142:	49 be ba 42 5c 55 55 	movabs r14,0x5555555c42ba
    5149:	55 00 00 
    514c:	4d 8d 6d f8          	lea    r13,[r13-0x8]
    5150:	4d 89 75 00          	mov    QWORD PTR [r13+0x0],r14
    5154:	4c 89 7d b0          	mov    QWORD PTR [rbp-0x50],r15
    5158:	e9 1d af ff ff       	jmp    0x7a
    515d:	4c 8b 7d b0          	mov    r15,QWORD PTR [rbp-0x50]
    5161:	4c 8b 75 a8          	mov    r14,QWORD PTR [rbp-0x58]
    5165:	4d 8b 7e 30          	mov    r15,QWORD PTR [r14+0x30]
    5169:	4d 85 ff             	test   r15,r15
    516c:	4c 89 7d b0          	mov    QWORD PTR [rbp-0x50],r15
    5170:	4c 89 75 a8          	mov    QWORD PTR [rbp-0x58],r14
    5174:	0f 85 30 fa ff ff    	jne    0x4baa
    517a:	e9 a9 fa ff ff       	jmp    0x4c28
    517f:	4c 8b 7d a0          	mov    r15,QWORD PTR [rbp-0x60]
    5183:	4c 89 ff             	mov    rdi,r15
    5186:	49 be d4 42 5c 55 55 	movabs r14,0x5555555c42d4
    518d:	55 00 00 
    5190:	4d 8d 6d f8          	lea    r13,[r13-0x8]
    5194:	4d 89 75 00          	mov    QWORD PTR [r13+0x0],r14
    5198:	4c 89 7d a0          	mov    QWORD PTR [rbp-0x60],r15
    519c:	e9 e8 a5 00 00       	jmp    0xf789
    51a1:	48 85 c0             	test   rax,rax
    51a4:	0f 84 66 fc ff ff    	je     0x4e10
    51aa:	e9 13 f9 ff ff       	jmp    0x4ac2
    51af:	4c 8b 7d a0          	mov    r15,QWORD PTR [rbp-0x60]
    51b3:	41 8b 7f 18          	mov    edi,DWORD PTR [r15+0x18]
    51b7:	49 be eb 42 5c 55 55 	movabs r14,0x5555555c42eb
    51be:	55 00 00 
    51c1:	4d 8d 6d f8          	lea    r13,[r13-0x8]
    51c5:	4d 89 75 00          	mov    QWORD PTR [r13+0x0],r14
    51c9:	4c 89 7d a0          	mov    QWORD PTR [rbp-0x60],r15
    51cd:	e9 a0 a5 00 00       	jmp    0xf772
    51d2:	83 c0 01             	add    eax,0x1
    51d5:	0f 84 9b f8 ff ff    	je     0x4a76
    51db:	49 bf fb 42 5c 55 55 	movabs r15,0x5555555c42fb
    51e2:	55 00 00 
    51e5:	49 8d 87 55 a8 0d 00 	lea    rax,[r15+0xda855]
    51ec:	4c 8b 7d a0          	mov    r15,QWORD PTR [rbp-0x60]
    51f0:	41 80 a7 e2 00 00 00 	and    BYTE PTR [r15+0xe2],0x3f
    51f7:	3f 
    51f8:	48 83 38 00          	cmp    QWORD PTR [rax],0x0
    51fc:	4c 89 7d a0          	mov    QWORD PTR [rbp-0x60],r15
    5200:	0f 85 f8 fb ff ff    	jne    0x4dfe
    5206:	e9 05 fc ff ff       	jmp    0x4e10
    520b:	48 8b 03             	mov    rax,QWORD PTR [rbx]
    520e:	4c 8b 4b 28          	mov    r9,QWORD PTR [rbx+0x28]
    5212:	49 bf 20 43 5c 55 55 	movabs r15,0x5555555c4320
    5219:	55 00 00 
    521c:	49 8d 8f 66 e7 06 00 	lea    rcx,[r15+0x6e766]
    5223:	31 d2                	xor    edx,edx
    5225:	bf 08 00 00 00       	mov    edi,0x8
    522a:	44 8b 40 18          	mov    r8d,DWORD PTR [rax+0x18]
    522e:	31 c0                	xor    eax,eax
    5230:	49 bf 32 43 5c 55 55 	movabs r15,0x5555555c4332
    5237:	55 00 00 
    523a:	4d 8d 6d f8          	lea    r13,[r13-0x8]
    523e:	4d 89 7d 00          	mov    QWORD PTR [r13+0x0],r15
    5242:	e9 33 ae ff ff       	jmp    0x7a
    5247:	e9 c3 fd ff ff       	jmp    0x500f
    524c:	48 85 c0             	test   rax,rax
    524f:	0f 84 1d f3 ff ff    	je     0x4572
    5255:	e9 51 fd ff ff       	jmp    0x4fab
    525a:	48 8b 03             	mov    rax,QWORD PTR [rbx]
    525d:	49 bf 4f 43 5c 55 55 	movabs r15,0x5555555c434f
    5264:	55 00 00 
    5267:	49 8d 8f f3 e7 06 00 	lea    rcx,[r15+0x6e7f3]
    526e:	31 d2                	xor    edx,edx
    5270:	4c 8b 7d a8          	mov    r15,QWORD PTR [rbp-0x58]
    5274:	4d 89 f9             	mov    r9,r15
    5277:	bf 08 00 00 00       	mov    edi,0x8
    527c:	44 8b 40 18          	mov    r8d,DWORD PTR [rax+0x18]
    5280:	4d 8d 6d f8          	lea    r13,[r13-0x8]
    5284:	49 89 45 00          	mov    QWORD PTR [r13+0x0],rax
    5288:	31 c0                	xor    eax,eax
    528a:	4d 8d 6d f8          	lea    r13,[r13-0x8]
    528e:	4c 8b 75 98          	mov    r14,QWORD PTR [rbp-0x68]
    5292:	4d 89 75 00          	mov    QWORD PTR [r13+0x0],r14
    5296:	4c 89 7d a8          	mov    QWORD PTR [rbp-0x58],r15
    529a:	49 bf 67 43 5c 55 55 	movabs r15,0x5555555c4367
    52a1:	55 00 00 
    52a4:	4d 8d 6d f8          	lea    r13,[r13-0x8]
    52a8:	4d 89 7d 00          	mov    QWORD PTR [r13+0x0],r15
    52ac:	4c 89 75 98          	mov    QWORD PTR [rbp-0x68],r14
    52b0:	e9 c5 ad ff ff       	jmp    0x7a
    52b5:	49 8b 55 00          	mov    rdx,QWORD PTR [r13+0x0]
    52b9:	4d 8d 6d 08          	lea    r13,[r13+0x8]
    52bd:	49 8b 4d 00          	mov    rcx,QWORD PTR [r13+0x0]
    52c1:	4d 8d 6d 08          	lea    r13,[r13+0x8]
    52c5:	e9 e7 fb ff ff       	jmp    0x4eb1
    52ca:	48 85 c0             	test   rax,rax
    52cd:	75 5b                	jne    0x532a
    52cf:	49 bf 7a 43 5c 55 55 	movabs r15,0x5555555c437a
    52d6:	55 00 00 
    52d9:	4d 8d a7 26 e7 0c 00 	lea    r12,[r15+0xce726]
    52e0:	4c 8b 7d a0          	mov    r15,QWORD PTR [rbp-0x60]
    52e4:	4c 8d 7b 28          	lea    r15,[rbx+0x28]
    52e8:	4c 89 fe             	mov    rsi,r15
    52eb:	4c 89 e7             	mov    rdi,r12
    52ee:	49 be 89 43 5c 55 55 	movabs r14,0x5555555c4389
    52f5:	55 00 00 
    52f8:	4d 8d 6d f8          	lea    r13,[r13-0x8]
    52fc:	4d 89 75 00          	mov    QWORD PTR [r13+0x0],r14
    5300:	4c 89 7d a0          	mov    QWORD PTR [rbp-0x60],r15
    5304:	e9 b2 a2 00 00       	jmp    0xf5bb
    5309:	80 63 09 f7          	and    BYTE PTR [rbx+0x9],0xf7
    530d:	48 c7 43 30 00 00 00 	mov    QWORD PTR [rbx+0x30],0x0
    5314:	00 
    5315:	48 c7 43 38 00 00 00 	mov    QWORD PTR [rbx+0x38],0x0
    531c:	00 
    531d:	48 c7 43 40 00 00 00 	mov    QWORD PTR [rbx+0x40],0x0
    5324:	00 
    5325:	e9 6e fb ff ff       	jmp    0x4e98
    532a:	48 8b 03             	mov    rax,QWORD PTR [rbx]
    532d:	49 bf b4 43 5c 55 55 	movabs r15,0x5555555c43b4
    5334:	55 00 00 
    5337:	49 8d 8f d2 e6 06 00 	lea    rcx,[r15+0x6e6d2]
    533e:	31 d2                	xor    edx,edx
    5340:	bf 08 00 00 00       	mov    edi,0x8
    5345:	44 8b 40 18          	mov    r8d,DWORD PTR [rax+0x18]
    5349:	31 c0                	xor    eax,eax
    534b:	49 bf c6 43 5c 55 55 	movabs r15,0x5555555c43c6
    5352:	55 00 00 
    5355:	4d 8d 6d f8          	lea    r13,[r13-0x8]
    5359:	4d 89 7d 00          	mov    QWORD PTR [r13+0x0],r15
    535d:	e9 18 ad ff ff       	jmp    0x7a
    5362:	e9 68 ff ff ff       	jmp    0x52cf
    5367:	90                   	nop
    5368:	4d 8d 6d f8          	lea    r13,[r13-0x8]
    536c:	4c 8b 7d b0          	mov    r15,QWORD PTR [rbp-0x50]
    5370:	4d 89 7d 00          	mov    QWORD PTR [r13+0x0],r15
    5374:	49 be dd 43 5c 55 55 	movabs r14,0x5555555c43dd
    537b:	55 00 00 
    537e:	4d 8d be 53 eb ff ff 	lea    r15,[r14-0x14ad]
    5385:	4d 8d 6d f8          	lea    r13,[r13-0x8]
    5389:	4c 8b 75 a8          	mov    r14,QWORD PTR [rbp-0x58]
    538d:	4d 89 75 00          	mov    QWORD PTR [r13+0x0],r14
    5391:	4d 8d 6d f8          	lea    r13,[r13-0x8]
    5395:	4c 89 7d b0          	mov    QWORD PTR [rbp-0x50],r15
    5399:	4c 8b 7d a0          	mov    r15,QWORD PTR [rbp-0x60]
    539d:	4d 89 7d 00          	mov    QWORD PTR [r13+0x0],r15
    53a1:	4d 8d 6d f8          	lea    r13,[r13-0x8]
    53a5:	4c 89 7d a0          	mov    QWORD PTR [rbp-0x60],r15
    53a9:	4c 8b 7d 98          	mov    r15,QWORD PTR [rbp-0x68]
    53ad:	4d 89 7d 00          	mov    QWORD PTR [r13+0x0],r15
    53b1:	49 89 ff             	mov    r15,rdi
    53b4:	4d 8d 6d f8          	lea    r13,[r13-0x8]
    53b8:	4d 89 65 00          	mov    QWORD PTR [r13+0x0],r12
    53bc:	49 89 f4             	mov    r12,rsi
    53bf:	4d 8d 6d f8          	lea    r13,[r13-0x8]
    53c3:	49 89 5d 00          	mov    QWORD PTR [r13+0x0],rbx
    53c7:	49 83 ed 08          	sub    r13,0x8
    53cb:	4c 89 7d 98          	mov    QWORD PTR [rbp-0x68],r15
    53cf:	4c 89 75 a8          	mov    QWORD PTR [rbp-0x58],r14
    53d3:	e9 4d 01 00 00       	jmp    0x5525
    53d8:	4c 8b 7d 98          	mov    r15,QWORD PTR [rbp-0x68]
    53dc:	41 80 bf 1a 05 00 00 	cmp    BYTE PTR [r15+0x51a],0x0
    53e3:	00 
    53e4:	4c 89 7d 98          	mov    QWORD PTR [rbp-0x68],r15
    53e8:	79 07                	jns    0x53f1
    53ea:	80 8b e1 00 00 00 10 	or     BYTE PTR [rbx+0xe1],0x10
    53f1:	4c 8b 7d 98          	mov    r15,QWORD PTR [rbp-0x68]
    53f5:	4d 3b bf 68 04 00 00 	cmp    r15,QWORD PTR [r15+0x468]
    53fc:	4c 89 7d 98          	mov    QWORD PTR [rbp-0x68],r15
    5400:	0f 84 90 02 00 00    	je     0x5696
    5406:	4c 8b 7d 98          	mov    r15,QWORD PTR [rbp-0x68]
    540a:	49 8b 87 80 04 00 00 	mov    rax,QWORD PTR [r15+0x480]
    5411:	48 85 c0             	test   rax,rax
    5414:	4c 89 7d 98          	mov    QWORD PTR [rbp-0x68],r15
    5418:	74 2b                	je     0x5445
    541a:	4c 89 e2             	mov    rdx,r12
    541d:	48 8b 70 08          	mov    rsi,QWORD PTR [rax+0x8]
    5421:	4c 8b 7d 98          	mov    r15,QWORD PTR [rbp-0x68]
    5425:	4c 89 ff             	mov    rdi,r15
    5428:	49 be 31 44 5c 55 55 	movabs r14,0x5555555c4431
    542f:	55 00 00 
    5432:	4d 8d 6d f8          	lea    r13,[r13-0x8]
    5436:	4d 89 75 00          	mov    QWORD PTR [r13+0x0],r14
    543a:	4c 8b 30             	mov    r14,QWORD PTR [rax]
    543d:	e9 5c 98 00 00       	jmp    0xec9e
    5442:	49 89 c4             	mov    r12,rax
    5445:	49 83 fc ff          	cmp    r12,0xffffffffffffffff
    5449:	0f 84 54 02 00 00    	je     0x56a3
    544f:	49 81 fc 98 01 00 00 	cmp    r12,0x198
    5456:	0f 84 47 02 00 00    	je     0x56a3
    545c:	49 81 fc f3 01 00 00 	cmp    r12,0x1f3
    5463:	0f 84 3a 02 00 00    	je     0x56a3
    5469:	f6 83 e1 00 00 00 10 	test   BYTE PTR [rbx+0xe1],0x10
    5470:	0f 85 2d 02 00 00    	jne    0x56a3
    5476:	49 81 fc 2b 01 00 00 	cmp    r12,0x12b
    547d:	0f 9f c2             	setg   dl
    5480:	49 81 fc c9 00 00 00 	cmp    r12,0xc9
    5487:	0f 94 c0             	sete   al
    548a:	08 c2                	or     dl,al
    548c:	75 0d                	jne    0x549b
    548e:	49 81 fc cc 00 00 00 	cmp    r12,0xcc
    5495:	0f 85 fa 04 00 00    	jne    0x5995
    549b:	49 81 fc bc 01 00 00 	cmp    r12,0x1bc
    54a2:	0f 84 09 04 00 00    	je     0x58b1
    54a8:	4c 8b 7d a0          	mov    r15,QWORD PTR [rbp-0x60]
    54ac:	4c 8b 7b 08          	mov    r15,QWORD PTR [rbx+0x8]
    54b0:	4c 8b 75 98          	mov    r14,QWORD PTR [rbp-0x68]
    54b4:	4d 3b b6 68 04 00 00 	cmp    r14,QWORD PTR [r14+0x468]
    54bb:	4c 89 7d a0          	mov    QWORD PTR [rbp-0x60],r15
    54bf:	4c 89 75 98          	mov    QWORD PTR [rbp-0x68],r14
    54c3:	0f 84 92 01 00 00    	je     0x565b
    54c9:	4c 8b 7d a8          	mov    r15,QWORD PTR [rbp-0x58]
    54cd:	4c 8b 7b 10          	mov    r15,QWORD PTR [rbx+0x10]
    54d1:	4c 89 7d a8          	mov    QWORD PTR [rbp-0x58],r15
    54d5:	4c 8b 7d b0          	mov    r15,QWORD PTR [rbp-0x50]
    54d9:	4c 8b 75 a0          	mov    r14,QWORD PTR [rbp-0x60]
    54dd:	4d 89 7e 10          	mov    QWORD PTR [r14+0x10],r15
    54e1:	4c 89 e6             	mov    rsi,r12
    54e4:	4c 89 7d b0          	mov    QWORD PTR [rbp-0x50],r15
    54e8:	4c 8b 7d 98          	mov    r15,QWORD PTR [rbp-0x68]
    54ec:	4c 89 ff             	mov    rdi,r15
    54ef:	4c 89 7d 98          	mov    QWORD PTR [rbp-0x68],r15
    54f3:	4c 8b 7d b0          	mov    r15,QWORD PTR [rbp-0x50]
    54f7:	4c 89 75 a0          	mov    QWORD PTR [rbp-0x60],r14
    54fb:	4c 8b 75 a8          	mov    r14,QWORD PTR [rbp-0x58]
    54ff:	4d 89 7e 10          	mov    QWORD PTR [r14+0x10],r15
    5503:	4c 89 7d b0          	mov    QWORD PTR [rbp-0x50],r15
    5507:	49 bf c0 44 5c 55 55 	movabs r15,0x5555555c44c0
    550e:	55 00 00 
    5511:	4d 8d 6d f8          	lea    r13,[r13-0x8]
    5515:	4d 89 7d 00          	mov    QWORD PTR [r13+0x0],r15
    5519:	4c 89 75 a8          	mov    QWORD PTR [rbp-0x58],r14
    551d:	e9 7e a2 00 00       	jmp    0xf7a0
    5522:	49 89 c4             	mov    r12,rax
    5525:	4c 8b 7d 98          	mov    r15,QWORD PTR [rbp-0x68]
    5529:	49 8b 5f 08          	mov    rbx,QWORD PTR [r15+0x8]
    552d:	48 8b 73 50          	mov    rsi,QWORD PTR [rbx+0x50]
    5531:	48 f7 06 00 01 00 00 	test   QWORD PTR [rsi],0x100
    5538:	4c 89 7d 98          	mov    QWORD PTR [rbp-0x68],r15
    553c:	75 37                	jne    0x5575
    553e:	49 83 fc fc          	cmp    r12,0xfffffffffffffffc
    5542:	0f 84 b7 00 00 00    	je     0x55ff
    5548:	4d 85 e4             	test   r12,r12
    554b:	0f 84 87 fe ff ff    	je     0x53d8
    5551:	49 83 fc fb          	cmp    r12,0xfffffffffffffffb
    5555:	0f 84 be 03 00 00    	je     0x5919
    555b:	4c 8b 7d 98          	mov    r15,QWORD PTR [rbp-0x68]
    555f:	4d 3b bf 68 04 00 00 	cmp    r15,QWORD PTR [r15+0x468]
    5566:	4c 89 7d 98          	mov    QWORD PTR [rbp-0x68],r15
    556a:	0f 85 96 fe ff ff    	jne    0x5406
    5570:	e9 d0 fe ff ff       	jmp    0x5445
    5575:	4c 8b 7d 98          	mov    r15,QWORD PTR [rbp-0x68]
    5579:	49 8b 87 68 04 00 00 	mov    rax,QWORD PTR [r15+0x468]
    5580:	49 83 ed 08          	sub    r13,0x8
    5584:	4d 89 e0             	mov    r8,r12
    5587:	bf 08 00 00 00       	mov    edi,0x8
    558c:	4d 8d 8f f0 03 00 00 	lea    r9,[r15+0x3f0]
    5593:	49 be 2b 45 5c 55 55 	movabs r14,0x5555555c452b
    559a:	55 00 00 
    559d:	49 8d 8e 9d 53 07 00 	lea    rcx,[r14+0x7539d]
    55a4:	0f b7 80 10 05 00 00 	movzx  eax,WORD PTR [rax+0x510]
    55ab:	4d 8d 6d f8          	lea    r13,[r13-0x8]
    55af:	49 89 45 00          	mov    QWORD PTR [r13+0x0],rax
    55b3:	31 c0                	xor    eax,eax
    55b5:	4c 39 3b             	cmp    QWORD PTR [rbx],r15
    55b8:	0f 94 c0             	sete   al
    55bb:	31 d2                	xor    edx,edx
    55bd:	4d 8d 6d f8          	lea    r13,[r13-0x8]
    55c1:	49 89 45 00          	mov    QWORD PTR [r13+0x0],rax
    55c5:	49 8d 87 00 04 00 00 	lea    rax,[r15+0x400]
    55cc:	4d 8d 6d f8          	lea    r13,[r13-0x8]
    55d0:	49 89 45 00          	mov    QWORD PTR [r13+0x0],rax
    55d4:	31 c0                	xor    eax,eax
    55d6:	49 be 4e 45 5c 55 55 	movabs r14,0x5555555c454e
    55dd:	55 00 00 
    55e0:	4d 8d 6d f8          	lea    r13,[r13-0x8]
    55e4:	4d 89 75 00          	mov    QWORD PTR [r13+0x0],r14
    55e8:	4c 89 7d 98          	mov    QWORD PTR [rbp-0x68],r15
    55ec:	e9 89 aa ff ff       	jmp    0x7a
    55f1:	49 83 c5 20          	add    r13,0x20
    55f5:	49 83 fc fc          	cmp    r12,0xfffffffffffffffc
    55f9:	0f 85 49 ff ff ff    	jne    0x5548
    55ff:	49 83 c5 08          	add    r13,0x8
    5603:	4c 8b 7d 98          	mov    r15,QWORD PTR [rbp-0x68]
    5607:	4c 89 ff             	mov    rdi,r15
    560a:	49 8b 5d 00          	mov    rbx,QWORD PTR [r13+0x0]
    560e:	4d 8d 6d 08          	lea    r13,[r13+0x8]
    5612:	4d 8b 65 00          	mov    r12,QWORD PTR [r13+0x0]
    5616:	4d 8d 6d 08          	lea    r13,[r13+0x8]
    561a:	4d 8b 7d 00          	mov    r15,QWORD PTR [r13+0x0]
    561e:	4d 8d 6d 08          	lea    r13,[r13+0x8]
    5622:	4c 8b 75 a0          	mov    r14,QWORD PTR [rbp-0x60]
    5626:	4d 8b 75 00          	mov    r14,QWORD PTR [r13+0x0]
    562a:	4d 8d 6d 08          	lea    r13,[r13+0x8]
    562e:	4c 89 7d 98          	mov    QWORD PTR [rbp-0x68],r15
    5632:	4c 8b 7d a8          	mov    r15,QWORD PTR [rbp-0x58]
    5636:	4d 8b 7d 00          	mov    r15,QWORD PTR [r13+0x0]
    563a:	4d 8d 6d 08          	lea    r13,[r13+0x8]
    563e:	4c 89 7d a8          	mov    QWORD PTR [rbp-0x58],r15
    5642:	4c 8b 7d b0          	mov    r15,QWORD PTR [rbp-0x50]
    5646:	4d 8b 7d 00          	mov    r15,QWORD PTR [r13+0x0]
    564a:	4d 8d 6d 08          	lea    r13,[r13+0x8]
    564e:	4c 89 7d b0          	mov    QWORD PTR [rbp-0x50],r15
    5652:	4c 89 75 a0          	mov    QWORD PTR [rbp-0x60],r14
    5656:	e9 48 eb ff ff       	jmp    0x41a3
    565b:	4c 8b 7d a0          	mov    r15,QWORD PTR [rbp-0x60]
    565f:	41 f6 47 09 08       	test   BYTE PTR [r15+0x9],0x8
    5664:	4c 89 7d a0          	mov    QWORD PTR [rbp-0x60],r15
    5668:	0f 85 42 01 00 00    	jne    0x57b0
    566e:	4c 8b 7d a8          	mov    r15,QWORD PTR [rbp-0x58]
    5672:	4c 8b 7b 10          	mov    r15,QWORD PTR [rbx+0x10]
    5676:	41 f6 47 09 08       	test   BYTE PTR [r15+0x9],0x8
    567b:	4c 89 7d a8          	mov    QWORD PTR [rbp-0x58],r15
    567f:	0f 85 ac 00 00 00    	jne    0x5731
    5685:	4c 8b 7d a0          	mov    r15,QWORD PTR [rbp-0x60]
    5689:	4c 8b 7b 08          	mov    r15,QWORD PTR [rbx+0x8]
    568d:	4c 89 7d a0          	mov    QWORD PTR [rbp-0x60],r15
    5691:	e9 3f fe ff ff       	jmp    0x54d5
    5696:	f6 83 e1 00 00 00 10 	test   BYTE PTR [rbx+0xe1],0x10
    569d:	0f 84 f2 02 00 00    	je     0x5995
    56a3:	4c 8b 7d 98          	mov    r15,QWORD PTR [rbp-0x68]
    56a7:	4c 89 ff             	mov    rdi,r15
    56aa:	49 be a5 45 5c 55 55 	movabs r14,0x5555555c45a5
    56b1:	55 00 00 
    56b4:	4d 8d 6d f8          	lea    r13,[r13-0x8]
    56b8:	4d 89 75 00          	mov    QWORD PTR [r13+0x0],r14
    56bc:	4c 89 7d 98          	mov    QWORD PTR [rbp-0x68],r15
    56c0:	e9 40 d3 ff ff       	jmp    0x2a05
    56c5:	4c 89 e6             	mov    rsi,r12
    56c8:	48 85 c0             	test   rax,rax
    56cb:	0f 85 ec 01 00 00    	jne    0x58bd
    56d1:	49 83 c5 08          	add    r13,0x8
    56d5:	49 8b 5d 00          	mov    rbx,QWORD PTR [r13+0x0]
    56d9:	4d 8d 6d 08          	lea    r13,[r13+0x8]
    56dd:	4d 8b 65 00          	mov    r12,QWORD PTR [r13+0x0]
    56e1:	4d 8d 6d 08          	lea    r13,[r13+0x8]
    56e5:	4c 8b 7d 98          	mov    r15,QWORD PTR [rbp-0x68]
    56e9:	4d 8b 7d 00          	mov    r15,QWORD PTR [r13+0x0]
    56ed:	4d 8d 6d 08          	lea    r13,[r13+0x8]
    56f1:	4c 8b 75 a0          	mov    r14,QWORD PTR [rbp-0x60]
    56f5:	4d 8b 75 00          	mov    r14,QWORD PTR [r13+0x0]
    56f9:	4d 8d 6d 08          	lea    r13,[r13+0x8]
    56fd:	4c 89 7d 98          	mov    QWORD PTR [rbp-0x68],r15
    5701:	4c 8b 7d a8          	mov    r15,QWORD PTR [rbp-0x58]
    5705:	4d 8b 7d 00          	mov    r15,QWORD PTR [r13+0x0]
    5709:	4d 8d 6d 08          	lea    r13,[r13+0x8]
    570d:	4c 89 7d a8          	mov    QWORD PTR [rbp-0x58],r15
    5711:	4c 8b 7d b0          	mov    r15,QWORD PTR [rbp-0x50]
    5715:	4d 8b 7d 00          	mov    r15,QWORD PTR [r13+0x0]
    5719:	4d 8d 6d 08          	lea    r13,[r13+0x8]
    571d:	4c 89 7d b0          	mov    QWORD PTR [rbp-0x50],r15
    5721:	4d 8b 7d 00          	mov    r15,QWORD PTR [r13+0x0]
    5725:	4d 8d 6d 08          	lea    r13,[r13+0x8]
    5729:	4d 89 fe             	mov    r14,r15
    572c:	e9 8b 95 00 00       	jmp    0xecbc
    5731:	4c 8b 7d a8          	mov    r15,QWORD PTR [rbp-0x58]
    5735:	49 8b 77 20          	mov    rsi,QWORD PTR [r15+0x20]
    5739:	f6 06 80             	test   BYTE PTR [rsi],0x80
    573c:	4c 89 7d a8          	mov    QWORD PTR [rbp-0x58],r15
    5740:	0f 85 22 01 00 00    	jne    0x5868
    5746:	49 bf d4 45 5c 55 55 	movabs r15,0x5555555c45d4
    574d:	55 00 00 
    5750:	49 8d bf cc e4 0c 00 	lea    rdi,[r15+0xce4cc]
    5757:	4c 8b 7d a8          	mov    r15,QWORD PTR [rbp-0x58]
    575b:	49 8d 77 28          	lea    rsi,[r15+0x28]
    575f:	49 be dd 45 5c 55 55 	movabs r14,0x5555555c45dd
    5766:	55 00 00 
    5769:	4d 8d 6d f8          	lea    r13,[r13-0x8]
    576d:	4d 89 75 00          	mov    QWORD PTR [r13+0x0],r14
    5771:	4c 89 7d a8          	mov    QWORD PTR [rbp-0x58],r15
    5775:	e9 41 9e 00 00       	jmp    0xf5bb
    577a:	4c 8b 7d a8          	mov    r15,QWORD PTR [rbp-0x58]
    577e:	41 80 67 09 f7       	and    BYTE PTR [r15+0x9],0xf7
    5783:	4c 8b 75 a0          	mov    r14,QWORD PTR [rbp-0x60]
    5787:	4c 8b 73 08          	mov    r14,QWORD PTR [rbx+0x8]
    578b:	49 c7 47 30 00 00 00 	mov    QWORD PTR [r15+0x30],0x0
    5792:	00 
    5793:	49 c7 47 38 00 00 00 	mov    QWORD PTR [r15+0x38],0x0
    579a:	00 
    579b:	49 c7 47 40 00 00 00 	mov    QWORD PTR [r15+0x40],0x0
    57a2:	00 
    57a3:	4c 89 7d a8          	mov    QWORD PTR [rbp-0x58],r15
    57a7:	4c 89 75 a0          	mov    QWORD PTR [rbp-0x60],r14
    57ab:	e9 19 fd ff ff       	jmp    0x54c9
    57b0:	4c 8b 7d a0          	mov    r15,QWORD PTR [rbp-0x60]
    57b4:	49 8b 77 20          	mov    rsi,QWORD PTR [r15+0x20]
    57b8:	f6 06 80             	test   BYTE PTR [rsi],0x80
    57bb:	4c 89 7d a0          	mov    QWORD PTR [rbp-0x60],r15
    57bf:	75 5e                	jne    0x581f
    57c1:	49 bf 18 46 5c 55 55 	movabs r15,0x5555555c4618
    57c8:	55 00 00 
    57cb:	49 8d bf 88 e4 0c 00 	lea    rdi,[r15+0xce488]
    57d2:	4c 8b 7d a0          	mov    r15,QWORD PTR [rbp-0x60]
    57d6:	49 8d 77 28          	lea    rsi,[r15+0x28]
    57da:	49 be 21 46 5c 55 55 	movabs r14,0x5555555c4621
    57e1:	55 00 00 
    57e4:	4d 8d 6d f8          	lea    r13,[r13-0x8]
    57e8:	4d 89 75 00          	mov    QWORD PTR [r13+0x0],r14
    57ec:	4c 89 7d a0          	mov    QWORD PTR [rbp-0x60],r15
    57f0:	e9 c6 9d 00 00       	jmp    0xf5bb
    57f5:	4c 8b 7d a0          	mov    r15,QWORD PTR [rbp-0x60]
    57f9:	41 80 67 09 f7       	and    BYTE PTR [r15+0x9],0xf7
    57fe:	49 c7 47 30 00 00 00 	mov    QWORD PTR [r15+0x30],0x0
    5805:	00 
    5806:	49 c7 47 38 00 00 00 	mov    QWORD PTR [r15+0x38],0x0
    580d:	00 
    580e:	49 c7 47 40 00 00 00 	mov    QWORD PTR [r15+0x40],0x0
    5815:	00 
    5816:	4c 89 7d a0          	mov    QWORD PTR [rbp-0x60],r15
    581a:	e9 4f fe ff ff       	jmp    0x566e
    581f:	4c 8b 7d a0          	mov    r15,QWORD PTR [rbp-0x60]
    5823:	49 8b 07             	mov    rax,QWORD PTR [r15]
    5826:	4d 8b 4f 28          	mov    r9,QWORD PTR [r15+0x28]
    582a:	31 d2                	xor    edx,edx
    582c:	bf 08 00 00 00       	mov    edi,0x8
    5831:	49 be 5e 46 5c 55 55 	movabs r14,0x5555555c465e
    5838:	55 00 00 
    583b:	49 8d 8e 28 e4 06 00 	lea    rcx,[r14+0x6e428]
    5842:	44 8b 40 18          	mov    r8d,DWORD PTR [rax+0x18]
    5846:	31 c0                	xor    eax,eax
    5848:	49 be 69 46 5c 55 55 	movabs r14,0x5555555c4669
    584f:	55 00 00 
    5852:	4d 8d 6d f8          	lea    r13,[r13-0x8]
    5856:	4d 89 75 00          	mov    QWORD PTR [r13+0x0],r14
    585a:	4c 89 7d a0          	mov    QWORD PTR [rbp-0x60],r15
    585e:	e9 17 a8 ff ff       	jmp    0x7a
    5863:	e9 59 ff ff ff       	jmp    0x57c1
    5868:	4c 8b 7d a8          	mov    r15,QWORD PTR [rbp-0x58]
    586c:	49 8b 07             	mov    rax,QWORD PTR [r15]
    586f:	4d 8b 4f 28          	mov    r9,QWORD PTR [r15+0x28]
    5873:	49 be 7e 46 5c 55 55 	movabs r14,0x5555555c467e
    587a:	55 00 00 
    587d:	49 8d 8e 08 e4 06 00 	lea    rcx,[r14+0x6e408]
    5884:	31 d2                	xor    edx,edx
    5886:	bf 08 00 00 00       	mov    edi,0x8
    588b:	44 8b 40 18          	mov    r8d,DWORD PTR [rax+0x18]
    588f:	31 c0                	xor    eax,eax
    5891:	49 be 90 46 5c 55 55 	movabs r14,0x5555555c4690
    5898:	55 00 00 
    589b:	4d 8d 6d f8          	lea    r13,[r13-0x8]
    589f:	4d 89 75 00          	mov    QWORD PTR [r13+0x0],r14
    58a3:	4c 89 7d a8          	mov    QWORD PTR [rbp-0x58],r15
    58a7:	e9 ce a7 ff ff       	jmp    0x7a
    58ac:	e9 95 fe ff ff       	jmp    0x5746
    58b1:	80 8b e1 00 00 00 08 	or     BYTE PTR [rbx+0xe1],0x8
    58b8:	be bc 01 00 00       	mov    esi,0x1bc
    58bd:	49 83 c5 08          	add    r13,0x8
    58c1:	4c 8b 7d 98          	mov    r15,QWORD PTR [rbp-0x68]
    58c5:	4c 89 ff             	mov    rdi,r15
    58c8:	49 8b 5d 00          	mov    rbx,QWORD PTR [r13+0x0]
    58cc:	4d 8d 6d 08          	lea    r13,[r13+0x8]
    58d0:	4d 8b 65 00          	mov    r12,QWORD PTR [r13+0x0]
    58d4:	4d 8d 6d 08          	lea    r13,[r13+0x8]
    58d8:	4d 8b 7d 00          	mov    r15,QWORD PTR [r13+0x0]
    58dc:	4d 8d 6d 08          	lea    r13,[r13+0x8]
    58e0:	4c 8b 75 a0          	mov    r14,QWORD PTR [rbp-0x60]
    58e4:	4d 8b 75 00          	mov    r14,QWORD PTR [r13+0x0]
    58e8:	4d 8d 6d 08          	lea    r13,[r13+0x8]
    58ec:	4c 89 7d 98          	mov    QWORD PTR [rbp-0x68],r15
    58f0:	4c 8b 7d a8          	mov    r15,QWORD PTR [rbp-0x58]
    58f4:	4d 8b 7d 00          	mov    r15,QWORD PTR [r13+0x0]
    58f8:	4d 8d 6d 08          	lea    r13,[r13+0x8]
    58fc:	4c 89 7d a8          	mov    QWORD PTR [rbp-0x58],r15
    5900:	4c 8b 7d b0          	mov    r15,QWORD PTR [rbp-0x50]
    5904:	4d 8b 7d 00          	mov    r15,QWORD PTR [r13+0x0]
    5908:	4d 8d 6d 08          	lea    r13,[r13+0x8]
    590c:	4c 89 7d b0          	mov    QWORD PTR [rbp-0x50],r15
    5910:	4c 89 75 a0          	mov    QWORD PTR [rbp-0x60],r14
    5914:	e9 61 da ff ff       	jmp    0x337a
    5919:	49 bf c7 46 5c 55 55 	movabs r15,0x5555555c46c7
    5920:	55 00 00 
    5923:	49 8d 87 09 4a ff ff 	lea    rax,[r15-0xb5f7]
    592a:	4c 8b 7d 98          	mov    r15,QWORD PTR [rbp-0x68]
    592e:	4c 89 ff             	mov    rdi,r15
    5931:	49 c7 87 98 04 00 00 	mov    QWORD PTR [r15+0x498],0x0
    5938:	00 00 00 00 
    593c:	49 89 47 38          	mov    QWORD PTR [r15+0x38],rax
    5940:	49 83 c5 08          	add    r13,0x8
    5944:	49 8b 5d 00          	mov    rbx,QWORD PTR [r13+0x0]
    5948:	4d 8d 6d 08          	lea    r13,[r13+0x8]
    594c:	4d 8b 65 00          	mov    r12,QWORD PTR [r13+0x0]
    5950:	4d 8d 6d 08          	lea    r13,[r13+0x8]
    5954:	4d 8b 7d 00          	mov    r15,QWORD PTR [r13+0x0]
    5958:	4d 8d 6d 08          	lea    r13,[r13+0x8]
    595c:	4c 8b 75 a0          	mov    r14,QWORD PTR [rbp-0x60]
    5960:	4d 8b 75 00          	mov    r14,QWORD PTR [r13+0x0]
    5964:	4d 8d 6d 08          	lea    r13,[r13+0x8]
    5968:	4c 89 7d 98          	mov    QWORD PTR [rbp-0x68],r15
    596c:	4c 8b 7d a8          	mov    r15,QWORD PTR [rbp-0x58]
    5970:	4d 8b 7d 00          	mov    r15,QWORD PTR [r13+0x0]
    5974:	4d 8d 6d 08          	lea    r13,[r13+0x8]
    5978:	4c 89 7d a8          	mov    QWORD PTR [rbp-0x58],r15
    597c:	4c 8b 7d b0          	mov    r15,QWORD PTR [rbp-0x50]
    5980:	4d 8b 7d 00          	mov    r15,QWORD PTR [r13+0x0]
    5984:	4d 8d 6d 08          	lea    r13,[r13+0x8]
    5988:	4c 89 7d b0          	mov    QWORD PTR [rbp-0x50],r15
    598c:	4c 89 75 a0          	mov    QWORD PTR [rbp-0x60],r14
    5990:	e9 dd c4 ff ff       	jmp    0x1e72
    5995:	4c 8b 7d 98          	mov    r15,QWORD PTR [rbp-0x68]
    5999:	41 0f b6 87 1c 05 00 	movzx  eax,BYTE PTR [r15+0x51c]
    59a0:	00 
    59a1:	83 e0 0f             	and    eax,0xf
    59a4:	4d 3b bf 68 04 00 00 	cmp    r15,QWORD PTR [r15+0x468]
    59ab:	4c 89 7d 98          	mov    QWORD PTR [rbp-0x68],r15
    59af:	74 4c                	je     0x59fd
    59b1:	84 c0                	test   al,al
    59b3:	75 16                	jne    0x59cb
    59b5:	4c 8b 7d 98          	mov    r15,QWORD PTR [rbp-0x68]
    59b9:	49 83 bf 78 04 00 00 	cmp    QWORD PTR [r15+0x478],0x0
    59c0:	00 
    59c1:	4c 89 7d 98          	mov    QWORD PTR [rbp-0x68],r15
    59c5:	0f 84 f7 00 00 00    	je     0x5ac2
    59cb:	4c 8b 7d 98          	mov    r15,QWORD PTR [rbp-0x68]
    59cf:	4c 89 ff             	mov    rdi,r15
    59d2:	49 be 1b 47 5c 55 55 	movabs r14,0x5555555c471b
    59d9:	55 00 00 
    59dc:	4d 8d 6d f8          	lea    r13,[r13-0x8]
    59e0:	4d 89 75 00          	mov    QWORD PTR [r13+0x0],r14
    59e4:	4c 89 7d 98          	mov    QWORD PTR [rbp-0x68],r15
    59e8:	e9 20 9d 00 00       	jmp    0xf70d
    59ed:	48 85 c0             	test   rax,rax
    59f0:	0f 84 db fc ff ff    	je     0x56d1
    59f6:	31 f6                	xor    esi,esi
    59f8:	e9 c0 fe ff ff       	jmp    0x58bd
    59fd:	84 c0                	test   al,al
    59ff:	75 ca                	jne    0x59cb
    5a01:	80 bb e0 00 00 00 00 	cmp    BYTE PTR [rbx+0xe0],0x0
    5a08:	75 c1                	jne    0x59cb
    5a0a:	4c 8b 7d 98          	mov    r15,QWORD PTR [rbp-0x68]
    5a0e:	49 83 bf 78 04 00 00 	cmp    QWORD PTR [r15+0x478],0x0
    5a15:	00 
    5a16:	4c 89 7d 98          	mov    QWORD PTR [rbp-0x68],r15
    5a1a:	75 af                	jne    0x59cb
    5a1c:	4c 8b 7d 98          	mov    r15,QWORD PTR [rbp-0x68]
    5a20:	4c 3b 3b             	cmp    r15,QWORD PTR [rbx]
    5a23:	4c 89 7d 98          	mov    QWORD PTR [rbp-0x68],r15
    5a27:	0f 84 b3 02 00 00    	je     0x5ce0
    5a2d:	48 8b 73 50          	mov    rsi,QWORD PTR [rbx+0x50]
    5a31:	48 83 3e 01          	cmp    QWORD PTR [rsi],0x1
    5a35:	0f 86 96 fc ff ff    	jbe    0x56d1
    5a3b:	4c 8b 7d 98          	mov    r15,QWORD PTR [rbp-0x68]
    5a3f:	4d 8d 8f 00 04 00 00 	lea    r9,[r15+0x400]
    5a46:	49 be 69 47 5c 55 55 	movabs r14,0x5555555c4769
    5a4d:	55 00 00 
    5a50:	49 8d 8e b7 51 07 00 	lea    rcx,[r14+0x751b7]
    5a57:	31 d2                	xor    edx,edx
    5a59:	bf 02 00 00 00       	mov    edi,0x2
    5a5e:	4d 8d 87 f0 03 00 00 	lea    r8,[r15+0x3f0]
    5a65:	4c 89 7d 98          	mov    QWORD PTR [rbp-0x68],r15
    5a69:	49 83 c5 08          	add    r13,0x8
    5a6d:	49 8b 5d 00          	mov    rbx,QWORD PTR [r13+0x0]
    5a71:	4d 8d 6d 08          	lea    r13,[r13+0x8]
    5a75:	4d 8b 65 00          	mov    r12,QWORD PTR [r13+0x0]
    5a79:	4d 8d 6d 08          	lea    r13,[r13+0x8]
    5a7d:	4c 8b 7d 98          	mov    r15,QWORD PTR [rbp-0x68]
    5a81:	4d 8b 7d 00          	mov    r15,QWORD PTR [r13+0x0]
    5a85:	4d 8d 6d 08          	lea    r13,[r13+0x8]
    5a89:	4c 8b 75 a0          	mov    r14,QWORD PTR [rbp-0x60]
    5a8d:	4d 8b 75 00          	mov    r14,QWORD PTR [r13+0x0]
    5a91:	4d 8d 6d 08          	lea    r13,[r13+0x8]
    5a95:	4c 89 7d 98          	mov    QWORD PTR [rbp-0x68],r15
    5a99:	4c 8b 7d a8          	mov    r15,QWORD PTR [rbp-0x58]
    5a9d:	4d 8b 7d 00          	mov    r15,QWORD PTR [r13+0x0]
    5aa1:	4d 8d 6d 08          	lea    r13,[r13+0x8]
    5aa5:	4c 89 7d a8          	mov    QWORD PTR [rbp-0x58],r15
    5aa9:	4c 8b 7d b0          	mov    r15,QWORD PTR [rbp-0x50]
    5aad:	4d 8b 7d 00          	mov    r15,QWORD PTR [r13+0x0]
    5ab1:	4d 8d 6d 08          	lea    r13,[r13+0x8]
    5ab5:	4c 89 7d b0          	mov    QWORD PTR [rbp-0x50],r15
    5ab9:	4c 89 75 a0          	mov    QWORD PTR [rbp-0x60],r14
    5abd:	e9 b8 a5 ff ff       	jmp    0x7a
    5ac2:	4c 8b 7d 98          	mov    r15,QWORD PTR [rbp-0x68]
    5ac6:	4d 8b a7 70 04 00 00 	mov    r12,QWORD PTR [r15+0x470]
    5acd:	4c 3b 3b             	cmp    r15,QWORD PTR [rbx]
    5ad0:	4c 89 7d 98          	mov    QWORD PTR [rbp-0x68],r15
    5ad4:	0f 84 c3 00 00 00    	je     0x5b9d
    5ada:	4c 8b 7d 98          	mov    r15,QWORD PTR [rbp-0x68]
    5ade:	41 80 bf 1d 05 00 00 	cmp    BYTE PTR [r15+0x51d],0x0
    5ae5:	00 
    5ae6:	4c 89 7d 98          	mov    QWORD PTR [rbp-0x68],r15
    5aea:	0f 88 ad 00 00 00    	js     0x5b9d
    5af0:	48 8b 73 50          	mov    rsi,QWORD PTR [rbx+0x50]
    5af4:	48 f7 06 00 01 00 00 	test   QWORD PTR [rsi],0x100
    5afb:	0f 85 ba 02 00 00    	jne    0x5dbb
    5b01:	49 bf bf 47 5c 55 55 	movabs r15,0x5555555c47bf
    5b08:	55 00 00 
    5b0b:	49 8d 87 b1 24 00 00 	lea    rax,[r15+0x24b1]
    5b12:	4c 8b 7d 98          	mov    r15,QWORD PTR [rbp-0x68]
    5b16:	49 89 47 38          	mov    QWORD PTR [r15+0x38],rax
    5b1a:	41 f6 87 17 05 00 00 	test   BYTE PTR [r15+0x517],0x20
    5b21:	20 
    5b22:	4c 89 7d 98          	mov    QWORD PTR [rbp-0x68],r15
    5b26:	74 10                	je     0x5b38
    5b28:	4c 8b 7d 98          	mov    r15,QWORD PTR [rbp-0x68]
    5b2c:	41 80 8f 1b 05 00 00 	or     BYTE PTR [r15+0x51b],0x40
    5b33:	40 
    5b34:	4c 89 7d 98          	mov    QWORD PTR [rbp-0x68],r15
    5b38:	31 f6                	xor    esi,esi
    5b3a:	4c 89 e7             	mov    rdi,r12
    5b3d:	49 bf e2 47 5c 55 55 	movabs r15,0x5555555c47e2
    5b44:	55 00 00 
    5b47:	4d 8d 6d f8          	lea    r13,[r13-0x8]
    5b4b:	4d 89 7d 00          	mov    QWORD PTR [r13+0x0],r15
    5b4f:	e9 b8 d1 ff ff       	jmp    0x2d0c
    5b54:	48 85 c0             	test   rax,rax
    5b57:	0f 85 ff 00 00 00    	jne    0x5c5c
    5b5d:	48 8b 73 50          	mov    rsi,QWORD PTR [rbx+0x50]
    5b61:	48 f7 06 00 01 00 00 	test   QWORD PTR [rsi],0x100
    5b68:	0f 84 63 fb ff ff    	je     0x56d1
    5b6e:	4d 8d 8c 24 00 04 00 	lea    r9,[r12+0x400]
    5b75:	00 
    5b76:	31 d2                	xor    edx,edx
    5b78:	bf 08 00 00 00       	mov    edi,0x8
    5b7d:	31 c0                	xor    eax,eax
    5b7f:	4d 8d 84 24 f0 03 00 	lea    r8,[r12+0x3f0]
    5b86:	00 
    5b87:	49 bf 1a 48 5c 55 55 	movabs r15,0x5555555c481a
    5b8e:	55 00 00 
    5b91:	49 8d 8f 36 51 07 00 	lea    rcx,[r15+0x75136]
    5b98:	e9 cc fe ff ff       	jmp    0x5a69
    5b9d:	4c 8b 7d 98          	mov    r15,QWORD PTR [rbp-0x68]
    5ba1:	41 80 bf 1b 05 00 00 	cmp    BYTE PTR [r15+0x51b],0x0
    5ba8:	00 
    5ba9:	4c 89 7d 98          	mov    QWORD PTR [rbp-0x68],r15
    5bad:	0f 88 c7 00 00 00    	js     0x5c7a
    5bb3:	49 bf 35 48 5c 55 55 	movabs r15,0x5555555c4835
    5bba:	55 00 00 
    5bbd:	49 8d 87 4b 29 0a 00 	lea    rax,[r15+0xa294b]
    5bc4:	48 8b 10             	mov    rdx,QWORD PTR [rax]
    5bc7:	4c 8b 7d 98          	mov    r15,QWORD PTR [rbp-0x68]
    5bcb:	49 8b 47 28          	mov    rax,QWORD PTR [r15+0x28]
    5bcf:	48 8b 04 d0          	mov    rax,QWORD PTR [rax+rdx*8]
    5bd3:	48 83 b8 00 02 00 00 	cmp    QWORD PTR [rax+0x200],0x0
    5bda:	00 
    5bdb:	4c 89 7d 98          	mov    QWORD PTR [rbp-0x68],r15
    5bdf:	0f 85 af 01 00 00    	jne    0x5d94
    5be5:	4c 8b 7d 98          	mov    r15,QWORD PTR [rbp-0x68]
    5be9:	41 0f b6 87 1b 05 00 	movzx  eax,BYTE PTR [r15+0x51b]
    5bf0:	00 
    5bf1:	83 c8 80             	or     eax,0xffffff80
    5bf4:	41 88 87 1b 05 00 00 	mov    BYTE PTR [r15+0x51b],al
    5bfb:	4c 89 7d 98          	mov    QWORD PTR [rbp-0x68],r15
    5bff:	83 c8 40             	or     eax,0x40
    5c02:	4c 8b 7d 98          	mov    r15,QWORD PTR [rbp-0x68]
    5c06:	41 80 bf 1d 05 00 00 	cmp    BYTE PTR [r15+0x51d],0x0
    5c0d:	00 
    5c0e:	41 88 87 1b 05 00 00 	mov    BYTE PTR [r15+0x51b],al
    5c15:	4c 89 7d 98          	mov    QWORD PTR [rbp-0x68],r15
    5c19:	0f 88 e0 f9 ff ff    	js     0x55ff
    5c1f:	4c 8b 7d 98          	mov    r15,QWORD PTR [rbp-0x68]
    5c23:	49 8b 87 68 04 00 00 	mov    rax,QWORD PTR [r15+0x468]
    5c2a:	66 83 a8 10 05 00 00 	sub    WORD PTR [rax+0x510],0x1
    5c31:	01 
    5c32:	49 8b 84 24 78 04 00 	mov    rax,QWORD PTR [r12+0x478]
    5c39:	00 
    5c3a:	48 85 c0             	test   rax,rax
    5c3d:	4c 89 7d 98          	mov    QWORD PTR [rbp-0x68],r15
    5c41:	74 11                	je     0x5c54
    5c43:	4c 8b 7d 98          	mov    r15,QWORD PTR [rbp-0x68]
    5c47:	4c 3b 38             	cmp    r15,QWORD PTR [rax]
    5c4a:	4c 89 7d 98          	mov    QWORD PTR [rbp-0x68],r15
    5c4e:	0f 84 b3 01 00 00    	je     0x5e07
    5c54:	4c 89 23             	mov    QWORD PTR [rbx],r12
    5c57:	e9 dc fe ff ff       	jmp    0x5b38
    5c5c:	4c 8b 7d 98          	mov    r15,QWORD PTR [rbp-0x68]
    5c60:	49 8b 87 68 04 00 00 	mov    rax,QWORD PTR [r15+0x468]
    5c67:	31 f6                	xor    esi,esi
    5c69:	66 83 80 10 05 00 00 	add    WORD PTR [rax+0x510],0x1
    5c70:	01 
    5c71:	4c 89 7d 98          	mov    QWORD PTR [rbp-0x68],r15
    5c75:	e9 43 fc ff ff       	jmp    0x58bd
    5c7a:	48 8b 73 50          	mov    rsi,QWORD PTR [rbx+0x50]
    5c7e:	48 83 3e 01          	cmp    QWORD PTR [rsi],0x1
    5c82:	76 47                	jbe    0x5ccb
    5c84:	49 bf d2 48 5c 55 55 	movabs r15,0x5555555c48d2
    5c8b:	55 00 00 
    5c8e:	49 8d 8f 26 50 07 00 	lea    rcx,[r15+0x75026]
    5c95:	31 d2                	xor    edx,edx
    5c97:	bf 02 00 00 00       	mov    edi,0x2
    5c9c:	31 c0                	xor    eax,eax
    5c9e:	4c 8b 7d 98          	mov    r15,QWORD PTR [rbp-0x68]
    5ca2:	4d 8d 8f 00 04 00 00 	lea    r9,[r15+0x400]
    5ca9:	4d 8d 87 f0 03 00 00 	lea    r8,[r15+0x3f0]
    5cb0:	49 be f0 48 5c 55 55 	movabs r14,0x5555555c48f0
    5cb7:	55 00 00 
    5cba:	4d 8d 6d f8          	lea    r13,[r13-0x8]
    5cbe:	4d 89 75 00          	mov    QWORD PTR [r13+0x0],r14
    5cc2:	4c 89 7d 98          	mov    QWORD PTR [rbp-0x68],r15
    5cc6:	e9 af a3 ff ff       	jmp    0x7a
    5ccb:	4c 8b 7d 98          	mov    r15,QWORD PTR [rbp-0x68]
    5ccf:	41 0f b6 87 1b 05 00 	movzx  eax,BYTE PTR [r15+0x51b]
    5cd6:	00 
    5cd7:	4c 89 7d 98          	mov    QWORD PTR [rbp-0x68],r15
    5cdb:	e9 1f ff ff ff       	jmp    0x5bff
    5ce0:	49 bf 05 49 5c 55 55 	movabs r15,0x5555555c4905
    5ce7:	55 00 00 
    5cea:	49 8d 87 3b ef ff ff 	lea    rax,[r15-0x10c5]
    5cf1:	4c 8b 7d 98          	mov    r15,QWORD PTR [rbp-0x68]
    5cf5:	4c 89 ff             	mov    rdi,r15
    5cf8:	41 0f b6 97 1b 05 00 	movzx  edx,BYTE PTR [r15+0x51b]
    5cff:	00 
    5d00:	49 89 47 30          	mov    QWORD PTR [r15+0x30],rax
    5d04:	49 be 1d 49 5c 55 55 	movabs r14,0x5555555c491d
    5d0b:	55 00 00 
    5d0e:	49 8d 86 53 c4 ff ff 	lea    rax,[r14-0x3bad]
    5d15:	89 d1                	mov    ecx,edx
    5d17:	83 c9 40             	or     ecx,0x40
    5d1a:	49 89 47 38          	mov    QWORD PTR [r15+0x38],rax
    5d1e:	89 d0                	mov    eax,edx
    5d20:	83 c8 42             	or     eax,0x42
    5d23:	83 e2 01             	and    edx,0x1
    5d26:	0f 45 c1             	cmovne eax,ecx
    5d29:	41 88 87 1b 05 00 00 	mov    BYTE PTR [r15+0x51b],al
    5d30:	49 be 3f 49 5c 55 55 	movabs r14,0x5555555c493f
    5d37:	55 00 00 
    5d3a:	4d 8d 6d f8          	lea    r13,[r13-0x8]
    5d3e:	4d 89 75 00          	mov    QWORD PTR [r13+0x0],r14
    5d42:	4c 89 7d 98          	mov    QWORD PTR [rbp-0x68],r15
    5d46:	e9 ba cc ff ff       	jmp    0x2a05
    5d4b:	48 85 c0             	test   rax,rax
    5d4e:	0f 84 7d f9 ff ff    	je     0x56d1
    5d54:	48 8b 7b 08          	mov    rdi,QWORD PTR [rbx+0x8]
    5d58:	f6 47 09 08          	test   BYTE PTR [rdi+0x9],0x8
    5d5c:	0f 85 b6 00 00 00    	jne    0x5e18
    5d62:	48 8b 7b 10          	mov    rdi,QWORD PTR [rbx+0x10]
    5d66:	0f b6 47 09          	movzx  eax,BYTE PTR [rdi+0x9]
    5d6a:	a8 08                	test   al,0x8
    5d6c:	0f 84 8d f8 ff ff    	je     0x55ff
    5d72:	83 e0 ef             	and    eax,0xffffffef
    5d75:	88 47 09             	mov    BYTE PTR [rdi+0x9],al
    5d78:	49 bf 6d 49 5c 55 55 	movabs r15,0x5555555c496d
    5d7f:	55 00 00 
    5d82:	4d 8d 6d f8          	lea    r13,[r13-0x8]
    5d86:	4d 89 7d 00          	mov    QWORD PTR [r13+0x0],r15
    5d8a:	e9 94 98 00 00       	jmp    0xf623
    5d8f:	e9 6b f8 ff ff       	jmp    0x55ff
    5d94:	4c 8b 7d 98          	mov    r15,QWORD PTR [rbp-0x68]
    5d98:	4c 89 ff             	mov    rdi,r15
    5d9b:	49 be 7a 49 5c 55 55 	movabs r14,0x5555555c497a
    5da2:	55 00 00 
    5da5:	4d 8d 6d f8          	lea    r13,[r13-0x8]
    5da9:	4d 89 75 00          	mov    QWORD PTR [r13+0x0],r14
    5dad:	4c 89 7d 98          	mov    QWORD PTR [rbp-0x68],r15
    5db1:	e9 97 cb ff ff       	jmp    0x294d
    5db6:	e9 2a fe ff ff       	jmp    0x5be5
    5dbb:	49 bf 86 49 5c 55 55 	movabs r15,0x5555555c4986
    5dc2:	55 00 00 
    5dc5:	49 8d 8f 9a 4f 07 00 	lea    rcx,[r15+0x74f9a]
    5dcc:	31 d2                	xor    edx,edx
    5dce:	bf 08 00 00 00       	mov    edi,0x8
    5dd3:	31 c0                	xor    eax,eax
    5dd5:	4c 8b 7d 98          	mov    r15,QWORD PTR [rbp-0x68]
    5dd9:	4d 8d 8f 00 04 00 00 	lea    r9,[r15+0x400]
    5de0:	4d 8d 87 f0 03 00 00 	lea    r8,[r15+0x3f0]
    5de7:	49 be a4 49 5c 55 55 	movabs r14,0x5555555c49a4
    5dee:	55 00 00 
    5df1:	4d 8d 6d f8          	lea    r13,[r13-0x8]
    5df5:	4d 89 75 00          	mov    QWORD PTR [r13+0x0],r14
    5df9:	4c 89 7d 98          	mov    QWORD PTR [rbp-0x68],r15
    5dfd:	e9 78 a2 ff ff       	jmp    0x7a
    5e02:	e9 fa fc ff ff       	jmp    0x5b01
    5e07:	48 8b 40 10          	mov    rax,QWORD PTR [rax+0x10]
    5e0b:	49 89 84 24 78 04 00 	mov    QWORD PTR [r12+0x478],rax
    5e12:	00 
    5e13:	e9 3c fe ff ff       	jmp    0x5c54
    5e18:	49 bf be 49 5c 55 55 	movabs r15,0x5555555c49be
    5e1f:	55 00 00 
    5e22:	4d 8d 6d f8          	lea    r13,[r13-0x8]
    5e26:	4d 89 7d 00          	mov    QWORD PTR [r13+0x0],r15
    5e2a:	e9 f4 97 00 00       	jmp    0xf623
    5e2f:	e9 2e ff ff ff       	jmp    0x5d62
    5e34:	90                   	nop
    5e35:	4d 8d 6d f8          	lea    r13,[r13-0x8]
    5e39:	4c 8b 7d b0          	mov    r15,QWORD PTR [rbp-0x50]
    5e3d:	4d 89 7d 00          	mov    QWORD PTR [r13+0x0],r15
    5e41:	4d 8d 6d f8          	lea    r13,[r13-0x8]
    5e45:	4c 8b 75 a8          	mov    r14,QWORD PTR [rbp-0x58]
    5e49:	4d 89 75 00          	mov    QWORD PTR [r13+0x0],r14
    5e4d:	4d 8d 6d f8          	lea    r13,[r13-0x8]
    5e51:	4c 89 7d b0          	mov    QWORD PTR [rbp-0x50],r15
    5e55:	4c 8b 7d a0          	mov    r15,QWORD PTR [rbp-0x60]
    5e59:	4d 89 7d 00          	mov    QWORD PTR [r13+0x0],r15
    5e5d:	49 89 ff             	mov    r15,rdi
    5e60:	4d 8d 6d f8          	lea    r13,[r13-0x8]
    5e64:	4c 89 7d a0          	mov    QWORD PTR [rbp-0x60],r15
    5e68:	4c 8b 7d 98          	mov    r15,QWORD PTR [rbp-0x68]
    5e6c:	4d 89 7d 00          	mov    QWORD PTR [r13+0x0],r15
    5e70:	4d 8d 6d f8          	lea    r13,[r13-0x8]
    5e74:	4d 89 65 00          	mov    QWORD PTR [r13+0x0],r12
    5e78:	4d 8d 6d f8          	lea    r13,[r13-0x8]
    5e7c:	49 89 5d 00          	mov    QWORD PTR [r13+0x0],rbx
    5e80:	49 83 ed 68          	sub    r13,0x68
    5e84:	4c 89 7d 98          	mov    QWORD PTR [rbp-0x68],r15
    5e88:	4c 8b 7d 88          	mov    r15,QWORD PTR [rbp-0x78]
    5e8c:	49 8b 47 28          	mov    rax,QWORD PTR [r15+0x28]
    5e90:	49 89 45 58          	mov    QWORD PTR [r13+0x58],rax
    5e94:	31 c0                	xor    eax,eax
    5e96:	48 8b 47 08          	mov    rax,QWORD PTR [rdi+0x8]
    5e9a:	48 8b 70 50          	mov    rsi,QWORD PTR [rax+0x50]
    5e9e:	48 f7 06 00 01 00 00 	test   QWORD PTR [rsi],0x100
    5ea5:	4c 89 75 a8          	mov    QWORD PTR [rbp-0x58],r14
    5ea9:	0f 85 bf 06 00 00    	jne    0x656e
    5eaf:	49 bf 91 c5 5c 55 55 	movabs r15,0x5555555cc591
    5eb6:	55 00 00 
    5eb9:	49 8d 87 0f de 09 00 	lea    rax,[r15+0x9de0f]
    5ec0:	48 8b 10             	mov    rdx,QWORD PTR [rax]
    5ec3:	4c 8b 7d a0          	mov    r15,QWORD PTR [rbp-0x60]
    5ec7:	49 8b 47 28          	mov    rax,QWORD PTR [r15+0x28]
    5ecb:	48 8b 04 d0          	mov    rax,QWORD PTR [rax+rdx*8]
    5ecf:	48 83 78 20 00       	cmp    QWORD PTR [rax+0x20],0x0
    5ed4:	49 89 45 08          	mov    QWORD PTR [r13+0x8],rax
    5ed8:	4c 89 7d a0          	mov    QWORD PTR [rbp-0x60],r15
    5edc:	0f 85 c8 05 00 00    	jne    0x64aa
    5ee2:	49 8b 45 08          	mov    rax,QWORD PTR [r13+0x8]
    5ee6:	48 8b 00             	mov    rax,QWORD PTR [rax]
    5ee9:	48 83 78 08 00       	cmp    QWORD PTR [rax+0x8],0x0
    5eee:	4c 8b 20             	mov    r12,QWORD PTR [rax]
    5ef1:	0f 84 b3 05 00 00    	je     0x64aa
    5ef7:	49 8d 45 40          	lea    rax,[r13+0x40]
    5efb:	4c 8b 7d a8          	mov    r15,QWORD PTR [rbp-0x58]
    5eff:	45 31 ff             	xor    r15d,r15d
    5f02:	49 89 45 18          	mov    QWORD PTR [r13+0x18],rax
    5f06:	4c 89 7d a8          	mov    QWORD PTR [rbp-0x58],r15
    5f0a:	eb 21                	jmp    0x5f2d
    5f0c:	49 8b 45 08          	mov    rax,QWORD PTR [r13+0x8]
    5f10:	4c 8b 7d a8          	mov    r15,QWORD PTR [rbp-0x58]
    5f14:	49 83 c7 01          	add    r15,0x1
    5f18:	49 83 c4 38          	add    r12,0x38
    5f1c:	48 8b 00             	mov    rax,QWORD PTR [rax]
    5f1f:	4c 39 78 08          	cmp    QWORD PTR [rax+0x8],r15
    5f23:	4c 89 7d a8          	mov    QWORD PTR [rbp-0x58],r15
    5f27:	0f 86 7d 05 00 00    	jbe    0x64aa
    5f2d:	49 8b 74 24 30       	mov    rsi,QWORD PTR [r12+0x30]
    5f32:	48 85 f6             	test   rsi,rsi
    5f35:	74 42                	je     0x5f79
    5f37:	49 8b 55 18          	mov    rdx,QWORD PTR [r13+0x18]
    5f3b:	4c 8b 7d a0          	mov    r15,QWORD PTR [rbp-0x60]
    5f3f:	4c 89 ff             	mov    rdi,r15
    5f42:	49 be 08 c6 5c 55 55 	movabs r14,0x5555555cc608
    5f49:	55 00 00 
    5f4c:	4d 8d 6d f8          	lea    r13,[r13-0x8]
    5f50:	4d 89 75 00          	mov    QWORD PTR [r13+0x0],r14
    5f54:	4c 89 7d a0          	mov    QWORD PTR [rbp-0x60],r15
    5f58:	e9 74 95 00 00       	jmp    0xf4d1
    5f5d:	48 85 c0             	test   rax,rax
    5f60:	0f 85 3e 06 00 00    	jne    0x65a4
    5f66:	49 8b 45 40          	mov    rax,QWORD PTR [r13+0x40]
    5f6a:	48 85 c0             	test   rax,rax
    5f6d:	74 9d                	je     0x5f0c
    5f6f:	48 83 f8 01          	cmp    rax,0x1
    5f73:	0f 84 eb 04 00 00    	je     0x6464
    5f79:	49 bf 2c c6 5c 55 55 	movabs r15,0x5555555cc62c
    5f80:	55 00 00 
    5f83:	49 8d 87 84 62 0c 00 	lea    rax,[r15+0xc6284]
    5f8a:	48 8b 00             	mov    rax,QWORD PTR [rax]
    5f8d:	48 8b 00             	mov    rax,QWORD PTR [rax]
    5f90:	49 3b 44 24 10       	cmp    rax,QWORD PTR [r12+0x10]
    5f95:	0f 84 71 ff ff ff    	je     0x5f0c
    5f9b:	49 8b 44 24 28       	mov    rax,QWORD PTR [r12+0x28]
    5fa0:	4c 8b 7d a0          	mov    r15,QWORD PTR [rbp-0x60]
    5fa4:	4c 89 ff             	mov    rdi,r15
    5fa7:	48 8b 70 10          	mov    rsi,QWORD PTR [rax+0x10]
    5fab:	49 be 48 c6 5c 55 55 	movabs r14,0x5555555cc648
    5fb2:	55 00 00 
    5fb5:	4d 8d 6d f8          	lea    r13,[r13-0x8]
    5fb9:	4d 89 75 00          	mov    QWORD PTR [r13+0x0],r14
    5fbd:	4c 89 7d a0          	mov    QWORD PTR [rbp-0x60],r15
    5fc1:	e9 67 92 00 00       	jmp    0xf22d
    5fc6:	49 8b 74 24 28       	mov    rsi,QWORD PTR [r12+0x28]
    5fcb:	48 8b 46 18          	mov    rax,QWORD PTR [rsi+0x18]
    5fcf:	4c 8b 7d 98          	mov    r15,QWORD PTR [rbp-0x68]
    5fd3:	4c 8b 38             	mov    r15,QWORD PTR [rax]
    5fd6:	48 8b 58 08          	mov    rbx,QWORD PTR [rax+0x8]
    5fda:	4d 89 7d 10          	mov    QWORD PTR [r13+0x10],r15
    5fde:	48 85 db             	test   rbx,rbx
    5fe1:	4c 89 7d 98          	mov    QWORD PTR [rbp-0x68],r15
    5fe5:	0f 84 87 00 00 00    	je     0x6072
    5feb:	4c 8b 7d b0          	mov    r15,QWORD PTR [rbp-0x50]
    5fef:	45 31 ff             	xor    r15d,r15d
    5ff2:	31 db                	xor    ebx,ebx
    5ff4:	4c 89 7d b0          	mov    QWORD PTR [rbp-0x50],r15
    5ff8:	eb 63                	jmp    0x605d
    5ffa:	4c 8b 7d 98          	mov    r15,QWORD PTR [rbp-0x68]
    5ffe:	49 8b 77 18          	mov    rsi,QWORD PTR [r15+0x18]
    6002:	4c 8b 75 a0          	mov    r14,QWORD PTR [rbp-0x60]
    6006:	4c 89 f7             	mov    rdi,r14
    6009:	4c 89 7d 98          	mov    QWORD PTR [rbp-0x68],r15
    600d:	49 bf 7d c6 5c 55 55 	movabs r15,0x5555555cc67d
    6014:	55 00 00 
    6017:	4d 8d 6d f8          	lea    r13,[r13-0x8]
    601b:	4d 89 7d 00          	mov    QWORD PTR [r13+0x0],r15
    601f:	4c 89 75 a0          	mov    QWORD PTR [rbp-0x60],r14
    6023:	4c 8b 75 98          	mov    r14,QWORD PTR [rbp-0x68]
    6027:	4d 8b 7e 08          	mov    r15,QWORD PTR [r14+0x8]
    602b:	4d 89 fe             	mov    r14,r15
    602e:	e9 20 8c 00 00       	jmp    0xec53
    6033:	49 8b 74 24 28       	mov    rsi,QWORD PTR [r12+0x28]
    6038:	48 01 c3             	add    rbx,rax
    603b:	48 8b 46 18          	mov    rax,QWORD PTR [rsi+0x18]
    603f:	4c 8b 7d b0          	mov    r15,QWORD PTR [rbp-0x50]
    6043:	49 83 c7 01          	add    r15,0x1
    6047:	4c 8b 75 98          	mov    r14,QWORD PTR [rbp-0x68]
    604b:	49 83 c6 20          	add    r14,0x20
    604f:	4c 39 78 08          	cmp    QWORD PTR [rax+0x8],r15
    6053:	4c 89 7d b0          	mov    QWORD PTR [rbp-0x50],r15
    6057:	4c 89 75 98          	mov    QWORD PTR [rbp-0x68],r14
    605b:	76 15                	jbe    0x6072
    605d:	4c 8b 7d 98          	mov    r15,QWORD PTR [rbp-0x68]
    6061:	49 8b 07             	mov    rax,QWORD PTR [r15]
    6064:	48 85 c0             	test   rax,rax
    6067:	4c 89 7d 98          	mov    QWORD PTR [rbp-0x68],r15
    606b:	74 8d                	je     0x5ffa
    606d:	48 01 c3             	add    rbx,rax
    6070:	eb c9                	jmp    0x603b
    6072:	49 8b 44 24 20       	mov    rax,QWORD PTR [r12+0x20]
    6077:	48 85 c0             	test   rax,rax
    607a:	0f 85 f6 03 00 00    	jne    0x6476
    6080:	49 8b 04 24          	mov    rax,QWORD PTR [r12]
    6084:	4c 8b 7d 98          	mov    r15,QWORD PTR [rbp-0x68]
    6088:	4c 8d 7b 01          	lea    r15,[rbx+0x1]
    608c:	48 85 c0             	test   rax,rax
    608f:	4c 89 7d 98          	mov    QWORD PTR [rbp-0x68],r15
    6093:	0f 84 ec 01 00 00    	je     0x6285
    6099:	4c 8b 58 20          	mov    r11,QWORD PTR [rax+0x20]
    609d:	4d 85 db             	test   r11,r11
    60a0:	0f 84 df 01 00 00    	je     0x6285
    60a6:	4d 8b 53 08          	mov    r10,QWORD PTR [r11+0x8]
    60aa:	49 8b 43 10          	mov    rax,QWORD PTR [r11+0x10]
    60ae:	4c 29 d0             	sub    rax,r10
    60b1:	4c 8b 7d 98          	mov    r15,QWORD PTR [rbp-0x68]
    60b5:	4c 39 f8             	cmp    rax,r15
    60b8:	4c 89 7d 98          	mov    QWORD PTR [rbp-0x68],r15
    60bc:	0f 82 b4 00 00 00    	jb     0x6176
    60c2:	4c 8b 7d 98          	mov    r15,QWORD PTR [rbp-0x68]
    60c6:	4d 8b 7b 18          	mov    r15,QWORD PTR [r11+0x18]
    60ca:	4d 85 ff             	test   r15,r15
    60cd:	4c 89 7d 98          	mov    QWORD PTR [rbp-0x68],r15
    60d1:	74 09                	je     0x60dc
    60d3:	4d 3b 13             	cmp    r10,QWORD PTR [r11]
    60d6:	0f 84 e5 04 00 00    	je     0x65c1
    60dc:	48 8b 46 18          	mov    rax,QWORD PTR [rsi+0x18]
    60e0:	4c 8b 7d 98          	mov    r15,QWORD PTR [rbp-0x68]
    60e4:	45 31 ff             	xor    r15d,r15d
    60e7:	49 8b 5d 10          	mov    rbx,QWORD PTR [r13+0x10]
    60eb:	4c 8b 75 b0          	mov    r14,QWORD PTR [rbp-0x50]
    60ef:	4d 89 de             	mov    r14,r11
    60f2:	4c 89 d6             	mov    rsi,r10
    60f5:	48 83 78 08 00       	cmp    QWORD PTR [rax+0x8],0x0
    60fa:	4c 89 7d 98          	mov    QWORD PTR [rbp-0x68],r15
    60fe:	4c 89 75 b0          	mov    QWORD PTR [rbp-0x50],r14
    6102:	74 61                	je     0x6165
    6104:	90                   	nop
    6105:	48 89 da             	mov    rdx,rbx
    6108:	4c 8b 7d a0          	mov    r15,QWORD PTR [rbp-0x60]
    610c:	4c 89 ff             	mov    rdi,r15
    610f:	4c 8b 75 98          	mov    r14,QWORD PTR [rbp-0x68]
    6113:	49 83 c6 01          	add    r14,0x1
    6117:	4c 89 7d a0          	mov    QWORD PTR [rbp-0x60],r15
    611b:	49 bf 1d c7 5c 55 55 	movabs r15,0x5555555cc71d
    6122:	55 00 00 
    6125:	4d 8d 6d f8          	lea    r13,[r13-0x8]
    6129:	4d 89 7d 00          	mov    QWORD PTR [r13+0x0],r15
    612d:	4c 8b 7b 10          	mov    r15,QWORD PTR [rbx+0x10]
    6131:	4d 89 fe             	mov    r14,r15
    6134:	e9 38 8b 00 00       	jmp    0xec71
    6139:	48 83 c3 20          	add    rbx,0x20
    613d:	48 89 c6             	mov    rsi,rax
    6140:	49 8b 44 24 28       	mov    rax,QWORD PTR [r12+0x28]
    6145:	48 8b 40 18          	mov    rax,QWORD PTR [rax+0x18]
    6149:	4c 8b 7d 98          	mov    r15,QWORD PTR [rbp-0x68]
    614d:	4c 39 78 08          	cmp    QWORD PTR [rax+0x8],r15
    6151:	4c 89 7d 98          	mov    QWORD PTR [rbp-0x68],r15
    6155:	77 ae                	ja     0x6105
    6157:	4c 8b 7d b0          	mov    r15,QWORD PTR [rbp-0x50]
    615b:	4d 89 fb             	mov    r11,r15
    615e:	49 89 f2             	mov    r10,rsi
    6161:	4c 89 7d b0          	mov    QWORD PTR [rbp-0x50],r15
    6165:	41 c6 02 0a          	mov    BYTE PTR [r10],0xa
    6169:	49 83 c2 01          	add    r10,0x1
    616d:	4d 89 53 08          	mov    QWORD PTR [r11+0x8],r10
    6171:	e9 96 fd ff ff       	jmp    0x5f0c
    6176:	49 8b 13             	mov    rdx,QWORD PTR [r11]
    6179:	4c 89 d1             	mov    rcx,r10
    617c:	4c 89 e6             	mov    rsi,r12
    617f:	4c 8b 7d a0          	mov    r15,QWORD PTR [rbp-0x60]
    6183:	4c 89 ff             	mov    rdi,r15
    6186:	4d 89 5d 20          	mov    QWORD PTR [r13+0x20],r11
    618a:	48 29 d1             	sub    rcx,rdx
    618d:	49 be 69 c7 5c 55 55 	movabs r14,0x5555555cc769
    6194:	55 00 00 
    6197:	4d 8d 6d f8          	lea    r13,[r13-0x8]
    619b:	4d 89 75 00          	mov    QWORD PTR [r13+0x0],r14
    619f:	4c 89 7d a0          	mov    QWORD PTR [rbp-0x60],r15
    61a3:	e9 31 95 00 00       	jmp    0xf6d9
    61a8:	4d 8b 5d 20          	mov    r11,QWORD PTR [r13+0x20]
    61ac:	4d 8b 13             	mov    r10,QWORD PTR [r11]
    61af:	49 8b 43 10          	mov    rax,QWORD PTR [r11+0x10]
    61b3:	4c 29 d0             	sub    rax,r10
    61b6:	4d 89 53 08          	mov    QWORD PTR [r11+0x8],r10
    61ba:	4c 8b 7d 98          	mov    r15,QWORD PTR [rbp-0x68]
    61be:	4c 39 f8             	cmp    rax,r15
    61c1:	4c 89 7d 98          	mov    QWORD PTR [rbp-0x68],r15
    61c5:	0f 83 e5 03 00 00    	jae    0x65b0
    61cb:	4d 8b 53 18          	mov    r10,QWORD PTR [r11+0x18]
    61cf:	4d 85 d2             	test   r10,r10
    61d2:	0f 84 ad 00 00 00    	je     0x6285
    61d8:	41 f6 42 09 08       	test   BYTE PTR [r10+0x9],0x8
    61dd:	0f 84 a2 00 00 00    	je     0x6285
    61e3:	49 8b 72 20          	mov    rsi,QWORD PTR [r10+0x20]
    61e7:	f6 06 80             	test   BYTE PTR [rsi],0x80
    61ea:	74 44                	je     0x6230
    61ec:	49 8b 02             	mov    rax,QWORD PTR [r10]
    61ef:	4d 8b 4a 28          	mov    r9,QWORD PTR [r10+0x28]
    61f3:	49 bf ac c7 5c 55 55 	movabs r15,0x5555555cc7ac
    61fa:	55 00 00 
    61fd:	49 8d 8f da 62 06 00 	lea    rcx,[r15+0x662da]
    6204:	31 d2                	xor    edx,edx
    6206:	bf 08 00 00 00       	mov    edi,0x8
    620b:	4d 89 55 20          	mov    QWORD PTR [r13+0x20],r10
    620f:	44 8b 40 18          	mov    r8d,DWORD PTR [rax+0x18]
    6213:	31 c0                	xor    eax,eax
    6215:	49 bf c3 c7 5c 55 55 	movabs r15,0x5555555cc7c3
    621c:	55 00 00 
    621f:	4d 8d 6d f8          	lea    r13,[r13-0x8]
    6223:	4d 89 7d 00          	mov    QWORD PTR [r13+0x0],r15
    6227:	e9 4e 9e ff ff       	jmp    0x7a
    622c:	4d 8b 55 20          	mov    r10,QWORD PTR [r13+0x20]
    6230:	49 bf cf c7 5c 55 55 	movabs r15,0x5555555cc7cf
    6237:	55 00 00 
    623a:	49 8d 87 d1 62 0c 00 	lea    rax,[r15+0xc62d1]
    6241:	49 8d 72 28          	lea    rsi,[r10+0x28]
    6245:	4d 89 55 20          	mov    QWORD PTR [r13+0x20],r10
    6249:	48 89 c7             	mov    rdi,rax
    624c:	49 bf e0 c7 5c 55 55 	movabs r15,0x5555555cc7e0
    6253:	55 00 00 
    6256:	4d 8d 6d f8          	lea    r13,[r13-0x8]
    625a:	4d 89 7d 00          	mov    QWORD PTR [r13+0x0],r15
    625e:	e9 58 93 00 00       	jmp    0xf5bb
    6263:	4d 8b 55 20          	mov    r10,QWORD PTR [r13+0x20]
    6267:	41 80 62 09 f7       	and    BYTE PTR [r10+0x9],0xf7
    626c:	49 c7 42 30 00 00 00 	mov    QWORD PTR [r10+0x30],0x0
    6273:	00 
    6274:	49 c7 42 38 00 00 00 	mov    QWORD PTR [r10+0x38],0x0
    627b:	00 
    627c:	49 c7 42 40 00 00 00 	mov    QWORD PTR [r10+0x40],0x0
    6283:	00 
    6284:	90                   	nop
    6285:	4c 8b 7d a0          	mov    r15,QWORD PTR [rbp-0x60]
    6289:	49 8b 7f 58          	mov    rdi,QWORD PTR [r15+0x58]
    628d:	4c 8b 75 98          	mov    r14,QWORD PTR [rbp-0x68]
    6291:	4c 89 f6             	mov    rsi,r14
    6294:	4c 89 7d a0          	mov    QWORD PTR [rbp-0x60],r15
    6298:	49 bf 14 c8 5c 55 55 	movabs r15,0x5555555cc814
    629f:	55 00 00 
    62a2:	4d 8d 6d f8          	lea    r13,[r13-0x8]
    62a6:	4d 89 7d 00          	mov    QWORD PTR [r13+0x0],r15
    62aa:	4c 89 75 98          	mov    QWORD PTR [rbp-0x68],r14
    62ae:	e9 04 92 00 00       	jmp    0xf4b7
    62b3:	4c 8b 7d b0          	mov    r15,QWORD PTR [rbp-0x50]
    62b7:	49 89 c7             	mov    r15,rax
    62ba:	48 85 c0             	test   rax,rax
    62bd:	4c 89 7d b0          	mov    QWORD PTR [rbp-0x50],r15
    62c1:	0f 84 dd 02 00 00    	je     0x65a4
    62c7:	49 8b 7c 24 20       	mov    rdi,QWORD PTR [r12+0x20]
    62cc:	48 85 ff             	test   rdi,rdi
    62cf:	0f 84 30 01 00 00    	je     0x6405
    62d5:	48 89 c6             	mov    rsi,rax
    62d8:	49 bf 35 c8 5c 55 55 	movabs r15,0x5555555cc835
    62df:	55 00 00 
    62e2:	4d 8d 6d f8          	lea    r13,[r13-0x8]
    62e6:	4d 89 7d 00          	mov    QWORD PTR [r13+0x0],r15
    62ea:	e9 04 94 00 00       	jmp    0xf6f3
    62ef:	48 89 c6             	mov    rsi,rax
    62f2:	49 8b 44 24 28       	mov    rax,QWORD PTR [r12+0x28]
    62f7:	48 8b 40 18          	mov    rax,QWORD PTR [rax+0x18]
    62fb:	48 83 78 08 00       	cmp    QWORD PTR [rax+0x8],0x0
    6300:	74 62                	je     0x6364
    6302:	49 8b 5d 10          	mov    rbx,QWORD PTR [r13+0x10]
    6306:	4c 8b 7d 98          	mov    r15,QWORD PTR [rbp-0x68]
    630a:	45 31 ff             	xor    r15d,r15d
    630d:	90                   	nop
    630e:	4c 89 7d 98          	mov    QWORD PTR [rbp-0x68],r15
    6312:	48 89 da             	mov    rdx,rbx
    6315:	4c 8b 7d a0          	mov    r15,QWORD PTR [rbp-0x60]
    6319:	4c 89 ff             	mov    rdi,r15
    631c:	4c 8b 75 98          	mov    r14,QWORD PTR [rbp-0x68]
    6320:	49 83 c6 01          	add    r14,0x1
    6324:	4c 89 7d a0          	mov    QWORD PTR [rbp-0x60],r15
    6328:	49 bf 5d c8 5c 55 55 	movabs r15,0x5555555cc85d
    632f:	55 00 00 
    6332:	4d 8d 6d f8          	lea    r13,[r13-0x8]
    6336:	4d 89 7d 00          	mov    QWORD PTR [r13+0x0],r15
    633a:	4c 8b 7b 10          	mov    r15,QWORD PTR [rbx+0x10]
    633e:	4d 89 fe             	mov    r14,r15
    6341:	e9 49 89 00 00       	jmp    0xec8f
    6346:	48 83 c3 20          	add    rbx,0x20
    634a:	48 89 c6             	mov    rsi,rax
    634d:	49 8b 44 24 28       	mov    rax,QWORD PTR [r12+0x28]
    6352:	48 8b 40 18          	mov    rax,QWORD PTR [rax+0x18]
    6356:	4c 8b 7d 98          	mov    r15,QWORD PTR [rbp-0x68]
    635a:	4c 39 78 08          	cmp    QWORD PTR [rax+0x8],r15
    635e:	4c 89 7d 98          	mov    QWORD PTR [rbp-0x68],r15
    6362:	77 ae                	ja     0x6312
    6364:	49 8b 7c 24 20       	mov    rdi,QWORD PTR [r12+0x20]
    6369:	48 85 ff             	test   rdi,rdi
    636c:	0f 84 b3 00 00 00    	je     0x6425
    6372:	48 89 f3             	mov    rbx,rsi
    6375:	4c 8b 7d b0          	mov    r15,QWORD PTR [rbp-0x50]
    6379:	4c 89 fe             	mov    rsi,r15
    637c:	4c 29 fb             	sub    rbx,r15
    637f:	48 89 da             	mov    rdx,rbx
    6382:	49 be 8c c8 5c 55 55 	movabs r14,0x5555555cc88c
    6389:	55 00 00 
    638c:	4d 8d 6d f8          	lea    r13,[r13-0x8]
    6390:	4d 89 75 00          	mov    QWORD PTR [r13+0x0],r14
    6394:	4c 89 7d b0          	mov    QWORD PTR [rbp-0x50],r15
    6398:	e9 6c 92 00 00       	jmp    0xf609
    639d:	48 85 c0             	test   rax,rax
    63a0:	0f 88 78 01 00 00    	js     0x651e
    63a6:	48 39 c3             	cmp    rbx,rax
    63a9:	0f 84 5d fb ff ff    	je     0x5f0c
    63af:	4c 8b 7d a0          	mov    r15,QWORD PTR [rbp-0x60]
    63b3:	49 8b 57 08          	mov    rdx,QWORD PTR [r15+0x8]
    63b7:	48 8b 72 50          	mov    rsi,QWORD PTR [rdx+0x50]
    63bb:	48 83 3e 04          	cmp    QWORD PTR [rsi],0x4
    63bf:	4c 89 7d a0          	mov    QWORD PTR [rbp-0x60],r15
    63c3:	0f 86 43 fb ff ff    	jbe    0x5f0c
    63c9:	49 89 c0             	mov    r8,rax
    63cc:	49 89 d9             	mov    r9,rbx
    63cf:	49 bf bd c8 5c 55 55 	movabs r15,0x5555555cc8bd
    63d6:	55 00 00 
    63d9:	49 8d 8f 93 e2 06 00 	lea    rcx,[r15+0x6e293]
    63e0:	31 d2                	xor    edx,edx
    63e2:	bf 05 00 00 00       	mov    edi,0x5
    63e7:	31 c0                	xor    eax,eax
    63e9:	49 bf cb c8 5c 55 55 	movabs r15,0x5555555cc8cb
    63f0:	55 00 00 
    63f3:	4d 8d 6d f8          	lea    r13,[r13-0x8]
    63f7:	4d 89 7d 00          	mov    QWORD PTR [r13+0x0],r15
    63fb:	e9 7a 9c ff ff       	jmp    0x7a
    6400:	e9 07 fb ff ff       	jmp    0x5f0c
    6405:	49 8b 44 24 28       	mov    rax,QWORD PTR [r12+0x28]
    640a:	4c 8b 7d b0          	mov    r15,QWORD PTR [rbp-0x50]
    640e:	4c 89 fe             	mov    rsi,r15
    6411:	48 8b 40 18          	mov    rax,QWORD PTR [rax+0x18]
    6415:	48 83 78 08 00       	cmp    QWORD PTR [rax+0x8],0x0
    641a:	4c 89 7d b0          	mov    QWORD PTR [rbp-0x50],r15
    641e:	0f 85 de fe ff ff    	jne    0x6302
    6424:	90                   	nop
    6425:	c6 06 0a             	mov    BYTE PTR [rsi],0xa
    6428:	48 8d 4e 01          	lea    rcx,[rsi+0x1]
    642c:	4c 8b 7d b0          	mov    r15,QWORD PTR [rbp-0x50]
    6430:	4c 89 fa             	mov    rdx,r15
    6433:	4c 89 e6             	mov    rsi,r12
    6436:	4c 29 f9             	sub    rcx,r15
    6439:	4c 8b 75 a0          	mov    r14,QWORD PTR [rbp-0x60]
    643d:	4c 89 f7             	mov    rdi,r14
    6440:	4c 89 7d b0          	mov    QWORD PTR [rbp-0x50],r15
    6444:	49 bf 08 c9 5c 55 55 	movabs r15,0x5555555cc908
    644b:	55 00 00 
    644e:	4d 8d 6d f8          	lea    r13,[r13-0x8]
    6452:	4d 89 7d 00          	mov    QWORD PTR [r13+0x0],r15
    6456:	4c 89 75 a0          	mov    QWORD PTR [rbp-0x60],r14
    645a:	e9 7a 92 00 00       	jmp    0xf6d9
    645f:	e9 a8 fa ff ff       	jmp    0x5f0c
    6464:	49 8b 45 48          	mov    rax,QWORD PTR [r13+0x48]
    6468:	80 38 30             	cmp    BYTE PTR [rax],0x30
    646b:	0f 85 08 fb ff ff    	jne    0x5f79
    6471:	e9 96 fa ff ff       	jmp    0x5f0c
    6476:	49 bf 2f c9 5c 55 55 	movabs r15,0x5555555cc92f
    647d:	55 00 00 
    6480:	49 8d 97 59 60 0c 00 	lea    rdx,[r15+0xc6059]
    6487:	48 8b 40 10          	mov    rax,QWORD PTR [rax+0x10]
    648b:	48 8b 12             	mov    rdx,QWORD PTR [rdx]
    648e:	48 8b 92 78 02 00 00 	mov    rdx,QWORD PTR [rdx+0x278]
    6495:	4c 8b 7d 98          	mov    r15,QWORD PTR [rbp-0x68]
    6499:	4c 8d 7c 10 18       	lea    r15,[rax+rdx*1+0x18]
    649e:	49 01 df             	add    r15,rbx
    64a1:	4c 89 7d 98          	mov    QWORD PTR [rbp-0x68],r15
    64a5:	e9 db fd ff ff       	jmp    0x6285
    64aa:	31 c0                	xor    eax,eax
    64ac:	49 8b 4d 58          	mov    rcx,QWORD PTR [r13+0x58]
    64b0:	4c 8b 7d 88          	mov    r15,QWORD PTR [rbp-0x78]
    64b4:	49 33 4f 28          	xor    rcx,QWORD PTR [r15+0x28]
    64b8:	0f 85 d1 03 00 00    	jne    0x688f
    64be:	49 83 c5 68          	add    r13,0x68
    64c2:	49 8b 5d 00          	mov    rbx,QWORD PTR [r13+0x0]
    64c6:	4d 8d 6d 08          	lea    r13,[r13+0x8]
    64ca:	4d 8b 65 00          	mov    r12,QWORD PTR [r13+0x0]
    64ce:	4d 8d 6d 08          	lea    r13,[r13+0x8]
    64d2:	4c 8b 7d 98          	mov    r15,QWORD PTR [rbp-0x68]
    64d6:	4d 8b 7d 00          	mov    r15,QWORD PTR [r13+0x0]
    64da:	4d 8d 6d 08          	lea    r13,[r13+0x8]
    64de:	4c 8b 75 a0          	mov    r14,QWORD PTR [rbp-0x60]
    64e2:	4d 8b 75 00          	mov    r14,QWORD PTR [r13+0x0]
    64e6:	4d 8d 6d 08          	lea    r13,[r13+0x8]
    64ea:	4c 89 7d 98          	mov    QWORD PTR [rbp-0x68],r15
    64ee:	4c 8b 7d a8          	mov    r15,QWORD PTR [rbp-0x58]
    64f2:	4d 8b 7d 00          	mov    r15,QWORD PTR [r13+0x0]
    64f6:	4d 8d 6d 08          	lea    r13,[r13+0x8]
    64fa:	4c 89 7d a8          	mov    QWORD PTR [rbp-0x58],r15
    64fe:	4c 8b 7d b0          	mov    r15,QWORD PTR [rbp-0x50]
    6502:	4d 8b 7d 00          	mov    r15,QWORD PTR [r13+0x0]
    6506:	4d 8d 6d 08          	lea    r13,[r13+0x8]
    650a:	4c 89 7d b0          	mov    QWORD PTR [rbp-0x50],r15
    650e:	4d 8b 7d 00          	mov    r15,QWORD PTR [r13+0x0]
    6512:	4d 8d 6d 08          	lea    r13,[r13+0x8]
    6516:	4d 89 fe             	mov    r14,r15
    6519:	e9 ab 5e 00 00       	jmp    0xc3c9
    651e:	4c 8b 7d a0          	mov    r15,QWORD PTR [rbp-0x60]
    6522:	49 8b 47 08          	mov    rax,QWORD PTR [r15+0x8]
    6526:	48 8b 70 50          	mov    rsi,QWORD PTR [rax+0x50]
    652a:	48 83 3e 04          	cmp    QWORD PTR [rsi],0x4
    652e:	4c 89 7d a0          	mov    QWORD PTR [rbp-0x60],r15
    6532:	0f 86 d4 f9 ff ff    	jbe    0x5f0c
    6538:	49 bf 91 c9 5c 55 55 	movabs r15,0x5555555cc991
    653f:	55 00 00 
    6542:	49 8d 8f c0 de 06 00 	lea    rcx,[r15+0x6dec0]
    6549:	31 d2                	xor    edx,edx
    654b:	bf 05 00 00 00       	mov    edi,0x5
    6550:	31 c0                	xor    eax,eax
    6552:	49 bf 9f c9 5c 55 55 	movabs r15,0x5555555cc99f
    6559:	55 00 00 
    655c:	4d 8d 6d f8          	lea    r13,[r13-0x8]
    6560:	4d 89 7d 00          	mov    QWORD PTR [r13+0x0],r15
    6564:	e9 11 9b ff ff       	jmp    0x7a
    6569:	e9 9e f9 ff ff       	jmp    0x5f0c
    656e:	49 bf af c9 5c 55 55 	movabs r15,0x5555555cc9af
    6575:	55 00 00 
    6578:	49 8d 8f 91 de 06 00 	lea    rcx,[r15+0x6de91]
    657f:	31 d2                	xor    edx,edx
    6581:	bf 08 00 00 00       	mov    edi,0x8
    6586:	31 c0                	xor    eax,eax
    6588:	49 bf bd c9 5c 55 55 	movabs r15,0x5555555cc9bd
    658f:	55 00 00 
    6592:	4d 8d 6d f8          	lea    r13,[r13-0x8]
    6596:	4d 89 7d 00          	mov    QWORD PTR [r13+0x0],r15
    659a:	e9 db 9a ff ff       	jmp    0x7a
    659f:	e9 0b f9 ff ff       	jmp    0x5eaf
    65a4:	48 c7 c0 ff ff ff ff 	mov    rax,0xffffffffffffffff
    65ab:	e9 fc fe ff ff       	jmp    0x64ac
    65b0:	4c 8b 7d 98          	mov    r15,QWORD PTR [rbp-0x68]
    65b4:	4d 8b 7b 18          	mov    r15,QWORD PTR [r11+0x18]
    65b8:	4d 85 ff             	test   r15,r15
    65bb:	4c 89 7d 98          	mov    QWORD PTR [rbp-0x68],r15
    65bf:	74 70                	je     0x6631
    65c1:	49 bf db c9 5c 55 55 	movabs r15,0x5555555cc9db
    65c8:	55 00 00 
    65cb:	49 8d 87 05 5f 0c 00 	lea    rax,[r15+0xc5f05]
    65d2:	49 8b 4b 20          	mov    rcx,QWORD PTR [r11+0x20]
    65d6:	4c 8b 7d 98          	mov    r15,QWORD PTR [rbp-0x68]
    65da:	49 8b 77 20          	mov    rsi,QWORD PTR [r15+0x20]
    65de:	48 8b 00             	mov    rax,QWORD PTR [rax]
    65e1:	4c 8b 75 b0          	mov    r14,QWORD PTR [rbp-0x50]
    65e5:	49 89 ce             	mov    r14,rcx
    65e8:	48 01 c8             	add    rax,rcx
    65eb:	48 89 c3             	mov    rbx,rax
    65ee:	48 8b 06             	mov    rax,QWORD PTR [rsi]
    65f1:	25 80 00 00 00       	and    eax,0x80
    65f6:	41 f6 47 09 08       	test   BYTE PTR [r15+0x9],0x8
    65fb:	4c 89 7d 98          	mov    QWORD PTR [rbp-0x68],r15
    65ff:	4c 89 75 b0          	mov    QWORD PTR [rbp-0x50],r14
    6603:	74 36                	je     0x663b
    6605:	4c 8b 7d 98          	mov    r15,QWORD PTR [rbp-0x68]
    6609:	4d 8b 4f 28          	mov    r9,QWORD PTR [r15+0x28]
    660d:	48 8d 93 2b 01 00 00 	lea    rdx,[rbx+0x12b]
    6614:	4c 29 ca             	sub    rdx,r9
    6617:	48 81 fa 56 02 00 00 	cmp    rdx,0x256
    661e:	4c 89 7d 98          	mov    QWORD PTR [rbp-0x68],r15
    6622:	0f 87 0b 01 00 00    	ja     0x6733
    6628:	48 85 c0             	test   rax,rax
    662b:	0f 85 93 01 00 00    	jne    0x67c4
    6631:	49 8b 74 24 28       	mov    rsi,QWORD PTR [r12+0x28]
    6636:	e9 a1 fa ff ff       	jmp    0x60dc
    663b:	4c 8b 7d 98          	mov    r15,QWORD PTR [rbp-0x68]
    663f:	49 8d 4f 28          	lea    rcx,[r15+0x28]
    6643:	49 89 4d 20          	mov    QWORD PTR [r13+0x20],rcx
    6647:	49 be 3f ca 5c 55 55 	movabs r14,0x5555555cca3f
    664e:	55 00 00 
    6651:	49 8d 8e 61 60 0c 00 	lea    rcx,[r14+0xc6061]
    6658:	49 89 4d 28          	mov    QWORD PTR [r13+0x28],rcx
    665c:	4c 89 7d 98          	mov    QWORD PTR [rbp-0x68],r15
    6660:	4c 8b 7d 98          	mov    r15,QWORD PTR [rbp-0x68]
    6664:	49 89 5f 28          	mov    QWORD PTR [r15+0x28],rbx
    6668:	48 85 c0             	test   rax,rax
    666b:	4c 89 7d 98          	mov    QWORD PTR [rbp-0x68],r15
    666f:	75 46                	jne    0x66b7
    6671:	49 8b 75 20          	mov    rsi,QWORD PTR [r13+0x20]
    6675:	49 8b 7d 28          	mov    rdi,QWORD PTR [r13+0x28]
    6679:	4d 89 55 38          	mov    QWORD PTR [r13+0x38],r10
    667d:	4d 89 5d 30          	mov    QWORD PTR [r13+0x30],r11
    6681:	49 bf 67 ca 5c 55 55 	movabs r15,0x5555555cca67
    6688:	55 00 00 
    668b:	4d 8d 6d f8          	lea    r13,[r13-0x8]
    668f:	4d 89 7d 00          	mov    QWORD PTR [r13+0x0],r15
    6693:	e9 99 8c 00 00       	jmp    0xf331
    6698:	4c 8b 7d 98          	mov    r15,QWORD PTR [rbp-0x68]
    669c:	41 80 4f 09 08       	or     BYTE PTR [r15+0x9],0x8
    66a1:	49 8b 74 24 28       	mov    rsi,QWORD PTR [r12+0x28]
    66a6:	4d 8b 5d 30          	mov    r11,QWORD PTR [r13+0x30]
    66aa:	4d 8b 55 38          	mov    r10,QWORD PTR [r13+0x38]
    66ae:	4c 89 7d 98          	mov    QWORD PTR [rbp-0x68],r15
    66b2:	e9 25 fa ff ff       	jmp    0x60dc
    66b7:	4c 8b 7d 98          	mov    r15,QWORD PTR [rbp-0x68]
    66bb:	49 8b 07             	mov    rax,QWORD PTR [r15]
    66be:	4d 89 55 38          	mov    QWORD PTR [r13+0x38],r10
    66c2:	49 83 ed 08          	sub    r13,0x8
    66c6:	31 d2                	xor    edx,edx
    66c8:	4d 89 5d 38          	mov    QWORD PTR [r13+0x38],r11
    66cc:	4c 8b 75 b0          	mov    r14,QWORD PTR [rbp-0x50]
    66d0:	4d 89 f1             	mov    r9,r14
    66d3:	bf 08 00 00 00       	mov    edi,0x8
    66d8:	4c 89 7d 98          	mov    QWORD PTR [rbp-0x68],r15
    66dc:	49 bf a3 ca 5c 55 55 	movabs r15,0x5555555ccaa3
    66e3:	55 00 00 
    66e6:	49 8d 8f 9f 60 06 00 	lea    rcx,[r15+0x6609f]
    66ed:	44 8b 40 18          	mov    r8d,DWORD PTR [rax+0x18]
    66f1:	4d 8d 6d f8          	lea    r13,[r13-0x8]
    66f5:	49 89 5d 00          	mov    QWORD PTR [r13+0x0],rbx
    66f9:	31 c0                	xor    eax,eax
    66fb:	49 bf af ca 5c 55 55 	movabs r15,0x5555555ccaaf
    6702:	55 00 00 
    6705:	4d 8d 6d f8          	lea    r13,[r13-0x8]
    6709:	4d 89 7d 00          	mov    QWORD PTR [r13+0x0],r15
    670d:	4c 89 75 b0          	mov    QWORD PTR [rbp-0x50],r14
    6711:	e9 64 99 ff ff       	jmp    0x7a
    6716:	49 8b 45 00          	mov    rax,QWORD PTR [r13+0x0]
    671a:	4d 8d 6d 08          	lea    r13,[r13+0x8]
    671e:	49 8b 55 00          	mov    rdx,QWORD PTR [r13+0x0]
    6722:	4d 8d 6d 08          	lea    r13,[r13+0x8]
    6726:	4d 8b 55 38          	mov    r10,QWORD PTR [r13+0x38]
    672a:	4d 8b 5d 30          	mov    r11,QWORD PTR [r13+0x30]
    672e:	e9 3e ff ff ff       	jmp    0x6671
    6733:	48 85 c0             	test   rax,rax
    6736:	0f 85 fe 00 00 00    	jne    0x683a
    673c:	4c 8b 7d 98          	mov    r15,QWORD PTR [rbp-0x68]
    6740:	49 8d 47 28          	lea    rax,[r15+0x28]
    6744:	4d 89 55 38          	mov    QWORD PTR [r13+0x38],r10
    6748:	48 89 c6             	mov    rsi,rax
    674b:	49 89 45 20          	mov    QWORD PTR [r13+0x20],rax
    674f:	49 be df ca 5c 55 55 	movabs r14,0x5555555ccadf
    6756:	55 00 00 
    6759:	49 8d 86 c1 5f 0c 00 	lea    rax,[r14+0xc5fc1]
    6760:	4d 89 5d 30          	mov    QWORD PTR [r13+0x30],r11
    6764:	48 89 c7             	mov    rdi,rax
    6767:	49 89 45 28          	mov    QWORD PTR [r13+0x28],rax
    676b:	49 be f1 ca 5c 55 55 	movabs r14,0x5555555ccaf1
    6772:	55 00 00 
    6775:	4d 8d 6d f8          	lea    r13,[r13-0x8]
    6779:	4d 89 75 00          	mov    QWORD PTR [r13+0x0],r14
    677d:	4c 89 7d 98          	mov    QWORD PTR [rbp-0x68],r15
    6781:	e9 35 8e 00 00       	jmp    0xf5bb
    6786:	4c 8b 7d 98          	mov    r15,QWORD PTR [rbp-0x68]
    678a:	49 8b 77 20          	mov    rsi,QWORD PTR [r15+0x20]
    678e:	41 80 67 09 f7       	and    BYTE PTR [r15+0x9],0xf7
    6793:	49 c7 47 30 00 00 00 	mov    QWORD PTR [r15+0x30],0x0
    679a:	00 
    679b:	4d 8b 55 38          	mov    r10,QWORD PTR [r13+0x38]
    679f:	48 8b 06             	mov    rax,QWORD PTR [rsi]
    67a2:	4d 8b 5d 30          	mov    r11,QWORD PTR [r13+0x30]
    67a6:	49 c7 47 38 00 00 00 	mov    QWORD PTR [r15+0x38],0x0
    67ad:	00 
    67ae:	49 c7 47 40 00 00 00 	mov    QWORD PTR [r15+0x40],0x0
    67b5:	00 
    67b6:	25 80 00 00 00       	and    eax,0x80
    67bb:	4c 89 7d 98          	mov    QWORD PTR [rbp-0x68],r15
    67bf:	e9 9c fe ff ff       	jmp    0x6660
    67c4:	4c 8b 7d 98          	mov    r15,QWORD PTR [rbp-0x68]
    67c8:	49 8b 07             	mov    rax,QWORD PTR [r15]
    67cb:	4d 89 55 28          	mov    QWORD PTR [r13+0x28],r10
    67cf:	49 83 ed 08          	sub    r13,0x8
    67d3:	31 d2                	xor    edx,edx
    67d5:	4d 89 5d 28          	mov    QWORD PTR [r13+0x28],r11
    67d9:	49 be 49 cb 5c 55 55 	movabs r14,0x5555555ccb49
    67e0:	55 00 00 
    67e3:	49 8d 8e 87 60 06 00 	lea    rcx,[r14+0x66087]
    67ea:	bf 08 00 00 00       	mov    edi,0x8
    67ef:	44 8b 40 18          	mov    r8d,DWORD PTR [rax+0x18]
    67f3:	4d 8d 6d f8          	lea    r13,[r13-0x8]
    67f7:	49 89 5d 00          	mov    QWORD PTR [r13+0x0],rbx
    67fb:	31 c0                	xor    eax,eax
    67fd:	49 be 5a cb 5c 55 55 	movabs r14,0x5555555ccb5a
    6804:	55 00 00 
    6807:	4d 8d 6d f8          	lea    r13,[r13-0x8]
    680b:	4d 89 75 00          	mov    QWORD PTR [r13+0x0],r14
    680f:	4c 89 7d 98          	mov    QWORD PTR [rbp-0x68],r15
    6813:	e9 62 98 ff ff       	jmp    0x7a
    6818:	49 8b 4d 00          	mov    rcx,QWORD PTR [r13+0x0]
    681c:	4d 8d 6d 08          	lea    r13,[r13+0x8]
    6820:	49 8b 75 00          	mov    rsi,QWORD PTR [r13+0x0]
    6824:	4d 8d 6d 08          	lea    r13,[r13+0x8]
    6828:	49 8b 74 24 28       	mov    rsi,QWORD PTR [r12+0x28]
    682d:	4d 8b 55 28          	mov    r10,QWORD PTR [r13+0x28]
    6831:	4d 8b 5d 20          	mov    r11,QWORD PTR [r13+0x20]
    6835:	e9 a2 f8 ff ff       	jmp    0x60dc
    683a:	4c 8b 7d 98          	mov    r15,QWORD PTR [rbp-0x68]
    683e:	49 8b 07             	mov    rax,QWORD PTR [r15]
    6841:	31 d2                	xor    edx,edx
    6843:	bf 08 00 00 00       	mov    edi,0x8
    6848:	4d 89 55 28          	mov    QWORD PTR [r13+0x28],r10
    684c:	49 be 86 cb 5c 55 55 	movabs r14,0x5555555ccb86
    6853:	55 00 00 
    6856:	49 8d 8e 00 5f 06 00 	lea    rcx,[r14+0x65f00]
    685d:	4d 89 5d 20          	mov    QWORD PTR [r13+0x20],r11
    6861:	44 8b 40 18          	mov    r8d,DWORD PTR [rax+0x18]
    6865:	31 c0                	xor    eax,eax
    6867:	49 be 96 cb 5c 55 55 	movabs r14,0x5555555ccb96
    686e:	55 00 00 
    6871:	4d 8d 6d f8          	lea    r13,[r13-0x8]
    6875:	4d 89 75 00          	mov    QWORD PTR [r13+0x0],r14
    6879:	4c 89 7d 98          	mov    QWORD PTR [rbp-0x68],r15
    687d:	e9 f8 97 ff ff       	jmp    0x7a
    6882:	4d 8b 55 28          	mov    r10,QWORD PTR [r13+0x28]
    6886:	4d 8b 5d 20          	mov    r11,QWORD PTR [r13+0x20]
    688a:	e9 ad fe ff ff       	jmp    0x673c
    688f:	49 bf aa cb 5c 55 55 	movabs r15,0x5555555ccbaa
    6896:	55 00 00 
    6899:	4d 8d 6d f8          	lea    r13,[r13-0x8]
    689d:	4d 89 7d 00          	mov    QWORD PTR [r13+0x0],r15
    68a1:	e9 99 87 00 00       	jmp    0xf03f
    68a6:	90                   	nop
    68a7:	4d 8d 6d f8          	lea    r13,[r13-0x8]
    68ab:	4c 8b 7d b0          	mov    r15,QWORD PTR [rbp-0x50]
    68af:	4d 89 7d 00          	mov    QWORD PTR [r13+0x0],r15
    68b3:	49 89 f7             	mov    r15,rsi
    68b6:	4d 8d 6d f8          	lea    r13,[r13-0x8]
    68ba:	4c 8b 75 a8          	mov    r14,QWORD PTR [rbp-0x58]
    68be:	4d 89 75 00          	mov    QWORD PTR [r13+0x0],r14
    68c2:	4d 8d 6d f8          	lea    r13,[r13-0x8]
    68c6:	4c 89 7d b0          	mov    QWORD PTR [rbp-0x50],r15
    68ca:	4c 8b 7d a0          	mov    r15,QWORD PTR [rbp-0x60]
    68ce:	4d 89 7d 00          	mov    QWORD PTR [r13+0x0],r15
    68d2:	4d 8d 6d f8          	lea    r13,[r13-0x8]
    68d6:	4c 89 7d a0          	mov    QWORD PTR [rbp-0x60],r15
    68da:	4c 8b 7d 98          	mov    r15,QWORD PTR [rbp-0x68]
    68de:	4d 89 7d 00          	mov    QWORD PTR [r13+0x0],r15
    68e2:	4d 8d 6d f8          	lea    r13,[r13-0x8]
    68e6:	4d 89 65 00          	mov    QWORD PTR [r13+0x0],r12
    68ea:	4d 8d 6d f8          	lea    r13,[r13-0x8]
    68ee:	49 89 5d 00          	mov    QWORD PTR [r13+0x0],rbx
    68f2:	48 89 fb             	mov    rbx,rdi
    68f5:	49 83 ed 28          	sub    r13,0x28
    68f9:	4c 8b a7 b0 03 00 00 	mov    r12,QWORD PTR [rdi+0x3b0]
    6900:	4c 89 7d 98          	mov    QWORD PTR [rbp-0x68],r15
    6904:	4c 8b 7d 88          	mov    r15,QWORD PTR [rbp-0x78]
    6908:	49 8b 47 28          	mov    rax,QWORD PTR [r15+0x28]
    690c:	49 89 45 18          	mov    QWORD PTR [r13+0x18],rax
    6910:	31 c0                	xor    eax,eax
    6912:	49 8b 44 24 18       	mov    rax,QWORD PTR [r12+0x18]
    6917:	f6 87 10 02 00 00 04 	test   BYTE PTR [rdi+0x210],0x4
    691e:	4c 89 75 a8          	mov    QWORD PTR [rbp-0x58],r14
    6922:	0f 84 c6 02 00 00    	je     0x6bee
    6928:	48 83 f8 ff          	cmp    rax,0xffffffffffffffff
    692c:	0f 84 94 05 00 00    	je     0x6ec6
    6932:	4c 8b 7d a0          	mov    r15,QWORD PTR [rbp-0x60]
    6936:	4d 8d 7d 10          	lea    r15,[r13+0x10]
    693a:	4c 8b 75 a8          	mov    r14,QWORD PTR [rbp-0x58]
    693e:	4d 8d 74 24 28       	lea    r14,[r12+0x28]
    6943:	49 c7 45 10 00 00 00 	mov    QWORD PTR [r13+0x10],0x0
    694a:	00 
    694b:	4d 89 7d 08          	mov    QWORD PTR [r13+0x8],r15
    694f:	4c 89 7d a0          	mov    QWORD PTR [rbp-0x60],r15
    6953:	4c 8b 7d b0          	mov    r15,QWORD PTR [rbp-0x50]
    6957:	4d 85 ff             	test   r15,r15
    695a:	4c 89 7d b0          	mov    QWORD PTR [rbp-0x50],r15
    695e:	4c 89 75 a8          	mov    QWORD PTR [rbp-0x58],r14
    6962:	0f 84 34 07 00 00    	je     0x709c
    6968:	4c 8b 7d b0          	mov    r15,QWORD PTR [rbp-0x50]
    696c:	49 8b 37             	mov    rsi,QWORD PTR [r15]
    696f:	4c 8b 75 98          	mov    r14,QWORD PTR [rbp-0x68]
    6973:	45 31 f6             	xor    r14d,r14d
    6976:	4c 89 7d b0          	mov    QWORD PTR [rbp-0x50],r15
    697a:	4c 89 75 98          	mov    QWORD PTR [rbp-0x68],r14
    697e:	48 8b 43 08          	mov    rax,QWORD PTR [rbx+0x8]
    6982:	4c 8b 58 50          	mov    r11,QWORD PTR [rax+0x50]
    6986:	41 f6 03 80          	test   BYTE PTR [r11],0x80
    698a:	0f 85 bd 01 00 00    	jne    0x6b4d
    6990:	49 8b 54 24 38       	mov    rdx,QWORD PTR [r12+0x38]
    6995:	48 89 df             	mov    rdi,rbx
    6998:	49 bf 3a cc 5c 55 55 	movabs r15,0x5555555ccc3a
    699f:	55 00 00 
    69a2:	4d 8d 6d f8          	lea    r13,[r13-0x8]
    69a6:	4d 89 7d 00          	mov    QWORD PTR [r13+0x0],r15
    69aa:	e9 38 8a 00 00       	jmp    0xf3e7
    69af:	48 85 c0             	test   rax,rax
    69b2:	0f 85 7b 06 00 00    	jne    0x7033
    69b8:	49 bf 4a cc 5c 55 55 	movabs r15,0x5555555ccc4a
    69bf:	55 00 00 
    69c2:	49 8d 87 36 a5 09 00 	lea    rax,[r15+0x9a536]
    69c9:	48 8b 10             	mov    rdx,QWORD PTR [rax]
    69cc:	48 8b 43 28          	mov    rax,QWORD PTR [rbx+0x28]
    69d0:	48 8b 04 d0          	mov    rax,QWORD PTR [rax+rdx*8]
    69d4:	48 8b 80 b0 00 00 00 	mov    rax,QWORD PTR [rax+0xb0]
    69db:	48 85 c0             	test   rax,rax
    69de:	74 1c                	je     0x69fc
    69e0:	49 8b 54 24 38       	mov    rdx,QWORD PTR [r12+0x38]
    69e5:	4c 8b 83 00 02 00 00 	mov    r8,QWORD PTR [rbx+0x200]
    69ec:	4c 8b 4a 08          	mov    r9,QWORD PTR [rdx+0x8]
    69f0:	4c 29 c0             	sub    rax,r8
    69f3:	4c 39 c8             	cmp    rax,r9
    69f6:	0f 8c fc 07 00 00    	jl     0x71f8
    69fc:	4c 8b 7d 98          	mov    r15,QWORD PTR [rbp-0x68]
    6a00:	4d 85 ff             	test   r15,r15
    6a03:	4c 89 7d 98          	mov    QWORD PTR [rbp-0x68],r15
    6a07:	74 30                	je     0x6a39
    6a09:	49 8b 44 24 38       	mov    rax,QWORD PTR [r12+0x38]
    6a0e:	48 8b 50 08          	mov    rdx,QWORD PTR [rax+0x8]
    6a12:	48 81 fa 80 00 00 00 	cmp    rdx,0x80
    6a19:	7f 1e                	jg     0x6a39
    6a1b:	4c 8b 7d b0          	mov    r15,QWORD PTR [rbp-0x50]
    6a1f:	49 8b 37             	mov    rsi,QWORD PTR [r15]
    6a22:	4c 8b 06             	mov    r8,QWORD PTR [rsi]
    6a25:	48 8b 46 08          	mov    rax,QWORD PTR [rsi+0x8]
    6a29:	4c 29 c0             	sub    rax,r8
    6a2c:	48 39 c2             	cmp    rdx,rax
    6a2f:	4c 89 7d b0          	mov    QWORD PTR [rbp-0x50],r15
    6a33:	0f 8e 00 04 00 00    	jle    0x6e39
    6a39:	48 8b 7b 58          	mov    rdi,QWORD PTR [rbx+0x58]
    6a3d:	4c 8b 7d a8          	mov    r15,QWORD PTR [rbp-0x58]
    6a41:	4c 89 fe             	mov    rsi,r15
    6a44:	49 be b4 cc 5c 55 55 	movabs r14,0x5555555cccb4
    6a4b:	55 00 00 
    6a4e:	4d 8d 6d f8          	lea    r13,[r13-0x8]
    6a52:	4d 89 75 00          	mov    QWORD PTR [r13+0x0],r14
    6a56:	4c 89 7d a8          	mov    QWORD PTR [rbp-0x58],r15
    6a5a:	e9 b8 88 00 00       	jmp    0xf317
    6a5f:	48 85 c0             	test   rax,rax
    6a62:	0f 84 30 03 00 00    	je     0x6d98
    6a68:	4c 8b 7d 98          	mov    r15,QWORD PTR [rbp-0x68]
    6a6c:	4c 8b 38             	mov    r15,QWORD PTR [rax]
    6a6f:	66 0f ef c0          	pxor   xmm0,xmm0
    6a73:	49 be cb cc 5c 55 55 	movabs r14,0x5555555ccccb
    6a7a:	55 00 00 
    6a7d:	49 8d 96 15 15 00 00 	lea    rdx,[r14+0x1515]
    6a84:	41 0f 11 07          	movups XMMWORD PTR [r15],xmm0
    6a88:	41 0f 11 47 20       	movups XMMWORD PTR [r15+0x20],xmm0
    6a8d:	41 0f 11 47 40       	movups XMMWORD PTR [r15+0x40],xmm0
    6a92:	41 0f b6 4f 48       	movzx  ecx,BYTE PTR [r15+0x48]
    6a97:	41 0f 11 47 30       	movups XMMWORD PTR [r15+0x30],xmm0
    6a9c:	41 0f 11 47 10       	movups XMMWORD PTR [r15+0x10],xmm0
    6aa1:	4c 8b 75 b0          	mov    r14,QWORD PTR [rbp-0x50]
    6aa5:	49 8b 36             	mov    rsi,QWORD PTR [r14]
    6aa8:	0f b6 bb 17 05 00 00 	movzx  edi,BYTE PTR [rbx+0x517]
    6aaf:	83 e1 de             	and    ecx,0xffffffde
    6ab2:	49 89 57 30          	mov    QWORD PTR [r15+0x30],rdx
    6ab6:	48 8b 16             	mov    rdx,QWORD PTR [rsi]
    6ab9:	49 89 17             	mov    QWORD PTR [r15],rdx
    6abc:	49 89 57 20          	mov    QWORD PTR [r15+0x20],rdx
    6ac0:	48 8b 56 08          	mov    rdx,QWORD PTR [rsi+0x8]
    6ac4:	49 89 57 08          	mov    QWORD PTR [r15+0x8],rdx
    6ac8:	48 8b 56 28          	mov    rdx,QWORD PTR [rsi+0x28]
    6acc:	49 89 57 28          	mov    QWORD PTR [r15+0x28],rdx
    6ad0:	8d 14 bd 00 00 00 00 	lea    edx,[rdi*4+0x0]
    6ad7:	49 8b 7d 08          	mov    rdi,QWORD PTR [r13+0x8]
    6adb:	83 e2 20             	and    edx,0x20
    6ade:	83 ca 01             	or     edx,0x1
    6ae1:	09 ca                	or     edx,ecx
    6ae3:	41 88 57 48          	mov    BYTE PTR [r15+0x48],dl
    6ae7:	4c 8b 06             	mov    r8,QWORD PTR [rsi]
    6aea:	48 89 07             	mov    QWORD PTR [rdi],rax
    6aed:	48 83 c0 08          	add    rax,0x8
    6af1:	49 8b 7c 24 38       	mov    rdi,QWORD PTR [r12+0x38]
    6af6:	49 89 45 08          	mov    QWORD PTR [r13+0x8],rax
    6afa:	48 8b 46 08          	mov    rax,QWORD PTR [rsi+0x8]
    6afe:	48 8b 57 08          	mov    rdx,QWORD PTR [rdi+0x8]
    6b02:	48 89 c1             	mov    rcx,rax
    6b05:	4c 29 c1             	sub    rcx,r8
    6b08:	48 39 d1             	cmp    rcx,rdx
    6b0b:	4c 89 7d 98          	mov    QWORD PTR [rbp-0x68],r15
    6b0f:	4c 89 75 b0          	mov    QWORD PTR [rbp-0x50],r14
    6b13:	0f 8e 0a 03 00 00    	jle    0x6e23
    6b19:	49 8d 04 10          	lea    rax,[r8+rdx*1]
    6b1d:	48 89 06             	mov    QWORD PTR [rsi],rax
    6b20:	48 01 93 00 02 00 00 	add    QWORD PTR [rbx+0x200],rdx
    6b27:	48 c7 47 08 00 00 00 	mov    QWORD PTR [rdi+0x8],0x0
    6b2e:	00 
    6b2f:	4c 8b 7d 98          	mov    r15,QWORD PTR [rbp-0x68]
    6b33:	49 89 47 08          	mov    QWORD PTR [r15+0x8],rax
    6b37:	48 8b 43 08          	mov    rax,QWORD PTR [rbx+0x8]
    6b3b:	4c 8b 58 50          	mov    r11,QWORD PTR [rax+0x50]
    6b3f:	41 f6 03 80          	test   BYTE PTR [r11],0x80
    6b43:	4c 89 7d 98          	mov    QWORD PTR [rbp-0x68],r15
    6b47:	0f 84 43 fe ff ff    	je     0x6990
    6b4d:	48 8b 4e 10          	mov    rcx,QWORD PTR [rsi+0x10]
    6b51:	49 83 ed 08          	sub    r13,0x8
    6b55:	48 8b 16             	mov    rdx,QWORD PTR [rsi]
    6b58:	bf 08 00 00 00       	mov    edi,0x8
    6b5d:	48 8b 46 18          	mov    rax,QWORD PTR [rsi+0x18]
    6b61:	44 0f b6 46 48       	movzx  r8d,BYTE PTR [rsi+0x48]
    6b66:	48 29 c8             	sub    rax,rcx
    6b69:	45 89 c1             	mov    r9d,r8d
    6b6c:	41 83 e0 01          	and    r8d,0x1
    6b70:	4d 8d 6d f8          	lea    r13,[r13-0x8]
    6b74:	49 89 45 00          	mov    QWORD PTR [r13+0x0],rax
    6b78:	48 8b 46 08          	mov    rax,QWORD PTR [rsi+0x8]
    6b7c:	41 c0 e9 04          	shr    r9b,0x4
    6b80:	4d 8d 6d f8          	lea    r13,[r13-0x8]
    6b84:	49 89 4d 00          	mov    QWORD PTR [r13+0x0],rcx
    6b88:	41 83 e1 01          	and    r9d,0x1
    6b8c:	49 bf c6 cd 5c 55 55 	movabs r15,0x5555555ccdc6
    6b93:	55 00 00 
    6b96:	49 8d 8f a2 de 06 00 	lea    rcx,[r15+0x6dea2]
    6b9d:	48 29 d0             	sub    rax,rdx
    6ba0:	4d 8d 6d f8          	lea    r13,[r13-0x8]
    6ba4:	49 89 45 00          	mov    QWORD PTR [r13+0x0],rax
    6ba8:	31 c0                	xor    eax,eax
    6baa:	4d 8d 6d f8          	lea    r13,[r13-0x8]
    6bae:	49 89 55 00          	mov    QWORD PTR [r13+0x0],rdx
    6bb2:	31 d2                	xor    edx,edx
    6bb4:	4d 8d 6d f8          	lea    r13,[r13-0x8]
    6bb8:	4c 8b 7e 20          	mov    r15,QWORD PTR [rsi+0x20]
    6bbc:	4d 89 7d 00          	mov    QWORD PTR [r13+0x0],r15
    6bc0:	4c 89 de             	mov    rsi,r11
    6bc3:	49 bf da cd 5c 55 55 	movabs r15,0x5555555ccdda
    6bca:	55 00 00 
    6bcd:	4d 8d 6d f8          	lea    r13,[r13-0x8]
    6bd1:	4d 89 7d 00          	mov    QWORD PTR [r13+0x0],r15
    6bd5:	e9 a0 94 ff ff       	jmp    0x7a
    6bda:	4c 8b 7d b0          	mov    r15,QWORD PTR [rbp-0x50]
    6bde:	49 8b 37             	mov    rsi,QWORD PTR [r15]
    6be1:	49 83 c5 30          	add    r13,0x30
    6be5:	4c 89 7d b0          	mov    QWORD PTR [rbp-0x50],r15
    6be9:	e9 a2 fd ff ff       	jmp    0x6990
    6bee:	48 83 f8 ff          	cmp    rax,0xffffffffffffffff
    6bf2:	0f 84 a8 02 00 00    	je     0x6ea0
    6bf8:	4c 8b 7d a0          	mov    r15,QWORD PTR [rbp-0x60]
    6bfc:	4d 8d 7d 10          	lea    r15,[r13+0x10]
    6c00:	4c 8b 75 98          	mov    r14,QWORD PTR [rbp-0x68]
    6c04:	4d 8d 74 24 28       	lea    r14,[r12+0x28]
    6c09:	49 c7 45 10 00 00 00 	mov    QWORD PTR [r13+0x10],0x0
    6c10:	00 
    6c11:	4d 89 f8             	mov    r8,r15
    6c14:	4c 89 7d a0          	mov    QWORD PTR [rbp-0x60],r15
    6c18:	4c 8b 7d b0          	mov    r15,QWORD PTR [rbp-0x50]
    6c1c:	4d 85 ff             	test   r15,r15
    6c1f:	4c 89 7d b0          	mov    QWORD PTR [rbp-0x50],r15
    6c23:	4c 89 75 98          	mov    QWORD PTR [rbp-0x68],r14
    6c27:	75 51                	jne    0x6c7a
    6c29:	49 bf 1b ce 5c 55 55 	movabs r15,0x5555555cce1b
    6c30:	55 00 00 
    6c33:	4c 8b 75 a8          	mov    r14,QWORD PTR [rbp-0x58]
    6c37:	4d 8d b7 c5 13 00 00 	lea    r14,[r15+0x13c5]
    6c3e:	4c 8b 7d a0          	mov    r15,QWORD PTR [rbp-0x60]
    6c42:	4d 8d 7d 10          	lea    r15,[r13+0x10]
    6c46:	4c 89 7d a0          	mov    QWORD PTR [rbp-0x60],r15
    6c4a:	4c 89 75 a8          	mov    QWORD PTR [rbp-0x58],r14
    6c4e:	e9 5a 03 00 00       	jmp    0x6fad
    6c53:	4c 29 cf             	sub    rdi,r9
    6c56:	4c 89 16             	mov    QWORD PTR [rsi],r10
    6c59:	49 89 7c 24 18       	mov    QWORD PTR [r12+0x18],rdi
    6c5e:	49 89 00             	mov    QWORD PTR [r8],rax
    6c61:	4c 8b 7d b0          	mov    r15,QWORD PTR [rbp-0x50]
    6c65:	4d 8b 7f 08          	mov    r15,QWORD PTR [r15+0x8]
    6c69:	4c 8d 40 08          	lea    r8,[rax+0x8]
    6c6d:	4d 85 ff             	test   r15,r15
    6c70:	4c 89 7d b0          	mov    QWORD PTR [rbp-0x50],r15
    6c74:	0f 84 0d 01 00 00    	je     0x6d87
    6c7a:	49 83 7c 24 18 00    	cmp    QWORD PTR [r12+0x18],0x0
    6c80:	0f 84 02 03 00 00    	je     0x6f88
    6c86:	48 8b 7b 58          	mov    rdi,QWORD PTR [rbx+0x58]
    6c8a:	4c 8b 7d 98          	mov    r15,QWORD PTR [rbp-0x68]
    6c8e:	4c 89 fe             	mov    rsi,r15
    6c91:	4d 89 45 08          	mov    QWORD PTR [r13+0x8],r8
    6c95:	49 be 62 ce 5c 55 55 	movabs r14,0x5555555cce62
    6c9c:	55 00 00 
    6c9f:	4d 8d 6d f8          	lea    r13,[r13-0x8]
    6ca3:	4d 89 75 00          	mov    QWORD PTR [r13+0x0],r14
    6ca7:	4c 89 7d 98          	mov    QWORD PTR [rbp-0x68],r15
    6cab:	e9 67 86 00 00       	jmp    0xf317
    6cb0:	48 85 c0             	test   rax,rax
    6cb3:	0f 84 df 00 00 00    	je     0x6d98
    6cb9:	48 8b 10             	mov    rdx,QWORD PTR [rax]
    6cbc:	66 0f ef c0          	pxor   xmm0,xmm0
    6cc0:	4d 8b 45 08          	mov    r8,QWORD PTR [r13+0x8]
    6cc4:	49 bf 7e ce 5c 55 55 	movabs r15,0x5555555cce7e
    6ccb:	55 00 00 
    6cce:	4c 8b 75 a8          	mov    r14,QWORD PTR [rbp-0x58]
    6cd2:	4d 8d b7 62 13 00 00 	lea    r14,[r15+0x1362]
    6cd9:	0f 11 02             	movups XMMWORD PTR [rdx],xmm0
    6cdc:	0f 11 42 20          	movups XMMWORD PTR [rdx+0x20],xmm0
    6ce0:	0f 11 42 40          	movups XMMWORD PTR [rdx+0x40],xmm0
    6ce4:	0f 11 42 30          	movups XMMWORD PTR [rdx+0x30],xmm0
    6ce8:	0f 11 42 10          	movups XMMWORD PTR [rdx+0x10],xmm0
    6cec:	4c 8b 7d b0          	mov    r15,QWORD PTR [rbp-0x50]
    6cf0:	49 8b 37             	mov    rsi,QWORD PTR [r15]
    6cf3:	0f b6 bb 17 05 00 00 	movzx  edi,BYTE PTR [rbx+0x517]
    6cfa:	4c 89 72 30          	mov    QWORD PTR [rdx+0x30],r14
    6cfe:	48 8b 0e             	mov    rcx,QWORD PTR [rsi]
    6d01:	48 89 0a             	mov    QWORD PTR [rdx],rcx
    6d04:	48 89 4a 20          	mov    QWORD PTR [rdx+0x20],rcx
    6d08:	48 8b 4e 08          	mov    rcx,QWORD PTR [rsi+0x8]
    6d0c:	48 89 4a 08          	mov    QWORD PTR [rdx+0x8],rcx
    6d10:	48 8b 4e 28          	mov    rcx,QWORD PTR [rsi+0x28]
    6d14:	48 89 4a 28          	mov    QWORD PTR [rdx+0x28],rcx
    6d18:	8d 0c bd 00 00 00 00 	lea    ecx,[rdi*4+0x0]
    6d1f:	0f b6 7a 48          	movzx  edi,BYTE PTR [rdx+0x48]
    6d23:	83 e1 20             	and    ecx,0x20
    6d26:	83 e7 de             	and    edi,0xffffffde
    6d29:	83 c9 01             	or     ecx,0x1
    6d2c:	09 f9                	or     ecx,edi
    6d2e:	49 8b 7c 24 18       	mov    rdi,QWORD PTR [r12+0x18]
    6d33:	88 4a 48             	mov    BYTE PTR [rdx+0x48],cl
    6d36:	4c 8b 56 08          	mov    r10,QWORD PTR [rsi+0x8]
    6d3a:	48 8b 0e             	mov    rcx,QWORD PTR [rsi]
    6d3d:	4d 89 d1             	mov    r9,r10
    6d40:	49 29 c9             	sub    r9,rcx
    6d43:	49 39 f9             	cmp    r9,rdi
    6d46:	4c 89 7d b0          	mov    QWORD PTR [rbp-0x50],r15
    6d4a:	4c 89 75 a8          	mov    QWORD PTR [rbp-0x58],r14
    6d4e:	0f 8c ff fe ff ff    	jl     0x6c53
    6d54:	48 01 f9             	add    rcx,rdi
    6d57:	48 89 0e             	mov    QWORD PTR [rsi],rcx
    6d5a:	49 c7 44 24 18 00 00 	mov    QWORD PTR [r12+0x18],0x0
    6d61:	00 00 
    6d63:	48 89 4a 08          	mov    QWORD PTR [rdx+0x8],rcx
    6d67:	80 4a 48 80          	or     BYTE PTR [rdx+0x48],0x80
    6d6b:	49 89 00             	mov    QWORD PTR [r8],rax
    6d6e:	4c 8b 7d b0          	mov    r15,QWORD PTR [rbp-0x50]
    6d72:	4d 8b 7f 08          	mov    r15,QWORD PTR [r15+0x8]
    6d76:	4c 8d 40 08          	lea    r8,[rax+0x8]
    6d7a:	4d 85 ff             	test   r15,r15
    6d7d:	4c 89 7d b0          	mov    QWORD PTR [rbp-0x50],r15
    6d81:	0f 85 f3 fe ff ff    	jne    0x6c7a
    6d87:	4c 8b 7d b0          	mov    r15,QWORD PTR [rbp-0x50]
    6d8b:	4d 8b 7d 10          	mov    r15,QWORD PTR [r13+0x10]
    6d8f:	4c 89 7d b0          	mov    QWORD PTR [rbp-0x50],r15
    6d93:	e9 15 02 00 00       	jmp    0x6fad
    6d98:	4c 8b 7d b0          	mov    r15,QWORD PTR [rbp-0x50]
    6d9c:	41 bf f4 01 00 00    	mov    r15d,0x1f4
    6da2:	4c 89 7d b0          	mov    QWORD PTR [rbp-0x50],r15
    6da6:	49 8b 45 18          	mov    rax,QWORD PTR [r13+0x18]
    6daa:	4c 8b 7d 88          	mov    r15,QWORD PTR [rbp-0x78]
    6dae:	49 33 47 28          	xor    rax,QWORD PTR [r15+0x28]
    6db2:	0f 85 f1 04 00 00    	jne    0x72a9
    6db8:	49 83 c5 28          	add    r13,0x28
    6dbc:	4c 8b 7d b0          	mov    r15,QWORD PTR [rbp-0x50]
    6dc0:	4c 89 f8             	mov    rax,r15
    6dc3:	49 8b 5d 00          	mov    rbx,QWORD PTR [r13+0x0]
    6dc7:	4d 8d 6d 08          	lea    r13,[r13+0x8]
    6dcb:	4d 8b 65 00          	mov    r12,QWORD PTR [r13+0x0]
    6dcf:	4d 8d 6d 08          	lea    r13,[r13+0x8]
    6dd3:	4c 8b 75 98          	mov    r14,QWORD PTR [rbp-0x68]
    6dd7:	4d 8b 75 00          	mov    r14,QWORD PTR [r13+0x0]
    6ddb:	4d 8d 6d 08          	lea    r13,[r13+0x8]
    6ddf:	4c 89 7d b0          	mov    QWORD PTR [rbp-0x50],r15
    6de3:	4c 8b 7d a0          	mov    r15,QWORD PTR [rbp-0x60]
    6de7:	4d 8b 7d 00          	mov    r15,QWORD PTR [r13+0x0]
    6deb:	4d 8d 6d 08          	lea    r13,[r13+0x8]
    6def:	4c 89 7d a0          	mov    QWORD PTR [rbp-0x60],r15
    6df3:	4c 8b 7d a8          	mov    r15,QWORD PTR [rbp-0x58]
    6df7:	4d 8b 7d 00          	mov    r15,QWORD PTR [r13+0x0]
    6dfb:	4d 8d 6d 08          	lea    r13,[r13+0x8]
    6dff:	4c 89 7d a8          	mov    QWORD PTR [rbp-0x58],r15
    6e03:	4c 8b 7d b0          	mov    r15,QWORD PTR [rbp-0x50]
    6e07:	4d 8b 7d 00          	mov    r15,QWORD PTR [r13+0x0]
    6e0b:	4d 8d 6d 08          	lea    r13,[r13+0x8]
    6e0f:	4c 89 7d b0          	mov    QWORD PTR [rbp-0x50],r15
    6e13:	4d 8b 7d 00          	mov    r15,QWORD PTR [r13+0x0]
    6e17:	4d 8d 6d 08          	lea    r13,[r13+0x8]
    6e1b:	4d 89 fe             	mov    r14,r15
    6e1e:	e9 21 7e 00 00       	jmp    0xec44
    6e23:	48 29 ca             	sub    rdx,rcx
    6e26:	48 89 57 08          	mov    QWORD PTR [rdi+0x8],rdx
    6e2a:	48 01 8b 00 02 00 00 	add    QWORD PTR [rbx+0x200],rcx
    6e31:	48 89 06             	mov    QWORD PTR [rsi],rax
    6e34:	e9 f6 fc ff ff       	jmp    0x6b2f
    6e39:	48 01 93 00 02 00 00 	add    QWORD PTR [rbx+0x200],rdx
    6e40:	48 83 fa 07          	cmp    rdx,0x7
    6e44:	0f 8e f4 00 00 00    	jle    0x6f3e
    6e4a:	4c 8b 7d 98          	mov    r15,QWORD PTR [rbp-0x68]
    6e4e:	49 8b 7f 08          	mov    rdi,QWORD PTR [r15+0x8]
    6e52:	4c 89 c6             	mov    rsi,r8
    6e55:	49 be 8e cf 5c 55 55 	movabs r14,0x5555555ccf8e
    6e5c:	55 00 00 
    6e5f:	4d 8d 6d f8          	lea    r13,[r13-0x8]
    6e63:	4d 89 75 00          	mov    QWORD PTR [r13+0x0],r14
    6e67:	4c 89 7d 98          	mov    QWORD PTR [rbp-0x68],r15
    6e6b:	e9 7b 86 00 00       	jmp    0xf4eb
    6e70:	49 8b 44 24 38       	mov    rax,QWORD PTR [r12+0x38]
    6e75:	4c 8b 7d b0          	mov    r15,QWORD PTR [rbp-0x50]
    6e79:	49 8b 37             	mov    rsi,QWORD PTR [r15]
    6e7c:	48 8b 50 08          	mov    rdx,QWORD PTR [rax+0x8]
    6e80:	4c 8b 75 98          	mov    r14,QWORD PTR [rbp-0x68]
    6e84:	49 01 56 08          	add    QWORD PTR [r14+0x8],rdx
    6e88:	48 01 16             	add    QWORD PTR [rsi],rdx
    6e8b:	48 c7 40 08 00 00 00 	mov    QWORD PTR [rax+0x8],0x0
    6e92:	00 
    6e93:	4c 89 7d b0          	mov    QWORD PTR [rbp-0x50],r15
    6e97:	4c 89 75 98          	mov    QWORD PTR [rbp-0x68],r14
    6e9b:	e9 de fa ff ff       	jmp    0x697e
    6ea0:	48 8b 47 08          	mov    rax,QWORD PTR [rdi+0x8]
    6ea4:	48 8b 70 50          	mov    rsi,QWORD PTR [rax+0x50]
    6ea8:	48 f7 06 00 01 00 00 	test   QWORD PTR [rsi],0x100
    6eaf:	0f 85 a3 02 00 00    	jne    0x7158
    6eb5:	48 8b 83 00 02 00 00 	mov    rax,QWORD PTR [rbx+0x200]
    6ebc:	49 89 44 24 18       	mov    QWORD PTR [r12+0x18],rax
    6ec1:	e9 32 fd ff ff       	jmp    0x6bf8
    6ec6:	48 8b 47 08          	mov    rax,QWORD PTR [rdi+0x8]
    6eca:	48 8b 70 50          	mov    rsi,QWORD PTR [rax+0x50]
    6ece:	48 f7 06 00 01 00 00 	test   QWORD PTR [rsi],0x100
    6ed5:	0f 85 47 02 00 00    	jne    0x7122
    6edb:	48 8b 7b 58          	mov    rdi,QWORD PTR [rbx+0x58]
    6edf:	be 18 00 00 00       	mov    esi,0x18
    6ee4:	49 bf fb cf 5c 55 55 	movabs r15,0x5555555ccffb
    6eeb:	55 00 00 
    6eee:	4d 8d 6d f8          	lea    r13,[r13-0x8]
    6ef2:	4d 89 7d 00          	mov    QWORD PTR [r13+0x0],r15
    6ef6:	e9 b8 84 00 00       	jmp    0xf3b3
    6efb:	49 89 44 24 38       	mov    QWORD PTR [r12+0x38],rax
    6f00:	48 85 c0             	test   rax,rax
    6f03:	0f 84 8f fe ff ff    	je     0x6d98
    6f09:	49 bf 0f d0 5c 55 55 	movabs r15,0x5555555cd00f
    6f10:	55 00 00 
    6f13:	49 8d 87 71 a1 09 00 	lea    rax,[r15+0x9a171]
    6f1a:	48 8b 10             	mov    rdx,QWORD PTR [rax]
    6f1d:	48 8b 43 20          	mov    rax,QWORD PTR [rbx+0x20]
    6f21:	48 8b 04 d0          	mov    rax,QWORD PTR [rax+rdx*8]
    6f25:	48 c7 83 00 02 00 00 	mov    QWORD PTR [rbx+0x200],0x0
    6f2c:	00 00 00 00 
    6f30:	48 8b 40 70          	mov    rax,QWORD PTR [rax+0x70]
    6f34:	49 89 44 24 18       	mov    QWORD PTR [r12+0x18],rax
    6f39:	e9 f4 f9 ff ff       	jmp    0x6932
    6f3e:	48 85 d2             	test   rdx,rdx
    6f41:	75 08                	jne    0x6f4b
    6f43:	e9 36 fa ff ff       	jmp    0x697e
    6f48:	4c 8b 06             	mov    r8,QWORD PTR [rsi]
    6f4b:	49 8d 40 01          	lea    rax,[r8+0x1]
    6f4f:	48 89 06             	mov    QWORD PTR [rsi],rax
    6f52:	4c 8b 7d 98          	mov    r15,QWORD PTR [rbp-0x68]
    6f56:	49 8b 47 08          	mov    rax,QWORD PTR [r15+0x8]
    6f5a:	48 8d 50 01          	lea    rdx,[rax+0x1]
    6f5e:	49 89 57 08          	mov    QWORD PTR [r15+0x8],rdx
    6f62:	41 0f b6 10          	movzx  edx,BYTE PTR [r8]
    6f66:	88 10                	mov    BYTE PTR [rax],dl
    6f68:	49 8b 54 24 38       	mov    rdx,QWORD PTR [r12+0x38]
    6f6d:	4c 8b 75 b0          	mov    r14,QWORD PTR [rbp-0x50]
    6f71:	49 8b 36             	mov    rsi,QWORD PTR [r14]
    6f74:	48 83 6a 08 01       	sub    QWORD PTR [rdx+0x8],0x1
    6f79:	4c 89 7d 98          	mov    QWORD PTR [rbp-0x68],r15
    6f7d:	4c 89 75 b0          	mov    QWORD PTR [rbp-0x50],r14
    6f81:	75 c5                	jne    0x6f48
    6f83:	e9 f6 f9 ff ff       	jmp    0x697e
    6f88:	4c 8b 7d b0          	mov    r15,QWORD PTR [rbp-0x50]
    6f8c:	4d 8b 7d 10          	mov    r15,QWORD PTR [r13+0x10]
    6f90:	49 be 8c d0 5c 55 55 	movabs r14,0x5555555cd08c
    6f97:	55 00 00 
    6f9a:	4c 89 7d b0          	mov    QWORD PTR [rbp-0x50],r15
    6f9e:	4c 8b 7d a8          	mov    r15,QWORD PTR [rbp-0x58]
    6fa2:	4d 8d be 54 11 00 00 	lea    r15,[r14+0x1154]
    6fa9:	4c 89 7d a8          	mov    QWORD PTR [rbp-0x58],r15
    6fad:	49 bf 93 d0 5c 55 55 	movabs r15,0x5555555cd093
    6fb4:	55 00 00 
    6fb7:	49 8d 87 15 1c 0d 00 	lea    rax,[r15+0xd1c15]
    6fbe:	4c 8b 7d b0          	mov    r15,QWORD PTR [rbp-0x50]
    6fc2:	4c 89 fe             	mov    rsi,r15
    6fc5:	48 89 df             	mov    rdi,rbx
    6fc8:	49 be 9b d0 5c 55 55 	movabs r14,0x5555555cd09b
    6fcf:	55 00 00 
    6fd2:	4d 8d 6d f8          	lea    r13,[r13-0x8]
    6fd6:	4d 89 75 00          	mov    QWORD PTR [r13+0x0],r14
    6fda:	4c 8b 30             	mov    r14,QWORD PTR [rax]
    6fdd:	e9 53 7c 00 00       	jmp    0xec35
    6fe2:	48 8b 7b 58          	mov    rdi,QWORD PTR [rbx+0x58]
    6fe6:	49 8d 54 24 30       	lea    rdx,[r12+0x30]
    6feb:	4c 8b 7d a8          	mov    r15,QWORD PTR [rbp-0x58]
    6fef:	4d 89 f8             	mov    r8,r15
    6ff2:	4c 8b 75 a0          	mov    r14,QWORD PTR [rbp-0x60]
    6ff6:	4c 89 f1             	mov    rcx,r14
    6ff9:	4c 89 7d a8          	mov    QWORD PTR [rbp-0x58],r15
    6ffd:	4c 8b 7d 98          	mov    r15,QWORD PTR [rbp-0x68]
    7001:	4c 89 fe             	mov    rsi,r15
    7004:	4c 89 7d 98          	mov    QWORD PTR [rbp-0x68],r15
    7008:	4c 8b 7d b0          	mov    r15,QWORD PTR [rbp-0x50]
    700c:	49 89 c7             	mov    r15,rax
    700f:	4c 89 7d b0          	mov    QWORD PTR [rbp-0x50],r15
    7013:	49 bf b4 d0 5c 55 55 	movabs r15,0x5555555cd0b4
    701a:	55 00 00 
    701d:	4d 8d 6d f8          	lea    r13,[r13-0x8]
    7021:	4d 89 7d 00          	mov    QWORD PTR [r13+0x0],r15
    7025:	4c 89 75 a0          	mov    QWORD PTR [rbp-0x60],r14
    7029:	e9 19 82 00 00       	jmp    0xf247
    702e:	e9 73 fd ff ff       	jmp    0x6da6
    7033:	48 83 f8 fc          	cmp    rax,0xfffffffffffffffc
    7037:	0f 84 51 01 00 00    	je     0x718e
    703d:	48 83 f8 fe          	cmp    rax,0xfffffffffffffffe
    7041:	0f 85 0c 02 00 00    	jne    0x7253
    7047:	49 bf db d0 5c 55 55 	movabs r15,0x5555555cd0db
    704e:	55 00 00 
    7051:	49 8d 87 a5 a0 09 00 	lea    rax,[r15+0x9a0a5]
    7058:	48 8b 10             	mov    rdx,QWORD PTR [rax]
    705b:	48 8b 43 20          	mov    rax,QWORD PTR [rbx+0x20]
    705f:	48 8b 14 d0          	mov    rdx,QWORD PTR [rax+rdx*8]
    7063:	49 8b 44 24 38       	mov    rax,QWORD PTR [r12+0x38]
    7068:	48 8b 40 10          	mov    rax,QWORD PTR [rax+0x10]
    706c:	48 39 42 70          	cmp    QWORD PTR [rdx+0x70],rax
    7070:	48 0f 4d 42 70       	cmovge rax,QWORD PTR [rdx+0x70]
    7075:	49 89 44 24 18       	mov    QWORD PTR [r12+0x18],rax
    707a:	4c 8b 7d b0          	mov    r15,QWORD PTR [rbp-0x50]
    707e:	4d 8b 7f 08          	mov    r15,QWORD PTR [r15+0x8]
    7082:	4d 85 ff             	test   r15,r15
    7085:	4c 89 7d b0          	mov    QWORD PTR [rbp-0x50],r15
    7089:	0f 85 d9 f8 ff ff    	jne    0x6968
    708f:	4c 8b 7d b0          	mov    r15,QWORD PTR [rbp-0x50]
    7093:	4d 8b 7d 10          	mov    r15,QWORD PTR [r13+0x10]
    7097:	90                   	nop
    7098:	4c 89 7d b0          	mov    QWORD PTR [rbp-0x50],r15
    709c:	49 bf 17 d1 5c 55 55 	movabs r15,0x5555555cd117
    70a3:	55 00 00 
    70a6:	49 8d 87 91 1b 0d 00 	lea    rax,[r15+0xd1b91]
    70ad:	4c 8b 7d b0          	mov    r15,QWORD PTR [rbp-0x50]
    70b1:	4c 89 fe             	mov    rsi,r15
    70b4:	48 89 df             	mov    rdi,rbx
    70b7:	49 be 1f d1 5c 55 55 	movabs r14,0x5555555cd11f
    70be:	55 00 00 
    70c1:	4d 8d 6d f8          	lea    r13,[r13-0x8]
    70c5:	4d 89 75 00          	mov    QWORD PTR [r13+0x0],r14
    70c9:	4c 8b 30             	mov    r14,QWORD PTR [rax]
    70cc:	e9 55 7b 00 00       	jmp    0xec26
    70d1:	48 8b 7b 58          	mov    rdi,QWORD PTR [rbx+0x58]
    70d5:	49 bf 2a d1 5c 55 55 	movabs r15,0x5555555cd12a
    70dc:	55 00 00 
    70df:	4d 8d 87 b6 10 00 00 	lea    r8,[r15+0x10b6]
    70e6:	4c 8b 7d a0          	mov    r15,QWORD PTR [rbp-0x60]
    70ea:	4c 89 f9             	mov    rcx,r15
    70ed:	49 8d 54 24 30       	lea    rdx,[r12+0x30]
    70f2:	49 8d 74 24 28       	lea    rsi,[r12+0x28]
    70f7:	4c 8b 75 b0          	mov    r14,QWORD PTR [rbp-0x50]
    70fb:	49 89 c6             	mov    r14,rax
    70fe:	4c 89 7d a0          	mov    QWORD PTR [rbp-0x60],r15
    7102:	49 bf 3d d1 5c 55 55 	movabs r15,0x5555555cd13d
    7109:	55 00 00 
    710c:	4d 8d 6d f8          	lea    r13,[r13-0x8]
    7110:	4d 89 7d 00          	mov    QWORD PTR [r13+0x0],r15
    7114:	4c 89 75 b0          	mov    QWORD PTR [rbp-0x50],r14
    7118:	e9 2a 81 00 00       	jmp    0xf247
    711d:	e9 84 fc ff ff       	jmp    0x6da6
    7122:	49 bf 4f d1 5c 55 55 	movabs r15,0x5555555cd14f
    7129:	55 00 00 
    712c:	49 8d 8f f1 da 06 00 	lea    rcx,[r15+0x6daf1]
    7133:	31 d2                	xor    edx,edx
    7135:	bf 08 00 00 00       	mov    edi,0x8
    713a:	31 c0                	xor    eax,eax
    713c:	49 bf 5d d1 5c 55 55 	movabs r15,0x5555555cd15d
    7143:	55 00 00 
    7146:	4d 8d 6d f8          	lea    r13,[r13-0x8]
    714a:	4d 89 7d 00          	mov    QWORD PTR [r13+0x0],r15
    714e:	e9 27 8f ff ff       	jmp    0x7a
    7153:	e9 83 fd ff ff       	jmp    0x6edb
    7158:	49 bf 6f d1 5c 55 55 	movabs r15,0x5555555cd16f
    715f:	55 00 00 
    7162:	49 8d 8f a9 db 06 00 	lea    rcx,[r15+0x6dba9]
    7169:	31 d2                	xor    edx,edx
    716b:	bf 08 00 00 00       	mov    edi,0x8
    7170:	31 c0                	xor    eax,eax
    7172:	49 bf 7d d1 5c 55 55 	movabs r15,0x5555555cd17d
    7179:	55 00 00 
    717c:	4d 8d 6d f8          	lea    r13,[r13-0x8]
    7180:	4d 89 7d 00          	mov    QWORD PTR [r13+0x0],r15
    7184:	e9 f1 8e ff ff       	jmp    0x7a
    7189:	e9 27 fd ff ff       	jmp    0x6eb5
    718e:	49 c7 44 24 18 00 00 	mov    QWORD PTR [r12+0x18],0x0
    7195:	00 00 
    7197:	48 8b 7b 58          	mov    rdi,QWORD PTR [rbx+0x58]
    719b:	4c 8b 7d a8          	mov    r15,QWORD PTR [rbp-0x58]
    719f:	4c 89 fe             	mov    rsi,r15
    71a2:	49 be 9c d1 5c 55 55 	movabs r14,0x5555555cd19c
    71a9:	55 00 00 
    71ac:	4d 8d 6d f8          	lea    r13,[r13-0x8]
    71b0:	4d 89 75 00          	mov    QWORD PTR [r13+0x0],r14
    71b4:	4c 89 7d a8          	mov    QWORD PTR [rbp-0x58],r15
    71b8:	e9 5a 81 00 00       	jmp    0xf317
    71bd:	48 85 c0             	test   rax,rax
    71c0:	0f 84 d2 fb ff ff    	je     0x6d98
    71c6:	48 8b 10             	mov    rdx,QWORD PTR [rax]
    71c9:	49 8b 75 08          	mov    rsi,QWORD PTR [r13+0x8]
    71cd:	66 0f ef c0          	pxor   xmm0,xmm0
    71d1:	0f 11 42 40          	movups XMMWORD PTR [rdx+0x40],xmm0
    71d5:	0f 11 02             	movups XMMWORD PTR [rdx],xmm0
    71d8:	80 4a 48 80          	or     BYTE PTR [rdx+0x48],0x80
    71dc:	0f 11 42 10          	movups XMMWORD PTR [rdx+0x10],xmm0
    71e0:	0f 11 42 20          	movups XMMWORD PTR [rdx+0x20],xmm0
    71e4:	0f 11 42 30          	movups XMMWORD PTR [rdx+0x30],xmm0
    71e8:	48 89 06             	mov    QWORD PTR [rsi],rax
    71eb:	48 83 c0 08          	add    rax,0x8
    71ef:	49 89 45 08          	mov    QWORD PTR [r13+0x8],rax
    71f3:	e9 82 fe ff ff       	jmp    0x707a
    71f8:	48 8b 43 08          	mov    rax,QWORD PTR [rbx+0x8]
    71fc:	48 8b 70 50          	mov    rsi,QWORD PTR [rax+0x50]
    7200:	48 83 3e 02          	cmp    QWORD PTR [rsi],0x2
    7204:	77 1a                	ja     0x7220
    7206:	80 8b 1a 05 00 00 04 	or     BYTE PTR [rbx+0x51a],0x4
    720d:	4c 8b 7d b0          	mov    r15,QWORD PTR [rbp-0x50]
    7211:	41 bf 9d 01 00 00    	mov    r15d,0x19d
    7217:	4c 89 7d b0          	mov    QWORD PTR [rbp-0x50],r15
    721b:	e9 86 fb ff ff       	jmp    0x6da6
    7220:	49 bf 07 d2 5c 55 55 	movabs r15,0x5555555cd207
    7227:	55 00 00 
    722a:	49 8d 8f a9 da 06 00 	lea    rcx,[r15+0x6daa9]
    7231:	31 d2                	xor    edx,edx
    7233:	bf 04 00 00 00       	mov    edi,0x4
    7238:	31 c0                	xor    eax,eax
    723a:	49 bf 15 d2 5c 55 55 	movabs r15,0x5555555cd215
    7241:	55 00 00 
    7244:	4d 8d 6d f8          	lea    r13,[r13-0x8]
    7248:	4d 89 7d 00          	mov    QWORD PTR [r13+0x0],r15
    724c:	e9 29 8e ff ff       	jmp    0x7a
    7251:	eb b3                	jmp    0x7206
    7253:	48 8b 43 08          	mov    rax,QWORD PTR [rbx+0x8]
    7257:	4c 8b 7d b0          	mov    r15,QWORD PTR [rbp-0x50]
    725b:	41 bf 90 01 00 00    	mov    r15d,0x190
    7261:	48 8b 70 50          	mov    rsi,QWORD PTR [rax+0x50]
    7265:	48 83 3e 02          	cmp    QWORD PTR [rsi],0x2
    7269:	4c 89 7d b0          	mov    QWORD PTR [rbp-0x50],r15
    726d:	0f 86 33 fb ff ff    	jbe    0x6da6
    7273:	49 bf 36 d2 5c 55 55 	movabs r15,0x5555555cd236
    727a:	55 00 00 
    727d:	49 8d 8f ba da 06 00 	lea    rcx,[r15+0x6daba]
    7284:	31 d2                	xor    edx,edx
    7286:	bf 04 00 00 00       	mov    edi,0x4
    728b:	31 c0                	xor    eax,eax
    728d:	49 bf 44 d2 5c 55 55 	movabs r15,0x5555555cd244
    7294:	55 00 00 
    7297:	4d 8d 6d f8          	lea    r13,[r13-0x8]
    729b:	4d 89 7d 00          	mov    QWORD PTR [r13+0x0],r15
    729f:	e9 d6 8d ff ff       	jmp    0x7a
    72a4:	e9 fd fa ff ff       	jmp    0x6da6
    72a9:	49 bf 4e d2 5c 55 55 	movabs r15,0x5555555cd24e
    72b0:	55 00 00 
    72b3:	4d 8d 6d f8          	lea    r13,[r13-0x8]
    72b7:	4d 89 7d 00          	mov    QWORD PTR [r13+0x0],r15
    72bb:	e9 7f 7d 00 00       	jmp    0xf03f
    72c0:	90                   	nop
    72c1:	4d 8d 6d f8          	lea    r13,[r13-0x8]
    72c5:	4c 8b 7d b0          	mov    r15,QWORD PTR [rbp-0x50]
    72c9:	4d 89 7d 00          	mov    QWORD PTR [r13+0x0],r15
    72cd:	4d 8d 6d f8          	lea    r13,[r13-0x8]
    72d1:	4c 8b 75 a8          	mov    r14,QWORD PTR [rbp-0x58]
    72d5:	4d 89 75 00          	mov    QWORD PTR [r13+0x0],r14
    72d9:	4d 8d 6d f8          	lea    r13,[r13-0x8]
    72dd:	4c 89 7d b0          	mov    QWORD PTR [rbp-0x50],r15
    72e1:	4c 8b 7d a0          	mov    r15,QWORD PTR [rbp-0x60]
    72e5:	4d 89 7d 00          	mov    QWORD PTR [r13+0x0],r15
    72e9:	4d 8d 6d f8          	lea    r13,[r13-0x8]
    72ed:	4c 89 7d a0          	mov    QWORD PTR [rbp-0x60],r15
    72f1:	4c 8b 7d 98          	mov    r15,QWORD PTR [rbp-0x68]
    72f5:	4d 89 7d 00          	mov    QWORD PTR [r13+0x0],r15
    72f9:	4d 8d 6d f8          	lea    r13,[r13-0x8]
    72fd:	4d 89 65 00          	mov    QWORD PTR [r13+0x0],r12
    7301:	4d 8d 6d f8          	lea    r13,[r13-0x8]
    7305:	49 89 5d 00          	mov    QWORD PTR [r13+0x0],rbx
    7309:	49 83 ed 08          	sub    r13,0x8
    730d:	4c 8b 67 60          	mov    r12,QWORD PTR [rdi+0x60]
    7311:	4c 8b 7e 08          	mov    r15,QWORD PTR [rsi+0x8]
    7315:	4c 2b 3e             	sub    r15,QWORD PTR [rsi]
    7318:	49 39 f4             	cmp    r12,rsi
    731b:	4c 89 7d 98          	mov    QWORD PTR [rbp-0x68],r15
    731f:	4c 89 75 a8          	mov    QWORD PTR [rbp-0x58],r14
    7323:	0f 84 eb 01 00 00    	je     0x7514
    7329:	4c 8b 7d 98          	mov    r15,QWORD PTR [rbp-0x68]
    732d:	4d 85 ff             	test   r15,r15
    7330:	4c 89 7d 98          	mov    QWORD PTR [rbp-0x68],r15
    7334:	0f 84 da 01 00 00    	je     0x7514
    733a:	48 8b 47 08          	mov    rax,QWORD PTR [rdi+0x8]
    733e:	4c 8b 7d a0          	mov    r15,QWORD PTR [rbp-0x60]
    7342:	49 89 f7             	mov    r15,rsi
    7345:	48 89 fb             	mov    rbx,rdi
    7348:	48 8b 70 50          	mov    rsi,QWORD PTR [rax+0x50]
    734c:	48 f7 06 00 01 00 00 	test   QWORD PTR [rsi],0x100
    7353:	4c 89 7d a0          	mov    QWORD PTR [rbp-0x60],r15
    7357:	0f 85 58 01 00 00    	jne    0x74b5
    735d:	49 8b 7c 24 08       	mov    rdi,QWORD PTR [r12+0x8]
    7362:	49 8b 44 24 28       	mov    rax,QWORD PTR [r12+0x28]
    7367:	48 29 f8             	sub    rax,rdi
    736a:	4c 8b 7d 98          	mov    r15,QWORD PTR [rbp-0x68]
    736e:	4c 39 f8             	cmp    rax,r15
    7371:	4c 89 7d 98          	mov    QWORD PTR [rbp-0x68],r15
    7375:	0f 83 97 00 00 00    	jae    0x7412
    737b:	4c 8b 7d a8          	mov    r15,QWORD PTR [rbp-0x58]
    737f:	4c 8b bb f0 04 00 00 	mov    r15,QWORD PTR [rbx+0x4f0]
    7386:	48 8b 43 08          	mov    rax,QWORD PTR [rbx+0x8]
    738a:	4c 8b 75 b0          	mov    r14,QWORD PTR [rbp-0x50]
    738e:	4d 8b 77 30          	mov    r14,QWORD PTR [r15+0x30]
    7392:	4d 85 f6             	test   r14,r14
    7395:	4c 89 7d a8          	mov    QWORD PTR [rbp-0x58],r15
    7399:	4c 89 75 b0          	mov    QWORD PTR [rbp-0x50],r14
    739d:	0f 84 1a 02 00 00    	je     0x75bd
    73a3:	4c 8b 7d b0          	mov    r15,QWORD PTR [rbp-0x50]
    73a7:	4d 8b 27             	mov    r12,QWORD PTR [r15]
    73aa:	49 8b 57 08          	mov    rdx,QWORD PTR [r15+0x8]
    73ae:	48 8b 70 50          	mov    rsi,QWORD PTR [rax+0x50]
    73b2:	49 8b 7c 24 08       	mov    rdi,QWORD PTR [r12+0x8]
    73b7:	4d 8b 4c 24 28       	mov    r9,QWORD PTR [r12+0x28]
    73bc:	4c 8b 75 a8          	mov    r14,QWORD PTR [rbp-0x58]
    73c0:	49 89 56 30          	mov    QWORD PTR [r14+0x30],rdx
    73c4:	49 29 f9             	sub    r9,rdi
    73c7:	48 f7 06 00 01 00 00 	test   QWORD PTR [rsi],0x100
    73ce:	4c 89 7d b0          	mov    QWORD PTR [rbp-0x50],r15
    73d2:	4c 89 75 a8          	mov    QWORD PTR [rbp-0x58],r14
    73d6:	0f 85 9a 01 00 00    	jne    0x7576
    73dc:	4c 8b 7d a8          	mov    r15,QWORD PTR [rbp-0x58]
    73e0:	49 8b 47 20          	mov    rax,QWORD PTR [r15+0x20]
    73e4:	4c 8b 75 b0          	mov    r14,QWORD PTR [rbp-0x50]
    73e8:	49 89 46 08          	mov    QWORD PTR [r14+0x8],rax
    73ec:	49 83 47 28 01       	add    QWORD PTR [r15+0x28],0x1
    73f1:	4d 89 77 20          	mov    QWORD PTR [r15+0x20],r14
    73f5:	4c 89 63 60          	mov    QWORD PTR [rbx+0x60],r12
    73f9:	4c 89 7d a8          	mov    QWORD PTR [rbp-0x58],r15
    73fd:	4c 8b 7d 98          	mov    r15,QWORD PTR [rbp-0x68]
    7401:	4d 39 f9             	cmp    r9,r15
    7404:	4c 89 7d 98          	mov    QWORD PTR [rbp-0x68],r15
    7408:	4c 89 75 b0          	mov    QWORD PTR [rbp-0x50],r14
    740c:	0f 82 60 02 00 00    	jb     0x7672
    7412:	4c 8b 7d a0          	mov    r15,QWORD PTR [rbp-0x60]
    7416:	49 8b 37             	mov    rsi,QWORD PTR [r15]
    7419:	4c 8b 75 98          	mov    r14,QWORD PTR [rbp-0x68]
    741d:	4c 89 f2             	mov    rdx,r14
    7420:	4c 89 7d a0          	mov    QWORD PTR [rbp-0x60],r15
    7424:	49 bf 0f d3 5c 55 55 	movabs r15,0x5555555cd30f
    742b:	55 00 00 
    742e:	4d 8d 6d f8          	lea    r13,[r13-0x8]
    7432:	4d 89 7d 00          	mov    QWORD PTR [r13+0x0],r15
    7436:	4c 89 75 98          	mov    QWORD PTR [rbp-0x68],r14
    743a:	e9 8e 7f 00 00       	jmp    0xf3cd
    743f:	4c 8b 7d 98          	mov    r15,QWORD PTR [rbp-0x68]
    7443:	4d 01 7c 24 08       	add    QWORD PTR [r12+0x8],r15
    7448:	31 c0                	xor    eax,eax
    744a:	4c 29 bb e0 04 00 00 	sub    QWORD PTR [rbx+0x4e0],r15
    7451:	4c 89 7d 98          	mov    QWORD PTR [rbp-0x68],r15
    7455:	49 83 c5 08          	add    r13,0x8
    7459:	49 8b 5d 00          	mov    rbx,QWORD PTR [r13+0x0]
    745d:	4d 8d 6d 08          	lea    r13,[r13+0x8]
    7461:	4d 8b 65 00          	mov    r12,QWORD PTR [r13+0x0]
    7465:	4d 8d 6d 08          	lea    r13,[r13+0x8]
    7469:	4c 8b 7d 98          	mov    r15,QWORD PTR [rbp-0x68]
    746d:	4d 8b 7d 00          	mov    r15,QWORD PTR [r13+0x0]
    7471:	4d 8d 6d 08          	lea    r13,[r13+0x8]
    7475:	4c 8b 75 a0          	mov    r14,QWORD PTR [rbp-0x60]
    7479:	4d 8b 75 00          	mov    r14,QWORD PTR [r13+0x0]
    747d:	4d 8d 6d 08          	lea    r13,[r13+0x8]
    7481:	4c 89 7d 98          	mov    QWORD PTR [rbp-0x68],r15
    7485:	4c 8b 7d a8          	mov    r15,QWORD PTR [rbp-0x58]
    7489:	4d 8b 7d 00          	mov    r15,QWORD PTR [r13+0x0]
    748d:	4d 8d 6d 08          	lea    r13,[r13+0x8]
    7491:	4c 89 7d a8          	mov    QWORD PTR [rbp-0x58],r15
    7495:	4c 8b 7d b0          	mov    r15,QWORD PTR [rbp-0x50]
    7499:	4d 8b 7d 00          	mov    r15,QWORD PTR [r13+0x0]
    749d:	4d 8d 6d 08          	lea    r13,[r13+0x8]
    74a1:	4c 89 7d b0          	mov    QWORD PTR [rbp-0x50],r15
    74a5:	4d 8b 7d 00          	mov    r15,QWORD PTR [r13+0x0]
    74a9:	4d 8d 6d 08          	lea    r13,[r13+0x8]
    74ad:	4d 89 fe             	mov    r14,r15
    74b0:	e9 cb 77 00 00       	jmp    0xec80
    74b5:	bf 08 00 00 00       	mov    edi,0x8
    74ba:	31 c0                	xor    eax,eax
    74bc:	4c 8b 7d 98          	mov    r15,QWORD PTR [rbp-0x68]
    74c0:	4d 89 f8             	mov    r8,r15
    74c3:	31 d2                	xor    edx,edx
    74c5:	49 be 43 d3 5c 55 55 	movabs r14,0x5555555cd343
    74cc:	55 00 00 
    74cf:	49 8d 8e fd d9 06 00 	lea    rcx,[r14+0x6d9fd]
    74d6:	49 be 48 d3 5c 55 55 	movabs r14,0x5555555cd348
    74dd:	55 00 00 
    74e0:	4d 8d 6d f8          	lea    r13,[r13-0x8]
    74e4:	4d 89 75 00          	mov    QWORD PTR [r13+0x0],r14
    74e8:	4c 89 7d 98          	mov    QWORD PTR [rbp-0x68],r15
    74ec:	e9 89 8b ff ff       	jmp    0x7a
    74f1:	49 8b 7c 24 08       	mov    rdi,QWORD PTR [r12+0x8]
    74f6:	49 8b 44 24 28       	mov    rax,QWORD PTR [r12+0x28]
    74fb:	48 29 f8             	sub    rax,rdi
    74fe:	4c 8b 7d 98          	mov    r15,QWORD PTR [rbp-0x68]
    7502:	4c 39 f8             	cmp    rax,r15
    7505:	4c 89 7d 98          	mov    QWORD PTR [rbp-0x68],r15
    7509:	0f 82 6c fe ff ff    	jb     0x737b
    750f:	e9 fe fe ff ff       	jmp    0x7412
    7514:	49 83 c5 08          	add    r13,0x8
    7518:	31 c0                	xor    eax,eax
    751a:	49 8b 5d 00          	mov    rbx,QWORD PTR [r13+0x0]
    751e:	4d 8d 6d 08          	lea    r13,[r13+0x8]
    7522:	4d 8b 65 00          	mov    r12,QWORD PTR [r13+0x0]
    7526:	4d 8d 6d 08          	lea    r13,[r13+0x8]
    752a:	4c 8b 7d 98          	mov    r15,QWORD PTR [rbp-0x68]
    752e:	4d 8b 7d 00          	mov    r15,QWORD PTR [r13+0x0]
    7532:	4d 8d 6d 08          	lea    r13,[r13+0x8]
    7536:	4c 8b 75 a0          	mov    r14,QWORD PTR [rbp-0x60]
    753a:	4d 8b 75 00          	mov    r14,QWORD PTR [r13+0x0]
    753e:	4d 8d 6d 08          	lea    r13,[r13+0x8]
    7542:	4c 89 7d 98          	mov    QWORD PTR [rbp-0x68],r15
    7546:	4c 8b 7d a8          	mov    r15,QWORD PTR [rbp-0x58]
    754a:	4d 8b 7d 00          	mov    r15,QWORD PTR [r13+0x0]
    754e:	4d 8d 6d 08          	lea    r13,[r13+0x8]
    7552:	4c 89 7d a8          	mov    QWORD PTR [rbp-0x58],r15
    7556:	4c 8b 7d b0          	mov    r15,QWORD PTR [rbp-0x50]
    755a:	4d 8b 7d 00          	mov    r15,QWORD PTR [r13+0x0]
    755e:	4d 8d 6d 08          	lea    r13,[r13+0x8]
    7562:	4c 89 7d b0          	mov    QWORD PTR [rbp-0x50],r15
    7566:	4d 8b 7d 00          	mov    r15,QWORD PTR [r13+0x0]
    756a:	4d 8d 6d 08          	lea    r13,[r13+0x8]
    756e:	4d 89 fe             	mov    r14,r15
    7571:	e9 ec 76 00 00       	jmp    0xec62
    7576:	4d 8b 04 24          	mov    r8,QWORD PTR [r12]
    757a:	49 bf 83 d3 5c 55 55 	movabs r15,0x5555555cd383
    7581:	55 00 00 
    7584:	49 8d 8f 45 c4 06 00 	lea    rcx,[r15+0x6c445]
    758b:	bf 08 00 00 00       	mov    edi,0x8
    7590:	31 d2                	xor    edx,edx
    7592:	31 c0                	xor    eax,eax
    7594:	49 bf 91 d3 5c 55 55 	movabs r15,0x5555555cd391
    759b:	55 00 00 
    759e:	4d 8d 6d f8          	lea    r13,[r13-0x8]
    75a2:	4d 89 7d 00          	mov    QWORD PTR [r13+0x0],r15
    75a6:	e9 cf 8a ff ff       	jmp    0x7a
    75ab:	49 8b 7c 24 08       	mov    rdi,QWORD PTR [r12+0x8]
    75b0:	4d 8b 4c 24 28       	mov    r9,QWORD PTR [r12+0x28]
    75b5:	49 29 f9             	sub    r9,rdi
    75b8:	e9 1f fe ff ff       	jmp    0x73dc
    75bd:	49 bf af d3 5c 55 55 	movabs r15,0x5555555cd3af
    75c4:	55 00 00 
    75c7:	49 8d 97 d1 9d 09 00 	lea    rdx,[r15+0x99dd1]
    75ce:	48 8b 78 58          	mov    rdi,QWORD PTR [rax+0x58]
    75d2:	48 8b 0a             	mov    rcx,QWORD PTR [rdx]
    75d5:	48 8b 53 20          	mov    rdx,QWORD PTR [rbx+0x20]
    75d9:	48 8b 14 ca          	mov    rdx,QWORD PTR [rdx+rcx*8]
    75dd:	48 8b 72 70          	mov    rsi,QWORD PTR [rdx+0x70]
    75e1:	49 bf c7 d3 5c 55 55 	movabs r15,0x5555555cd3c7
    75e8:	55 00 00 
    75eb:	4d 8d 6d f8          	lea    r13,[r13-0x8]
    75ef:	4d 89 7d 00          	mov    QWORD PTR [r13+0x0],r15
    75f3:	e9 01 7c 00 00       	jmp    0xf1f9
    75f8:	49 89 c4             	mov    r12,rax
    75fb:	48 85 c0             	test   rax,rax
    75fe:	0f 84 ad 00 00 00    	je     0x76b1
    7604:	48 8b 43 08          	mov    rax,QWORD PTR [rbx+0x8]
    7608:	48 8b 78 58          	mov    rdi,QWORD PTR [rax+0x58]
    760c:	49 bf dc d3 5c 55 55 	movabs r15,0x5555555cd3dc
    7613:	55 00 00 
    7616:	4d 8d 6d f8          	lea    r13,[r13-0x8]
    761a:	4d 89 7d 00          	mov    QWORD PTR [r13+0x0],r15
    761e:	e9 9e 7a 00 00       	jmp    0xf0c1
    7623:	4c 8b 7d b0          	mov    r15,QWORD PTR [rbp-0x50]
    7627:	49 89 c7             	mov    r15,rax
    762a:	48 85 c0             	test   rax,rax
    762d:	4c 89 7d b0          	mov    QWORD PTR [rbp-0x50],r15
    7631:	74 7e                	je     0x76b1
    7633:	49 8b 7c 24 08       	mov    rdi,QWORD PTR [r12+0x8]
    7638:	4d 8b 4c 24 28       	mov    r9,QWORD PTR [r12+0x28]
    763d:	4c 89 20             	mov    QWORD PTR [rax],r12
    7640:	48 8b 43 08          	mov    rax,QWORD PTR [rbx+0x8]
    7644:	49 29 f9             	sub    r9,rdi
    7647:	48 8b 70 50          	mov    rsi,QWORD PTR [rax+0x50]
    764b:	48 f7 06 00 01 00 00 	test   QWORD PTR [rsi],0x100
    7652:	0f 84 84 fd ff ff    	je     0x73dc
    7658:	4d 8b 04 24          	mov    r8,QWORD PTR [r12]
    765c:	49 bf 12 d4 5c 55 55 	movabs r15,0x5555555cd412
    7663:	55 00 00 
    7666:	49 8d 8f d6 c3 06 00 	lea    rcx,[r15+0x6c3d6]
    766d:	e9 19 ff ff ff       	jmp    0x758b
    7672:	48 8b 43 08          	mov    rax,QWORD PTR [rbx+0x8]
    7676:	48 8b 70 50          	mov    rsi,QWORD PTR [rax+0x50]
    767a:	48 83 3e 01          	cmp    QWORD PTR [rsi],0x1
    767e:	76 31                	jbe    0x76b1
    7680:	49 bf 2c d4 5c 55 55 	movabs r15,0x5555555cd42c
    7687:	55 00 00 
    768a:	49 8d 8f 34 d9 06 00 	lea    rcx,[r15+0x6d934]
    7691:	31 d2                	xor    edx,edx
    7693:	bf 02 00 00 00       	mov    edi,0x2
    7698:	31 c0                	xor    eax,eax
    769a:	49 bf 3a d4 5c 55 55 	movabs r15,0x5555555cd43a
    76a1:	55 00 00 
    76a4:	4d 8d 6d f8          	lea    r13,[r13-0x8]
    76a8:	4d 89 7d 00          	mov    QWORD PTR [r13+0x0],r15
    76ac:	e9 c9 89 ff ff       	jmp    0x7a
    76b1:	48 c7 c0 ff ff ff ff 	mov    rax,0xffffffffffffffff
    76b8:	e9 98 fd ff ff       	jmp    0x7455
    76bd:	49 83 c5 38          	add    r13,0x38
    76c1:	4c 8b 7d 98          	mov    r15,QWORD PTR [rbp-0x68]
    76c5:	4c 89 f8             	mov    rax,r15
    76c8:	49 8b 5d 00          	mov    rbx,QWORD PTR [r13+0x0]
    76cc:	4d 8d 6d 08          	lea    r13,[r13+0x8]
    76d0:	4d 8b 65 00          	mov    r12,QWORD PTR [r13+0x0]
    76d4:	4d 8d 6d 08          	lea    r13,[r13+0x8]
    76d8:	4d 8b 7d 00          	mov    r15,QWORD PTR [r13+0x0]
    76dc:	4d 8d 6d 08          	lea    r13,[r13+0x8]
    76e0:	4c 8b 75 a0          	mov    r14,QWORD PTR [rbp-0x60]
    76e4:	4d 8b 75 00          	mov    r14,QWORD PTR [r13+0x0]
    76e8:	4d 8d 6d 08          	lea    r13,[r13+0x8]
    76ec:	4c 89 7d 98          	mov    QWORD PTR [rbp-0x68],r15
    76f0:	4c 8b 7d a8          	mov    r15,QWORD PTR [rbp-0x58]
    76f4:	4d 8b 7d 00          	mov    r15,QWORD PTR [r13+0x0]
    76f8:	4d 8d 6d 08          	lea    r13,[r13+0x8]
    76fc:	4c 89 7d a8          	mov    QWORD PTR [rbp-0x58],r15
    7700:	4c 8b 7d b0          	mov    r15,QWORD PTR [rbp-0x50]
    7704:	4d 8b 7d 00          	mov    r15,QWORD PTR [r13+0x0]
    7708:	4d 8d 6d 08          	lea    r13,[r13+0x8]
    770c:	4c 89 7d b0          	mov    QWORD PTR [rbp-0x50],r15
    7710:	4d 8b 7d 00          	mov    r15,QWORD PTR [r13+0x0]
    7714:	4d 8d 6d 08          	lea    r13,[r13+0x8]
    7718:	4d 89 fe             	mov    r14,r15
    771b:	e9 cb 4c 00 00       	jmp    0xc3eb
    7720:	4c 8b 7d 98          	mov    r15,QWORD PTR [rbp-0x68]
    7724:	45 31 ff             	xor    r15d,r15d
    7727:	4c 89 7d 98          	mov    QWORD PTR [rbp-0x68],r15
    772b:	eb 90                	jmp    0x76bd
    772d:	4c 8b 7d b0          	mov    r15,QWORD PTR [rbp-0x50]
    7731:	49 8b 77 50          	mov    rsi,QWORD PTR [r15+0x50]
    7735:	48 89 c3             	mov    rbx,rax
    7738:	48 f7 06 00 01 00 00 	test   QWORD PTR [rsi],0x100
    773f:	4c 89 7d b0          	mov    QWORD PTR [rbp-0x50],r15
    7743:	0f 85 60 01 00 00    	jne    0x78a9
    7749:	48 83 fb ff          	cmp    rbx,0xffffffffffffffff
    774d:	0f 84 21 06 00 00    	je     0x7d74
    7753:	49 8b 7d 18          	mov    rdi,QWORD PTR [r13+0x18]
    7757:	48 8b 8f c8 04 00 00 	mov    rcx,QWORD PTR [rdi+0x4c8]
    775e:	48 85 c9             	test   rcx,rcx
    7761:	74 4b                	je     0x77ae
    7763:	48 8b 97 d0 04 00 00 	mov    rdx,QWORD PTR [rdi+0x4d0]
    776a:	4c 8b 7d b0          	mov    r15,QWORD PTR [rbp-0x50]
    776e:	49 8b 47 48          	mov    rax,QWORD PTR [r15+0x48]
    7772:	48 85 d2             	test   rdx,rdx
    7775:	4c 89 7d b0          	mov    QWORD PTR [rbp-0x50],r15
    7779:	74 18                	je     0x7793
    777b:	31 f6                	xor    esi,esi
    777d:	4c 8b 7d a0          	mov    r15,QWORD PTR [rbp-0x60]
    7781:	49 29 d7             	sub    r15,rdx
    7784:	4c 0f 48 fe          	cmovs  r15,rsi
    7788:	48 29 d0             	sub    rax,rdx
    778b:	48 0f 48 c6          	cmovs  rax,rsi
    778f:	4c 89 7d a0          	mov    QWORD PTR [rbp-0x60],r15
    7793:	4c 8b 7d a0          	mov    r15,QWORD PTR [rbp-0x60]
    7797:	4c 29 f8             	sub    rax,r15
    779a:	48 69 c0 e8 03 00 00 	imul   rax,rax,0x3e8
    77a1:	48 39 c1             	cmp    rcx,rax
    77a4:	4c 89 7d a0          	mov    QWORD PTR [rbp-0x60],r15
    77a8:	0f 86 34 01 00 00    	jbe    0x78e2
    77ae:	4d 85 e4             	test   r12,r12
    77b1:	74 55                	je     0x7808
    77b3:	4c 8b 7d b0          	mov    r15,QWORD PTR [rbp-0x50]
    77b7:	4c 8b 75 98          	mov    r14,QWORD PTR [rbp-0x68]
    77bb:	4d 8b 77 10          	mov    r14,QWORD PTR [r15+0x10]
    77bf:	41 f6 46 08 20       	test   BYTE PTR [r14+0x8],0x20
    77c4:	4c 89 7d b0          	mov    QWORD PTR [rbp-0x50],r15
    77c8:	4c 89 75 98          	mov    QWORD PTR [rbp-0x68],r14
    77cc:	74 3a                	je     0x7808
    77ce:	49 bf 62 41 5e 55 55 	movabs r15,0x5555555e4162
    77d5:	55 00 00 
    77d8:	49 8d 97 9e e9 0a 00 	lea    rdx,[r15+0xae99e]
    77df:	4c 8b 7d b0          	mov    r15,QWORD PTR [rbp-0x50]
    77e3:	49 8b 47 48          	mov    rax,QWORD PTR [r15+0x48]
    77e7:	48 8b 12             	mov    rdx,QWORD PTR [rdx]
    77ea:	4c 8b 75 a0          	mov    r14,QWORD PTR [rbp-0x60]
    77ee:	4c 29 f0             	sub    rax,r14
    77f1:	48 01 d2             	add    rdx,rdx
    77f4:	49 29 d4             	sub    r12,rdx
    77f7:	4c 39 e0             	cmp    rax,r12
    77fa:	4c 89 7d b0          	mov    QWORD PTR [rbp-0x50],r15
    77fe:	4c 89 75 a0          	mov    QWORD PTR [rbp-0x60],r14
    7802:	0f 8d 35 02 00 00    	jge    0x7a3d
    7808:	49 8b 7d 18          	mov    rdi,QWORD PTR [r13+0x18]
    780c:	48 8b 87 60 04 00 00 	mov    rax,QWORD PTR [rdi+0x460]
    7813:	48 85 c0             	test   rax,rax
    7816:	74 2b                	je     0x7843
    7818:	48 39 c3             	cmp    rbx,rax
    781b:	74 26                	je     0x7843
    781d:	48 8b 77 58          	mov    rsi,QWORD PTR [rdi+0x58]
    7821:	48 8b 4e 30          	mov    rcx,QWORD PTR [rsi+0x30]
    7825:	eb 08                	jmp    0x782f
    7827:	48 39 d3             	cmp    rbx,rdx
    782a:	74 13                	je     0x783f
    782c:	48 89 d0             	mov    rax,rdx
    782f:	48 8b 50 08          	mov    rdx,QWORD PTR [rax+0x8]
    7833:	48 89 48 08          	mov    QWORD PTR [rax+0x8],rcx
    7837:	48 89 c1             	mov    rcx,rax
    783a:	48 85 d2             	test   rdx,rdx
    783d:	75 e8                	jne    0x7827
    783f:	48 89 46 30          	mov    QWORD PTR [rsi+0x30],rax
    7843:	49 8b 45 18          	mov    rax,QWORD PTR [r13+0x18]
    7847:	48 89 98 60 04 00 00 	mov    QWORD PTR [rax+0x460],rbx
    784e:	4c 8b 7d b0          	mov    r15,QWORD PTR [rbp-0x50]
    7852:	41 0f b6 87 e0 00 00 	movzx  eax,BYTE PTR [r15+0xe0]
    7859:	00 
    785a:	48 85 db             	test   rbx,rbx
    785d:	4c 89 7d b0          	mov    QWORD PTR [rbp-0x50],r15
    7861:	0f 85 b9 03 00 00    	jne    0x7c20
    7867:	89 c2                	mov    edx,eax
    7869:	83 e2 ef             	and    edx,0xffffffef
    786c:	4c 8b 7d b0          	mov    r15,QWORD PTR [rbp-0x50]
    7870:	41 88 97 e0 00 00 00 	mov    BYTE PTR [r15+0xe0],dl
    7877:	a8 0f                	test   al,0xf
    7879:	4c 89 7d b0          	mov    QWORD PTR [rbp-0x50],r15
    787d:	0f 84 9d fe ff ff    	je     0x7720
    7883:	49 8b 45 18          	mov    rax,QWORD PTR [r13+0x18]
    7887:	48 83 b8 78 04 00 00 	cmp    QWORD PTR [rax+0x478],0x0
    788e:	00 
    788f:	0f 85 8b fe ff ff    	jne    0x7720
    7895:	4c 8b 7d 98          	mov    r15,QWORD PTR [rbp-0x68]
    7899:	49 c7 c7 fe ff ff ff 	mov    r15,0xfffffffffffffffe
    78a0:	4c 89 7d 98          	mov    QWORD PTR [rbp-0x68],r15
    78a4:	e9 14 fe ff ff       	jmp    0x76bd
    78a9:	49 89 c0             	mov    r8,rax
    78ac:	49 bf be 42 5e 55 55 	movabs r15,0x5555555e42be
    78b3:	55 00 00 
    78b6:	49 8d 8f 24 8c 05 00 	lea    rcx,[r15+0x58c24]
    78bd:	31 d2                	xor    edx,edx
    78bf:	31 c0                	xor    eax,eax
    78c1:	bf 08 00 00 00       	mov    edi,0x8
    78c6:	49 bf cc 42 5e 55 55 	movabs r15,0x5555555e42cc
    78cd:	55 00 00 
    78d0:	4d 8d 6d f8          	lea    r13,[r13-0x8]
    78d4:	4d 89 7d 00          	mov    QWORD PTR [r13+0x0],r15
    78d8:	e9 9d 87 ff ff       	jmp    0x7a
    78dd:	e9 67 fe ff ff       	jmp    0x7749
    78e2:	31 d2                	xor    edx,edx
    78e4:	4c 8b 7d b0          	mov    r15,QWORD PTR [rbp-0x50]
    78e8:	4d 8b 67 10          	mov    r12,QWORD PTR [r15+0x10]
    78ec:	48 f7 f1             	div    rcx
    78ef:	49 8b 74 24 20       	mov    rsi,QWORD PTR [r12+0x20]
    78f4:	49 89 45 08          	mov    QWORD PTR [r13+0x8],rax
    78f8:	41 0f b6 54 24 09    	movzx  edx,BYTE PTR [r12+0x9]
    78fe:	49 be 0b 43 5e 55 55 	movabs r14,0x5555555e430b
    7905:	55 00 00 
    7908:	49 8d 86 d5 e5 0a 00 	lea    rax,[r14+0xae5d5]
    790f:	83 ca 10             	or     edx,0x10
    7912:	41 88 54 24 09       	mov    BYTE PTR [r12+0x9],dl
    7917:	4c 8b 75 a8          	mov    r14,QWORD PTR [rbp-0x58]
    791b:	4c 8b 30             	mov    r14,QWORD PTR [rax]
    791e:	48 8b 06             	mov    rax,QWORD PTR [rsi]
    7921:	4d 03 75 08          	add    r14,QWORD PTR [r13+0x8]
    7925:	25 80 00 00 00       	and    eax,0x80
    792a:	83 e2 08             	and    edx,0x8
    792d:	4c 89 7d b0          	mov    QWORD PTR [rbp-0x50],r15
    7931:	4c 89 75 a8          	mov    QWORD PTR [rbp-0x58],r14
    7935:	75 74                	jne    0x79ab
    7937:	4c 8b 7d a0          	mov    r15,QWORD PTR [rbp-0x60]
    793b:	49 be 31 43 5e 55 55 	movabs r14,0x5555555e4331
    7942:	55 00 00 
    7945:	4d 8d be 6f e7 0a 00 	lea    r15,[r14+0xae76f]
    794c:	4c 8b 75 98          	mov    r14,QWORD PTR [rbp-0x68]
    7950:	4d 8d 74 24 28       	lea    r14,[r12+0x28]
    7955:	4c 89 7d a0          	mov    QWORD PTR [rbp-0x60],r15
    7959:	4c 89 75 98          	mov    QWORD PTR [rbp-0x68],r14
    795d:	4c 8b 7d a8          	mov    r15,QWORD PTR [rbp-0x58]
    7961:	4d 89 7c 24 28       	mov    QWORD PTR [r12+0x28],r15
    7966:	48 85 c0             	test   rax,rax
    7969:	4c 89 7d a8          	mov    QWORD PTR [rbp-0x58],r15
    796d:	0f 85 8c 01 00 00    	jne    0x7aff
    7973:	4c 8b 7d 98          	mov    r15,QWORD PTR [rbp-0x68]
    7977:	4c 89 fe             	mov    rsi,r15
    797a:	4c 8b 75 a0          	mov    r14,QWORD PTR [rbp-0x60]
    797e:	4c 89 f7             	mov    rdi,r14
    7981:	4c 89 7d 98          	mov    QWORD PTR [rbp-0x68],r15
    7985:	49 bf 4d 43 5e 55 55 	movabs r15,0x5555555e434d
    798c:	55 00 00 
    798f:	4d 8d 6d f8          	lea    r13,[r13-0x8]
    7993:	4d 89 7d 00          	mov    QWORD PTR [r13+0x0],r15
    7997:	4c 89 75 a0          	mov    QWORD PTR [rbp-0x60],r14
    799b:	e9 91 79 00 00       	jmp    0xf331
    79a0:	41 80 4c 24 09 08    	or     BYTE PTR [r12+0x9],0x8
    79a6:	e9 5d fe ff ff       	jmp    0x7808
    79ab:	4d 8b 4c 24 28       	mov    r9,QWORD PTR [r12+0x28]
    79b0:	4c 8b 7d a8          	mov    r15,QWORD PTR [rbp-0x58]
    79b4:	4c 89 fa             	mov    rdx,r15
    79b7:	4c 29 ca             	sub    rdx,r9
    79ba:	48 81 c2 2b 01 00 00 	add    rdx,0x12b
    79c1:	48 81 fa 56 02 00 00 	cmp    rdx,0x256
    79c8:	4c 89 7d a8          	mov    QWORD PTR [rbp-0x58],r15
    79cc:	0f 87 93 01 00 00    	ja     0x7b65
    79d2:	48 85 c0             	test   rax,rax
    79d5:	0f 84 2d fe ff ff    	je     0x7808
    79db:	49 8b 04 24          	mov    rax,QWORD PTR [r12]
    79df:	49 83 ed 08          	sub    r13,0x8
    79e3:	44 8b 40 18          	mov    r8d,DWORD PTR [rax+0x18]
    79e7:	31 d2                	xor    edx,edx
    79e9:	bf 08 00 00 00       	mov    edi,0x8
    79ee:	4d 8d 6d f8          	lea    r13,[r13-0x8]
    79f2:	4c 8b 7d a8          	mov    r15,QWORD PTR [rbp-0x58]
    79f6:	4d 89 7d 00          	mov    QWORD PTR [r13+0x0],r15
    79fa:	49 be 03 44 5e 55 55 	movabs r14,0x5555555e4403
    7a01:	55 00 00 
    7a04:	49 8d 8e cd e7 04 00 	lea    rcx,[r14+0x4e7cd]
    7a0b:	31 c0                	xor    eax,eax
    7a0d:	49 be 0a 44 5e 55 55 	movabs r14,0x5555555e440a
    7a14:	55 00 00 
    7a17:	4d 8d 6d f8          	lea    r13,[r13-0x8]
    7a1b:	4d 89 75 00          	mov    QWORD PTR [r13+0x0],r14
    7a1f:	4c 89 7d a8          	mov    QWORD PTR [rbp-0x58],r15
    7a23:	e9 52 86 ff ff       	jmp    0x7a
    7a28:	49 8b 4d 00          	mov    rcx,QWORD PTR [r13+0x0]
    7a2c:	4d 8d 6d 08          	lea    r13,[r13+0x8]
    7a30:	49 8b 75 00          	mov    rsi,QWORD PTR [r13+0x0]
    7a34:	4d 8d 6d 08          	lea    r13,[r13+0x8]
    7a38:	e9 cb fd ff ff       	jmp    0x7808
    7a3d:	4c 8b 7d 98          	mov    r15,QWORD PTR [rbp-0x68]
    7a41:	41 0f b6 4f 09       	movzx  ecx,BYTE PTR [r15+0x9]
    7a46:	49 be 1e 44 5e 55 55 	movabs r14,0x5555555e441e
    7a4d:	55 00 00 
    7a50:	49 8d 86 c2 e4 0a 00 	lea    rax,[r14+0xae4c2]
    7a57:	49 8b 77 20          	mov    rsi,QWORD PTR [r15+0x20]
    7a5b:	83 c9 10             	or     ecx,0x10
    7a5e:	41 88 4f 09          	mov    BYTE PTR [r15+0x9],cl
    7a62:	48 8b 10             	mov    rdx,QWORD PTR [rax]
    7a65:	48 8b 06             	mov    rax,QWORD PTR [rsi]
    7a68:	4c 8b 75 a8          	mov    r14,QWORD PTR [rbp-0x58]
    7a6c:	4c 8d 72 01          	lea    r14,[rdx+0x1]
    7a70:	25 80 00 00 00       	and    eax,0x80
    7a75:	83 e1 08             	and    ecx,0x8
    7a78:	4c 89 7d 98          	mov    QWORD PTR [rbp-0x68],r15
    7a7c:	4c 89 75 a8          	mov    QWORD PTR [rbp-0x58],r14
    7a80:	0f 85 5e 01 00 00    	jne    0x7be4
    7a86:	4c 8b 7d a0          	mov    r15,QWORD PTR [rbp-0x60]
    7a8a:	49 be 4a 44 5e 55 55 	movabs r14,0x5555555e444a
    7a91:	55 00 00 
    7a94:	4d 8d be 56 e6 0a 00 	lea    r15,[r14+0xae656]
    7a9b:	4c 8b 75 98          	mov    r14,QWORD PTR [rbp-0x68]
    7a9f:	4d 8d 66 28          	lea    r12,[r14+0x28]
    7aa3:	4c 89 7d a0          	mov    QWORD PTR [rbp-0x60],r15
    7aa7:	4c 89 75 98          	mov    QWORD PTR [rbp-0x68],r14
    7aab:	4c 8b 7d 98          	mov    r15,QWORD PTR [rbp-0x68]
    7aaf:	4c 8b 75 a8          	mov    r14,QWORD PTR [rbp-0x58]
    7ab3:	4d 89 77 28          	mov    QWORD PTR [r15+0x28],r14
    7ab7:	48 85 c0             	test   rax,rax
    7aba:	4c 89 7d 98          	mov    QWORD PTR [rbp-0x68],r15
    7abe:	4c 89 75 a8          	mov    QWORD PTR [rbp-0x58],r14
    7ac2:	0f 85 7e 01 00 00    	jne    0x7c46
    7ac8:	4c 89 e6             	mov    rsi,r12
    7acb:	4c 8b 7d a0          	mov    r15,QWORD PTR [rbp-0x60]
    7acf:	4c 89 ff             	mov    rdi,r15
    7ad2:	49 be 68 44 5e 55 55 	movabs r14,0x5555555e4468
    7ad9:	55 00 00 
    7adc:	4d 8d 6d f8          	lea    r13,[r13-0x8]
    7ae0:	4d 89 75 00          	mov    QWORD PTR [r13+0x0],r14
    7ae4:	4c 89 7d a0          	mov    QWORD PTR [rbp-0x60],r15
    7ae8:	e9 44 78 00 00       	jmp    0xf331
    7aed:	4c 8b 7d 98          	mov    r15,QWORD PTR [rbp-0x68]
    7af1:	41 80 4f 09 08       	or     BYTE PTR [r15+0x9],0x8
    7af6:	4c 89 7d 98          	mov    QWORD PTR [rbp-0x68],r15
    7afa:	e9 09 fd ff ff       	jmp    0x7808
    7aff:	49 8b 04 24          	mov    rax,QWORD PTR [r12]
    7b03:	49 83 ed 08          	sub    r13,0x8
    7b07:	bf 08 00 00 00       	mov    edi,0x8
    7b0c:	31 d2                	xor    edx,edx
    7b0e:	49 bf 89 44 5e 55 55 	movabs r15,0x5555555e4489
    7b15:	55 00 00 
    7b18:	49 8d 8f b9 e6 04 00 	lea    rcx,[r15+0x4e6b9]
    7b1f:	44 8b 40 18          	mov    r8d,DWORD PTR [rax+0x18]
    7b23:	4d 8d 6d f8          	lea    r13,[r13-0x8]
    7b27:	4c 8b 7d a8          	mov    r15,QWORD PTR [rbp-0x58]
    7b2b:	4d 89 7d 00          	mov    QWORD PTR [r13+0x0],r15
    7b2f:	31 c0                	xor    eax,eax
    7b31:	4d 8b 4d 18          	mov    r9,QWORD PTR [r13+0x18]
    7b35:	49 be 9b 44 5e 55 55 	movabs r14,0x5555555e449b
    7b3c:	55 00 00 
    7b3f:	4d 8d 6d f8          	lea    r13,[r13-0x8]
    7b43:	4d 89 75 00          	mov    QWORD PTR [r13+0x0],r14
    7b47:	4c 89 7d a8          	mov    QWORD PTR [rbp-0x58],r15
    7b4b:	e9 2a 85 ff ff       	jmp    0x7a
    7b50:	49 8b 7d 00          	mov    rdi,QWORD PTR [r13+0x0]
    7b54:	4d 8d 6d 08          	lea    r13,[r13+0x8]
    7b58:	4d 8b 45 00          	mov    r8,QWORD PTR [r13+0x0]
    7b5c:	4d 8d 6d 08          	lea    r13,[r13+0x8]
    7b60:	e9 0e fe ff ff       	jmp    0x7973
    7b65:	48 85 c0             	test   rax,rax
    7b68:	0f 85 47 01 00 00    	jne    0x7cb5
    7b6e:	4c 8b 7d a0          	mov    r15,QWORD PTR [rbp-0x60]
    7b72:	49 be b3 44 5e 55 55 	movabs r14,0x5555555e44b3
    7b79:	55 00 00 
    7b7c:	4d 8d be ed e5 0a 00 	lea    r15,[r14+0xae5ed]
    7b83:	4c 8b 75 98          	mov    r14,QWORD PTR [rbp-0x68]
    7b87:	4d 8d 74 24 28       	lea    r14,[r12+0x28]
    7b8c:	4c 89 f6             	mov    rsi,r14
    7b8f:	4c 89 ff             	mov    rdi,r15
    7b92:	4c 89 7d a0          	mov    QWORD PTR [rbp-0x60],r15
    7b96:	49 bf c2 44 5e 55 55 	movabs r15,0x5555555e44c2
    7b9d:	55 00 00 
    7ba0:	4d 8d 6d f8          	lea    r13,[r13-0x8]
    7ba4:	4d 89 7d 00          	mov    QWORD PTR [r13+0x0],r15
    7ba8:	4c 89 75 98          	mov    QWORD PTR [rbp-0x68],r14
    7bac:	e9 0a 7a 00 00       	jmp    0xf5bb
    7bb1:	49 8b 74 24 20       	mov    rsi,QWORD PTR [r12+0x20]
    7bb6:	41 80 64 24 09 f7    	and    BYTE PTR [r12+0x9],0xf7
    7bbc:	49 c7 44 24 30 00 00 	mov    QWORD PTR [r12+0x30],0x0
    7bc3:	00 00 
    7bc5:	48 8b 06             	mov    rax,QWORD PTR [rsi]
    7bc8:	49 c7 44 24 38 00 00 	mov    QWORD PTR [r12+0x38],0x0
    7bcf:	00 00 
    7bd1:	49 c7 44 24 40 00 00 	mov    QWORD PTR [r12+0x40],0x0
    7bd8:	00 00 
    7bda:	25 80 00 00 00       	and    eax,0x80
    7bdf:	e9 79 fd ff ff       	jmp    0x795d
    7be4:	4c 8b 7d 98          	mov    r15,QWORD PTR [rbp-0x68]
    7be8:	4d 8b 4f 28          	mov    r9,QWORD PTR [r15+0x28]
    7bec:	48 81 c2 2c 01 00 00 	add    rdx,0x12c
    7bf3:	4c 29 ca             	sub    rdx,r9
    7bf6:	48 81 fa 56 02 00 00 	cmp    rdx,0x256
    7bfd:	4c 89 7d 98          	mov    QWORD PTR [rbp-0x68],r15
    7c01:	0f 87 ec 00 00 00    	ja     0x7cf3
    7c07:	48 85 c0             	test   rax,rax
    7c0a:	0f 84 f8 fb ff ff    	je     0x7808
    7c10:	4c 8b 7d 98          	mov    r15,QWORD PTR [rbp-0x68]
    7c14:	49 8b 07             	mov    rax,QWORD PTR [r15]
    7c17:	4c 89 7d 98          	mov    QWORD PTR [rbp-0x68],r15
    7c1b:	e9 bf fd ff ff       	jmp    0x79df
    7c20:	83 c8 10             	or     eax,0x10
    7c23:	4c 8b 7d 98          	mov    r15,QWORD PTR [rbp-0x68]
    7c27:	49 c7 c7 fe ff ff ff 	mov    r15,0xfffffffffffffffe
    7c2e:	4c 8b 75 b0          	mov    r14,QWORD PTR [rbp-0x50]
    7c32:	41 88 86 e0 00 00 00 	mov    BYTE PTR [r14+0xe0],al
    7c39:	4c 89 7d 98          	mov    QWORD PTR [rbp-0x68],r15
    7c3d:	4c 89 75 b0          	mov    QWORD PTR [rbp-0x50],r14
    7c41:	e9 77 fa ff ff       	jmp    0x76bd
    7c46:	4c 8b 7d 98          	mov    r15,QWORD PTR [rbp-0x68]
    7c4a:	49 8b 07             	mov    rax,QWORD PTR [r15]
    7c4d:	49 83 ed 08          	sub    r13,0x8
    7c51:	31 d2                	xor    edx,edx
    7c53:	41 b9 01 00 00 00    	mov    r9d,0x1
    7c59:	49 be 4a 45 5e 55 55 	movabs r14,0x5555555e454a
    7c60:	55 00 00 
    7c63:	49 8d 8e f8 e5 04 00 	lea    rcx,[r14+0x4e5f8]
    7c6a:	bf 08 00 00 00       	mov    edi,0x8
    7c6f:	44 8b 40 18          	mov    r8d,DWORD PTR [rax+0x18]
    7c73:	4d 8d 6d f8          	lea    r13,[r13-0x8]
    7c77:	4c 8b 75 a8          	mov    r14,QWORD PTR [rbp-0x58]
    7c7b:	4d 89 75 00          	mov    QWORD PTR [r13+0x0],r14
    7c7f:	31 c0                	xor    eax,eax
    7c81:	4c 89 7d 98          	mov    QWORD PTR [rbp-0x68],r15
    7c85:	49 bf 5c 45 5e 55 55 	movabs r15,0x5555555e455c
    7c8c:	55 00 00 
    7c8f:	4d 8d 6d f8          	lea    r13,[r13-0x8]
    7c93:	4d 89 7d 00          	mov    QWORD PTR [r13+0x0],r15
    7c97:	4c 89 75 a8          	mov    QWORD PTR [rbp-0x58],r14
    7c9b:	e9 da 83 ff ff       	jmp    0x7a
    7ca0:	49 8b 45 00          	mov    rax,QWORD PTR [r13+0x0]
    7ca4:	4d 8d 6d 08          	lea    r13,[r13+0x8]
    7ca8:	49 8b 55 00          	mov    rdx,QWORD PTR [r13+0x0]
    7cac:	4d 8d 6d 08          	lea    r13,[r13+0x8]
    7cb0:	e9 13 fe ff ff       	jmp    0x7ac8
    7cb5:	49 8b 04 24          	mov    rax,QWORD PTR [r12]
    7cb9:	49 bf 6e 45 5e 55 55 	movabs r15,0x5555555e456e
    7cc0:	55 00 00 
    7cc3:	49 8d 8f 18 e5 04 00 	lea    rcx,[r15+0x4e518]
    7cca:	31 d2                	xor    edx,edx
    7ccc:	bf 08 00 00 00       	mov    edi,0x8
    7cd1:	44 8b 40 18          	mov    r8d,DWORD PTR [rax+0x18]
    7cd5:	31 c0                	xor    eax,eax
    7cd7:	49 bf 80 45 5e 55 55 	movabs r15,0x5555555e4580
    7cde:	55 00 00 
    7ce1:	4d 8d 6d f8          	lea    r13,[r13-0x8]
    7ce5:	4d 89 7d 00          	mov    QWORD PTR [r13+0x0],r15
    7ce9:	e9 8c 83 ff ff       	jmp    0x7a
    7cee:	e9 7b fe ff ff       	jmp    0x7b6e
    7cf3:	48 85 c0             	test   rax,rax
    7cf6:	0f 85 99 00 00 00    	jne    0x7d95
    7cfc:	4c 8b 7d a0          	mov    r15,QWORD PTR [rbp-0x60]
    7d00:	49 be 06 46 5e 55 55 	movabs r14,0x5555555e4606
    7d07:	55 00 00 
    7d0a:	4d 8d be 9a e4 0a 00 	lea    r15,[r14+0xae49a]
    7d11:	4c 8b 75 98          	mov    r14,QWORD PTR [rbp-0x68]
    7d15:	4d 8d 66 28          	lea    r12,[r14+0x28]
    7d19:	4c 89 e6             	mov    rsi,r12
    7d1c:	4c 89 ff             	mov    rdi,r15
    7d1f:	4c 89 7d a0          	mov    QWORD PTR [rbp-0x60],r15
    7d23:	49 bf 16 46 5e 55 55 	movabs r15,0x5555555e4616
    7d2a:	55 00 00 
    7d2d:	4d 8d 6d f8          	lea    r13,[r13-0x8]
    7d31:	4d 89 7d 00          	mov    QWORD PTR [r13+0x0],r15
    7d35:	4c 89 75 98          	mov    QWORD PTR [rbp-0x68],r14
    7d39:	e9 7d 78 00 00       	jmp    0xf5bb
    7d3e:	4c 8b 7d 98          	mov    r15,QWORD PTR [rbp-0x68]
    7d42:	49 8b 77 20          	mov    rsi,QWORD PTR [r15+0x20]
    7d46:	41 80 67 09 f7       	and    BYTE PTR [r15+0x9],0xf7
    7d4b:	49 c7 47 30 00 00 00 	mov    QWORD PTR [r15+0x30],0x0
    7d52:	00 
    7d53:	49 c7 47 38 00 00 00 	mov    QWORD PTR [r15+0x38],0x0
    7d5a:	00 
    7d5b:	48 8b 06             	mov    rax,QWORD PTR [rsi]
    7d5e:	49 c7 47 40 00 00 00 	mov    QWORD PTR [r15+0x40],0x0
    7d65:	00 
    7d66:	25 80 00 00 00       	and    eax,0x80
    7d6b:	4c 89 7d 98          	mov    QWORD PTR [rbp-0x68],r15
    7d6f:	e9 37 fd ff ff       	jmp    0x7aab
    7d74:	4c 8b 7d b0          	mov    r15,QWORD PTR [rbp-0x50]
    7d78:	41 80 8f e1 00 00 00 	or     BYTE PTR [r15+0xe1],0x10
    7d7f:	10 
    7d80:	4c 8b 75 98          	mov    r14,QWORD PTR [rbp-0x68]
    7d84:	49 83 ce ff          	or     r14,0xffffffffffffffff
    7d88:	4c 89 7d b0          	mov    QWORD PTR [rbp-0x50],r15
    7d8c:	4c 89 75 98          	mov    QWORD PTR [rbp-0x68],r14
    7d90:	e9 28 f9 ff ff       	jmp    0x76bd
    7d95:	4c 8b 7d 98          	mov    r15,QWORD PTR [rbp-0x68]
    7d99:	49 8b 07             	mov    rax,QWORD PTR [r15]
    7d9c:	49 be 65 46 5e 55 55 	movabs r14,0x5555555e4665
    7da3:	55 00 00 
    7da6:	49 8d 8e 21 e4 04 00 	lea    rcx,[r14+0x4e421]
    7dad:	31 d2                	xor    edx,edx
    7daf:	bf 08 00 00 00       	mov    edi,0x8
    7db4:	44 8b 40 18          	mov    r8d,DWORD PTR [rax+0x18]
    7db8:	31 c0                	xor    eax,eax
    7dba:	49 be 77 46 5e 55 55 	movabs r14,0x5555555e4677
    7dc1:	55 00 00 
    7dc4:	4d 8d 6d f8          	lea    r13,[r13-0x8]
    7dc8:	4d 89 75 00          	mov    QWORD PTR [r13+0x0],r14
    7dcc:	4c 89 7d 98          	mov    QWORD PTR [rbp-0x68],r15
    7dd0:	e9 a5 82 ff ff       	jmp    0x7a
    7dd5:	e9 22 ff ff ff       	jmp    0x7cfc
    7dda:	49 8b 5d 48          	mov    rbx,QWORD PTR [r13+0x48]
    7dde:	4c 8b 7d 88          	mov    r15,QWORD PTR [rbp-0x78]
    7de2:	49 33 5f 28          	xor    rbx,QWORD PTR [r15+0x28]
    7de6:	75 60                	jne    0x7e48
    7de8:	49 83 c5 58          	add    r13,0x58
    7dec:	49 8b 5d 00          	mov    rbx,QWORD PTR [r13+0x0]
    7df0:	4d 8d 6d 08          	lea    r13,[r13+0x8]
    7df4:	4d 8b 65 00          	mov    r12,QWORD PTR [r13+0x0]
    7df8:	4d 8d 6d 08          	lea    r13,[r13+0x8]
    7dfc:	4c 8b 7d 98          	mov    r15,QWORD PTR [rbp-0x68]
    7e00:	4d 8b 7d 00          	mov    r15,QWORD PTR [r13+0x0]
    7e04:	4d 8d 6d 08          	lea    r13,[r13+0x8]
    7e08:	4c 8b 75 a0          	mov    r14,QWORD PTR [rbp-0x60]
    7e0c:	4d 8b 75 00          	mov    r14,QWORD PTR [r13+0x0]
    7e10:	4d 8d 6d 08          	lea    r13,[r13+0x8]
    7e14:	4c 89 7d 98          	mov    QWORD PTR [rbp-0x68],r15
    7e18:	4c 8b 7d a8          	mov    r15,QWORD PTR [rbp-0x58]
    7e1c:	4d 8b 7d 00          	mov    r15,QWORD PTR [r13+0x0]
    7e20:	4d 8d 6d 08          	lea    r13,[r13+0x8]
    7e24:	4c 89 7d a8          	mov    QWORD PTR [rbp-0x58],r15
    7e28:	4c 8b 7d b0          	mov    r15,QWORD PTR [rbp-0x50]
    7e2c:	4d 8b 7d 00          	mov    r15,QWORD PTR [r13+0x0]
    7e30:	4d 8d 6d 08          	lea    r13,[r13+0x8]
    7e34:	4c 89 7d b0          	mov    QWORD PTR [rbp-0x50],r15
    7e38:	4d 8b 7d 00          	mov    r15,QWORD PTR [r13+0x0]
    7e3c:	4d 8d 6d 08          	lea    r13,[r13+0x8]
    7e40:	4d 89 fe             	mov    r14,r15
    7e43:	e9 19 47 00 00       	jmp    0xc561
    7e48:	49 bf c0 59 5e 55 55 	movabs r15,0x5555555e59c0
    7e4f:	55 00 00 
    7e52:	4d 8d 6d f8          	lea    r13,[r13-0x8]
    7e56:	4d 89 7d 00          	mov    QWORD PTR [r13+0x0],r15
    7e5a:	e9 e0 71 00 00       	jmp    0xf03f
    7e5f:	90                   	nop
    7e60:	4d 8d 6d f8          	lea    r13,[r13-0x8]
    7e64:	4d 89 65 00          	mov    QWORD PTR [r13+0x0],r12
    7e68:	48 8b 87 88 02 00 00 	mov    rax,QWORD PTR [rdi+0x288]
    7e6f:	49 89 fc             	mov    r12,rdi
    7e72:	48 3d 30 01 00 00    	cmp    rax,0x130
    7e78:	0f 94 c1             	sete   cl
    7e7b:	48 3d cc 00 00 00    	cmp    rax,0xcc
    7e81:	0f 94 c2             	sete   dl
    7e84:	08 d1                	or     cl,dl
    7e86:	75 11                	jne    0x7e99
    7e88:	48 3d c7 00 00 00    	cmp    rax,0xc7
    7e8e:	76 09                	jbe    0x7e99
    7e90:	48 39 bf 68 04 00 00 	cmp    QWORD PTR [rdi+0x468],rdi
    7e97:	74 24                	je     0x7ebd
    7e99:	4c 89 e7             	mov    rdi,r12
    7e9c:	4d 8b 65 00          	mov    r12,QWORD PTR [r13+0x0]
    7ea0:	4d 8d 6d 08          	lea    r13,[r13+0x8]
    7ea4:	49 be 00 5a 5e 55 55 	movabs r14,0x5555555e5a00
    7eab:	55 00 00 
    7eae:	4d 8b be 88 cb 0a 00 	mov    r15,QWORD PTR [r14+0xacb88]
    7eb5:	4d 89 fe             	mov    r14,r15
    7eb8:	e9 ce 70 00 00       	jmp    0xef8b
    7ebd:	48 83 bf d0 03 00 00 	cmp    QWORD PTR [rdi+0x3d0],0x4
    7ec4:	04 
    7ec5:	74 d2                	je     0x7e99
    7ec7:	48 83 bf 90 03 00 00 	cmp    QWORD PTR [rdi+0x390],0xffffffffffffffff
    7ece:	ff 
    7ecf:	74 6a                	je     0x7f3b
    7ed1:	f6 87 1a 05 00 00 01 	test   BYTE PTR [rdi+0x51a],0x1
    7ed8:	74 bf                	je     0x7e99
    7eda:	48 81 bf d8 03 00 00 	cmp    QWORD PTR [rdi+0x3d8],0x3e8
    7ee1:	e8 03 00 00 
    7ee5:	76 b2                	jbe    0x7e99
    7ee7:	49 bf 31 5a 5e 55 55 	movabs r15,0x5555555e5a31
    7eee:	55 00 00 
    7ef1:	49 8d 87 4f 17 08 00 	lea    rax,[r15+0x8174f]
    7ef8:	48 8b 10             	mov    rdx,QWORD PTR [rax]
    7efb:	48 8b 47 28          	mov    rax,QWORD PTR [rdi+0x28]
    7eff:	48 8b 04 d0          	mov    rax,QWORD PTR [rax+rdx*8]
    7f03:	48 83 b8 18 02 00 00 	cmp    QWORD PTR [rax+0x218],0x0
    7f0a:	00 
    7f0b:	74 8c                	je     0x7e99
    7f0d:	49 8b 84 24 b0 02 00 	mov    rax,QWORD PTR [r12+0x2b0]
    7f14:	00 
    7f15:	49 c7 84 24 90 03 00 	mov    QWORD PTR [r12+0x390],0xffffffffffffffff
    7f1c:	00 ff ff ff ff 
    7f21:	48 85 c0             	test   rax,rax
    7f24:	74 57                	je     0x7f7d
    7f26:	48 c7 00 00 00 00 00 	mov    QWORD PTR [rax],0x0
    7f2d:	49 c7 84 24 b0 02 00 	mov    QWORD PTR [r12+0x2b0],0x0
    7f34:	00 00 00 00 00 
    7f39:	eb 42                	jmp    0x7f7d
    7f3b:	48 81 bf d8 03 00 00 	cmp    QWORD PTR [rdi+0x3d8],0x3e8
    7f42:	e8 03 00 00 
    7f46:	0f 86 82 00 00 00    	jbe    0x7fce
    7f4c:	49 bf 8c 5a 5e 55 55 	movabs r15,0x5555555e5a8c
    7f53:	55 00 00 
    7f56:	49 8d 87 f4 16 08 00 	lea    rax,[r15+0x816f4]
    7f5d:	48 8b 10             	mov    rdx,QWORD PTR [rax]
    7f60:	48 8b 47 28          	mov    rax,QWORD PTR [rdi+0x28]
    7f64:	48 8b 04 d0          	mov    rax,QWORD PTR [rax+rdx*8]
    7f68:	48 83 b8 18 02 00 00 	cmp    QWORD PTR [rax+0x218],0x0
    7f6f:	00 
    7f70:	74 5c                	je     0x7fce
    7f72:	41 f6 84 24 1a 05 00 	test   BYTE PTR [r12+0x51a],0x1
    7f79:	00 01 
    7f7b:	75 90                	jne    0x7f0d
    7f7d:	41 80 8c 24 19 05 00 	or     BYTE PTR [r12+0x519],0x40
    7f84:	00 40 
    7f86:	49 8b 7c 24 58       	mov    rdi,QWORD PTR [r12+0x58]
    7f8b:	be 10 00 00 00       	mov    esi,0x10
    7f90:	49 bf bf 5a 5e 55 55 	movabs r15,0x5555555e5abf
    7f97:	55 00 00 
    7f9a:	4d 8d 6d f8          	lea    r13,[r13-0x8]
    7f9e:	4d 89 7d 00          	mov    QWORD PTR [r13+0x0],r15
    7fa2:	e9 0c 74 00 00       	jmp    0xf3b3
    7fa7:	48 85 c0             	test   rax,rax
    7faa:	74 30                	je     0x7fdc
    7fac:	49 bf cb 5a 5e 55 55 	movabs r15,0x5555555e5acb
    7fb3:	55 00 00 
    7fb6:	49 8d 97 15 70 08 00 	lea    rdx,[r15+0x87015]
    7fbd:	48 8b 0a             	mov    rcx,QWORD PTR [rdx]
    7fc0:	49 8b 54 24 10       	mov    rdx,QWORD PTR [r12+0x10]
    7fc5:	48 89 04 ca          	mov    QWORD PTR [rdx+rcx*8],rax
    7fc9:	e9 cb fe ff ff       	jmp    0x7e99
    7fce:	41 80 a4 24 1a 05 00 	and    BYTE PTR [r12+0x51a],0xfd
    7fd5:	00 fd 
    7fd7:	e9 bd fe ff ff       	jmp    0x7e99
    7fdc:	48 83 c8 ff          	or     rax,0xffffffffffffffff
    7fe0:	4d 8b 65 00          	mov    r12,QWORD PTR [r13+0x0]
    7fe4:	4d 8d 6d 08          	lea    r13,[r13+0x8]
    7fe8:	4d 8b 7d 00          	mov    r15,QWORD PTR [r13+0x0]
    7fec:	4d 8d 6d 08          	lea    r13,[r13+0x8]
    7ff0:	4d 89 fe             	mov    r14,r15
    7ff3:	e9 a2 6f 00 00       	jmp    0xef9a
    7ff8:	49 8b 4d 38          	mov    rcx,QWORD PTR [r13+0x38]
    7ffc:	4c 8b 7d 88          	mov    r15,QWORD PTR [rbp-0x78]
    8000:	49 33 4f 28          	xor    rcx,QWORD PTR [r15+0x28]
    8004:	75 60                	jne    0x8066
    8006:	49 83 c5 48          	add    r13,0x48
    800a:	49 8b 5d 00          	mov    rbx,QWORD PTR [r13+0x0]
    800e:	4d 8d 6d 08          	lea    r13,[r13+0x8]
    8012:	4d 8b 65 00          	mov    r12,QWORD PTR [r13+0x0]
    8016:	4d 8d 6d 08          	lea    r13,[r13+0x8]
    801a:	4c 8b 7d 98          	mov    r15,QWORD PTR [rbp-0x68]
    801e:	4d 8b 7d 00          	mov    r15,QWORD PTR [r13+0x0]
    8022:	4d 8d 6d 08          	lea    r13,[r13+0x8]
    8026:	4c 8b 75 a0          	mov    r14,QWORD PTR [rbp-0x60]
    802a:	4d 8b 75 00          	mov    r14,QWORD PTR [r13+0x0]
    802e:	4d 8d 6d 08          	lea    r13,[r13+0x8]
    8032:	4c 89 7d 98          	mov    QWORD PTR [rbp-0x68],r15
    8036:	4c 8b 7d a8          	mov    r15,QWORD PTR [rbp-0x58]
    803a:	4d 8b 7d 00          	mov    r15,QWORD PTR [r13+0x0]
    803e:	4d 8d 6d 08          	lea    r13,[r13+0x8]
    8042:	4c 89 7d a8          	mov    QWORD PTR [rbp-0x58],r15
    8046:	4c 8b 7d b0          	mov    r15,QWORD PTR [rbp-0x50]
    804a:	4d 8b 7d 00          	mov    r15,QWORD PTR [r13+0x0]
    804e:	4d 8d 6d 08          	lea    r13,[r13+0x8]
    8052:	4c 89 7d b0          	mov    QWORD PTR [rbp-0x50],r15
    8056:	4d 8b 7d 00          	mov    r15,QWORD PTR [r13+0x0]
    805a:	4d 8d 6d 08          	lea    r13,[r13+0x8]
    805e:	4d 89 fe             	mov    r14,r15
    8061:	e9 1d 45 00 00       	jmp    0xc583
    8066:	49 bf e6 b3 5e 55 55 	movabs r15,0x5555555eb3e6
    806d:	55 00 00 
    8070:	4d 8d 6d f8          	lea    r13,[r13-0x8]
    8074:	4d 89 7d 00          	mov    QWORD PTR [r13+0x0],r15
    8078:	e9 c2 6f 00 00       	jmp    0xf03f
    807d:	90                   	nop
    807e:	90                   	nop
    807f:	49 bf fb b3 5e 55 55 	movabs r15,0x5555555eb3fb
    8086:	55 00 00 
    8089:	49 8d 87 c5 38 0b 00 	lea    rax,[r15+0xb38c5]
    8090:	49 bf 02 b4 5e 55 55 	movabs r15,0x5555555eb402
    8097:	55 00 00 
    809a:	49 8d 8f be 00 00 00 	lea    rcx,[r15+0xbe]
    80a1:	48 8b 10             	mov    rdx,QWORD PTR [rax]
    80a4:	48 89 08             	mov    QWORD PTR [rax],rcx
    80a7:	31 c0                	xor    eax,eax
    80a9:	49 bf 11 b4 5e 55 55 	movabs r15,0x5555555eb411
    80b0:	55 00 00 
    80b3:	49 89 97 cf 71 0a 00 	mov    QWORD PTR [r15+0xa71cf],rdx
    80ba:	4d 8b 7d 00          	mov    r15,QWORD PTR [r13+0x0]
    80be:	4d 8d 6d 08          	lea    r13,[r13+0x8]
    80c2:	4d 89 fe             	mov    r14,r15
    80c5:	e9 a3 6e 00 00       	jmp    0xef6d
    80ca:	4c 8b 7d a8          	mov    r15,QWORD PTR [rbp-0x58]
    80ce:	49 83 bf 50 01 00 00 	cmp    QWORD PTR [r15+0x150],0x0
    80d5:	00 
    80d6:	4c 89 7d a8          	mov    QWORD PTR [rbp-0x58],r15
    80da:	75 10                	jne    0x80ec
    80dc:	4c 8b 7d a8          	mov    r15,QWORD PTR [rbp-0x58]
    80e0:	49 89 5f 10          	mov    QWORD PTR [r15+0x10],rbx
    80e4:	49 89 5f 18          	mov    QWORD PTR [r15+0x18],rbx
    80e8:	4c 89 7d a8          	mov    QWORD PTR [rbp-0x58],r15
    80ec:	4c 8b 7d 98          	mov    r15,QWORD PTR [rbp-0x68]
    80f0:	4c 8b 78 08          	mov    r15,QWORD PTR [rax+0x8]
    80f4:	45 31 d2             	xor    r10d,r10d
    80f7:	4c 8b 75 a0          	mov    r14,QWORD PTR [rbp-0x60]
    80fb:	4d 89 d6             	mov    r14,r10
    80fe:	49 39 df             	cmp    r15,rbx
    8101:	4c 89 7d 98          	mov    QWORD PTR [rbp-0x68],r15
    8105:	4c 89 75 a0          	mov    QWORD PTR [rbp-0x60],r14
    8109:	0f 86 a0 09 00 00    	jbe    0x8aaf
    810f:	90                   	nop
    8110:	4c 8b 7d b0          	mov    r15,QWORD PTR [rbp-0x50]
    8114:	49 8b 47 08          	mov    rax,QWORD PTR [r15+0x8]
    8118:	4c 8b 75 a8          	mov    r14,QWORD PTR [rbp-0x58]
    811c:	4d 8b 8e 50 01 00 00 	mov    r9,QWORD PTR [r14+0x150]
    8123:	48 8b 70 50          	mov    rsi,QWORD PTR [rax+0x50]
    8127:	48 f7 06 00 01 00 00 	test   QWORD PTR [rsi],0x100
    812e:	4c 89 7d b0          	mov    QWORD PTR [rbp-0x50],r15
    8132:	4c 89 75 a8          	mov    QWORD PTR [rbp-0x58],r14
    8136:	0f 85 76 12 00 00    	jne    0x93b2
    813c:	4c 8b 7d a8          	mov    r15,QWORD PTR [rbp-0x58]
    8140:	49 8b 87 68 01 00 00 	mov    rax,QWORD PTR [r15+0x168]
    8147:	4d 8b 57 18          	mov    r10,QWORD PTR [r15+0x18]
    814b:	49 89 45 00          	mov    QWORD PTR [r13+0x0],rax
    814f:	4c 89 7d a8          	mov    QWORD PTR [rbp-0x58],r15
    8153:	49 bf 3a c9 5e 55 55 	movabs r15,0x5555555ec93a
    815a:	55 00 00 
    815d:	4d 8d 9f f6 1b 05 00 	lea    r11,[r15+0x51bf6]
    8164:	0f b6 0b             	movzx  ecx,BYTE PTR [rbx]
    8167:	45 85 c9             	test   r9d,r9d
    816a:	0f 84 b1 0e 00 00    	je     0x9021
    8170:	41 83 f9 13          	cmp    r9d,0x13
    8174:	0f 87 9e 0e 00 00    	ja     0x9018
    817a:	44 89 c8             	mov    eax,r9d
    817d:	49 63 04 83          	movsxd rax,DWORD PTR [r11+rax*4]
    8181:	4c 01 d8             	add    rax,r11
    8184:	4c 8b 3c 25 00 00 00 	mov    r15,QWORD PTR ds:0x0
    818b:	00 
    818c:	49 89 c6             	mov    r14,rax
    818f:	e9 65 6a 00 00       	jmp    0xebf9
    8194:	4c 8b 7d b0          	mov    r15,QWORD PTR [rbp-0x50]
    8198:	49 8b 47 08          	mov    rax,QWORD PTR [r15+0x8]
    819c:	48 8b 70 50          	mov    rsi,QWORD PTR [rax+0x50]
    81a0:	48 f7 06 00 01 00 00 	test   QWORD PTR [rsi],0x100
    81a7:	4c 89 7d b0          	mov    QWORD PTR [rbp-0x50],r15
    81ab:	74 70                	je     0x821d
    81ad:	4c 8b 7d a8          	mov    r15,QWORD PTR [rbp-0x58]
    81b1:	4d 8b 8f 68 01 00 00 	mov    r9,QWORD PTR [r15+0x168]
    81b8:	4d 8d 6d f8          	lea    r13,[r13-0x8]
    81bc:	4d 8b 77 18          	mov    r14,QWORD PTR [r15+0x18]
    81c0:	4d 89 75 00          	mov    QWORD PTR [r13+0x0],r14
    81c4:	31 d2                	xor    edx,edx
    81c6:	31 c0                	xor    eax,eax
    81c8:	4d 8d 6d f8          	lea    r13,[r13-0x8]
    81cc:	4d 8b 77 10          	mov    r14,QWORD PTR [r15+0x10]
    81d0:	4d 89 75 00          	mov    QWORD PTR [r13+0x0],r14
    81d4:	bf 08 00 00 00       	mov    edi,0x8
    81d9:	49 c7 c0 ff ff ff ff 	mov    r8,0xffffffffffffffff
    81e0:	49 be 94 c9 5e 55 55 	movabs r14,0x5555555ec994
    81e7:	55 00 00 
    81ea:	49 8d 8e 72 14 05 00 	lea    rcx,[r14+0x51472]
    81f1:	49 be 99 c9 5e 55 55 	movabs r14,0x5555555ec999
    81f8:	55 00 00 
    81fb:	4d 8d 6d f8          	lea    r13,[r13-0x8]
    81ff:	4d 89 75 00          	mov    QWORD PTR [r13+0x0],r14
    8203:	4c 89 7d a8          	mov    QWORD PTR [rbp-0x58],r15
    8207:	e9 6e 7e ff ff       	jmp    0x7a
    820c:	49 8b 75 00          	mov    rsi,QWORD PTR [r13+0x0]
    8210:	4d 8d 6d 08          	lea    r13,[r13+0x8]
    8214:	49 8b 7d 00          	mov    rdi,QWORD PTR [r13+0x0]
    8218:	4d 8d 6d 08          	lea    r13,[r13+0x8]
    821c:	90                   	nop
    821d:	4c 8b 7d 98          	mov    r15,QWORD PTR [rbp-0x68]
    8221:	49 c7 c7 ff ff ff ff 	mov    r15,0xffffffffffffffff
    8228:	4c 89 7d 98          	mov    QWORD PTR [rbp-0x68],r15
    822c:	49 8b 85 c8 00 00 00 	mov    rax,QWORD PTR [r13+0xc8]
    8233:	4c 8b 7d 88          	mov    r15,QWORD PTR [rbp-0x78]
    8237:	49 33 47 28          	xor    rax,QWORD PTR [r15+0x28]
    823b:	0f 85 70 29 00 00    	jne    0xabb1
    8241:	49 81 c5 d8 00 00 00 	add    r13,0xd8
    8248:	4c 8b 7d 98          	mov    r15,QWORD PTR [rbp-0x68]
    824c:	4c 89 f8             	mov    rax,r15
    824f:	49 8b 5d 00          	mov    rbx,QWORD PTR [r13+0x0]
    8253:	4d 8d 6d 08          	lea    r13,[r13+0x8]
    8257:	4d 8b 65 00          	mov    r12,QWORD PTR [r13+0x0]
    825b:	4d 8d 6d 08          	lea    r13,[r13+0x8]
    825f:	4d 8b 7d 00          	mov    r15,QWORD PTR [r13+0x0]
    8263:	4d 8d 6d 08          	lea    r13,[r13+0x8]
    8267:	4c 8b 75 a0          	mov    r14,QWORD PTR [rbp-0x60]
    826b:	4d 8b 75 00          	mov    r14,QWORD PTR [r13+0x0]
    826f:	4d 8d 6d 08          	lea    r13,[r13+0x8]
    8273:	4c 89 7d 98          	mov    QWORD PTR [rbp-0x68],r15
    8277:	4c 8b 7d a8          	mov    r15,QWORD PTR [rbp-0x58]
    827b:	4d 8b 7d 00          	mov    r15,QWORD PTR [r13+0x0]
    827f:	4d 8d 6d 08          	lea    r13,[r13+0x8]
    8283:	4c 89 7d a8          	mov    QWORD PTR [rbp-0x58],r15
    8287:	4c 8b 7d b0          	mov    r15,QWORD PTR [rbp-0x50]
    828b:	4d 8b 7d 00          	mov    r15,QWORD PTR [r13+0x0]
    828f:	4d 8d 6d 08          	lea    r13,[r13+0x8]
    8293:	4c 89 7d b0          	mov    QWORD PTR [rbp-0x50],r15
    8297:	4d 8b 7d 00          	mov    r15,QWORD PTR [r13+0x0]
    829b:	4d 8d 6d 08          	lea    r13,[r13+0x8]
    829f:	4d 89 fe             	mov    r14,r15
    82a2:	e9 76 42 00 00       	jmp    0xc51d
    82a7:	4c 8b 7d 98          	mov    r15,QWORD PTR [rbp-0x68]
    82ab:	49 39 c7             	cmp    r15,rax
    82ae:	4c 89 7d 98          	mov    QWORD PTR [rbp-0x68],r15
    82b2:	0f 86 6f 23 00 00    	jbe    0xa627
    82b8:	0f b6 4b 01          	movzx  ecx,BYTE PTR [rbx+0x1]
    82bc:	48 89 c3             	mov    rbx,rax
    82bf:	80 f9 2d             	cmp    cl,0x2d
    82c2:	74 37                	je     0x82fb
    82c4:	0f 87 34 09 00 00    	ja     0x8bfe
    82ca:	80 f9 0d             	cmp    cl,0xd
    82cd:	74 0f                	je     0x82de
    82cf:	0f 86 1e 09 00 00    	jbe    0x8bf3
    82d5:	80 f9 20             	cmp    cl,0x20
    82d8:	0f 85 20 09 00 00    	jne    0x8bfe
    82de:	48 83 c3 01          	add    rbx,0x1
    82e2:	4c 8b 7d 98          	mov    r15,QWORD PTR [rbp-0x68]
    82e6:	4c 39 fb             	cmp    rbx,r15
    82e9:	4c 89 7d 98          	mov    QWORD PTR [rbp-0x68],r15
    82ed:	0f 83 57 27 00 00    	jae    0xaa4a
    82f3:	0f b6 0b             	movzx  ecx,BYTE PTR [rbx]
    82f6:	80 f9 2d             	cmp    cl,0x2d
    82f9:	75 c9                	jne    0x82c4
    82fb:	4c 8b 7d b0          	mov    r15,QWORD PTR [rbp-0x50]
    82ff:	49 8b 47 08          	mov    rax,QWORD PTR [r15+0x8]
    8303:	48 8d 7b 01          	lea    rdi,[rbx+0x1]
    8307:	4d 85 d2             	test   r10,r10
    830a:	49 89 7d 08          	mov    QWORD PTR [r13+0x8],rdi
    830e:	41 0f 95 c3          	setne  r11b
    8312:	48 8b 70 50          	mov    rsi,QWORD PTR [rax+0x50]
    8316:	48 8b 16             	mov    rdx,QWORD PTR [rsi]
    8319:	4c 8b 75 98          	mov    r14,QWORD PTR [rbp-0x68]
    831d:	4c 39 f7             	cmp    rdi,r14
    8320:	4c 89 7d b0          	mov    QWORD PTR [rbp-0x50],r15
    8324:	4c 89 75 98          	mov    QWORD PTR [rbp-0x68],r14
    8328:	0f 83 b2 02 00 00    	jae    0x85e0
    832e:	49 8b 45 08          	mov    rax,QWORD PTR [r13+0x8]
    8332:	0f b6 4b 01          	movzx  ecx,BYTE PTR [rbx+0x1]
    8336:	4c 8d 60 01          	lea    r12,[rax+0x1]
    833a:	80 f9 2d             	cmp    cl,0x2d
    833d:	0f 85 98 0c 00 00    	jne    0x8fdb
    8343:	4c 8b 7d 98          	mov    r15,QWORD PTR [rbp-0x68]
    8347:	4d 39 e7             	cmp    r15,r12
    834a:	4c 89 7d 98          	mov    QWORD PTR [rbp-0x68],r15
    834e:	0f 86 90 26 00 00    	jbe    0xa9e4
    8354:	49 8b 45 08          	mov    rax,QWORD PTR [r13+0x8]
    8358:	4c 89 e3             	mov    rbx,r12
    835b:	4c 8d 63 01          	lea    r12,[rbx+0x1]
    835f:	0f b6 48 01          	movzx  ecx,BYTE PTR [rax+0x1]
    8363:	80 f9 3e             	cmp    cl,0x3e
    8366:	0f 85 1a 0b 00 00    	jne    0x8e86
    836c:	49 8b 45 00          	mov    rax,QWORD PTR [r13+0x0]
    8370:	4c 8b 7d a8          	mov    r15,QWORD PTR [rbp-0x58]
    8374:	4d 89 67 08          	mov    QWORD PTR [r15+0x8],r12
    8378:	49 c7 87 50 01 00 00 	mov    QWORD PTR [r15+0x150],0x0
    837f:	00 00 00 00 
    8383:	49 89 87 68 01 00 00 	mov    QWORD PTR [r15+0x168],rax
    838a:	49 8b 47 10          	mov    rax,QWORD PTR [r15+0x10]
    838e:	4d 89 57 18          	mov    QWORD PTR [r15+0x18],r10
    8392:	48 85 c0             	test   rax,rax
    8395:	4c 89 7d a8          	mov    QWORD PTR [rbp-0x58],r15
    8399:	75 09                	jne    0x83a4
    839b:	45 84 db             	test   r11b,r11b
    839e:	0f 85 7c 27 00 00    	jne    0xab20
    83a4:	4c 89 d3             	mov    rbx,r10
    83a7:	45 31 e4             	xor    r12d,r12d
    83aa:	80 e6 01             	and    dh,0x1
    83ad:	0f 84 0a 04 00 00    	je     0x87bd
    83b3:	90                   	nop
    83b4:	4c 8b 7d a8          	mov    r15,QWORD PTR [rbp-0x58]
    83b8:	4d 8b 8f 68 01 00 00 	mov    r9,QWORD PTR [r15+0x168]
    83bf:	4d 8d 6d f8          	lea    r13,[r13-0x8]
    83c3:	49 89 5d 00          	mov    QWORD PTR [r13+0x0],rbx
    83c7:	49 be 2f cb 5e 55 55 	movabs r14,0x5555555ecb2f
    83ce:	55 00 00 
    83d1:	49 8d 8e d7 12 05 00 	lea    rcx,[r14+0x512d7]
    83d8:	31 d2                	xor    edx,edx
    83da:	4d 8d 6d f8          	lea    r13,[r13-0x8]
    83de:	49 89 45 00          	mov    QWORD PTR [r13+0x0],rax
    83e2:	4d 89 e0             	mov    r8,r12
    83e5:	31 c0                	xor    eax,eax
    83e7:	bf 08 00 00 00       	mov    edi,0x8
    83ec:	49 be 41 cb 5e 55 55 	movabs r14,0x5555555ecb41
    83f3:	55 00 00 
    83f6:	4d 8d 6d f8          	lea    r13,[r13-0x8]
    83fa:	4d 89 75 00          	mov    QWORD PTR [r13+0x0],r14
    83fe:	4c 89 7d a8          	mov    QWORD PTR [rbp-0x58],r15
    8402:	e9 73 7c ff ff       	jmp    0x7a
    8407:	49 8b 55 00          	mov    rdx,QWORD PTR [r13+0x0]
    840b:	4d 8d 6d 08          	lea    r13,[r13+0x8]
    840f:	4c 8b 7d a8          	mov    r15,QWORD PTR [rbp-0x58]
    8413:	49 8b 47 10          	mov    rax,QWORD PTR [r15+0x10]
    8417:	49 8b 5f 18          	mov    rbx,QWORD PTR [r15+0x18]
    841b:	49 8b 4d 00          	mov    rcx,QWORD PTR [r13+0x0]
    841f:	4d 8d 6d 08          	lea    r13,[r13+0x8]
    8423:	4c 89 7d a8          	mov    QWORD PTR [rbp-0x58],r15
    8427:	e9 91 03 00 00       	jmp    0x87bd
    842c:	48 89 d8             	mov    rax,rbx
    842f:	4c 8b 7d a8          	mov    r15,QWORD PTR [rbp-0x58]
    8433:	49 2b 47 08          	sub    rax,QWORD PTR [r15+0x8]
    8437:	48 83 f8 02          	cmp    rax,0x2
    843b:	4c 89 7d a8          	mov    QWORD PTR [rbp-0x58],r15
    843f:	7f 13                	jg     0x8454
    8441:	4c 8b 7d a8          	mov    r15,QWORD PTR [rbp-0x58]
    8445:	49 c7 87 60 01 00 00 	mov    QWORD PTR [r15+0x160],0x0
    844c:	00 00 00 00 
    8450:	4c 89 7d a8          	mov    QWORD PTR [rbp-0x58],r15
    8454:	4c 8b 7d 98          	mov    r15,QWORD PTR [rbp-0x68]
    8458:	4d 39 e7             	cmp    r15,r12
    845b:	4c 89 7d 98          	mov    QWORD PTR [rbp-0x68],r15
    845f:	0f 86 a1 25 00 00    	jbe    0xaa06
    8465:	49 c7 45 00 00 00 00 	mov    QWORD PTR [r13+0x0],0x0
    846c:	00 
    846d:	0f b6 4b 01          	movzx  ecx,BYTE PTR [rbx+0x1]
    8471:	4c 89 e3             	mov    rbx,r12
    8474:	ba 01 00 00 00       	mov    edx,0x1
    8479:	80 f9 20             	cmp    cl,0x20
    847c:	77 19                	ja     0x8497
    847e:	48 bf 00 26 00 00 01 	movabs rdi,0x100002600
    8485:	00 00 00 
    8488:	48 89 d0             	mov    rax,rdx
    848b:	48 d3 e0             	shl    rax,cl
    848e:	48 85 f8             	test   rax,rdi
    8491:	0f 85 c6 12 00 00    	jne    0x975d
    8497:	4c 8b 7d b0          	mov    r15,QWORD PTR [rbp-0x50]
    849b:	49 8b 7f 58          	mov    rdi,QWORD PTR [r15+0x58]
    849f:	be 20 00 00 00       	mov    esi,0x20
    84a4:	41 88 4d 18          	mov    BYTE PTR [r13+0x18],cl
    84a8:	4c 8b 75 a8          	mov    r14,QWORD PTR [rbp-0x58]
    84ac:	49 c7 46 28 01 00 00 	mov    QWORD PTR [r14+0x28],0x1
    84b3:	00 
    84b4:	4d 89 55 08          	mov    QWORD PTR [r13+0x8],r10
    84b8:	4c 89 7d b0          	mov    QWORD PTR [rbp-0x50],r15
    84bc:	49 bf c2 cb 5e 55 55 	movabs r15,0x5555555ecbc2
    84c3:	55 00 00 
    84c6:	4d 8d 6d f8          	lea    r13,[r13-0x8]
    84ca:	4d 89 7d 00          	mov    QWORD PTR [r13+0x0],r15
    84ce:	4c 89 75 a8          	mov    QWORD PTR [rbp-0x58],r14
    84d2:	e9 e0 6f 00 00       	jmp    0xf4b7
    84d7:	4c 8b 7d a8          	mov    r15,QWORD PTR [rbp-0x58]
    84db:	49 89 47 30          	mov    QWORD PTR [r15+0x30],rax
    84df:	48 85 c0             	test   rax,rax
    84e2:	4c 89 7d a8          	mov    QWORD PTR [rbp-0x58],r15
    84e6:	0f 84 a8 fc ff ff    	je     0x8194
    84ec:	41 0f b6 4d 18       	movzx  ecx,BYTE PTR [r13+0x18]
    84f1:	4c 8d 63 01          	lea    r12,[rbx+0x1]
    84f5:	4d 8b 55 08          	mov    r10,QWORD PTR [r13+0x8]
    84f9:	4c 8b 7d 98          	mov    r15,QWORD PTR [rbp-0x68]
    84fd:	4d 39 fc             	cmp    r12,r15
    8500:	88 08                	mov    BYTE PTR [rax],cl
    8502:	4c 8b 75 a8          	mov    r14,QWORD PTR [rbp-0x58]
    8506:	49 89 4e 20          	mov    QWORD PTR [r14+0x20],rcx
    850a:	49 c7 46 40 00 00 00 	mov    QWORD PTR [r14+0x40],0x0
    8511:	00 
    8512:	4c 89 7d 98          	mov    QWORD PTR [rbp-0x68],r15
    8516:	4c 89 75 a8          	mov    QWORD PTR [rbp-0x58],r14
    851a:	0f 83 69 25 00 00    	jae    0xaa89
    8520:	0f b6 4b 01          	movzx  ecx,BYTE PTR [rbx+0x1]
    8524:	4c 89 e3             	mov    rbx,r12
    8527:	48 8d 43 01          	lea    rax,[rbx+0x1]
    852b:	80 f9 2d             	cmp    cl,0x2d
    852e:	74 7e                	je     0x85ae
    8530:	77 18                	ja     0x854a
    8532:	80 f9 0d             	cmp    cl,0xd
    8535:	0f 84 6c fd ff ff    	je     0x82a7
    853b:	0f 86 c9 0b 00 00    	jbe    0x910a
    8541:	80 f9 20             	cmp    cl,0x20
    8544:	0f 84 5d fd ff ff    	je     0x82a7
    854a:	4c 8b 7d a8          	mov    r15,QWORD PTR [rbp-0x58]
    854e:	49 8b 57 28          	mov    rdx,QWORD PTR [r15+0x28]
    8552:	48 83 fa 20          	cmp    rdx,0x20
    8556:	4c 89 7d a8          	mov    QWORD PTR [rbp-0x58],r15
    855a:	0f 84 cc 0b 00 00    	je     0x912c
    8560:	90                   	nop
    8561:	4c 8b 7d a8          	mov    r15,QWORD PTR [rbp-0x58]
    8565:	49 8b 77 30          	mov    rsi,QWORD PTR [r15+0x30]
    8569:	48 8d 7a 01          	lea    rdi,[rdx+0x1]
    856d:	49 89 7f 28          	mov    QWORD PTR [r15+0x28],rdi
    8571:	88 0c 32             	mov    BYTE PTR [rdx+rsi*1],cl
    8574:	49 8b 77 20          	mov    rsi,QWORD PTR [r15+0x20]
    8578:	48 89 f2             	mov    rdx,rsi
    857b:	48 c1 e2 05          	shl    rdx,0x5
    857f:	48 29 f2             	sub    rdx,rsi
    8582:	48 01 d1             	add    rcx,rdx
    8585:	49 89 4f 20          	mov    QWORD PTR [r15+0x20],rcx
    8589:	4c 8b 75 98          	mov    r14,QWORD PTR [rbp-0x68]
    858d:	49 39 c6             	cmp    r14,rax
    8590:	4c 89 7d a8          	mov    QWORD PTR [rbp-0x58],r15
    8594:	4c 89 75 98          	mov    QWORD PTR [rbp-0x68],r14
    8598:	0f 86 27 25 00 00    	jbe    0xaac5
    859e:	0f b6 08             	movzx  ecx,BYTE PTR [rax]
    85a1:	48 89 c3             	mov    rbx,rax
    85a4:	48 8d 43 01          	lea    rax,[rbx+0x1]
    85a8:	80 f9 2d             	cmp    cl,0x2d
    85ab:	75 83                	jne    0x8530
    85ad:	90                   	nop
    85ae:	49 89 45 08          	mov    QWORD PTR [r13+0x8],rax
    85b2:	48 89 c7             	mov    rdi,rax
    85b5:	4c 8b 7d b0          	mov    r15,QWORD PTR [rbp-0x50]
    85b9:	49 8b 47 08          	mov    rax,QWORD PTR [r15+0x8]
    85bd:	4d 85 d2             	test   r10,r10
    85c0:	41 0f 95 c3          	setne  r11b
    85c4:	48 8b 70 50          	mov    rsi,QWORD PTR [rax+0x50]
    85c8:	48 8b 16             	mov    rdx,QWORD PTR [rsi]
    85cb:	4c 8b 75 98          	mov    r14,QWORD PTR [rbp-0x68]
    85cf:	49 39 fe             	cmp    r14,rdi
    85d2:	4c 89 7d b0          	mov    QWORD PTR [rbp-0x50],r15
    85d6:	4c 89 75 98          	mov    QWORD PTR [rbp-0x68],r14
    85da:	0f 87 4e fd ff ff    	ja     0x832e
    85e0:	4c 8b 7d a8          	mov    r15,QWORD PTR [rbp-0x58]
    85e4:	49 8b 47 10          	mov    rax,QWORD PTR [r15+0x10]
    85e8:	4c 89 d3             	mov    rbx,r10
    85eb:	b9 0f 00 00 00       	mov    ecx,0xf
    85f0:	48 85 c0             	test   rax,rax
    85f3:	41 0f 94 c4          	sete   r12b
    85f7:	45 21 e3             	and    r11d,r12d
    85fa:	49 89 fc             	mov    r12,rdi
    85fd:	4c 89 7d a8          	mov    QWORD PTR [rbp-0x58],r15
    8601:	e9 38 09 00 00       	jmp    0x8f3e
    8606:	4c 8b 7d 98          	mov    r15,QWORD PTR [rbp-0x68]
    860a:	4d 39 e7             	cmp    r15,r12
    860d:	4c 89 7d 98          	mov    QWORD PTR [rbp-0x68],r15
    8611:	0f 86 e9 22 00 00    	jbe    0xa900
    8617:	0f b6 4b 01          	movzx  ecx,BYTE PTR [rbx+0x1]
    861b:	4c 89 e3             	mov    rbx,r12
    861e:	4c 8d 63 01          	lea    r12,[rbx+0x1]
    8622:	80 f9 2d             	cmp    cl,0x2d
    8625:	75 46                	jne    0x866d
    8627:	4c 8b 7d 98          	mov    r15,QWORD PTR [rbp-0x68]
    862b:	4d 39 e7             	cmp    r15,r12
    862e:	4c 89 7d 98          	mov    QWORD PTR [rbp-0x68],r15
    8632:	0f 86 64 22 00 00    	jbe    0xa89c
    8638:	0f b6 4b 01          	movzx  ecx,BYTE PTR [rbx+0x1]
    863c:	4c 89 e3             	mov    rbx,r12
    863f:	4c 8d 63 01          	lea    r12,[rbx+0x1]
    8643:	80 f9 2d             	cmp    cl,0x2d
    8646:	75 25                	jne    0x866d
    8648:	4c 8b 7d 98          	mov    r15,QWORD PTR [rbp-0x68]
    864c:	4d 39 e7             	cmp    r15,r12
    864f:	4c 89 7d 98          	mov    QWORD PTR [rbp-0x68],r15
    8653:	0f 86 47 23 00 00    	jbe    0xa9a0
    8659:	0f b6 4b 01          	movzx  ecx,BYTE PTR [rbx+0x1]
    865d:	4c 89 e3             	mov    rbx,r12
    8660:	4c 8d 63 01          	lea    r12,[rbx+0x1]
    8664:	80 f9 23             	cmp    cl,0x23
    8667:	0f 84 bf fd ff ff    	je     0x842c
    866d:	80 f9 3c             	cmp    cl,0x3c
    8670:	75 64                	jne    0x86d6
    8672:	4c 8b 7d 98          	mov    r15,QWORD PTR [rbp-0x68]
    8676:	4d 39 e7             	cmp    r15,r12
    8679:	4c 89 7d 98          	mov    QWORD PTR [rbp-0x68],r15
    867d:	0f 86 67 1e 00 00    	jbe    0xa4ea
    8683:	0f b6 4b 01          	movzx  ecx,BYTE PTR [rbx+0x1]
    8687:	49 c7 45 00 01 00 00 	mov    QWORD PTR [r13+0x0],0x1
    868e:	00 
    868f:	49 89 da             	mov    r10,rbx
    8692:	4c 89 e3             	mov    rbx,r12
    8695:	4c 8d 63 01          	lea    r12,[rbx+0x1]
    8699:	80 f9 21             	cmp    cl,0x21
    869c:	0f 84 64 ff ff ff    	je     0x8606
    86a2:	80 f9 3c             	cmp    cl,0x3c
    86a5:	75 2f                	jne    0x86d6
    86a7:	4c 8b 7d 98          	mov    r15,QWORD PTR [rbp-0x68]
    86ab:	4d 39 e7             	cmp    r15,r12
    86ae:	4c 89 7d 98          	mov    QWORD PTR [rbp-0x68],r15
    86b2:	0f 86 af 22 00 00    	jbe    0xa967
    86b8:	41 0f b6 0c 24       	movzx  ecx,BYTE PTR [r12]
    86bd:	49 89 da             	mov    r10,rbx
    86c0:	4c 89 e3             	mov    rbx,r12
    86c3:	4c 8d 63 01          	lea    r12,[rbx+0x1]
    86c7:	80 f9 21             	cmp    cl,0x21
    86ca:	0f 84 36 ff ff ff    	je     0x8606
    86d0:	80 f9 3c             	cmp    cl,0x3c
    86d3:	74 d2                	je     0x86a7
    86d5:	90                   	nop
    86d6:	4c 8b 7d 98          	mov    r15,QWORD PTR [rbp-0x68]
    86da:	4d 39 e7             	cmp    r15,r12
    86dd:	4c 89 7d 98          	mov    QWORD PTR [rbp-0x68],r15
    86e1:	0f 86 75 1d 00 00    	jbe    0xa45c
    86e7:	0f b6 4b 01          	movzx  ecx,BYTE PTR [rbx+0x1]
    86eb:	4d 89 e2             	mov    r10,r12
    86ee:	49 c7 45 00 00 00 00 	mov    QWORD PTR [r13+0x0],0x0
    86f5:	00 
    86f6:	49 8d 5a 01          	lea    rbx,[r10+0x1]
    86fa:	80 f9 3c             	cmp    cl,0x3c
    86fd:	0f 85 2e 09 00 00    	jne    0x9031
    8703:	4c 8b 7d 98          	mov    r15,QWORD PTR [rbp-0x68]
    8707:	49 39 df             	cmp    r15,rbx
    870a:	4c 89 7d 98          	mov    QWORD PTR [rbp-0x68],r15
    870e:	0f 86 99 1e 00 00    	jbe    0xa5ad
    8714:	49 c7 45 00 01 00 00 	mov    QWORD PTR [r13+0x0],0x1
    871b:	00 
    871c:	41 0f b6 4a 01       	movzx  ecx,BYTE PTR [r10+0x1]
    8721:	e9 6f ff ff ff       	jmp    0x8695
    8726:	4c 8b 7d 98          	mov    r15,QWORD PTR [rbp-0x68]
    872a:	49 39 df             	cmp    r15,rbx
    872d:	4c 89 7d 98          	mov    QWORD PTR [rbp-0x68],r15
    8731:	0f 87 2d fa ff ff    	ja     0x8164
    8737:	44 89 c8             	mov    eax,r9d
    873a:	4c 8b 7d a8          	mov    r15,QWORD PTR [rbp-0x58]
    873e:	49 89 5f 08          	mov    QWORD PTR [r15+0x8],rbx
    8742:	49 89 87 50 01 00 00 	mov    QWORD PTR [r15+0x150],rax
    8749:	49 8b 45 00          	mov    rax,QWORD PTR [r13+0x0]
    874d:	49 89 87 68 01 00 00 	mov    QWORD PTR [r15+0x168],rax
    8754:	4c 8b 75 b0          	mov    r14,QWORD PTR [rbp-0x50]
    8758:	49 8b 46 08          	mov    rax,QWORD PTR [r14+0x8]
    875c:	48 8b 70 50          	mov    rsi,QWORD PTR [rax+0x50]
    8760:	49 8b 47 10          	mov    rax,QWORD PTR [r15+0x10]
    8764:	48 85 c0             	test   rax,rax
    8767:	48 8b 16             	mov    rdx,QWORD PTR [rsi]
    876a:	41 0f 94 c3          	sete   r11b
    876e:	45 85 c9             	test   r9d,r9d
    8771:	4c 89 7d a8          	mov    QWORD PTR [rbp-0x58],r15
    8775:	4c 89 75 b0          	mov    QWORD PTR [rbp-0x50],r14
    8779:	0f 85 49 24 00 00    	jne    0xabc8
    877f:	48 85 db             	test   rbx,rbx
    8782:	41 0f 95 c4          	setne  r12b
    8786:	45 21 e3             	and    r11d,r12d
    8789:	4c 8b 7d a8          	mov    r15,QWORD PTR [rbp-0x58]
    878d:	49 89 5f 18          	mov    QWORD PTR [r15+0x18],rbx
    8791:	49 c7 c4 fe ff ff ff 	mov    r12,0xfffffffffffffffe
    8798:	45 84 db             	test   r11b,r11b
    879b:	4c 89 7d a8          	mov    QWORD PTR [rbp-0x58],r15
    879f:	74 13                	je     0x87b4
    87a1:	4c 8b 7d a8          	mov    r15,QWORD PTR [rbp-0x58]
    87a5:	49 8b 07             	mov    rax,QWORD PTR [r15]
    87a8:	48 8b 00             	mov    rax,QWORD PTR [rax]
    87ab:	49 89 47 10          	mov    QWORD PTR [r15+0x10],rax
    87af:	90                   	nop
    87b0:	4c 89 7d a8          	mov    QWORD PTR [rbp-0x58],r15
    87b4:	80 e6 01             	and    dh,0x1
    87b7:	0f 85 f7 fb ff ff    	jne    0x83b4
    87bd:	48 39 d8             	cmp    rax,rbx
    87c0:	0f 84 e0 01 00 00    	je     0x89a6
    87c6:	4c 8b 7d a8          	mov    r15,QWORD PTR [rbp-0x58]
    87ca:	41 0f b6 97 a0 01 00 	movzx  edx,BYTE PTR [r15+0x1a0]
    87d1:	00 
    87d2:	f6 c2 20             	test   dl,0x20
    87d5:	4c 89 7d a8          	mov    QWORD PTR [rbp-0x58],r15
    87d9:	0f 84 9b 0b 00 00    	je     0x937a
    87df:	4c 8b 7d b0          	mov    r15,QWORD PTR [rbp-0x50]
    87e3:	49 8b 47 08          	mov    rax,QWORD PTR [r15+0x8]
    87e7:	4c 8b 75 a8          	mov    r14,QWORD PTR [rbp-0x58]
    87eb:	4d 8b 86 60 01 00 00 	mov    r8,QWORD PTR [r14+0x160]
    87f2:	48 8b 70 50          	mov    rsi,QWORD PTR [rax+0x50]
    87f6:	48 f7 06 00 01 00 00 	test   QWORD PTR [rsi],0x100
    87fd:	4c 89 7d b0          	mov    QWORD PTR [rbp-0x50],r15
    8801:	4c 89 75 a8          	mov    QWORD PTR [rbp-0x58],r14
    8805:	0f 85 22 12 00 00    	jne    0x9a2d
    880b:	4c 8b 7d a8          	mov    r15,QWORD PTR [rbp-0x58]
    880f:	49 8b 87 48 01 00 00 	mov    rax,QWORD PTR [r15+0x148]
    8816:	4d 85 c0             	test   r8,r8
    8819:	4c 89 7d a8          	mov    QWORD PTR [rbp-0x58],r15
    881d:	0f 84 88 00 00 00    	je     0x88ab
    8823:	48 85 c0             	test   rax,rax
    8826:	0f 84 ee 13 00 00    	je     0x9c1a
    882c:	48 8b 50 08          	mov    rdx,QWORD PTR [rax+0x8]
    8830:	48 8b 18             	mov    rbx,QWORD PTR [rax]
    8833:	66 0f ef c0          	pxor   xmm0,xmm0
    8837:	4c 8b 7d a8          	mov    r15,QWORD PTR [rbp-0x58]
    883b:	49 89 97 48 01 00 00 	mov    QWORD PTR [r15+0x148],rdx
    8842:	0f 11 03             	movups XMMWORD PTR [rbx],xmm0
    8845:	0f 11 43 10          	movups XMMWORD PTR [rbx+0x10],xmm0
    8849:	0f 11 43 20          	movups XMMWORD PTR [rbx+0x20],xmm0
    884d:	0f 11 43 30          	movups XMMWORD PTR [rbx+0x30],xmm0
    8851:	0f 11 43 40          	movups XMMWORD PTR [rbx+0x40],xmm0
    8855:	4c 89 7d a8          	mov    QWORD PTR [rbp-0x58],r15
    8859:	49 bf 48 cf 5e 55 55 	movabs r15,0x5555555ecf48
    8860:	55 00 00 
    8863:	49 8d 97 98 05 08 00 	lea    rdx,[r15+0x80598]
    886a:	80 4b 48 02          	or     BYTE PTR [rbx+0x48],0x2
    886e:	48 89 13             	mov    QWORD PTR [rbx],rdx
    8871:	4c 8b 7d a8          	mov    r15,QWORD PTR [rbp-0x58]
    8875:	49 03 97 60 01 00 00 	add    rdx,QWORD PTR [r15+0x160]
    887c:	48 89 53 08          	mov    QWORD PTR [rbx+0x8],rdx
    8880:	49 8b 97 38 01 00 00 	mov    rdx,QWORD PTR [r15+0x138]
    8887:	48 89 02             	mov    QWORD PTR [rdx],rax
    888a:	48 83 c0 08          	add    rax,0x8
    888e:	49 c7 87 60 01 00 00 	mov    QWORD PTR [r15+0x160],0x0
    8895:	00 00 00 00 
    8899:	49 89 87 38 01 00 00 	mov    QWORD PTR [r15+0x138],rax
    88a0:	49 8b 87 48 01 00 00 	mov    rax,QWORD PTR [r15+0x148]
    88a7:	4c 89 7d a8          	mov    QWORD PTR [rbp-0x58],r15
    88ab:	48 85 c0             	test   rax,rax
    88ae:	0f 84 ee 12 00 00    	je     0x9ba2
    88b4:	48 8b 50 08          	mov    rdx,QWORD PTR [rax+0x8]
    88b8:	4c 8b 7d a0          	mov    r15,QWORD PTR [rbp-0x60]
    88bc:	4c 8b 38             	mov    r15,QWORD PTR [rax]
    88bf:	4c 8b 75 a8          	mov    r14,QWORD PTR [rbp-0x58]
    88c3:	49 89 96 48 01 00 00 	mov    QWORD PTR [r14+0x148],rdx
    88ca:	4c 89 7d a0          	mov    QWORD PTR [rbp-0x60],r15
    88ce:	4c 89 75 a8          	mov    QWORD PTR [rbp-0x58],r14
    88d2:	4c 8b 7d a8          	mov    r15,QWORD PTR [rbp-0x58]
    88d6:	49 8b 17             	mov    rdx,QWORD PTR [r15]
    88d9:	f3 0f 6f 0a          	movdqu xmm1,XMMWORD PTR [rdx]
    88dd:	4c 8b 75 a0          	mov    r14,QWORD PTR [rbp-0x60]
    88e1:	41 0f 11 0e          	movups XMMWORD PTR [r14],xmm1
    88e5:	f3 0f 6f 52 10       	movdqu xmm2,XMMWORD PTR [rdx+0x10]
    88ea:	41 0f 11 56 10       	movups XMMWORD PTR [r14+0x10],xmm2
    88ef:	f3 0f 6f 5a 20       	movdqu xmm3,XMMWORD PTR [rdx+0x20]
    88f4:	41 0f 11 5e 20       	movups XMMWORD PTR [r14+0x20],xmm3
    88f9:	f3 0f 6f 62 30       	movdqu xmm4,XMMWORD PTR [rdx+0x30]
    88fe:	41 0f 11 66 30       	movups XMMWORD PTR [r14+0x30],xmm4
    8903:	f3 0f 6f 6a 40       	movdqu xmm5,XMMWORD PTR [rdx+0x40]
    8908:	41 0f 11 6e 40       	movups XMMWORD PTR [r14+0x40],xmm5
    890d:	41 0f b6 56 48       	movzx  edx,BYTE PTR [r14+0x48]
    8912:	49 8b 4f 10          	mov    rcx,QWORD PTR [r15+0x10]
    8916:	49 8b 77 18          	mov    rsi,QWORD PTR [r15+0x18]
    891a:	49 c7 46 40 00 00 00 	mov    QWORD PTR [r14+0x40],0x0
    8921:	00 
    8922:	89 d7                	mov    edi,edx
    8924:	49 89 0e             	mov    QWORD PTR [r14],rcx
    8927:	83 e7 77             	and    edi,0x77
    892a:	49 89 76 08          	mov    QWORD PTR [r14+0x8],rsi
    892e:	41 88 7e 48          	mov    BYTE PTR [r14+0x48],dil
    8932:	f6 c2 10             	test   dl,0x10
    8935:	4c 89 7d a8          	mov    QWORD PTR [rbp-0x58],r15
    8939:	4c 89 75 a0          	mov    QWORD PTR [rbp-0x60],r14
    893d:	74 42                	je     0x8981
    893f:	49 8b 5d 10          	mov    rbx,QWORD PTR [r13+0x10]
    8943:	48 89 f7             	mov    rdi,rsi
    8946:	48 29 cf             	sub    rdi,rcx
    8949:	48 39 7b 30          	cmp    QWORD PTR [rbx+0x30],rdi
    894d:	0f 83 44 11 00 00    	jae    0x9a97
    8953:	4c 8b 7d a8          	mov    r15,QWORD PTR [rbp-0x58]
    8957:	49 8b 3f             	mov    rdi,QWORD PTR [r15]
    895a:	4c 8b 75 a0          	mov    r14,QWORD PTR [rbp-0x60]
    895e:	49 8b 56 10          	mov    rdx,QWORD PTR [r14+0x10]
    8962:	48 8b 3f             	mov    rdi,QWORD PTR [rdi]
    8965:	48 29 fe             	sub    rsi,rdi
    8968:	48 29 f9             	sub    rcx,rdi
    896b:	48 01 d6             	add    rsi,rdx
    896e:	48 01 d1             	add    rcx,rdx
    8971:	49 89 76 18          	mov    QWORD PTR [r14+0x18],rsi
    8975:	49 89 4e 10          	mov    QWORD PTR [r14+0x10],rcx
    8979:	4c 89 7d a8          	mov    QWORD PTR [rbp-0x58],r15
    897d:	4c 89 75 a0          	mov    QWORD PTR [rbp-0x60],r14
    8981:	4c 8b 7d a8          	mov    r15,QWORD PTR [rbp-0x58]
    8985:	49 8b 97 38 01 00 00 	mov    rdx,QWORD PTR [r15+0x138]
    898c:	48 c7 40 08 00 00 00 	mov    QWORD PTR [rax+0x8],0x0
    8993:	00 
    8994:	48 89 02             	mov    QWORD PTR [rdx],rax
    8997:	48 83 c0 08          	add    rax,0x8
    899b:	49 89 87 38 01 00 00 	mov    QWORD PTR [r15+0x138],rax
    89a2:	4c 89 7d a8          	mov    QWORD PTR [rbp-0x58],r15
    89a6:	4c 8b 7d a8          	mov    r15,QWORD PTR [rbp-0x58]
    89aa:	49 83 bf 50 01 00 00 	cmp    QWORD PTR [r15+0x150],0x0
    89b1:	00 
    89b2:	4c 89 7d a8          	mov    QWORD PTR [rbp-0x58],r15
    89b6:	0f 85 f5 06 00 00    	jne    0x90b1
    89bc:	4c 8b 7d a8          	mov    r15,QWORD PTR [rbp-0x58]
    89c0:	49 8b 47 08          	mov    rax,QWORD PTR [r15+0x8]
    89c4:	49 89 47 10          	mov    QWORD PTR [r15+0x10],rax
    89c8:	49 89 47 18          	mov    QWORD PTR [r15+0x18],rax
    89cc:	4c 89 7d a8          	mov    QWORD PTR [rbp-0x58],r15
    89d0:	49 83 fc fe          	cmp    r12,0xfffffffffffffffe
    89d4:	0f 84 b1 00 00 00    	je     0x8a8b
    89da:	4d 85 e4             	test   r12,r12
    89dd:	0f 84 5f 0c 00 00    	je     0x9642
    89e3:	49 8b 45 10          	mov    rax,QWORD PTR [r13+0x10]
    89e7:	48 83 78 08 00       	cmp    QWORD PTR [rax+0x8],0x0
    89ec:	0f 85 40 0c 00 00    	jne    0x9632
    89f2:	4c 8b 7d a8          	mov    r15,QWORD PTR [rbp-0x58]
    89f6:	49 8b 87 48 01 00 00 	mov    rax,QWORD PTR [r15+0x148]
    89fd:	48 85 c0             	test   rax,rax
    8a00:	4c 89 7d a8          	mov    QWORD PTR [rbp-0x58],r15
    8a04:	0f 84 a1 0d 00 00    	je     0x97ab
    8a0a:	48 8b 50 08          	mov    rdx,QWORD PTR [rax+0x8]
    8a0e:	4c 8b 7d a0          	mov    r15,QWORD PTR [rbp-0x60]
    8a12:	4c 8b 38             	mov    r15,QWORD PTR [rax]
    8a15:	66 0f ef c0          	pxor   xmm0,xmm0
    8a19:	4c 8b 75 a8          	mov    r14,QWORD PTR [rbp-0x58]
    8a1d:	49 89 96 48 01 00 00 	mov    QWORD PTR [r14+0x148],rdx
    8a24:	41 0f 11 07          	movups XMMWORD PTR [r15],xmm0
    8a28:	41 0f 11 47 10       	movups XMMWORD PTR [r15+0x10],xmm0
    8a2d:	41 0f 11 47 20       	movups XMMWORD PTR [r15+0x20],xmm0
    8a32:	41 0f 11 47 30       	movups XMMWORD PTR [r15+0x30],xmm0
    8a37:	41 0f 11 47 40       	movups XMMWORD PTR [r15+0x40],xmm0
    8a3c:	4c 89 7d a0          	mov    QWORD PTR [rbp-0x60],r15
    8a40:	4c 89 75 a8          	mov    QWORD PTR [rbp-0x58],r14
    8a44:	4c 8b 7d a0          	mov    r15,QWORD PTR [rbp-0x60]
    8a48:	41 80 4f 48 02       	or     BYTE PTR [r15+0x48],0x2
    8a4d:	4c 8b 75 a8          	mov    r14,QWORD PTR [rbp-0x58]
    8a51:	49 8b 96 d0 01 00 00 	mov    rdx,QWORD PTR [r14+0x1d0]
    8a58:	49 89 17             	mov    QWORD PTR [r15],rdx
    8a5b:	49 03 96 c8 01 00 00 	add    rdx,QWORD PTR [r14+0x1c8]
    8a62:	49 89 57 08          	mov    QWORD PTR [r15+0x8],rdx
    8a66:	49 8b 96 38 01 00 00 	mov    rdx,QWORD PTR [r14+0x138]
    8a6d:	48 c7 40 08 00 00 00 	mov    QWORD PTR [rax+0x8],0x0
    8a74:	00 
    8a75:	48 89 02             	mov    QWORD PTR [rdx],rax
    8a78:	48 83 c0 08          	add    rax,0x8
    8a7c:	49 89 86 38 01 00 00 	mov    QWORD PTR [r14+0x138],rax
    8a83:	4c 89 7d a0          	mov    QWORD PTR [rbp-0x60],r15
    8a87:	4c 89 75 a8          	mov    QWORD PTR [rbp-0x58],r14
    8a8b:	4c 8b 7d a8          	mov    r15,QWORD PTR [rbp-0x58]
    8a8f:	49 8b 07             	mov    rax,QWORD PTR [r15]
    8a92:	49 8b 5f 08          	mov    rbx,QWORD PTR [r15+0x8]
    8a96:	4c 8b 75 98          	mov    r14,QWORD PTR [rbp-0x68]
    8a9a:	4c 8b 70 08          	mov    r14,QWORD PTR [rax+0x8]
    8a9e:	49 39 de             	cmp    r14,rbx
    8aa1:	4c 89 7d a8          	mov    QWORD PTR [rbp-0x58],r15
    8aa5:	4c 89 75 98          	mov    QWORD PTR [rbp-0x68],r14
    8aa9:	0f 87 61 f6 ff ff    	ja     0x8110
    8aaf:	4c 8b 7d a0          	mov    r15,QWORD PTR [rbp-0x60]
    8ab3:	4d 89 fa             	mov    r10,r15
    8ab6:	f6 40 48 87          	test   BYTE PTR [rax+0x48],0x87
    8aba:	4c 89 7d a0          	mov    QWORD PTR [rbp-0x60],r15
    8abe:	74 45                	je     0x8b05
    8ac0:	4c 8b 7d a0          	mov    r15,QWORD PTR [rbp-0x60]
    8ac4:	4d 85 ff             	test   r15,r15
    8ac7:	4c 89 7d a0          	mov    QWORD PTR [rbp-0x60],r15
    8acb:	0f 84 9a 1c 00 00    	je     0xa76b
    8ad1:	0f b6 48 48          	movzx  ecx,BYTE PTR [rax+0x48]
    8ad5:	41 0f b6 52 48       	movzx  edx,BYTE PTR [r10+0x48]
    8ada:	49 89 42 40          	mov    QWORD PTR [r10+0x40],rax
    8ade:	49 8b 75 10          	mov    rsi,QWORD PTR [r13+0x10]
    8ae2:	83 e1 80             	and    ecx,0xffffff80
    8ae5:	83 e2 7f             	and    edx,0x7f
    8ae8:	09 ca                	or     edx,ecx
    8aea:	41 88 52 48          	mov    BYTE PTR [r10+0x48],dl
    8aee:	48 83 7e 10 00       	cmp    QWORD PTR [rsi+0x10],0x0
    8af3:	75 10                	jne    0x8b05
    8af5:	0f b6 40 48          	movzx  eax,BYTE PTR [rax+0x48]
    8af9:	83 e2 f7             	and    edx,0xfffffff7
    8afc:	83 e0 08             	and    eax,0x8
    8aff:	09 c2                	or     edx,eax
    8b01:	41 88 52 48          	mov    BYTE PTR [r10+0x48],dl
    8b05:	4c 8b 7d a8          	mov    r15,QWORD PTR [rbp-0x58]
    8b09:	49 8b 87 68 01 00 00 	mov    rax,QWORD PTR [r15+0x168]
    8b10:	49 8b 97 28 01 00 00 	mov    rdx,QWORD PTR [r15+0x128]
    8b17:	49 c7 07 00 00 00 00 	mov    QWORD PTR [r15],0x0
    8b1e:	49 89 87 60 01 00 00 	mov    QWORD PTR [r15+0x160],rax
    8b25:	48 85 d2             	test   rdx,rdx
    8b28:	4c 89 7d a8          	mov    QWORD PTR [rbp-0x58],r15
    8b2c:	0f 84 58 17 00 00    	je     0xa28a
    8b32:	48 8b 02             	mov    rax,QWORD PTR [rdx]
    8b35:	48 8b 52 08          	mov    rdx,QWORD PTR [rdx+0x8]
    8b39:	48 8b 18             	mov    rbx,QWORD PTR [rax]
    8b3c:	4c 8b 7d a8          	mov    r15,QWORD PTR [rbp-0x58]
    8b40:	49 89 07             	mov    QWORD PTR [r15],rax
    8b43:	49 89 97 28 01 00 00 	mov    QWORD PTR [r15+0x128],rdx
    8b4a:	49 89 5f 08          	mov    QWORD PTR [r15+0x8],rbx
    8b4e:	4c 89 7d a8          	mov    QWORD PTR [rbp-0x58],r15
    8b52:	e9 73 f5 ff ff       	jmp    0x80ca
    8b57:	4c 8b 7d a8          	mov    r15,QWORD PTR [rbp-0x58]
    8b5b:	49 8b 47 10          	mov    rax,QWORD PTR [r15+0x10]
    8b5f:	48 85 c0             	test   rax,rax
    8b62:	0f 94 c1             	sete   cl
    8b65:	41 21 cb             	and    r11d,ecx
    8b68:	4c 8b 75 98          	mov    r14,QWORD PTR [rbp-0x68]
    8b6c:	4d 39 e6             	cmp    r14,r12
    8b6f:	4c 89 7d a8          	mov    QWORD PTR [rbp-0x58],r15
    8b73:	4c 89 75 98          	mov    QWORD PTR [rbp-0x68],r14
    8b77:	0f 86 66 15 00 00    	jbe    0xa0e3
    8b7d:	0f b6 4b 01          	movzx  ecx,BYTE PTR [rbx+0x1]
    8b81:	49 8d 5c 24 01       	lea    rbx,[r12+0x1]
    8b86:	80 f9 2d             	cmp    cl,0x2d
    8b89:	74 21                	je     0x8bac
    8b8b:	4c 8b 7d 98          	mov    r15,QWORD PTR [rbp-0x68]
    8b8f:	49 39 df             	cmp    r15,rbx
    8b92:	4c 89 7d 98          	mov    QWORD PTR [rbp-0x68],r15
    8b96:	0f 86 09 1b 00 00    	jbe    0xa6a5
    8b9c:	0f b6 0b             	movzx  ecx,BYTE PTR [rbx]
    8b9f:	49 89 dc             	mov    r12,rbx
    8ba2:	49 8d 5c 24 01       	lea    rbx,[r12+0x1]
    8ba7:	80 f9 2d             	cmp    cl,0x2d
    8baa:	75 df                	jne    0x8b8b
    8bac:	4c 8b 7d 98          	mov    r15,QWORD PTR [rbp-0x68]
    8bb0:	49 39 df             	cmp    r15,rbx
    8bb3:	4c 89 7d 98          	mov    QWORD PTR [rbp-0x68],r15
    8bb7:	0f 86 87 1d 00 00    	jbe    0xa944
    8bbd:	41 0f b6 4c 24 01    	movzx  ecx,BYTE PTR [r12+0x1]
    8bc3:	e9 99 03 00 00       	jmp    0x8f61
    8bc8:	49 bf 96 d2 5e 55 55 	movabs r15,0x5555555ed296
    8bcf:	55 00 00 
    8bd2:	49 8d bf ea 12 05 00 	lea    rdi,[r15+0x512ea]
    8bd9:	0f b6 c0             	movzx  eax,al
    8bdc:	48 63 04 87          	movsxd rax,DWORD PTR [rdi+rax*4]
    8be0:	48 01 f8             	add    rax,rdi
    8be3:	4c 8b 3c 25 00 00 00 	mov    r15,QWORD PTR ds:0x0
    8bea:	00 
    8beb:	49 89 c6             	mov    r14,rax
    8bee:	e9 24 60 00 00       	jmp    0xec17
    8bf3:	8d 41 f7             	lea    eax,[rcx-0x9]
    8bf6:	3c 01                	cmp    al,0x1
    8bf8:	0f 86 e0 f6 ff ff    	jbe    0x82de
    8bfe:	4c 8b 7d a8          	mov    r15,QWORD PTR [rbp-0x58]
    8c02:	49 8d 7f 38          	lea    rdi,[r15+0x38]
    8c06:	41 88 4d 18          	mov    BYTE PTR [r13+0x18],cl
    8c0a:	4d 89 55 08          	mov    QWORD PTR [r13+0x8],r10
    8c0e:	49 be c5 d2 5e 55 55 	movabs r14,0x5555555ed2c5
    8c15:	55 00 00 
    8c18:	4d 8d 6d f8          	lea    r13,[r13-0x8]
    8c1c:	4d 89 75 00          	mov    QWORD PTR [r13+0x0],r14
    8c20:	4c 89 7d a8          	mov    QWORD PTR [rbp-0x58],r15
    8c24:	e9 48 6a 00 00       	jmp    0xf671
    8c29:	4c 8b 7d a8          	mov    r15,QWORD PTR [rbp-0x58]
    8c2d:	49 89 47 60          	mov    QWORD PTR [r15+0x60],rax
    8c31:	49 89 c4             	mov    r12,rax
    8c34:	48 85 c0             	test   rax,rax
    8c37:	4c 89 7d a8          	mov    QWORD PTR [rbp-0x58],r15
    8c3b:	0f 84 53 f5 ff ff    	je     0x8194
    8c41:	48 c7 40 08 01 00 00 	mov    QWORD PTR [rax+0x8],0x1
    8c48:	00 
    8c49:	4c 8b 7d b0          	mov    r15,QWORD PTR [rbp-0x50]
    8c4d:	49 8b 7f 58          	mov    rdi,QWORD PTR [r15+0x58]
    8c51:	be 20 00 00 00       	mov    esi,0x20
    8c56:	49 be eb d2 5e 55 55 	movabs r14,0x5555555ed2eb
    8c5d:	55 00 00 
    8c60:	4d 8d 6d f8          	lea    r13,[r13-0x8]
    8c64:	4d 89 75 00          	mov    QWORD PTR [r13+0x0],r14
    8c68:	4c 89 7d b0          	mov    QWORD PTR [rbp-0x50],r15
    8c6c:	e9 46 68 00 00       	jmp    0xf4b7
    8c71:	49 89 44 24 10       	mov    QWORD PTR [r12+0x10],rax
    8c76:	4c 8b 7d a8          	mov    r15,QWORD PTR [rbp-0x58]
    8c7a:	49 8b 47 60          	mov    rax,QWORD PTR [r15+0x60]
    8c7e:	48 8b 40 10          	mov    rax,QWORD PTR [rax+0x10]
    8c82:	48 85 c0             	test   rax,rax
    8c85:	4c 89 7d a8          	mov    QWORD PTR [rbp-0x58],r15
    8c89:	0f 84 05 f5 ff ff    	je     0x8194
    8c8f:	41 0f b6 4d 18       	movzx  ecx,BYTE PTR [r13+0x18]
    8c94:	4d 8b 55 08          	mov    r10,QWORD PTR [r13+0x8]
    8c98:	49 bf 11 d3 5e 55 55 	movabs r15,0x5555555ed311
    8c9f:	55 00 00 
    8ca2:	4d 8d 9f 1f 12 05 00 	lea    r11,[r15+0x5121f]
    8ca9:	88 08                	mov    BYTE PTR [rax],cl
    8cab:	4c 8b 7d a8          	mov    r15,QWORD PTR [rbp-0x58]
    8caf:	49 8b 87 b0 01 00 00 	mov    rax,QWORD PTR [r15+0x1b0]
    8cb6:	4d 8b 67 60          	mov    r12,QWORD PTR [r15+0x60]
    8cba:	48 85 c0             	test   rax,rax
    8cbd:	49 c7 44 24 18 00 00 	mov    QWORD PTR [r12+0x18],0x0
    8cc4:	00 00 
    8cc6:	4c 89 7d a8          	mov    QWORD PTR [rbp-0x58],r15
    8cca:	0f 84 5b 13 00 00    	je     0xa02b
    8cd0:	49 89 44 24 20       	mov    QWORD PTR [r12+0x20],rax
    8cd5:	4c 8d 63 01          	lea    r12,[rbx+0x1]
    8cd9:	4c 8b 7d 98          	mov    r15,QWORD PTR [rbp-0x68]
    8cdd:	4d 39 fc             	cmp    r12,r15
    8ce0:	4c 89 7d 98          	mov    QWORD PTR [rbp-0x68],r15
    8ce4:	0f 83 bd 13 00 00    	jae    0xa0a7
    8cea:	0f b6 4b 01          	movzx  ecx,BYTE PTR [rbx+0x1]
    8cee:	4c 89 e3             	mov    rbx,r12
    8cf1:	4c 8d 63 01          	lea    r12,[rbx+0x1]
    8cf5:	80 f9 2d             	cmp    cl,0x2d
    8cf8:	0f 84 2e 05 00 00    	je     0x922c
    8cfe:	0f 87 ce 04 00 00    	ja     0x91d2
    8d04:	80 f9 0d             	cmp    cl,0xd
    8d07:	74 0f                	je     0x8d18
    8d09:	0f 86 e4 05 00 00    	jbe    0x92f3
    8d0f:	80 f9 20             	cmp    cl,0x20
    8d12:	0f 85 c3 04 00 00    	jne    0x91db
    8d18:	4c 8b 7d 98          	mov    r15,QWORD PTR [rbp-0x68]
    8d1c:	4d 39 e7             	cmp    r15,r12
    8d1f:	4c 89 7d 98          	mov    QWORD PTR [rbp-0x68],r15
    8d23:	0f 86 9f 19 00 00    	jbe    0xa6c8
    8d29:	0f b6 4b 01          	movzx  ecx,BYTE PTR [rbx+0x1]
    8d2d:	4c 89 e3             	mov    rbx,r12
    8d30:	4c 8d 63 01          	lea    r12,[rbx+0x1]
    8d34:	80 f9 3d             	cmp    cl,0x3d
    8d37:	74 3d                	je     0x8d76
    8d39:	0f 87 9f 0f 00 00    	ja     0x9cde
    8d3f:	80 f9 0d             	cmp    cl,0xd
    8d42:	74 0f                	je     0x8d53
    8d44:	0f 86 38 05 00 00    	jbe    0x9282
    8d4a:	80 f9 20             	cmp    cl,0x20
    8d4d:	0f 85 8b 0f 00 00    	jne    0x9cde
    8d53:	4c 8b 7d 98          	mov    r15,QWORD PTR [rbp-0x68]
    8d57:	4d 39 e7             	cmp    r15,r12
    8d5a:	4c 89 7d 98          	mov    QWORD PTR [rbp-0x68],r15
    8d5e:	0f 86 64 19 00 00    	jbe    0xa6c8
    8d64:	41 0f b6 0c 24       	movzx  ecx,BYTE PTR [r12]
    8d69:	4c 89 e3             	mov    rbx,r12
    8d6c:	4c 8d 63 01          	lea    r12,[rbx+0x1]
    8d70:	80 f9 3d             	cmp    cl,0x3d
    8d73:	75 c4                	jne    0x8d39
    8d75:	90                   	nop
    8d76:	4c 8b 7d 98          	mov    r15,QWORD PTR [rbp-0x68]
    8d7a:	4d 39 e7             	cmp    r15,r12
    8d7d:	4c 89 7d 98          	mov    QWORD PTR [rbp-0x68],r15
    8d81:	0f 86 64 18 00 00    	jbe    0xa5eb
    8d87:	0f b6 4b 01          	movzx  ecx,BYTE PTR [rbx+0x1]
    8d8b:	4c 89 e3             	mov    rbx,r12
    8d8e:	4c 8d 63 01          	lea    r12,[rbx+0x1]
    8d92:	8d 41 f7             	lea    eax,[rcx-0x9]
    8d95:	3c 1e                	cmp    al,0x1e
    8d97:	0f 86 2b fe ff ff    	jbe    0x8bc8
    8d9d:	4c 8b 7d b0          	mov    r15,QWORD PTR [rbp-0x50]
    8da1:	49 8b 47 08          	mov    rax,QWORD PTR [r15+0x8]
    8da5:	4d 85 d2             	test   r10,r10
    8da8:	41 0f 95 c3          	setne  r11b
    8dac:	48 8b 70 50          	mov    rsi,QWORD PTR [rax+0x50]
    8db0:	48 8b 16             	mov    rdx,QWORD PTR [rsi]
    8db3:	80 f9 2d             	cmp    cl,0x2d
    8db6:	4c 89 7d b0          	mov    QWORD PTR [rbp-0x50],r15
    8dba:	0f 84 c3 0f 00 00    	je     0x9d83
    8dc0:	48 83 fa 02          	cmp    rdx,0x2
    8dc4:	0f 86 8d fd ff ff    	jbe    0x8b57
    8dca:	49 83 ed 08          	sub    r13,0x8
    8dce:	4c 8b 7d a8          	mov    r15,QWORD PTR [rbp-0x58]
    8dd2:	49 8d 57 28          	lea    rdx,[r15+0x28]
    8dd6:	49 8b 47 60          	mov    rax,QWORD PTR [r15+0x60]
    8dda:	44 0f b6 c1          	movzx  r8d,cl
    8dde:	45 88 5d 20          	mov    BYTE PTR [r13+0x20],r11b
    8de2:	49 be 20 d4 5e 55 55 	movabs r14,0x5555555ed420
    8de9:	55 00 00 
    8dec:	49 8d 8e 50 0d 05 00 	lea    rcx,[r14+0x50d50]
    8df3:	4d 89 55 10          	mov    QWORD PTR [r13+0x10],r10
    8df7:	4c 8d 48 08          	lea    r9,[rax+0x8]
    8dfb:	4d 8d 6d f8          	lea    r13,[r13-0x8]
    8dff:	49 89 55 00          	mov    QWORD PTR [r13+0x0],rdx
    8e03:	4c 89 7d a8          	mov    QWORD PTR [rbp-0x58],r15
    8e07:	31 d2                	xor    edx,edx
    8e09:	bf 04 00 00 00       	mov    edi,0x4
    8e0e:	31 c0                	xor    eax,eax
    8e10:	49 bf 38 d4 5e 55 55 	movabs r15,0x5555555ed438
    8e17:	55 00 00 
    8e1a:	4d 8d 6d f8          	lea    r13,[r13-0x8]
    8e1e:	4d 89 7d 00          	mov    QWORD PTR [r13+0x0],r15
    8e22:	e9 53 72 ff ff       	jmp    0x7a
    8e27:	4c 8b 7d 98          	mov    r15,QWORD PTR [rbp-0x68]
    8e2b:	4d 39 e7             	cmp    r15,r12
    8e2e:	4d 8b 55 00          	mov    r10,QWORD PTR [r13+0x0]
    8e32:	4d 8d 6d 08          	lea    r13,[r13+0x8]
    8e36:	4d 8b 5d 00          	mov    r11,QWORD PTR [r13+0x0]
    8e3a:	4d 8d 6d 08          	lea    r13,[r13+0x8]
    8e3e:	4d 8b 55 08          	mov    r10,QWORD PTR [r13+0x8]
    8e42:	45 0f b6 5d 18       	movzx  r11d,BYTE PTR [r13+0x18]
    8e47:	4c 89 7d 98          	mov    QWORD PTR [rbp-0x68],r15
    8e4b:	0f 87 a2 00 00 00    	ja     0x8ef3
    8e51:	4c 8b 7d b0          	mov    r15,QWORD PTR [rbp-0x50]
    8e55:	49 8b 47 08          	mov    rax,QWORD PTR [r15+0x8]
    8e59:	4c 89 d3             	mov    rbx,r10
    8e5c:	48 8b 70 50          	mov    rsi,QWORD PTR [rax+0x50]
    8e60:	4c 8b 75 a8          	mov    r14,QWORD PTR [rbp-0x58]
    8e64:	49 8b 46 10          	mov    rax,QWORD PTR [r14+0x10]
    8e68:	48 85 c0             	test   rax,rax
    8e6b:	48 8b 16             	mov    rdx,QWORD PTR [rsi]
    8e6e:	0f 94 c1             	sete   cl
    8e71:	41 21 cb             	and    r11d,ecx
    8e74:	b9 11 00 00 00       	mov    ecx,0x11
    8e79:	4c 89 7d b0          	mov    QWORD PTR [rbp-0x50],r15
    8e7d:	4c 89 75 a8          	mov    QWORD PTR [rbp-0x58],r14
    8e81:	e9 b8 00 00 00       	jmp    0x8f3e
    8e86:	48 83 fa 02          	cmp    rdx,0x2
    8e8a:	0f 86 c7 fc ff ff    	jbe    0x8b57
    8e90:	44 0f b6 c1          	movzx  r8d,cl
    8e94:	31 d2                	xor    edx,edx
    8e96:	31 c0                	xor    eax,eax
    8e98:	bf 04 00 00 00       	mov    edi,0x4
    8e9d:	4c 8b 7d a8          	mov    r15,QWORD PTR [rbp-0x58]
    8ea1:	4d 8d 4f 28          	lea    r9,[r15+0x28]
    8ea5:	49 be b6 d4 5e 55 55 	movabs r14,0x5555555ed4b6
    8eac:	55 00 00 
    8eaf:	49 8d 8e 9a 0d 05 00 	lea    rcx,[r14+0x50d9a]
    8eb6:	45 88 5d 18          	mov    BYTE PTR [r13+0x18],r11b
    8eba:	4d 89 55 08          	mov    QWORD PTR [r13+0x8],r10
    8ebe:	49 be c5 d4 5e 55 55 	movabs r14,0x5555555ed4c5
    8ec5:	55 00 00 
    8ec8:	4d 8d 6d f8          	lea    r13,[r13-0x8]
    8ecc:	4d 89 75 00          	mov    QWORD PTR [r13+0x0],r14
    8ed0:	4c 89 7d a8          	mov    QWORD PTR [rbp-0x58],r15
    8ed4:	e9 a1 71 ff ff       	jmp    0x7a
    8ed9:	4c 8b 7d 98          	mov    r15,QWORD PTR [rbp-0x68]
    8edd:	4d 39 e7             	cmp    r15,r12
    8ee0:	4d 8b 55 08          	mov    r10,QWORD PTR [r13+0x8]
    8ee4:	45 0f b6 5d 18       	movzx  r11d,BYTE PTR [r13+0x18]
    8ee9:	4c 89 7d 98          	mov    QWORD PTR [rbp-0x68],r15
    8eed:	0f 86 5e ff ff ff    	jbe    0x8e51
    8ef3:	4c 8b 7d a8          	mov    r15,QWORD PTR [rbp-0x58]
    8ef7:	49 8b 47 10          	mov    rax,QWORD PTR [r15+0x10]
    8efb:	0f b6 4b 01          	movzx  ecx,BYTE PTR [rbx+0x1]
    8eff:	48 85 c0             	test   rax,rax
    8f02:	0f 94 c2             	sete   dl
    8f05:	41 21 d3             	and    r11d,edx
    8f08:	4c 89 7d a8          	mov    QWORD PTR [rbp-0x58],r15
    8f0c:	e9 70 fc ff ff       	jmp    0x8b81
    8f11:	4c 8b 7d 98          	mov    r15,QWORD PTR [rbp-0x68]
    8f15:	4d 39 e7             	cmp    r15,r12
    8f18:	4c 89 7d 98          	mov    QWORD PTR [rbp-0x68],r15
    8f1c:	0f 87 5b fc ff ff    	ja     0x8b7d
    8f22:	4c 8b 7d b0          	mov    r15,QWORD PTR [rbp-0x50]
    8f26:	49 8b 57 08          	mov    rdx,QWORD PTR [r15+0x8]
    8f2a:	4c 89 d3             	mov    rbx,r10
    8f2d:	b9 11 00 00 00       	mov    ecx,0x11
    8f32:	48 8b 72 50          	mov    rsi,QWORD PTR [rdx+0x50]
    8f36:	48 8b 16             	mov    rdx,QWORD PTR [rsi]
    8f39:	90                   	nop
    8f3a:	4c 89 7d b0          	mov    QWORD PTR [rbp-0x50],r15
    8f3e:	49 8b 7d 00          	mov    rdi,QWORD PTR [r13+0x0]
    8f42:	4c 8b 7d a8          	mov    r15,QWORD PTR [rbp-0x58]
    8f46:	49 89 8f 50 01 00 00 	mov    QWORD PTR [r15+0x150],rcx
    8f4d:	4d 89 67 08          	mov    QWORD PTR [r15+0x8],r12
    8f51:	49 89 bf 68 01 00 00 	mov    QWORD PTR [r15+0x168],rdi
    8f58:	4c 89 7d a8          	mov    QWORD PTR [rbp-0x58],r15
    8f5c:	e9 28 f8 ff ff       	jmp    0x8789
    8f61:	4c 8d 63 01          	lea    r12,[rbx+0x1]
    8f65:	80 f9 2d             	cmp    cl,0x2d
    8f68:	75 a7                	jne    0x8f11
    8f6a:	4c 8b 7d 98          	mov    r15,QWORD PTR [rbp-0x68]
    8f6e:	4d 39 e7             	cmp    r15,r12
    8f71:	4c 89 7d 98          	mov    QWORD PTR [rbp-0x68],r15
    8f75:	0f 86 65 19 00 00    	jbe    0xa8e0
    8f7b:	0f b6 4b 01          	movzx  ecx,BYTE PTR [rbx+0x1]
    8f7f:	4c 89 e3             	mov    rbx,r12
    8f82:	4c 8d 63 01          	lea    r12,[rbx+0x1]
    8f86:	80 f9 3e             	cmp    cl,0x3e
    8f89:	75 86                	jne    0x8f11
    8f8b:	49 8b 75 00          	mov    rsi,QWORD PTR [r13+0x0]
    8f8f:	4c 8b 7d a8          	mov    r15,QWORD PTR [rbp-0x58]
    8f93:	4d 89 67 08          	mov    QWORD PTR [r15+0x8],r12
    8f97:	49 c7 87 50 01 00 00 	mov    QWORD PTR [r15+0x150],0x0
    8f9e:	00 00 00 00 
    8fa2:	49 89 b7 68 01 00 00 	mov    QWORD PTR [r15+0x168],rsi
    8fa9:	4d 89 57 18          	mov    QWORD PTR [r15+0x18],r10
    8fad:	45 84 db             	test   r11b,r11b
    8fb0:	4c 89 7d a8          	mov    QWORD PTR [rbp-0x58],r15
    8fb4:	0f 85 4f 1b 00 00    	jne    0xab09
    8fba:	4c 8b 7d b0          	mov    r15,QWORD PTR [rbp-0x50]
    8fbe:	49 8b 57 08          	mov    rdx,QWORD PTR [r15+0x8]
    8fc2:	4c 89 d3             	mov    rbx,r10
    8fc5:	41 bc 01 00 00 00    	mov    r12d,0x1
    8fcb:	48 8b 72 50          	mov    rsi,QWORD PTR [rdx+0x50]
    8fcf:	48 8b 16             	mov    rdx,QWORD PTR [rsi]
    8fd2:	4c 89 7d b0          	mov    QWORD PTR [rbp-0x50],r15
    8fd6:	e9 d9 f7 ff ff       	jmp    0x87b4
    8fdb:	48 83 fa 02          	cmp    rdx,0x2
    8fdf:	0f 87 c6 0a 00 00    	ja     0x9aab
    8fe5:	4c 8b 7d a8          	mov    r15,QWORD PTR [rbp-0x58]
    8fe9:	49 8b 47 10          	mov    rax,QWORD PTR [r15+0x10]
    8fed:	48 85 c0             	test   rax,rax
    8ff0:	0f 94 c1             	sete   cl
    8ff3:	41 21 cb             	and    r11d,ecx
    8ff6:	4c 8b 75 98          	mov    r14,QWORD PTR [rbp-0x68]
    8ffa:	4d 39 e6             	cmp    r14,r12
    8ffd:	4c 89 7d a8          	mov    QWORD PTR [rbp-0x58],r15
    9001:	4c 89 75 98          	mov    QWORD PTR [rbp-0x68],r14
    9005:	0f 86 d8 10 00 00    	jbe    0xa0e3
    900b:	49 8b 75 08          	mov    rsi,QWORD PTR [r13+0x8]
    900f:	0f b6 4e 01          	movzx  ecx,BYTE PTR [rsi+0x1]
    9013:	e9 69 fb ff ff       	jmp    0x8b81
    9018:	48 83 c3 01          	add    rbx,0x1
    901c:	e9 05 f7 ff ff       	jmp    0x8726
    9021:	49 89 da             	mov    r10,rbx
    9024:	49 8d 5a 01          	lea    rbx,[r10+0x1]
    9028:	80 f9 3c             	cmp    cl,0x3c
    902b:	0f 84 d2 f6 ff ff    	je     0x8703
    9031:	4c 8b 7d 98          	mov    r15,QWORD PTR [rbp-0x68]
    9035:	49 39 df             	cmp    r15,rbx
    9038:	4c 89 7d 98          	mov    QWORD PTR [rbp-0x68],r15
    903c:	74 21                	je     0x905f
    903e:	0f b6 03             	movzx  eax,BYTE PTR [rbx]
    9041:	49 89 da             	mov    r10,rbx
    9044:	48 83 c3 01          	add    rbx,0x1
    9048:	3c 3c                	cmp    al,0x3c
    904a:	75 e5                	jne    0x9031
    904c:	49 c7 45 00 01 00 00 	mov    QWORD PTR [r13+0x0],0x1
    9053:	00 
    9054:	41 b9 01 00 00 00    	mov    r9d,0x1
    905a:	e9 c7 f6 ff ff       	jmp    0x8726
    905f:	49 8b 45 00          	mov    rax,QWORD PTR [r13+0x0]
    9063:	4c 8b 7d a8          	mov    r15,QWORD PTR [rbp-0x58]
    9067:	49 89 5f 08          	mov    QWORD PTR [r15+0x8],rbx
    906b:	49 c7 87 50 01 00 00 	mov    QWORD PTR [r15+0x150],0x0
    9072:	00 00 00 00 
    9076:	49 89 87 68 01 00 00 	mov    QWORD PTR [r15+0x168],rax
    907d:	49 8b 47 10          	mov    rax,QWORD PTR [r15+0x10]
    9081:	49 89 5f 18          	mov    QWORD PTR [r15+0x18],rbx
    9085:	48 85 c0             	test   rax,rax
    9088:	4c 89 7d a8          	mov    QWORD PTR [rbp-0x58],r15
    908c:	0f 84 e8 06 00 00    	je     0x977a
    9092:	4c 8b 7d b0          	mov    r15,QWORD PTR [rbp-0x50]
    9096:	49 8b 57 08          	mov    rdx,QWORD PTR [r15+0x8]
    909a:	49 c7 c4 fe ff ff ff 	mov    r12,0xfffffffffffffffe
    90a1:	48 8b 72 50          	mov    rsi,QWORD PTR [rdx+0x50]
    90a5:	48 8b 16             	mov    rdx,QWORD PTR [rsi]
    90a8:	4c 89 7d b0          	mov    QWORD PTR [rbp-0x50],r15
    90ac:	e9 03 f7 ff ff       	jmp    0x87b4
    90b1:	4c 8b 7d a8          	mov    r15,QWORD PTR [rbp-0x58]
    90b5:	49 c7 47 10 00 00 00 	mov    QWORD PTR [r15+0x10],0x0
    90bc:	00 
    90bd:	49 c7 47 18 00 00 00 	mov    QWORD PTR [r15+0x18],0x0
    90c4:	00 
    90c5:	4c 89 7d a8          	mov    QWORD PTR [rbp-0x58],r15
    90c9:	e9 02 f9 ff ff       	jmp    0x89d0
    90ce:	4c 8b 7d a8          	mov    r15,QWORD PTR [rbp-0x58]
    90d2:	49 8b 47 10          	mov    rax,QWORD PTR [r15+0x10]
    90d6:	48 85 c0             	test   rax,rax
    90d9:	41 0f 94 c3          	sete   r11b
    90dd:	45 21 e3             	and    r11d,r12d
    90e0:	4d 8b 65 08          	mov    r12,QWORD PTR [r13+0x8]
    90e4:	4c 8b 75 98          	mov    r14,QWORD PTR [rbp-0x68]
    90e8:	4d 39 e6             	cmp    r14,r12
    90eb:	4c 89 7d a8          	mov    QWORD PTR [rbp-0x58],r15
    90ef:	4c 89 75 98          	mov    QWORD PTR [rbp-0x68],r14
    90f3:	0f 87 84 fa ff ff    	ja     0x8b7d
    90f9:	4d 8b 65 08          	mov    r12,QWORD PTR [r13+0x8]
    90fd:	4c 89 d3             	mov    rbx,r10
    9100:	b9 11 00 00 00       	mov    ecx,0x11
    9105:	e9 34 fe ff ff       	jmp    0x8f3e
    910a:	8d 51 f7             	lea    edx,[rcx-0x9]
    910d:	80 fa 01             	cmp    dl,0x1
    9110:	0f 86 91 f1 ff ff    	jbe    0x82a7
    9116:	4c 8b 7d a8          	mov    r15,QWORD PTR [rbp-0x58]
    911a:	49 8b 57 28          	mov    rdx,QWORD PTR [r15+0x28]
    911e:	48 83 fa 20          	cmp    rdx,0x20
    9122:	4c 89 7d a8          	mov    QWORD PTR [rbp-0x58],r15
    9126:	0f 85 35 f4 ff ff    	jne    0x8561
    912c:	49 89 45 08          	mov    QWORD PTR [r13+0x8],rax
    9130:	4c 8b 7d b0          	mov    r15,QWORD PTR [rbp-0x50]
    9134:	49 8b 47 08          	mov    rax,QWORD PTR [r15+0x8]
    9138:	4d 85 d2             	test   r10,r10
    913b:	41 0f 95 c4          	setne  r12b
    913f:	48 8b 70 50          	mov    rsi,QWORD PTR [rax+0x50]
    9143:	48 8b 16             	mov    rdx,QWORD PTR [rsi]
    9146:	48 83 fa 02          	cmp    rdx,0x2
    914a:	4c 89 7d b0          	mov    QWORD PTR [rbp-0x50],r15
    914e:	0f 86 7a ff ff ff    	jbe    0x90ce
    9154:	44 0f b6 c9          	movzx  r9d,cl
    9158:	31 d2                	xor    edx,edx
    915a:	31 c0                	xor    eax,eax
    915c:	bf 04 00 00 00       	mov    edi,0x4
    9161:	4c 8b 7d a8          	mov    r15,QWORD PTR [rbp-0x58]
    9165:	4d 8d 47 28          	lea    r8,[r15+0x28]
    9169:	49 be af d7 5e 55 55 	movabs r14,0x5555555ed7af
    9170:	55 00 00 
    9173:	49 8d 8e e1 08 05 00 	lea    rcx,[r14+0x508e1]
    917a:	4d 89 55 18          	mov    QWORD PTR [r13+0x18],r10
    917e:	49 be b9 d7 5e 55 55 	movabs r14,0x5555555ed7b9
    9185:	55 00 00 
    9188:	4d 8d 6d f8          	lea    r13,[r13-0x8]
    918c:	4d 89 75 00          	mov    QWORD PTR [r13+0x0],r14
    9190:	4c 89 7d a8          	mov    QWORD PTR [rbp-0x58],r15
    9194:	e9 e1 6e ff ff       	jmp    0x7a
    9199:	4c 8b 7d 98          	mov    r15,QWORD PTR [rbp-0x68]
    919d:	4d 3b 7d 08          	cmp    r15,QWORD PTR [r13+0x8]
    91a1:	4d 8b 55 18          	mov    r10,QWORD PTR [r13+0x18]
    91a5:	4c 89 7d 98          	mov    QWORD PTR [rbp-0x68],r15
    91a9:	0f 86 9a 0b 00 00    	jbe    0x9d49
    91af:	4c 8b 7d a8          	mov    r15,QWORD PTR [rbp-0x58]
    91b3:	49 8b 47 10          	mov    rax,QWORD PTR [r15+0x10]
    91b7:	0f b6 4b 01          	movzx  ecx,BYTE PTR [rbx+0x1]
    91bb:	48 85 c0             	test   rax,rax
    91be:	41 0f 94 c3          	sete   r11b
    91c2:	45 21 e3             	and    r11d,r12d
    91c5:	4d 8b 65 08          	mov    r12,QWORD PTR [r13+0x8]
    91c9:	4c 89 7d a8          	mov    QWORD PTR [rbp-0x58],r15
    91cd:	e9 af f9 ff ff       	jmp    0x8b81
    91d2:	80 f9 3d             	cmp    cl,0x3d
    91d5:	0f 84 9b fb ff ff    	je     0x8d76
    91db:	4c 8b 7d a8          	mov    r15,QWORD PTR [rbp-0x58]
    91df:	49 8b 7f 60          	mov    rdi,QWORD PTR [r15+0x60]
    91e3:	48 8b 47 08          	mov    rax,QWORD PTR [rdi+0x8]
    91e7:	48 83 f8 20          	cmp    rax,0x20
    91eb:	4c 89 7d a8          	mov    QWORD PTR [rbp-0x58],r15
    91ef:	0f 84 23 01 00 00    	je     0x9318
    91f5:	90                   	nop
    91f6:	48 8b 57 10          	mov    rdx,QWORD PTR [rdi+0x10]
    91fa:	48 8d 70 01          	lea    rsi,[rax+0x1]
    91fe:	48 89 77 08          	mov    QWORD PTR [rdi+0x8],rsi
    9202:	88 0c 10             	mov    BYTE PTR [rax+rdx*1],cl
    9205:	4c 8b 7d 98          	mov    r15,QWORD PTR [rbp-0x68]
    9209:	4d 39 e7             	cmp    r15,r12
    920c:	4c 89 7d 98          	mov    QWORD PTR [rbp-0x68],r15
    9210:	0f 86 91 0e 00 00    	jbe    0xa0a7
    9216:	41 0f b6 0c 24       	movzx  ecx,BYTE PTR [r12]
    921b:	4c 89 e3             	mov    rbx,r12
    921e:	4c 8d 63 01          	lea    r12,[rbx+0x1]
    9222:	80 f9 2d             	cmp    cl,0x2d
    9225:	0f 85 d3 fa ff ff    	jne    0x8cfe
    922b:	90                   	nop
    922c:	4c 8b 7d b0          	mov    r15,QWORD PTR [rbp-0x50]
    9230:	49 8b 47 08          	mov    rax,QWORD PTR [r15+0x8]
    9234:	4d 85 d2             	test   r10,r10
    9237:	41 0f 95 c3          	setne  r11b
    923b:	48 8b 70 50          	mov    rsi,QWORD PTR [rax+0x50]
    923f:	48 8b 16             	mov    rdx,QWORD PTR [rsi]
    9242:	48 83 fa 02          	cmp    rdx,0x2
    9246:	4c 89 7d b0          	mov    QWORD PTR [rbp-0x50],r15
    924a:	0f 87 1d 0c 00 00    	ja     0x9e6d
    9250:	4c 8b 7d a8          	mov    r15,QWORD PTR [rbp-0x58]
    9254:	49 8b 47 10          	mov    rax,QWORD PTR [r15+0x10]
    9258:	48 85 c0             	test   rax,rax
    925b:	0f 94 c1             	sete   cl
    925e:	41 21 cb             	and    r11d,ecx
    9261:	4c 8b 75 98          	mov    r14,QWORD PTR [rbp-0x68]
    9265:	4d 39 e6             	cmp    r14,r12
    9268:	4c 89 7d a8          	mov    QWORD PTR [rbp-0x58],r15
    926c:	4c 89 75 98          	mov    QWORD PTR [rbp-0x68],r14
    9270:	0f 86 c6 0a 00 00    	jbe    0x9d3c
    9276:	0f b6 4b 01          	movzx  ecx,BYTE PTR [rbx+0x1]
    927a:	4c 89 e3             	mov    rbx,r12
    927d:	e9 df fc ff ff       	jmp    0x8f61
    9282:	8d 41 f7             	lea    eax,[rcx-0x9]
    9285:	3c 01                	cmp    al,0x1
    9287:	0f 86 c6 fa ff ff    	jbe    0x8d53
    928d:	4c 8b 7d b0          	mov    r15,QWORD PTR [rbp-0x50]
    9291:	49 8b 47 08          	mov    rax,QWORD PTR [r15+0x8]
    9295:	4d 85 d2             	test   r10,r10
    9298:	41 0f 95 c3          	setne  r11b
    929c:	48 8b 70 50          	mov    rsi,QWORD PTR [rax+0x50]
    92a0:	48 8b 16             	mov    rdx,QWORD PTR [rsi]
    92a3:	4c 89 7d b0          	mov    QWORD PTR [rbp-0x50],r15
    92a7:	48 83 fa 02          	cmp    rdx,0x2
    92ab:	0f 86 a6 f8 ff ff    	jbe    0x8b57
    92b1:	4c 8b 7d a8          	mov    r15,QWORD PTR [rbp-0x58]
    92b5:	49 8b 47 60          	mov    rax,QWORD PTR [r15+0x60]
    92b9:	49 83 ed 08          	sub    r13,0x8
    92bd:	49 8d 57 28          	lea    rdx,[r15+0x28]
    92c1:	44 0f b6 c1          	movzx  r8d,cl
    92c5:	45 88 5d 20          	mov    BYTE PTR [r13+0x20],r11b
    92c9:	49 be c3 d8 5e 55 55 	movabs r14,0x5555555ed8c3
    92d0:	55 00 00 
    92d3:	49 8d 8e 6d 08 05 00 	lea    rcx,[r14+0x5086d]
    92da:	4d 89 55 10          	mov    QWORD PTR [r13+0x10],r10
    92de:	4c 8d 48 08          	lea    r9,[rax+0x8]
    92e2:	4d 8d 6d f8          	lea    r13,[r13-0x8]
    92e6:	49 89 55 00          	mov    QWORD PTR [r13+0x0],rdx
    92ea:	4c 89 7d a8          	mov    QWORD PTR [rbp-0x58],r15
    92ee:	e9 14 fb ff ff       	jmp    0x8e07
    92f3:	8d 41 f7             	lea    eax,[rcx-0x9]
    92f6:	3c 01                	cmp    al,0x1
    92f8:	0f 86 1a fa ff ff    	jbe    0x8d18
    92fe:	4c 8b 7d a8          	mov    r15,QWORD PTR [rbp-0x58]
    9302:	49 8b 7f 60          	mov    rdi,QWORD PTR [r15+0x60]
    9306:	48 8b 47 08          	mov    rax,QWORD PTR [rdi+0x8]
    930a:	48 83 f8 20          	cmp    rax,0x20
    930e:	4c 89 7d a8          	mov    QWORD PTR [rbp-0x58],r15
    9312:	0f 85 de fe ff ff    	jne    0x91f6
    9318:	4c 8b 7d b0          	mov    r15,QWORD PTR [rbp-0x50]
    931c:	49 8b 47 08          	mov    rax,QWORD PTR [r15+0x8]
    9320:	4d 85 d2             	test   r10,r10
    9323:	41 0f 95 c3          	setne  r11b
    9327:	48 8b 70 50          	mov    rsi,QWORD PTR [rax+0x50]
    932b:	48 8b 16             	mov    rdx,QWORD PTR [rsi]
    932e:	48 83 fa 02          	cmp    rdx,0x2
    9332:	4c 89 7d b0          	mov    QWORD PTR [rbp-0x50],r15
    9336:	0f 86 1b f8 ff ff    	jbe    0x8b57
    933c:	49 83 ed 08          	sub    r13,0x8
    9340:	4c 8b 7d a8          	mov    r15,QWORD PTR [rbp-0x58]
    9344:	49 8d 47 28          	lea    rax,[r15+0x28]
    9348:	4c 8d 47 08          	lea    r8,[rdi+0x8]
    934c:	44 0f b6 c9          	movzx  r9d,cl
    9350:	45 88 5d 20          	mov    BYTE PTR [r13+0x20],r11b
    9354:	49 be 2d d9 5e 55 55 	movabs r14,0x5555555ed92d
    935b:	55 00 00 
    935e:	49 8d 8e cb 07 05 00 	lea    rcx,[r14+0x507cb]
    9365:	4d 89 55 10          	mov    QWORD PTR [r13+0x10],r10
    9369:	4d 8d 6d f8          	lea    r13,[r13-0x8]
    936d:	49 89 45 00          	mov    QWORD PTR [r13+0x0],rax
    9371:	4c 89 7d a8          	mov    QWORD PTR [rbp-0x58],r15
    9375:	e9 f8 06 00 00       	jmp    0x9a72
    937a:	83 e2 10             	and    edx,0x10
    937d:	74 1b                	je     0x939a
    937f:	48 29 c3             	sub    rbx,rax
    9382:	48 89 de             	mov    rsi,rbx
    9385:	4c 8b 7d a8          	mov    r15,QWORD PTR [rbp-0x58]
    9389:	49 03 b7 60 01 00 00 	add    rsi,QWORD PTR [r15+0x160]
    9390:	4c 89 7d a8          	mov    QWORD PTR [rbp-0x58],r15
    9394:	0f 85 5b 0b 00 00    	jne    0x9ef5
    939a:	4c 8b 7d a8          	mov    r15,QWORD PTR [rbp-0x58]
    939e:	49 c7 87 60 01 00 00 	mov    QWORD PTR [r15+0x160],0x0
    93a5:	00 00 00 00 
    93a9:	4c 89 7d a8          	mov    QWORD PTR [rbp-0x58],r15
    93ad:	e9 f4 f5 ff ff       	jmp    0x89a6
    93b2:	4c 8b 7d a8          	mov    r15,QWORD PTR [rbp-0x58]
    93b6:	4d 8b 87 60 01 00 00 	mov    r8,QWORD PTR [r15+0x160]
    93bd:	31 c0                	xor    eax,eax
    93bf:	31 d2                	xor    edx,edx
    93c1:	bf 08 00 00 00       	mov    edi,0x8
    93c6:	49 be 87 d9 5e 55 55 	movabs r14,0x5555555ed987
    93cd:	55 00 00 
    93d0:	49 8d 8e 3a 04 05 00 	lea    rcx,[r14+0x5043a]
    93d7:	49 be 8c d9 5e 55 55 	movabs r14,0x5555555ed98c
    93de:	55 00 00 
    93e1:	4d 8d 6d f8          	lea    r13,[r13-0x8]
    93e5:	4d 89 75 00          	mov    QWORD PTR [r13+0x0],r14
    93e9:	4c 89 7d a8          	mov    QWORD PTR [rbp-0x58],r15
    93ed:	e9 88 6c ff ff       	jmp    0x7a
    93f2:	4c 8b 7d a8          	mov    r15,QWORD PTR [rbp-0x58]
    93f6:	49 8b 87 68 01 00 00 	mov    rax,QWORD PTR [r15+0x168]
    93fd:	49 8b 5f 08          	mov    rbx,QWORD PTR [r15+0x8]
    9401:	45 8b 8f 50 01 00 00 	mov    r9d,DWORD PTR [r15+0x150]
    9408:	4d 8b 57 18          	mov    r10,QWORD PTR [r15+0x18]
    940c:	49 89 45 00          	mov    QWORD PTR [r13+0x0],rax
    9410:	49 8b 07             	mov    rax,QWORD PTR [r15]
    9413:	4c 8b 75 98          	mov    r14,QWORD PTR [rbp-0x68]
    9417:	4c 8b 70 08          	mov    r14,QWORD PTR [rax+0x8]
    941b:	49 39 de             	cmp    r14,rbx
    941e:	4c 89 7d a8          	mov    QWORD PTR [rbp-0x58],r15
    9422:	4c 89 75 98          	mov    QWORD PTR [rbp-0x68],r14
    9426:	0f 87 27 ed ff ff    	ja     0x8153
    942c:	e9 06 f3 ff ff       	jmp    0x8737
    9431:	4c 8b 7d a8          	mov    r15,QWORD PTR [rbp-0x58]
    9435:	49 8b 47 28          	mov    rax,QWORD PTR [r15+0x28]
    9439:	49 8b 57 40          	mov    rdx,QWORD PTR [r15+0x40]
    943d:	4d 8b 67 38          	mov    r12,QWORD PTR [r15+0x38]
    9441:	48 8d 70 09          	lea    rsi,[rax+0x9]
    9445:	48 85 d2             	test   rdx,rdx
    9448:	4c 89 7d a8          	mov    QWORD PTR [rbp-0x58],r15
    944c:	74 2d                	je     0x947b
    944e:	48 8d 14 55 00 00 00 	lea    rdx,[rdx*2+0x0]
    9455:	00 
    9456:	49 8d 44 24 08       	lea    rax,[r12+0x8]
    945b:	48 c1 e2 04          	shl    rdx,0x4
    945f:	49 8d 4c 14 08       	lea    rcx,[r12+rdx*1+0x8]
    9464:	90                   	nop
    9465:	48 8b 50 10          	mov    rdx,QWORD PTR [rax+0x10]
    9469:	48 83 c0 30          	add    rax,0x30
    946d:	48 03 50 d0          	add    rdx,QWORD PTR [rax-0x30]
    9471:	48 8d 74 32 04       	lea    rsi,[rdx+rsi*1+0x4]
    9476:	48 39 c1             	cmp    rcx,rax
    9479:	75 ea                	jne    0x9465
    947b:	4c 8b 7d b0          	mov    r15,QWORD PTR [rbp-0x50]
    947f:	49 8b 7f 58          	mov    rdi,QWORD PTR [r15+0x58]
    9483:	49 be 0f da 5e 55 55 	movabs r14,0x5555555eda0f
    948a:	55 00 00 
    948d:	4d 8d 6d f8          	lea    r13,[r13-0x8]
    9491:	4d 89 75 00          	mov    QWORD PTR [r13+0x0],r14
    9495:	4c 89 7d b0          	mov    QWORD PTR [rbp-0x50],r15
    9499:	e9 5b 5d 00 00       	jmp    0xf1f9
    949e:	4c 8b 7d 98          	mov    r15,QWORD PTR [rbp-0x68]
    94a2:	49 89 c7             	mov    r15,rax
    94a5:	48 85 c0             	test   rax,rax
    94a8:	4c 89 7d 98          	mov    QWORD PTR [rbp-0x68],r15
    94ac:	0f 84 6b ed ff ff    	je     0x821d
    94b2:	4c 8b 7d b0          	mov    r15,QWORD PTR [rbp-0x50]
    94b6:	49 8b 7f 58          	mov    rdi,QWORD PTR [r15+0x58]
    94ba:	49 be 24 da 5e 55 55 	movabs r14,0x5555555eda24
    94c1:	55 00 00 
    94c4:	4d 8d 6d f8          	lea    r13,[r13-0x8]
    94c8:	4d 89 75 00          	mov    QWORD PTR [r13+0x0],r14
    94cc:	4c 89 7d b0          	mov    QWORD PTR [rbp-0x50],r15
    94d0:	e9 ec 5b 00 00       	jmp    0xf0c1
    94d5:	48 89 c3             	mov    rbx,rax
    94d8:	48 85 c0             	test   rax,rax
    94db:	0f 84 3c ed ff ff    	je     0x821d
    94e1:	4c 8b 7d 98          	mov    r15,QWORD PTR [rbp-0x68]
    94e5:	4c 89 38             	mov    QWORD PTR [rax],r15
    94e8:	48 c7 40 08 00 00 00 	mov    QWORD PTR [rax+0x8],0x0
    94ef:	00 
    94f0:	49 8b 47 08          	mov    rax,QWORD PTR [r15+0x8]
    94f4:	48 8d 50 01          	lea    rdx,[rax+0x1]
    94f8:	49 89 57 08          	mov    QWORD PTR [r15+0x8],rdx
    94fc:	c6 00 3c             	mov    BYTE PTR [rax],0x3c
    94ff:	49 8b 47 08          	mov    rax,QWORD PTR [r15+0x8]
    9503:	48 8d 50 01          	lea    rdx,[rax+0x1]
    9507:	49 89 57 08          	mov    QWORD PTR [r15+0x8],rdx
    950b:	c6 00 21             	mov    BYTE PTR [rax],0x21
    950e:	49 8b 47 08          	mov    rax,QWORD PTR [r15+0x8]
    9512:	48 8d 50 01          	lea    rdx,[rax+0x1]
    9516:	49 89 57 08          	mov    QWORD PTR [r15+0x8],rdx
    951a:	c6 00 2d             	mov    BYTE PTR [rax],0x2d
    951d:	49 8b 47 08          	mov    rax,QWORD PTR [r15+0x8]
    9521:	48 8d 50 01          	lea    rdx,[rax+0x1]
    9525:	49 89 57 08          	mov    QWORD PTR [r15+0x8],rdx
    9529:	c6 00 2d             	mov    BYTE PTR [rax],0x2d
    952c:	49 8b 47 08          	mov    rax,QWORD PTR [r15+0x8]
    9530:	48 8d 50 01          	lea    rdx,[rax+0x1]
    9534:	49 89 57 08          	mov    QWORD PTR [r15+0x8],rdx
    9538:	c6 00 23             	mov    BYTE PTR [rax],0x23
    953b:	49 8b 7f 08          	mov    rdi,QWORD PTR [r15+0x8]
    953f:	4c 8b 75 a8          	mov    r14,QWORD PTR [rbp-0x58]
    9543:	49 8b 76 30          	mov    rsi,QWORD PTR [r14+0x30]
    9547:	49 8b 56 28          	mov    rdx,QWORD PTR [r14+0x28]
    954b:	4c 89 7d 98          	mov    QWORD PTR [rbp-0x68],r15
    954f:	49 bf a2 da 5e 55 55 	movabs r15,0x5555555edaa2
    9556:	55 00 00 
    9559:	4d 8d 6d f8          	lea    r13,[r13-0x8]
    955d:	4d 89 7d 00          	mov    QWORD PTR [r13+0x0],r15
    9561:	4c 89 75 a8          	mov    QWORD PTR [rbp-0x58],r14
    9565:	e9 63 5e 00 00       	jmp    0xf3cd
    956a:	4c 8b 7d a8          	mov    r15,QWORD PTR [rbp-0x58]
    956e:	49 03 47 28          	add    rax,QWORD PTR [r15+0x28]
    9572:	49 83 7f 40 00       	cmp    QWORD PTR [r15+0x40],0x0
    9577:	4c 8b 75 98          	mov    r14,QWORD PTR [rbp-0x68]
    957b:	49 89 46 08          	mov    QWORD PTR [r14+0x8],rax
    957f:	4c 89 7d a8          	mov    QWORD PTR [rbp-0x58],r15
    9583:	4c 89 75 98          	mov    QWORD PTR [rbp-0x68],r14
    9587:	0f 85 16 0c 00 00    	jne    0xa1a3
    958d:	90                   	nop
    958e:	48 8d 50 01          	lea    rdx,[rax+0x1]
    9592:	49 bf cb da 5e 55 55 	movabs r15,0x5555555edacb
    9599:	55 00 00 
    959c:	49 8d b7 55 ff 07 00 	lea    rsi,[r15+0x7ff55]
    95a3:	4c 8b 7d 98          	mov    r15,QWORD PTR [rbp-0x68]
    95a7:	49 89 57 08          	mov    QWORD PTR [r15+0x8],rdx
    95ab:	c6 00 20             	mov    BYTE PTR [rax],0x20
    95ae:	49 8b 47 08          	mov    rax,QWORD PTR [r15+0x8]
    95b2:	48 8d 50 01          	lea    rdx,[rax+0x1]
    95b6:	49 89 57 08          	mov    QWORD PTR [r15+0x8],rdx
    95ba:	c6 00 2d             	mov    BYTE PTR [rax],0x2d
    95bd:	49 8b 47 08          	mov    rax,QWORD PTR [r15+0x8]
    95c1:	48 8d 50 01          	lea    rdx,[rax+0x1]
    95c5:	49 89 57 08          	mov    QWORD PTR [r15+0x8],rdx
    95c9:	c6 00 2d             	mov    BYTE PTR [rax],0x2d
    95cc:	49 8b 47 08          	mov    rax,QWORD PTR [r15+0x8]
    95d0:	48 8d 50 01          	lea    rdx,[rax+0x1]
    95d4:	49 89 57 08          	mov    QWORD PTR [r15+0x8],rdx
    95d8:	c6 00 3e             	mov    BYTE PTR [rax],0x3e
    95db:	4c 8b 75 b0          	mov    r14,QWORD PTR [rbp-0x50]
    95df:	49 8b 86 68 04 00 00 	mov    rax,QWORD PTR [r14+0x468]
    95e6:	48 8b 16             	mov    rdx,QWORD PTR [rsi]
    95e9:	48 8b 40 10          	mov    rax,QWORD PTR [rax+0x10]
    95ed:	48 8b 04 d0          	mov    rax,QWORD PTR [rax+rdx*8]
    95f1:	48 8b 90 80 01 00 00 	mov    rdx,QWORD PTR [rax+0x180]
    95f8:	48 8b 42 08          	mov    rax,QWORD PTR [rdx+0x8]
    95fc:	48 8b 12             	mov    rdx,QWORD PTR [rdx]
    95ff:	48 c1 e0 05          	shl    rax,0x5
    9603:	48 8d 54 10 e0       	lea    rdx,[rax+rdx*1-0x20]
    9608:	48 8b 42 10          	mov    rax,QWORD PTR [rdx+0x10]
    960c:	48 85 c0             	test   rax,rax
    960f:	4c 89 7d 98          	mov    QWORD PTR [rbp-0x68],r15
    9613:	4c 89 75 b0          	mov    QWORD PTR [rbp-0x50],r14
    9617:	0f 84 d3 11 00 00    	je     0xa7f0
    961d:	90                   	nop
    961e:	48 89 c2             	mov    rdx,rax
    9621:	48 8b 40 08          	mov    rax,QWORD PTR [rax+0x8]
    9625:	48 85 c0             	test   rax,rax
    9628:	75 f4                	jne    0x961e
    962a:	48 83 c2 08          	add    rdx,0x8
    962e:	48 89 1a             	mov    QWORD PTR [rdx],rbx
    9631:	90                   	nop
    9632:	4c 8b 7d a0          	mov    r15,QWORD PTR [rbp-0x60]
    9636:	45 31 ff             	xor    r15d,r15d
    9639:	4c 89 7d a0          	mov    QWORD PTR [rbp-0x60],r15
    963d:	e9 49 f4 ff ff       	jmp    0x8a8b
    9642:	49 bf 67 db 5e 55 55 	movabs r15,0x5555555edb67
    9649:	55 00 00 
    964c:	49 8d 87 b9 fe 07 00 	lea    rax,[r15+0x7feb9]
    9653:	4c 8b 7d a8          	mov    r15,QWORD PTR [rbp-0x58]
    9657:	49 8b 4f 28          	mov    rcx,QWORD PTR [r15+0x28]
    965b:	49 8b 57 30          	mov    rdx,QWORD PTR [r15+0x30]
    965f:	49 8b 77 20          	mov    rsi,QWORD PTR [r15+0x20]
    9663:	48 8b 38             	mov    rdi,QWORD PTR [rax]
    9666:	4c 8b 75 b0          	mov    r14,QWORD PTR [rbp-0x50]
    966a:	49 8b 46 18          	mov    rax,QWORD PTR [r14+0x18]
    966e:	48 8b 3c f8          	mov    rdi,QWORD PTR [rax+rdi*8]
    9672:	4c 89 7d a8          	mov    QWORD PTR [rbp-0x58],r15
    9676:	49 bf 83 db 5e 55 55 	movabs r15,0x5555555edb83
    967d:	55 00 00 
    9680:	4d 8d 6d f8          	lea    r13,[r13-0x8]
    9684:	4d 89 7d 00          	mov    QWORD PTR [r13+0x0],r15
    9688:	4c 89 75 b0          	mov    QWORD PTR [rbp-0x50],r14
    968c:	e9 82 5b 00 00       	jmp    0xf213
    9691:	49 89 45 00          	mov    QWORD PTR [r13+0x0],rax
    9695:	48 85 c0             	test   rax,rax
    9698:	0f 84 92 04 00 00    	je     0x9b30
    969e:	49 8b 7d 00          	mov    rdi,QWORD PTR [r13+0x0]
    96a2:	4c 8b 7d a8          	mov    r15,QWORD PTR [rbp-0x58]
    96a6:	41 0f b6 87 a0 01 00 	movzx  eax,BYTE PTR [r15+0x1a0]
    96ad:	00 
    96ae:	0f b6 57 20          	movzx  edx,BYTE PTR [rdi+0x20]
    96b2:	89 c6                	mov    esi,eax
    96b4:	83 e6 20             	and    esi,0x20
    96b7:	89 d1                	mov    ecx,edx
    96b9:	83 e1 04             	and    ecx,0x4
    96bc:	40 08 ce             	or     sil,cl
    96bf:	4c 89 7d a8          	mov    QWORD PTR [rbp-0x58],r15
    96c3:	0f 85 5a 01 00 00    	jne    0x9823
    96c9:	a8 10                	test   al,0x10
    96cb:	0f 85 60 fd ff ff    	jne    0x9431
    96d1:	f6 c2 03             	test   dl,0x3
    96d4:	0f 84 58 ff ff ff    	je     0x9632
    96da:	83 e0 03             	and    eax,0x3
    96dd:	0f 84 9f 05 00 00    	je     0x9c82
    96e3:	83 e2 03             	and    edx,0x3
    96e6:	38 d0                	cmp    al,dl
    96e8:	0f 87 94 05 00 00    	ja     0x9c82
    96ee:	4c 8b 7d a8          	mov    r15,QWORD PTR [rbp-0x58]
    96f2:	49 83 7f 40 10       	cmp    QWORD PTR [r15+0x40],0x10
    96f7:	4c 89 7d a8          	mov    QWORD PTR [rbp-0x58],r15
    96fb:	0f 86 3e 01 00 00    	jbe    0x983f
    9701:	4c 8b 7d b0          	mov    r15,QWORD PTR [rbp-0x50]
    9705:	49 8b 47 08          	mov    rax,QWORD PTR [r15+0x8]
    9709:	48 8b 70 50          	mov    rsi,QWORD PTR [rax+0x50]
    970d:	48 83 3e 02          	cmp    QWORD PTR [rsi],0x2
    9711:	4c 89 7d b0          	mov    QWORD PTR [rbp-0x50],r15
    9715:	0f 86 c8 f2 ff ff    	jbe    0x89e3
    971b:	4c 8b 7d a8          	mov    r15,QWORD PTR [rbp-0x58]
    971f:	4d 8d 47 28          	lea    r8,[r15+0x28]
    9723:	49 be fc db 5e 55 55 	movabs r14,0x5555555edbfc
    972a:	55 00 00 
    972d:	49 8d 8e ac 06 05 00 	lea    rcx,[r14+0x506ac]
    9734:	31 d2                	xor    edx,edx
    9736:	31 c0                	xor    eax,eax
    9738:	bf 04 00 00 00       	mov    edi,0x4
    973d:	49 be 0a dc 5e 55 55 	movabs r14,0x5555555edc0a
    9744:	55 00 00 
    9747:	4d 8d 6d f8          	lea    r13,[r13-0x8]
    974b:	4d 89 75 00          	mov    QWORD PTR [r13+0x0],r14
    974f:	4c 89 7d a8          	mov    QWORD PTR [rbp-0x58],r15
    9753:	e9 22 69 ff ff       	jmp    0x7a
    9758:	e9 86 f2 ff ff       	jmp    0x89e3
    975d:	48 83 c3 01          	add    rbx,0x1
    9761:	4c 8b 7d 98          	mov    r15,QWORD PTR [rbp-0x68]
    9765:	4c 39 fb             	cmp    rbx,r15
    9768:	4c 89 7d 98          	mov    QWORD PTR [rbp-0x68],r15
    976c:	0f 83 f4 0e 00 00    	jae    0xa666
    9772:	0f b6 0b             	movzx  ecx,BYTE PTR [rbx]
    9775:	e9 ff ec ff ff       	jmp    0x8479
    977a:	4c 8b 7d b0          	mov    r15,QWORD PTR [rbp-0x50]
    977e:	49 8b 57 08          	mov    rdx,QWORD PTR [r15+0x8]
    9782:	4c 8b 75 a8          	mov    r14,QWORD PTR [rbp-0x58]
    9786:	49 8b 06             	mov    rax,QWORD PTR [r14]
    9789:	49 c7 c4 fe ff ff ff 	mov    r12,0xfffffffffffffffe
    9790:	48 8b 00             	mov    rax,QWORD PTR [rax]
    9793:	48 8b 72 50          	mov    rsi,QWORD PTR [rdx+0x50]
    9797:	49 89 46 10          	mov    QWORD PTR [r14+0x10],rax
    979b:	48 8b 16             	mov    rdx,QWORD PTR [rsi]
    979e:	4c 89 7d b0          	mov    QWORD PTR [rbp-0x50],r15
    97a2:	4c 89 75 a8          	mov    QWORD PTR [rbp-0x58],r14
    97a6:	e9 09 f0 ff ff       	jmp    0x87b4
    97ab:	4c 8b 7d b0          	mov    r15,QWORD PTR [rbp-0x50]
    97af:	49 8b 7f 58          	mov    rdi,QWORD PTR [r15+0x58]
    97b3:	be 50 00 00 00       	mov    esi,0x50
    97b8:	49 be 5e dc 5e 55 55 	movabs r14,0x5555555edc5e
    97bf:	55 00 00 
    97c2:	4d 8d 6d f8          	lea    r13,[r13-0x8]
    97c6:	4d 89 75 00          	mov    QWORD PTR [r13+0x0],r14
    97ca:	4c 89 7d b0          	mov    QWORD PTR [rbp-0x50],r15
    97ce:	e9 e0 5b 00 00       	jmp    0xf3b3
    97d3:	4c 8b 7d a0          	mov    r15,QWORD PTR [rbp-0x60]
    97d7:	49 89 c7             	mov    r15,rax
    97da:	48 85 c0             	test   rax,rax
    97dd:	4c 89 7d a0          	mov    QWORD PTR [rbp-0x60],r15
    97e1:	0f 84 36 ea ff ff    	je     0x821d
    97e7:	4c 8b 7d b0          	mov    r15,QWORD PTR [rbp-0x50]
    97eb:	49 8b 7f 58          	mov    rdi,QWORD PTR [r15+0x58]
    97ef:	49 be 73 dc 5e 55 55 	movabs r14,0x5555555edc73
    97f6:	55 00 00 
    97f9:	4d 8d 6d f8          	lea    r13,[r13-0x8]
    97fd:	4d 89 75 00          	mov    QWORD PTR [r13+0x0],r14
    9801:	4c 89 7d b0          	mov    QWORD PTR [rbp-0x50],r15
    9805:	e9 b7 58 00 00       	jmp    0xf0c1
    980a:	48 85 c0             	test   rax,rax
    980d:	0f 84 0a ea ff ff    	je     0x821d
    9813:	4c 8b 7d a0          	mov    r15,QWORD PTR [rbp-0x60]
    9817:	4c 89 38             	mov    QWORD PTR [rax],r15
    981a:	4c 89 7d a0          	mov    QWORD PTR [rbp-0x60],r15
    981e:	e9 21 f2 ff ff       	jmp    0x8a44
    9823:	f6 c2 03             	test   dl,0x3
    9826:	0f 85 ae fe ff ff    	jne    0x96da
    982c:	4c 8b 7d a8          	mov    r15,QWORD PTR [rbp-0x58]
    9830:	49 83 7f 40 10       	cmp    QWORD PTR [r15+0x40],0x10
    9835:	4c 89 7d a8          	mov    QWORD PTR [rbp-0x58],r15
    9839:	0f 87 c2 fe ff ff    	ja     0x9701
    983f:	49 8d 75 40          	lea    rsi,[r13+0x40]
    9843:	31 c0                	xor    eax,eax
    9845:	b9 11 00 00 00       	mov    ecx,0x11
    984a:	48 89 f7             	mov    rdi,rsi
    984d:	49 89 75 30          	mov    QWORD PTR [r13+0x30],rsi
    9851:	f3 48 ab             	rep stos QWORD PTR es:[rdi],rax
    9854:	4c 8b 7d a8          	mov    r15,QWORD PTR [rbp-0x58]
    9858:	49 8b 47 40          	mov    rax,QWORD PTR [r15+0x40]
    985c:	4c 8b 75 98          	mov    r14,QWORD PTR [rbp-0x68]
    9860:	4d 8b 77 38          	mov    r14,QWORD PTR [r15+0x38]
    9864:	49 89 45 18          	mov    QWORD PTR [r13+0x18],rax
    9868:	48 85 c0             	test   rax,rax
    986b:	49 8b 45 00          	mov    rax,QWORD PTR [r13+0x0]
    986f:	4d 89 75 38          	mov    QWORD PTR [r13+0x38],r14
    9873:	4c 89 7d a8          	mov    QWORD PTR [rbp-0x58],r15
    9877:	4c 8b 7d a0          	mov    r15,QWORD PTR [rbp-0x60]
    987b:	4c 8b 78 18          	mov    r15,QWORD PTR [rax+0x18]
    987f:	4c 89 7d a0          	mov    QWORD PTR [rbp-0x60],r15
    9883:	4c 89 75 98          	mov    QWORD PTR [rbp-0x68],r14
    9887:	0f 84 b0 12 00 00    	je     0xab3d
    988d:	4c 8b 7d a8          	mov    r15,QWORD PTR [rbp-0x58]
    9891:	4d 89 7d 20          	mov    QWORD PTR [r13+0x20],r15
    9895:	4c 8b 75 a0          	mov    r14,QWORD PTR [rbp-0x60]
    9899:	4d 8b 26             	mov    r12,QWORD PTR [r14]
    989c:	31 db                	xor    ebx,ebx
    989e:	49 89 f7             	mov    r15,rsi
    98a1:	4c 89 7d a8          	mov    QWORD PTR [rbp-0x58],r15
    98a5:	4c 8b 7d b0          	mov    r15,QWORD PTR [rbp-0x50]
    98a9:	4d 89 7d 28          	mov    QWORD PTR [r13+0x28],r15
    98ad:	4c 89 75 a0          	mov    QWORD PTR [rbp-0x60],r14
    98b1:	4c 8b 75 98          	mov    r14,QWORD PTR [rbp-0x68]
    98b5:	4d 89 f7             	mov    r15,r14
    98b8:	4c 89 7d b0          	mov    QWORD PTR [rbp-0x50],r15
    98bc:	4c 8b 7d a0          	mov    r15,QWORD PTR [rbp-0x60]
    98c0:	4d 89 7d 08          	mov    QWORD PTR [r13+0x8],r15
    98c4:	4c 89 7d a0          	mov    QWORD PTR [rbp-0x60],r15
    98c8:	4c 89 75 98          	mov    QWORD PTR [rbp-0x68],r14
    98cc:	e9 8a 00 00 00       	jmp    0x995b
    98d1:	4c 8b 7d 98          	mov    r15,QWORD PTR [rbp-0x68]
    98d5:	49 8b 77 08          	mov    rsi,QWORD PTR [r15+0x8]
    98d9:	4c 8b 75 b0          	mov    r14,QWORD PTR [rbp-0x50]
    98dd:	49 8b 7e 10          	mov    rdi,QWORD PTR [r14+0x10]
    98e1:	4c 89 7d 98          	mov    QWORD PTR [rbp-0x68],r15
    98e5:	4c 8b 7d a0          	mov    r15,QWORD PTR [rbp-0x60]
    98e9:	4c 89 fa             	mov    rdx,r15
    98ec:	4c 89 7d a0          	mov    QWORD PTR [rbp-0x60],r15
    98f0:	49 bf 09 dd 5e 55 55 	movabs r15,0x5555555edd09
    98f7:	55 00 00 
    98fa:	4d 8d 6d f8          	lea    r13,[r13-0x8]
    98fe:	4d 89 7d 00          	mov    QWORD PTR [r13+0x0],r15
    9902:	4c 89 75 b0          	mov    QWORD PTR [rbp-0x50],r14
    9906:	e9 f2 59 00 00       	jmp    0xf2fd
    990b:	85 c0                	test   eax,eax
    990d:	0f 85 81 00 00 00    	jne    0x9994
    9913:	4c 8b 7d 98          	mov    r15,QWORD PTR [rbp-0x68]
    9917:	49 8b 47 10          	mov    rax,QWORD PTR [r15+0x10]
    991b:	49 8b 54 c5 40       	mov    rdx,QWORD PTR [r13+rax*8+0x40]
    9920:	41 f6 47 18 02       	test   BYTE PTR [r15+0x18],0x2
    9925:	4c 89 7d 98          	mov    QWORD PTR [rbp-0x68],r15
    9929:	0f 85 1c 05 00 00    	jne    0x9e4b
    992f:	48 85 d2             	test   rdx,rdx
    9932:	0f 85 ea 0b 00 00    	jne    0xa522
    9938:	4c 8b 7d b0          	mov    r15,QWORD PTR [rbp-0x50]
    993c:	49 8d 57 18          	lea    rdx,[r15+0x18]
    9940:	48 83 c3 01          	add    rbx,0x1
    9944:	49 83 c7 30          	add    r15,0x30
    9948:	49 89 54 c5 40       	mov    QWORD PTR [r13+rax*8+0x40],rdx
    994d:	49 3b 5d 18          	cmp    rbx,QWORD PTR [r13+0x18]
    9951:	4c 89 7d b0          	mov    QWORD PTR [rbp-0x50],r15
    9955:	0f 84 82 09 00 00    	je     0xa2dd
    995b:	4d 85 e4             	test   r12,r12
    995e:	74 49                	je     0x99a9
    9960:	4c 8b 7d b0          	mov    r15,QWORD PTR [rbp-0x50]
    9964:	4c 8b 75 a0          	mov    r14,QWORD PTR [rbp-0x60]
    9968:	4d 8b 77 08          	mov    r14,QWORD PTR [r15+0x8]
    996c:	4c 89 7d b0          	mov    QWORD PTR [rbp-0x50],r15
    9970:	4c 8b 7d 98          	mov    r15,QWORD PTR [rbp-0x68]
    9974:	4d 8b 7d 08          	mov    r15,QWORD PTR [r13+0x8]
    9978:	4c 89 e0             	mov    rax,r12
    997b:	4c 89 7d 98          	mov    QWORD PTR [rbp-0x68],r15
    997f:	4c 89 75 a0          	mov    QWORD PTR [rbp-0x60],r14
    9983:	4c 8b 7d a0          	mov    r15,QWORD PTR [rbp-0x60]
    9987:	49 39 c7             	cmp    r15,rax
    998a:	4c 89 7d a0          	mov    QWORD PTR [rbp-0x60],r15
    998e:	0f 84 3d ff ff ff    	je     0x98d1
    9994:	4c 8b 7d 98          	mov    r15,QWORD PTR [rbp-0x68]
    9998:	49 8b 47 20          	mov    rax,QWORD PTR [r15+0x20]
    999c:	49 83 c7 20          	add    r15,0x20
    99a0:	48 85 c0             	test   rax,rax
    99a3:	4c 89 7d 98          	mov    QWORD PTR [rbp-0x68],r15
    99a7:	75 da                	jne    0x9983
    99a9:	4c 8b 7d b0          	mov    r15,QWORD PTR [rbp-0x50]
    99ad:	4d 8b 7d 28          	mov    r15,QWORD PTR [r13+0x28]
    99b1:	4c 8b 75 a8          	mov    r14,QWORD PTR [rbp-0x58]
    99b5:	4d 8b 75 20          	mov    r14,QWORD PTR [r13+0x20]
    99b9:	48 89 df             	mov    rdi,rbx
    99bc:	49 8b 47 08          	mov    rax,QWORD PTR [r15+0x8]
    99c0:	48 8b 70 50          	mov    rsi,QWORD PTR [rax+0x50]
    99c4:	48 83 3e 02          	cmp    QWORD PTR [rsi],0x2
    99c8:	4c 89 7d b0          	mov    QWORD PTR [rbp-0x50],r15
    99cc:	4c 89 75 a8          	mov    QWORD PTR [rbp-0x58],r14
    99d0:	0f 86 0d f0 ff ff    	jbe    0x89e3
    99d6:	48 8d 04 7d 00 00 00 	lea    rax,[rdi*2+0x0]
    99dd:	00 
    99de:	49 8b 7d 38          	mov    rdi,QWORD PTR [r13+0x38]
    99e2:	4c 8b 7d a8          	mov    r15,QWORD PTR [rbp-0x58]
    99e6:	4d 8d 4f 28          	lea    r9,[r15+0x28]
    99ea:	31 d2                	xor    edx,edx
    99ec:	48 c1 e0 04          	shl    rax,0x4
    99f0:	49 be a5 dd 5e 55 55 	movabs r14,0x5555555edda5
    99f7:	55 00 00 
    99fa:	49 8d 8e 5b 05 05 00 	lea    rcx,[r14+0x5055b]
    9a01:	4c 8d 44 38 08       	lea    r8,[rax+rdi*1+0x8]
    9a06:	bf 04 00 00 00       	mov    edi,0x4
    9a0b:	31 c0                	xor    eax,eax
    9a0d:	49 be b6 dd 5e 55 55 	movabs r14,0x5555555eddb6
    9a14:	55 00 00 
    9a17:	4d 8d 6d f8          	lea    r13,[r13-0x8]
    9a1b:	4d 89 75 00          	mov    QWORD PTR [r13+0x0],r14
    9a1f:	4c 89 7d a8          	mov    QWORD PTR [rbp-0x58],r15
    9a23:	e9 52 66 ff ff       	jmp    0x7a
    9a28:	e9 b6 ef ff ff       	jmp    0x89e3
    9a2d:	49 bf 27 de 5e 55 55 	movabs r15,0x5555555ede27
    9a34:	55 00 00 
    9a37:	49 8d 8f b0 ff 04 00 	lea    rcx,[r15+0x4ffb0]
    9a3e:	31 d2                	xor    edx,edx
    9a40:	bf 08 00 00 00       	mov    edi,0x8
    9a45:	31 c0                	xor    eax,eax
    9a47:	49 bf 35 de 5e 55 55 	movabs r15,0x5555555ede35
    9a4e:	55 00 00 
    9a51:	4d 8d 6d f8          	lea    r13,[r13-0x8]
    9a55:	4d 89 7d 00          	mov    QWORD PTR [r13+0x0],r15
    9a59:	e9 1c 66 ff ff       	jmp    0x7a
    9a5e:	4c 8b 7d a8          	mov    r15,QWORD PTR [rbp-0x58]
    9a62:	4d 8b 87 60 01 00 00 	mov    r8,QWORD PTR [r15+0x160]
    9a69:	4c 89 7d a8          	mov    QWORD PTR [rbp-0x58],r15
    9a6d:	e9 99 ed ff ff       	jmp    0x880b
    9a72:	31 d2                	xor    edx,edx
    9a74:	bf 04 00 00 00       	mov    edi,0x4
    9a79:	31 c0                	xor    eax,eax
    9a7b:	49 bf 79 de 5e 55 55 	movabs r15,0x5555555ede79
    9a82:	55 00 00 
    9a85:	4d 8d 6d f8          	lea    r13,[r13-0x8]
    9a89:	4d 89 7d 00          	mov    QWORD PTR [r13+0x0],r15
    9a8d:	e9 e8 65 ff ff       	jmp    0x7a
    9a92:	e9 90 f3 ff ff       	jmp    0x8e27
    9a97:	83 e2 67             	and    edx,0x67
    9a9a:	4c 8b 7d a0          	mov    r15,QWORD PTR [rbp-0x60]
    9a9e:	41 88 57 48          	mov    BYTE PTR [r15+0x48],dl
    9aa2:	4c 89 7d a0          	mov    QWORD PTR [rbp-0x60],r15
    9aa6:	e9 d6 ee ff ff       	jmp    0x8981
    9aab:	44 0f b6 c1          	movzx  r8d,cl
    9aaf:	31 d2                	xor    edx,edx
    9ab1:	31 c0                	xor    eax,eax
    9ab3:	bf 04 00 00 00       	mov    edi,0x4
    9ab8:	4c 8b 7d a8          	mov    r15,QWORD PTR [rbp-0x58]
    9abc:	4d 8d 4f 28          	lea    r9,[r15+0x28]
    9ac0:	49 be a8 de 5e 55 55 	movabs r14,0x5555555edea8
    9ac7:	55 00 00 
    9aca:	49 8d 8e a8 03 05 00 	lea    rcx,[r14+0x503a8]
    9ad1:	45 88 5d 20          	mov    BYTE PTR [r13+0x20],r11b
    9ad5:	4d 89 55 18          	mov    QWORD PTR [r13+0x18],r10
    9ad9:	49 be b7 de 5e 55 55 	movabs r14,0x5555555edeb7
    9ae0:	55 00 00 
    9ae3:	4d 8d 6d f8          	lea    r13,[r13-0x8]
    9ae7:	4d 89 75 00          	mov    QWORD PTR [r13+0x0],r14
    9aeb:	4c 89 7d a8          	mov    QWORD PTR [rbp-0x58],r15
    9aef:	e9 86 65 ff ff       	jmp    0x7a
    9af4:	4c 8b 7d 98          	mov    r15,QWORD PTR [rbp-0x68]
    9af8:	4d 39 e7             	cmp    r15,r12
    9afb:	4d 8b 55 18          	mov    r10,QWORD PTR [r13+0x18]
    9aff:	45 0f b6 5d 20       	movzx  r11d,BYTE PTR [r13+0x20]
    9b04:	4c 89 7d 98          	mov    QWORD PTR [rbp-0x68],r15
    9b08:	0f 86 43 f3 ff ff    	jbe    0x8e51
    9b0e:	49 8b 45 08          	mov    rax,QWORD PTR [r13+0x8]
    9b12:	0f b6 48 01          	movzx  ecx,BYTE PTR [rax+0x1]
    9b16:	4c 8b 7d a8          	mov    r15,QWORD PTR [rbp-0x58]
    9b1a:	49 8b 47 10          	mov    rax,QWORD PTR [r15+0x10]
    9b1e:	48 85 c0             	test   rax,rax
    9b21:	0f 94 c2             	sete   dl
    9b24:	41 21 d3             	and    r11d,edx
    9b27:	4c 89 7d a8          	mov    QWORD PTR [rbp-0x58],r15
    9b2b:	e9 51 f0 ff ff       	jmp    0x8b81
    9b30:	4c 8b 7d a8          	mov    r15,QWORD PTR [rbp-0x58]
    9b34:	41 f6 87 a0 01 00 00 	test   BYTE PTR [r15+0x1a0],0x20
    9b3b:	20 
    9b3c:	4c 89 7d a8          	mov    QWORD PTR [rbp-0x58],r15
    9b40:	0f 84 ec fa ff ff    	je     0x9632
    9b46:	4c 8b 7d b0          	mov    r15,QWORD PTR [rbp-0x50]
    9b4a:	49 8b 47 08          	mov    rax,QWORD PTR [r15+0x8]
    9b4e:	48 8b 70 50          	mov    rsi,QWORD PTR [rax+0x50]
    9b52:	48 83 3e 02          	cmp    QWORD PTR [rsi],0x2
    9b56:	4c 89 7d b0          	mov    QWORD PTR [rbp-0x50],r15
    9b5a:	0f 86 83 ee ff ff    	jbe    0x89e3
    9b60:	4c 8b 7d a8          	mov    r15,QWORD PTR [rbp-0x58]
    9b64:	4d 8d 47 28          	lea    r8,[r15+0x28]
    9b68:	49 be 1b df 5e 55 55 	movabs r14,0x5555555edf1b
    9b6f:	55 00 00 
    9b72:	49 8d 8e c7 fe 04 00 	lea    rcx,[r14+0x4fec7]
    9b79:	31 d2                	xor    edx,edx
    9b7b:	31 c0                	xor    eax,eax
    9b7d:	bf 04 00 00 00       	mov    edi,0x4
    9b82:	49 be 29 df 5e 55 55 	movabs r14,0x5555555edf29
    9b89:	55 00 00 
    9b8c:	4d 8d 6d f8          	lea    r13,[r13-0x8]
    9b90:	4d 89 75 00          	mov    QWORD PTR [r13+0x0],r14
    9b94:	4c 89 7d a8          	mov    QWORD PTR [rbp-0x58],r15
    9b98:	e9 dd 64 ff ff       	jmp    0x7a
    9b9d:	e9 41 ee ff ff       	jmp    0x89e3
    9ba2:	4c 8b 7d b0          	mov    r15,QWORD PTR [rbp-0x50]
    9ba6:	49 8b 7f 58          	mov    rdi,QWORD PTR [r15+0x58]
    9baa:	be 50 00 00 00       	mov    esi,0x50
    9baf:	49 be 3e df 5e 55 55 	movabs r14,0x5555555edf3e
    9bb6:	55 00 00 
    9bb9:	4d 8d 6d f8          	lea    r13,[r13-0x8]
    9bbd:	4d 89 75 00          	mov    QWORD PTR [r13+0x0],r14
    9bc1:	4c 89 7d b0          	mov    QWORD PTR [rbp-0x50],r15
    9bc5:	e9 f5 5a 00 00       	jmp    0xf6bf
    9bca:	4c 8b 7d a0          	mov    r15,QWORD PTR [rbp-0x60]
    9bce:	49 89 c7             	mov    r15,rax
    9bd1:	48 85 c0             	test   rax,rax
    9bd4:	4c 89 7d a0          	mov    QWORD PTR [rbp-0x60],r15
    9bd8:	0f 84 3f e6 ff ff    	je     0x821d
    9bde:	4c 8b 7d b0          	mov    r15,QWORD PTR [rbp-0x50]
    9be2:	49 8b 7f 58          	mov    rdi,QWORD PTR [r15+0x58]
    9be6:	49 be 53 df 5e 55 55 	movabs r14,0x5555555edf53
    9bed:	55 00 00 
    9bf0:	4d 8d 6d f8          	lea    r13,[r13-0x8]
    9bf4:	4d 89 75 00          	mov    QWORD PTR [r13+0x0],r14
    9bf8:	4c 89 7d b0          	mov    QWORD PTR [rbp-0x50],r15
    9bfc:	e9 c0 54 00 00       	jmp    0xf0c1
    9c01:	48 85 c0             	test   rax,rax
    9c04:	0f 84 13 e6 ff ff    	je     0x821d
    9c0a:	4c 8b 7d a0          	mov    r15,QWORD PTR [rbp-0x60]
    9c0e:	4c 89 38             	mov    QWORD PTR [rax],r15
    9c11:	4c 89 7d a0          	mov    QWORD PTR [rbp-0x60],r15
    9c15:	e9 b8 ec ff ff       	jmp    0x88d2
    9c1a:	4c 8b 7d b0          	mov    r15,QWORD PTR [rbp-0x50]
    9c1e:	49 8b 7f 58          	mov    rdi,QWORD PTR [r15+0x58]
    9c22:	be 50 00 00 00       	mov    esi,0x50
    9c27:	49 be 76 df 5e 55 55 	movabs r14,0x5555555edf76
    9c2e:	55 00 00 
    9c31:	4d 8d 6d f8          	lea    r13,[r13-0x8]
    9c35:	4d 89 75 00          	mov    QWORD PTR [r13+0x0],r14
    9c39:	4c 89 7d b0          	mov    QWORD PTR [rbp-0x50],r15
    9c3d:	e9 71 57 00 00       	jmp    0xf3b3
    9c42:	48 89 c3             	mov    rbx,rax
    9c45:	48 85 c0             	test   rax,rax
    9c48:	0f 84 cf e5 ff ff    	je     0x821d
    9c4e:	4c 8b 7d b0          	mov    r15,QWORD PTR [rbp-0x50]
    9c52:	49 8b 7f 58          	mov    rdi,QWORD PTR [r15+0x58]
    9c56:	49 be 8b df 5e 55 55 	movabs r14,0x5555555edf8b
    9c5d:	55 00 00 
    9c60:	4d 8d 6d f8          	lea    r13,[r13-0x8]
    9c64:	4d 89 75 00          	mov    QWORD PTR [r13+0x0],r14
    9c68:	4c 89 7d b0          	mov    QWORD PTR [rbp-0x50],r15
    9c6c:	e9 50 54 00 00       	jmp    0xf0c1
    9c71:	48 85 c0             	test   rax,rax
    9c74:	0f 84 a3 e5 ff ff    	je     0x821d
    9c7a:	48 89 18             	mov    QWORD PTR [rax],rbx
    9c7d:	e9 d7 eb ff ff       	jmp    0x8859
    9c82:	4c 8b 7d b0          	mov    r15,QWORD PTR [rbp-0x50]
    9c86:	49 8b 47 08          	mov    rax,QWORD PTR [r15+0x8]
    9c8a:	48 8b 70 50          	mov    rsi,QWORD PTR [rax+0x50]
    9c8e:	48 83 3e 02          	cmp    QWORD PTR [rsi],0x2
    9c92:	4c 89 7d b0          	mov    QWORD PTR [rbp-0x50],r15
    9c96:	0f 86 47 ed ff ff    	jbe    0x89e3
    9c9c:	4c 8b 7d a8          	mov    r15,QWORD PTR [rbp-0x58]
    9ca0:	4d 8d 47 28          	lea    r8,[r15+0x28]
    9ca4:	49 be bd df 5e 55 55 	movabs r14,0x5555555edfbd
    9cab:	55 00 00 
    9cae:	49 8d 8e c3 02 05 00 	lea    rcx,[r14+0x502c3]
    9cb5:	31 d2                	xor    edx,edx
    9cb7:	31 c0                	xor    eax,eax
    9cb9:	bf 04 00 00 00       	mov    edi,0x4
    9cbe:	49 be cb df 5e 55 55 	movabs r14,0x5555555edfcb
    9cc5:	55 00 00 
    9cc8:	4d 8d 6d f8          	lea    r13,[r13-0x8]
    9ccc:	4d 89 75 00          	mov    QWORD PTR [r13+0x0],r14
    9cd0:	4c 89 7d a8          	mov    QWORD PTR [rbp-0x58],r15
    9cd4:	e9 a1 63 ff ff       	jmp    0x7a
    9cd9:	e9 05 ed ff ff       	jmp    0x89e3
    9cde:	4c 8b 7d b0          	mov    r15,QWORD PTR [rbp-0x50]
    9ce2:	49 8b 47 08          	mov    rax,QWORD PTR [r15+0x8]
    9ce6:	4d 85 d2             	test   r10,r10
    9ce9:	41 0f 95 45 08       	setne  BYTE PTR [r13+0x8]
    9cee:	48 8b 70 50          	mov    rsi,QWORD PTR [rax+0x50]
    9cf2:	41 0f b6 45 08       	movzx  eax,BYTE PTR [r13+0x8]
    9cf7:	48 8b 16             	mov    rdx,QWORD PTR [rsi]
    9cfa:	41 89 c3             	mov    r11d,eax
    9cfd:	80 f9 2d             	cmp    cl,0x2d
    9d00:	4c 89 7d b0          	mov    QWORD PTR [rbp-0x50],r15
    9d04:	0f 85 9d f5 ff ff    	jne    0x92a7
    9d0a:	48 83 fa 02          	cmp    rdx,0x2
    9d0e:	0f 87 ec 03 00 00    	ja     0xa100
    9d14:	4c 8b 7d a8          	mov    r15,QWORD PTR [rbp-0x58]
    9d18:	49 8b 47 10          	mov    rax,QWORD PTR [r15+0x10]
    9d1c:	48 85 c0             	test   rax,rax
    9d1f:	41 0f 94 c3          	sete   r11b
    9d23:	45 22 5d 08          	and    r11b,BYTE PTR [r13+0x8]
    9d27:	4c 8b 75 98          	mov    r14,QWORD PTR [rbp-0x68]
    9d2b:	4d 39 e6             	cmp    r14,r12
    9d2e:	4c 89 7d a8          	mov    QWORD PTR [rbp-0x58],r15
    9d32:	4c 89 75 98          	mov    QWORD PTR [rbp-0x68],r14
    9d36:	0f 87 3a f5 ff ff    	ja     0x9276
    9d3c:	4c 89 d3             	mov    rbx,r10
    9d3f:	b9 12 00 00 00       	mov    ecx,0x12
    9d44:	e9 f5 f1 ff ff       	jmp    0x8f3e
    9d49:	4c 8b 7d b0          	mov    r15,QWORD PTR [rbp-0x50]
    9d4d:	49 8b 47 08          	mov    rax,QWORD PTR [r15+0x8]
    9d51:	4c 89 d3             	mov    rbx,r10
    9d54:	b9 11 00 00 00       	mov    ecx,0x11
    9d59:	48 8b 70 50          	mov    rsi,QWORD PTR [rax+0x50]
    9d5d:	4c 8b 75 a8          	mov    r14,QWORD PTR [rbp-0x58]
    9d61:	49 8b 46 10          	mov    rax,QWORD PTR [r14+0x10]
    9d65:	48 85 c0             	test   rax,rax
    9d68:	48 8b 16             	mov    rdx,QWORD PTR [rsi]
    9d6b:	41 0f 94 c3          	sete   r11b
    9d6f:	45 21 e3             	and    r11d,r12d
    9d72:	4d 8b 65 08          	mov    r12,QWORD PTR [r13+0x8]
    9d76:	4c 89 7d b0          	mov    QWORD PTR [rbp-0x50],r15
    9d7a:	4c 89 75 a8          	mov    QWORD PTR [rbp-0x58],r14
    9d7e:	e9 bb f1 ff ff       	jmp    0x8f3e
    9d83:	48 83 fa 02          	cmp    rdx,0x2
    9d87:	0f 86 c3 f4 ff ff    	jbe    0x9250
    9d8d:	45 88 5d 18          	mov    BYTE PTR [r13+0x18],r11b
    9d91:	4c 8b 7d a8          	mov    r15,QWORD PTR [rbp-0x58]
    9d95:	49 8d 57 28          	lea    rdx,[r15+0x28]
    9d99:	49 83 ed 08          	sub    r13,0x8
    9d9d:	49 8b 47 60          	mov    rax,QWORD PTR [r15+0x60]
    9da1:	4d 89 55 10          	mov    QWORD PTR [r13+0x10],r10
    9da5:	41 b8 2d 00 00 00    	mov    r8d,0x2d
    9dab:	bf 04 00 00 00       	mov    edi,0x4
    9db0:	49 be ca e0 5e 55 55 	movabs r14,0x5555555ee0ca
    9db7:	55 00 00 
    9dba:	49 8d 8e a6 00 05 00 	lea    rcx,[r14+0x500a6]
    9dc1:	4d 8d 6d f8          	lea    r13,[r13-0x8]
    9dc5:	49 89 55 00          	mov    QWORD PTR [r13+0x0],rdx
    9dc9:	4c 8d 48 08          	lea    r9,[rax+0x8]
    9dcd:	31 d2                	xor    edx,edx
    9dcf:	31 c0                	xor    eax,eax
    9dd1:	49 be d8 e0 5e 55 55 	movabs r14,0x5555555ee0d8
    9dd8:	55 00 00 
    9ddb:	4d 8d 6d f8          	lea    r13,[r13-0x8]
    9ddf:	4d 89 75 00          	mov    QWORD PTR [r13+0x0],r14
    9de3:	4c 89 7d a8          	mov    QWORD PTR [rbp-0x58],r15
    9de7:	e9 8e 62 ff ff       	jmp    0x7a
    9dec:	4c 8b 7d 98          	mov    r15,QWORD PTR [rbp-0x68]
    9df0:	4d 39 e7             	cmp    r15,r12
    9df3:	49 8b 45 00          	mov    rax,QWORD PTR [r13+0x0]
    9df7:	4d 8d 6d 08          	lea    r13,[r13+0x8]
    9dfb:	49 8b 55 00          	mov    rdx,QWORD PTR [r13+0x0]
    9dff:	4d 8d 6d 08          	lea    r13,[r13+0x8]
    9e03:	4d 8b 55 08          	mov    r10,QWORD PTR [r13+0x8]
    9e07:	45 0f b6 5d 18       	movzx  r11d,BYTE PTR [r13+0x18]
    9e0c:	4c 89 7d 98          	mov    QWORD PTR [rbp-0x68],r15
    9e10:	0f 87 be 00 00 00    	ja     0x9ed4
    9e16:	4c 8b 7d b0          	mov    r15,QWORD PTR [rbp-0x50]
    9e1a:	49 8b 47 08          	mov    rax,QWORD PTR [r15+0x8]
    9e1e:	4c 89 d3             	mov    rbx,r10
    9e21:	48 8b 70 50          	mov    rsi,QWORD PTR [rax+0x50]
    9e25:	4c 8b 75 a8          	mov    r14,QWORD PTR [rbp-0x58]
    9e29:	49 8b 46 10          	mov    rax,QWORD PTR [r14+0x10]
    9e2d:	48 85 c0             	test   rax,rax
    9e30:	48 8b 16             	mov    rdx,QWORD PTR [rsi]
    9e33:	0f 94 c1             	sete   cl
    9e36:	41 21 cb             	and    r11d,ecx
    9e39:	b9 12 00 00 00       	mov    ecx,0x12
    9e3e:	4c 89 7d b0          	mov    QWORD PTR [rbp-0x50],r15
    9e42:	4c 89 75 a8          	mov    QWORD PTR [rbp-0x58],r14
    9e46:	e9 f3 f0 ff ff       	jmp    0x8f3e
    9e4b:	48 85 d2             	test   rdx,rdx
    9e4e:	0f 84 e4 fa ff ff    	je     0x9938
    9e54:	90                   	nop
    9e55:	48 83 c0 01          	add    rax,0x1
    9e59:	4c 8b 7d a8          	mov    r15,QWORD PTR [rbp-0x58]
    9e5d:	49 83 3c c7 00       	cmp    QWORD PTR [r15+rax*8],0x0
    9e62:	4c 89 7d a8          	mov    QWORD PTR [rbp-0x58],r15
    9e66:	75 ed                	jne    0x9e55
    9e68:	e9 cb fa ff ff       	jmp    0x9938
    9e6d:	4c 8b 7d a8          	mov    r15,QWORD PTR [rbp-0x58]
    9e71:	49 8b 47 60          	mov    rax,QWORD PTR [r15+0x60]
    9e75:	31 d2                	xor    edx,edx
    9e77:	4d 8d 4f 28          	lea    r9,[r15+0x28]
    9e7b:	bf 04 00 00 00       	mov    edi,0x4
    9e80:	49 be 56 e1 5e 55 55 	movabs r14,0x5555555ee156
    9e87:	55 00 00 
    9e8a:	49 8d 8e 62 ff 04 00 	lea    rcx,[r14+0x4ff62]
    9e91:	45 88 5d 18          	mov    BYTE PTR [r13+0x18],r11b
    9e95:	4c 8d 40 08          	lea    r8,[rax+0x8]
    9e99:	31 c0                	xor    eax,eax
    9e9b:	4d 89 55 08          	mov    QWORD PTR [r13+0x8],r10
    9e9f:	49 be 6b e1 5e 55 55 	movabs r14,0x5555555ee16b
    9ea6:	55 00 00 
    9ea9:	4d 8d 6d f8          	lea    r13,[r13-0x8]
    9ead:	4d 89 75 00          	mov    QWORD PTR [r13+0x0],r14
    9eb1:	4c 89 7d a8          	mov    QWORD PTR [rbp-0x58],r15
    9eb5:	e9 c0 61 ff ff       	jmp    0x7a
    9eba:	4c 8b 7d 98          	mov    r15,QWORD PTR [rbp-0x68]
    9ebe:	4d 39 e7             	cmp    r15,r12
    9ec1:	4d 8b 55 08          	mov    r10,QWORD PTR [r13+0x8]
    9ec5:	45 0f b6 5d 18       	movzx  r11d,BYTE PTR [r13+0x18]
    9eca:	4c 89 7d 98          	mov    QWORD PTR [rbp-0x68],r15
    9ece:	0f 86 42 ff ff ff    	jbe    0x9e16
    9ed4:	4c 8b 7d a8          	mov    r15,QWORD PTR [rbp-0x58]
    9ed8:	49 8b 47 10          	mov    rax,QWORD PTR [r15+0x10]
    9edc:	0f b6 4b 01          	movzx  ecx,BYTE PTR [rbx+0x1]
    9ee0:	4c 89 e3             	mov    rbx,r12
    9ee3:	48 85 c0             	test   rax,rax
    9ee6:	0f 94 c2             	sete   dl
    9ee9:	41 21 d3             	and    r11d,edx
    9eec:	4c 89 7d a8          	mov    QWORD PTR [rbp-0x58],r15
    9ef0:	e9 6c f0 ff ff       	jmp    0x8f61
    9ef5:	4c 8b 7d b0          	mov    r15,QWORD PTR [rbp-0x50]
    9ef9:	49 8b 7f 58          	mov    rdi,QWORD PTR [r15+0x58]
    9efd:	49 be a9 e1 5e 55 55 	movabs r14,0x5555555ee1a9
    9f04:	55 00 00 
    9f07:	4d 8d 6d f8          	lea    r13,[r13-0x8]
    9f0b:	4d 89 75 00          	mov    QWORD PTR [r13+0x0],r14
    9f0f:	4c 89 7d b0          	mov    QWORD PTR [rbp-0x50],r15
    9f13:	e9 e1 52 00 00       	jmp    0xf1f9
    9f18:	48 89 c3             	mov    rbx,rax
    9f1b:	48 85 c0             	test   rax,rax
    9f1e:	0f 84 f9 e2 ff ff    	je     0x821d
    9f24:	4c 8b 7d a8          	mov    r15,QWORD PTR [rbp-0x58]
    9f28:	49 8b 97 60 01 00 00 	mov    rdx,QWORD PTR [r15+0x160]
    9f2f:	48 85 d2             	test   rdx,rdx
    9f32:	4c 89 7d a8          	mov    QWORD PTR [rbp-0x58],r15
    9f36:	0f 85 68 05 00 00    	jne    0xa4a4
    9f3c:	48 8b 78 08          	mov    rdi,QWORD PTR [rax+0x8]
    9f40:	4c 8b 7d a8          	mov    r15,QWORD PTR [rbp-0x58]
    9f44:	49 8b 77 10          	mov    rsi,QWORD PTR [r15+0x10]
    9f48:	49 8b 57 18          	mov    rdx,QWORD PTR [r15+0x18]
    9f4c:	48 29 f2             	sub    rdx,rsi
    9f4f:	49 be d9 e1 5e 55 55 	movabs r14,0x5555555ee1d9
    9f56:	55 00 00 
    9f59:	4d 8d 6d f8          	lea    r13,[r13-0x8]
    9f5d:	4d 89 75 00          	mov    QWORD PTR [r13+0x0],r14
    9f61:	4c 89 7d a8          	mov    QWORD PTR [rbp-0x58],r15
    9f65:	e9 63 54 00 00       	jmp    0xf3cd
    9f6a:	4c 8b 7d a8          	mov    r15,QWORD PTR [rbp-0x58]
    9f6e:	49 8b 57 18          	mov    rdx,QWORD PTR [r15+0x18]
    9f72:	49 2b 57 10          	sub    rdx,QWORD PTR [r15+0x10]
    9f76:	48 01 d0             	add    rax,rdx
    9f79:	4c 8b 75 b0          	mov    r14,QWORD PTR [rbp-0x50]
    9f7d:	49 8b 7e 58          	mov    rdi,QWORD PTR [r14+0x58]
    9f81:	48 89 43 08          	mov    QWORD PTR [rbx+0x8],rax
    9f85:	4c 89 7d a8          	mov    QWORD PTR [rbp-0x58],r15
    9f89:	49 bf f1 e1 5e 55 55 	movabs r15,0x5555555ee1f1
    9f90:	55 00 00 
    9f93:	4d 8d 6d f8          	lea    r13,[r13-0x8]
    9f97:	4d 89 7d 00          	mov    QWORD PTR [r13+0x0],r15
    9f9b:	4c 89 75 b0          	mov    QWORD PTR [rbp-0x50],r14
    9f9f:	e9 1d 51 00 00       	jmp    0xf0c1
    9fa4:	48 85 c0             	test   rax,rax
    9fa7:	0f 84 70 e2 ff ff    	je     0x821d
    9fad:	4c 8b 7d b0          	mov    r15,QWORD PTR [rbp-0x50]
    9fb1:	49 8b 97 68 04 00 00 	mov    rdx,QWORD PTR [r15+0x468]
    9fb8:	49 be 08 e2 5e 55 55 	movabs r14,0x5555555ee208
    9fbf:	55 00 00 
    9fc2:	49 8d b6 18 f8 07 00 	lea    rsi,[r14+0x7f818]
    9fc9:	48 c7 40 08 00 00 00 	mov    QWORD PTR [rax+0x8],0x0
    9fd0:	00 
    9fd1:	48 89 18             	mov    QWORD PTR [rax],rbx
    9fd4:	48 8b 0e             	mov    rcx,QWORD PTR [rsi]
    9fd7:	48 8b 52 10          	mov    rdx,QWORD PTR [rdx+0x10]
    9fdb:	48 8b 14 ca          	mov    rdx,QWORD PTR [rdx+rcx*8]
    9fdf:	48 8b 8a 80 01 00 00 	mov    rcx,QWORD PTR [rdx+0x180]
    9fe6:	48 8b 51 08          	mov    rdx,QWORD PTR [rcx+0x8]
    9fea:	48 8b 09             	mov    rcx,QWORD PTR [rcx]
    9fed:	48 c1 e2 05          	shl    rdx,0x5
    9ff1:	48 8d 4c 11 e0       	lea    rcx,[rcx+rdx*1-0x20]
    9ff6:	48 8b 51 10          	mov    rdx,QWORD PTR [rcx+0x10]
    9ffa:	48 85 d2             	test   rdx,rdx
    9ffd:	4c 89 7d b0          	mov    QWORD PTR [rbp-0x50],r15
    a001:	0f 84 e0 07 00 00    	je     0xa7e7
    a007:	90                   	nop
    a008:	48 89 d1             	mov    rcx,rdx
    a00b:	48 8b 52 08          	mov    rdx,QWORD PTR [rdx+0x8]
    a00f:	48 85 d2             	test   rdx,rdx
    a012:	75 f4                	jne    0xa008
    a014:	48 83 c1 08          	add    rcx,0x8
    a018:	48 89 01             	mov    QWORD PTR [rcx],rax
    a01b:	4c 8b 7d a0          	mov    r15,QWORD PTR [rbp-0x60]
    a01f:	45 31 ff             	xor    r15d,r15d
    a022:	4c 89 7d a0          	mov    QWORD PTR [rbp-0x60],r15
    a026:	e9 6f f3 ff ff       	jmp    0x939a
    a02b:	4c 8b 7d a8          	mov    r15,QWORD PTR [rbp-0x58]
    a02f:	49 8b 87 70 01 00 00 	mov    rax,QWORD PTR [r15+0x170]
    a036:	4c 8b 75 b0          	mov    r14,QWORD PTR [rbp-0x50]
    a03a:	49 8b 7e 58          	mov    rdi,QWORD PTR [r14+0x58]
    a03e:	48 8d 70 01          	lea    rsi,[rax+0x1]
    a042:	4c 89 7d a8          	mov    QWORD PTR [rbp-0x58],r15
    a046:	49 bf 7c e2 5e 55 55 	movabs r15,0x5555555ee27c
    a04d:	55 00 00 
    a050:	4d 8d 6d f8          	lea    r13,[r13-0x8]
    a054:	4d 89 7d 00          	mov    QWORD PTR [r13+0x0],r15
    a058:	4c 89 75 b0          	mov    QWORD PTR [rbp-0x50],r14
    a05c:	e9 56 54 00 00       	jmp    0xf4b7
    a061:	4d 8b 55 08          	mov    r10,QWORD PTR [r13+0x8]
    a065:	49 bf 88 e2 5e 55 55 	movabs r15,0x5555555ee288
    a06c:	55 00 00 
    a06f:	4d 8d 9f a8 02 05 00 	lea    r11,[r15+0x502a8]
    a076:	49 89 44 24 20       	mov    QWORD PTR [r12+0x20],rax
    a07b:	4c 8b 7d a8          	mov    r15,QWORD PTR [rbp-0x58]
    a07f:	49 8b 47 60          	mov    rax,QWORD PTR [r15+0x60]
    a083:	48 83 78 20 00       	cmp    QWORD PTR [rax+0x20],0x0
    a088:	4c 89 7d a8          	mov    QWORD PTR [rbp-0x58],r15
    a08c:	0f 84 02 e1 ff ff    	je     0x8194
    a092:	4c 8d 63 01          	lea    r12,[rbx+0x1]
    a096:	4c 8b 7d 98          	mov    r15,QWORD PTR [rbp-0x68]
    a09a:	4d 39 fc             	cmp    r12,r15
    a09d:	4c 89 7d 98          	mov    QWORD PTR [rbp-0x68],r15
    a0a1:	0f 82 43 ec ff ff    	jb     0x8cea
    a0a7:	4c 8b 7d b0          	mov    r15,QWORD PTR [rbp-0x50]
    a0ab:	49 8b 47 08          	mov    rax,QWORD PTR [r15+0x8]
    a0af:	4d 85 d2             	test   r10,r10
    a0b2:	4c 89 d3             	mov    rbx,r10
    a0b5:	41 0f 95 c3          	setne  r11b
    a0b9:	48 8b 70 50          	mov    rsi,QWORD PTR [rax+0x50]
    a0bd:	4c 8b 75 a8          	mov    r14,QWORD PTR [rbp-0x58]
    a0c1:	49 8b 46 10          	mov    rax,QWORD PTR [r14+0x10]
    a0c5:	48 85 c0             	test   rax,rax
    a0c8:	48 8b 16             	mov    rdx,QWORD PTR [rsi]
    a0cb:	0f 94 c1             	sete   cl
    a0ce:	41 21 cb             	and    r11d,ecx
    a0d1:	b9 08 00 00 00       	mov    ecx,0x8
    a0d6:	4c 89 7d b0          	mov    QWORD PTR [rbp-0x50],r15
    a0da:	4c 89 75 a8          	mov    QWORD PTR [rbp-0x58],r14
    a0de:	e9 5b ee ff ff       	jmp    0x8f3e
    a0e3:	4c 89 d3             	mov    rbx,r10
    a0e6:	b9 11 00 00 00       	mov    ecx,0x11
    a0eb:	e9 4e ee ff ff       	jmp    0x8f3e
    a0f0:	4c 8b 7d 98          	mov    r15,QWORD PTR [rbp-0x68]
    a0f4:	49 89 c7             	mov    r15,rax
    a0f7:	4c 89 7d 98          	mov    QWORD PTR [rbp-0x68],r15
    a0fb:	e9 2c e1 ff ff       	jmp    0x822c
    a100:	4d 89 55 18          	mov    QWORD PTR [r13+0x18],r10
    a104:	4c 8b 7d a8          	mov    r15,QWORD PTR [rbp-0x58]
    a108:	49 8d 57 28          	lea    rdx,[r15+0x28]
    a10c:	49 83 ed 08          	sub    r13,0x8
    a110:	49 8b 47 60          	mov    rax,QWORD PTR [r15+0x60]
    a114:	4d 8d 6d f8          	lea    r13,[r13-0x8]
    a118:	49 89 55 00          	mov    QWORD PTR [r13+0x0],rdx
    a11c:	49 be 69 e3 5e 55 55 	movabs r14,0x5555555ee369
    a123:	55 00 00 
    a126:	49 8d 8e c7 fd 04 00 	lea    rcx,[r14+0x4fdc7]
    a12d:	31 d2                	xor    edx,edx
    a12f:	41 b8 2d 00 00 00    	mov    r8d,0x2d
    a135:	4c 8d 48 08          	lea    r9,[rax+0x8]
    a139:	bf 04 00 00 00       	mov    edi,0x4
    a13e:	31 c0                	xor    eax,eax
    a140:	49 be 81 e3 5e 55 55 	movabs r14,0x5555555ee381
    a147:	55 00 00 
    a14a:	4d 8d 6d f8          	lea    r13,[r13-0x8]
    a14e:	4d 89 75 00          	mov    QWORD PTR [r13+0x0],r14
    a152:	4c 89 7d a8          	mov    QWORD PTR [rbp-0x58],r15
    a156:	e9 1f 5f ff ff       	jmp    0x7a
    a15b:	4c 8b 7d 98          	mov    r15,QWORD PTR [rbp-0x68]
    a15f:	4d 39 e7             	cmp    r15,r12
    a162:	49 8b 4d 00          	mov    rcx,QWORD PTR [r13+0x0]
    a166:	4d 8d 6d 08          	lea    r13,[r13+0x8]
    a16a:	49 8b 75 00          	mov    rsi,QWORD PTR [r13+0x0]
    a16e:	4d 8d 6d 08          	lea    r13,[r13+0x8]
    a172:	4d 8b 55 18          	mov    r10,QWORD PTR [r13+0x18]
    a176:	4c 89 7d 98          	mov    QWORD PTR [rbp-0x68],r15
    a17a:	0f 86 d4 09 00 00    	jbe    0xab54
    a180:	4c 8b 7d a8          	mov    r15,QWORD PTR [rbp-0x58]
    a184:	49 8b 47 10          	mov    rax,QWORD PTR [r15+0x10]
    a188:	0f b6 4b 01          	movzx  ecx,BYTE PTR [rbx+0x1]
    a18c:	4c 89 e3             	mov    rbx,r12
    a18f:	48 85 c0             	test   rax,rax
    a192:	41 0f 94 c3          	sete   r11b
    a196:	45 22 5d 08          	and    r11b,BYTE PTR [r13+0x8]
    a19a:	4c 89 7d a8          	mov    QWORD PTR [rbp-0x58],r15
    a19e:	e9 be ed ff ff       	jmp    0x8f61
    a1a3:	49 83 c4 08          	add    r12,0x8
    a1a7:	4c 8b 7d a0          	mov    r15,QWORD PTR [rbp-0x60]
    a1ab:	45 31 ff             	xor    r15d,r15d
    a1ae:	90                   	nop
    a1af:	4c 89 7d a0          	mov    QWORD PTR [rbp-0x60],r15
    a1b3:	48 8d 50 01          	lea    rdx,[rax+0x1]
    a1b7:	4c 8b 7d a0          	mov    r15,QWORD PTR [rbp-0x60]
    a1bb:	49 83 c7 01          	add    r15,0x1
    a1bf:	49 83 c4 30          	add    r12,0x30
    a1c3:	4c 8b 75 98          	mov    r14,QWORD PTR [rbp-0x68]
    a1c7:	49 89 56 08          	mov    QWORD PTR [r14+0x8],rdx
    a1cb:	c6 00 20             	mov    BYTE PTR [rax],0x20
    a1ce:	49 8b 74 24 d8       	mov    rsi,QWORD PTR [r12-0x28]
    a1d3:	49 8b 54 24 d0       	mov    rdx,QWORD PTR [r12-0x30]
    a1d8:	49 8b 7e 08          	mov    rdi,QWORD PTR [r14+0x8]
    a1dc:	4c 89 7d a0          	mov    QWORD PTR [rbp-0x60],r15
    a1e0:	49 bf e6 e3 5e 55 55 	movabs r15,0x5555555ee3e6
    a1e7:	55 00 00 
    a1ea:	4d 8d 6d f8          	lea    r13,[r13-0x8]
    a1ee:	4d 89 7d 00          	mov    QWORD PTR [r13+0x0],r15
    a1f2:	4c 89 75 98          	mov    QWORD PTR [rbp-0x68],r14
    a1f6:	e9 d2 51 00 00       	jmp    0xf3cd
    a1fb:	49 03 44 24 d0       	add    rax,QWORD PTR [r12-0x30]
    a200:	48 8d 50 01          	lea    rdx,[rax+0x1]
    a204:	4c 8b 7d 98          	mov    r15,QWORD PTR [rbp-0x68]
    a208:	49 89 57 08          	mov    QWORD PTR [r15+0x8],rdx
    a20c:	c6 00 3d             	mov    BYTE PTR [rax],0x3d
    a20f:	49 8b 47 08          	mov    rax,QWORD PTR [r15+0x8]
    a213:	48 8d 50 01          	lea    rdx,[rax+0x1]
    a217:	49 89 57 08          	mov    QWORD PTR [r15+0x8],rdx
    a21b:	c6 00 22             	mov    BYTE PTR [rax],0x22
    a21e:	49 8b 54 24 e0       	mov    rdx,QWORD PTR [r12-0x20]
    a223:	49 8b 74 24 e8       	mov    rsi,QWORD PTR [r12-0x18]
    a228:	49 8b 7f 08          	mov    rdi,QWORD PTR [r15+0x8]
    a22c:	49 be 19 e4 5e 55 55 	movabs r14,0x5555555ee419
    a233:	55 00 00 
    a236:	4d 8d 6d f8          	lea    r13,[r13-0x8]
    a23a:	4d 89 75 00          	mov    QWORD PTR [r13+0x0],r14
    a23e:	4c 89 7d 98          	mov    QWORD PTR [rbp-0x68],r15
    a242:	e9 86 51 00 00       	jmp    0xf3cd
    a247:	49 03 44 24 e0       	add    rax,QWORD PTR [r12-0x20]
    a24c:	48 8d 50 01          	lea    rdx,[rax+0x1]
    a250:	4c 8b 7d 98          	mov    r15,QWORD PTR [rbp-0x68]
    a254:	49 89 57 08          	mov    QWORD PTR [r15+0x8],rdx
    a258:	c6 00 22             	mov    BYTE PTR [rax],0x22
    a25b:	4c 8b 75 a0          	mov    r14,QWORD PTR [rbp-0x60]
    a25f:	4c 89 7d 98          	mov    QWORD PTR [rbp-0x68],r15
    a263:	4c 8b 7d a8          	mov    r15,QWORD PTR [rbp-0x58]
    a267:	4d 39 77 40          	cmp    QWORD PTR [r15+0x40],r14
    a26b:	4c 89 7d a8          	mov    QWORD PTR [rbp-0x58],r15
    a26f:	4c 8b 7d 98          	mov    r15,QWORD PTR [rbp-0x68]
    a273:	49 8b 47 08          	mov    rax,QWORD PTR [r15+0x8]
    a277:	4c 89 7d 98          	mov    QWORD PTR [rbp-0x68],r15
    a27b:	4c 89 75 a0          	mov    QWORD PTR [rbp-0x60],r14
    a27f:	0f 87 2e ff ff ff    	ja     0xa1b3
    a285:	e9 04 f3 ff ff       	jmp    0x958e
    a28a:	4c 8b 7d a8          	mov    r15,QWORD PTR [rbp-0x58]
    a28e:	49 83 bf 30 01 00 00 	cmp    QWORD PTR [r15+0x130],0x0
    a295:	00 
    a296:	4c 89 7d a8          	mov    QWORD PTR [rbp-0x58],r15
    a29a:	0f 84 eb 08 00 00    	je     0xab8b
    a2a0:	4c 8b 7d a8          	mov    r15,QWORD PTR [rbp-0x58]
    a2a4:	4c 89 fe             	mov    rsi,r15
    a2a7:	4c 8b 75 b0          	mov    r14,QWORD PTR [rbp-0x50]
    a2ab:	4c 89 f7             	mov    rdi,r14
    a2ae:	4c 89 7d a8          	mov    QWORD PTR [rbp-0x58],r15
    a2b2:	49 bf 77 e4 5e 55 55 	movabs r15,0x5555555ee477
    a2b9:	55 00 00 
    a2bc:	4d 8d 6d f8          	lea    r13,[r13-0x8]
    a2c0:	4d 89 7d 00          	mov    QWORD PTR [r13+0x0],r15
    a2c4:	4c 89 75 b0          	mov    QWORD PTR [rbp-0x50],r14
    a2c8:	e9 28 4e 00 00       	jmp    0xf0f5
    a2cd:	4c 8b 7d 98          	mov    r15,QWORD PTR [rbp-0x68]
    a2d1:	49 89 c7             	mov    r15,rax
    a2d4:	4c 89 7d 98          	mov    QWORD PTR [rbp-0x68],r15
    a2d8:	e9 4f df ff ff       	jmp    0x822c
    a2dd:	4c 8b 7d a8          	mov    r15,QWORD PTR [rbp-0x58]
    a2e1:	4d 8b 7d 20          	mov    r15,QWORD PTR [r13+0x20]
    a2e5:	4c 8b 75 a0          	mov    r14,QWORD PTR [rbp-0x60]
    a2e9:	4d 8b 75 08          	mov    r14,QWORD PTR [r13+0x8]
    a2ed:	4c 89 7d a8          	mov    QWORD PTR [rbp-0x58],r15
    a2f1:	4c 8b 7d b0          	mov    r15,QWORD PTR [rbp-0x50]
    a2f5:	4d 8b 7d 28          	mov    r15,QWORD PTR [r13+0x28]
    a2f9:	90                   	nop
    a2fa:	4c 89 7d b0          	mov    QWORD PTR [rbp-0x50],r15
    a2fe:	4c 89 75 a0          	mov    QWORD PTR [rbp-0x60],r14
    a302:	4c 8b 7d a0          	mov    r15,QWORD PTR [rbp-0x60]
    a306:	41 f6 47 18 01       	test   BYTE PTR [r15+0x18],0x1
    a30b:	4c 89 7d a0          	mov    QWORD PTR [rbp-0x60],r15
    a30f:	74 18                	je     0xa329
    a311:	4c 8b 7d a0          	mov    r15,QWORD PTR [rbp-0x60]
    a315:	49 8b 47 10          	mov    rax,QWORD PTR [r15+0x10]
    a319:	49 83 7c c5 40 00    	cmp    QWORD PTR [r13+rax*8+0x40],0x0
    a31f:	4c 89 7d a0          	mov    QWORD PTR [rbp-0x60],r15
    a323:	0f 84 db 03 00 00    	je     0xa704
    a329:	4c 8b 7d a0          	mov    r15,QWORD PTR [rbp-0x60]
    a32d:	49 83 c7 20          	add    r15,0x20
    a331:	49 83 3f 00          	cmp    QWORD PTR [r15],0x0
    a335:	4c 89 7d a0          	mov    QWORD PTR [rbp-0x60],r15
    a339:	75 c7                	jne    0xa302
    a33b:	49 8b 45 00          	mov    rax,QWORD PTR [r13+0x0]
    a33f:	f6 40 20 08          	test   BYTE PTR [rax+0x20],0x8
    a343:	74 66                	je     0xa3ab
    a345:	4c 8b 7d a8          	mov    r15,QWORD PTR [rbp-0x58]
    a349:	49 83 bf 30 01 00 00 	cmp    QWORD PTR [r15+0x130],0x0
    a350:	00 
    a351:	4c 89 7d a8          	mov    QWORD PTR [rbp-0x58],r15
    a355:	74 54                	je     0xa3ab
    a357:	4c 8b 7d b0          	mov    r15,QWORD PTR [rbp-0x50]
    a35b:	49 8b 47 08          	mov    rax,QWORD PTR [r15+0x8]
    a35f:	48 8b 70 50          	mov    rsi,QWORD PTR [rax+0x50]
    a363:	48 f7 06 00 01 00 00 	test   QWORD PTR [rsi],0x100
    a36a:	4c 89 7d b0          	mov    QWORD PTR [rbp-0x50],r15
    a36e:	0f 85 85 04 00 00    	jne    0xa7f9
    a374:	4c 8b 7d a8          	mov    r15,QWORD PTR [rbp-0x58]
    a378:	4c 89 fe             	mov    rsi,r15
    a37b:	4c 8b 75 b0          	mov    r14,QWORD PTR [rbp-0x50]
    a37f:	4c 89 f7             	mov    rdi,r14
    a382:	4c 89 7d a8          	mov    QWORD PTR [rbp-0x58],r15
    a386:	49 bf e6 e4 5e 55 55 	movabs r15,0x5555555ee4e6
    a38d:	55 00 00 
    a390:	4d 8d 6d f8          	lea    r13,[r13-0x8]
    a394:	4d 89 7d 00          	mov    QWORD PTR [r13+0x0],r15
    a398:	4c 89 75 b0          	mov    QWORD PTR [rbp-0x50],r14
    a39c:	e9 54 4d 00 00       	jmp    0xf0f5
    a3a1:	48 83 f8 ff          	cmp    rax,0xffffffffffffffff
    a3a5:	0f 84 72 de ff ff    	je     0x821d
    a3ab:	49 8b 45 00          	mov    rax,QWORD PTR [r13+0x0]
    a3af:	49 8b 55 30          	mov    rdx,QWORD PTR [r13+0x30]
    a3b3:	4c 8b 7d a8          	mov    r15,QWORD PTR [rbp-0x58]
    a3b7:	4c 89 fe             	mov    rsi,r15
    a3ba:	4c 8b 75 b0          	mov    r14,QWORD PTR [rbp-0x50]
    a3be:	4c 89 f7             	mov    rdi,r14
    a3c1:	4c 89 7d a8          	mov    QWORD PTR [rbp-0x58],r15
    a3c5:	49 bf 02 e5 5e 55 55 	movabs r15,0x5555555ee502
    a3cc:	55 00 00 
    a3cf:	4d 8d 6d f8          	lea    r13,[r13-0x8]
    a3d3:	4d 89 7d 00          	mov    QWORD PTR [r13+0x0],r15
    a3d7:	4c 8b 78 10          	mov    r15,QWORD PTR [rax+0x10]
    a3db:	4d 89 fe             	mov    r14,r15
    a3de:	e9 25 48 00 00       	jmp    0xec08
    a3e3:	4c 8b 7d 98          	mov    r15,QWORD PTR [rbp-0x68]
    a3e7:	49 89 c7             	mov    r15,rax
    a3ea:	48 85 c0             	test   rax,rax
    a3ed:	4c 89 7d 98          	mov    QWORD PTR [rbp-0x68],r15
    a3f1:	0f 84 3b f2 ff ff    	je     0x9632
    a3f7:	48 83 e0 fd          	and    rax,0xfffffffffffffffd
    a3fb:	48 83 f8 fc          	cmp    rax,0xfffffffffffffffc
    a3ff:	74 12                	je     0xa413
    a401:	4c 8b 7d 98          	mov    r15,QWORD PTR [rbp-0x68]
    a405:	49 83 ff ff          	cmp    r15,0xffffffffffffffff
    a409:	4c 89 7d 98          	mov    QWORD PTR [rbp-0x68],r15
    a40d:	0f 85 d0 e5 ff ff    	jne    0x89e3
    a413:	4c 8b 7d b0          	mov    r15,QWORD PTR [rbp-0x50]
    a417:	41 0f b6 87 1c 05 00 	movzx  eax,BYTE PTR [r15+0x51c]
    a41e:	00 
    a41f:	4c 8b 75 a8          	mov    r14,QWORD PTR [rbp-0x58]
    a423:	49 8b 0e             	mov    rcx,QWORD PTR [r14]
    a426:	89 c2                	mov    edx,eax
    a428:	83 e2 0f             	and    edx,0xf
    a42b:	49 0b 8e 28 01 00 00 	or     rcx,QWORD PTR [r14+0x128]
    a432:	4c 89 7d b0          	mov    QWORD PTR [rbp-0x50],r15
    a436:	4c 89 75 a8          	mov    QWORD PTR [rbp-0x58],r14
    a43a:	0f 84 9a 07 00 00    	je     0xabda
    a440:	83 ca 01             	or     edx,0x1
    a443:	83 e0 f0             	and    eax,0xfffffff0
    a446:	09 d0                	or     eax,edx
    a448:	4c 8b 7d b0          	mov    r15,QWORD PTR [rbp-0x50]
    a44c:	41 88 87 1c 05 00 00 	mov    BYTE PTR [r15+0x51c],al
    a453:	4c 89 7d b0          	mov    QWORD PTR [rbp-0x50],r15
    a457:	e9 d0 dd ff ff       	jmp    0x822c
    a45c:	4c 8b 7d b0          	mov    r15,QWORD PTR [rbp-0x50]
    a460:	49 8b 47 08          	mov    rax,QWORD PTR [r15+0x8]
    a464:	4c 8b 75 a8          	mov    r14,QWORD PTR [rbp-0x58]
    a468:	4d 89 66 08          	mov    QWORD PTR [r14+0x8],r12
    a46c:	4c 89 e3             	mov    rbx,r12
    a46f:	49 c7 86 50 01 00 00 	mov    QWORD PTR [r14+0x150],0x0
    a476:	00 00 00 00 
    a47a:	49 c7 86 68 01 00 00 	mov    QWORD PTR [r14+0x168],0x0
    a481:	00 00 00 00 
    a485:	48 8b 70 50          	mov    rsi,QWORD PTR [rax+0x50]
    a489:	49 8b 46 10          	mov    rax,QWORD PTR [r14+0x10]
    a48d:	48 8b 16             	mov    rdx,QWORD PTR [rsi]
    a490:	48 85 c0             	test   rax,rax
    a493:	41 0f 94 c3          	sete   r11b
    a497:	4c 89 7d b0          	mov    QWORD PTR [rbp-0x50],r15
    a49b:	4c 89 75 a8          	mov    QWORD PTR [rbp-0x58],r14
    a49f:	e9 e5 e2 ff ff       	jmp    0x8789
    a4a4:	48 8b 38             	mov    rdi,QWORD PTR [rax]
    a4a7:	49 bf 9a e5 5e 55 55 	movabs r15,0x5555555ee59a
    a4ae:	55 00 00 
    a4b1:	49 8d b7 46 ef 07 00 	lea    rsi,[r15+0x7ef46]
    a4b8:	49 bf 9f e5 5e 55 55 	movabs r15,0x5555555ee59f
    a4bf:	55 00 00 
    a4c2:	4d 8d 6d f8          	lea    r13,[r13-0x8]
    a4c6:	4d 89 7d 00          	mov    QWORD PTR [r13+0x0],r15
    a4ca:	e9 fe 4e 00 00       	jmp    0xf3cd
    a4cf:	4c 8b 7d a8          	mov    r15,QWORD PTR [rbp-0x58]
    a4d3:	49 03 87 60 01 00 00 	add    rax,QWORD PTR [r15+0x160]
    a4da:	48 89 43 08          	mov    QWORD PTR [rbx+0x8],rax
    a4de:	48 89 c7             	mov    rdi,rax
    a4e1:	4c 89 7d a8          	mov    QWORD PTR [rbp-0x58],r15
    a4e5:	e9 56 fa ff ff       	jmp    0x9f40
    a4ea:	4c 8b 7d b0          	mov    r15,QWORD PTR [rbp-0x50]
    a4ee:	49 8b 47 08          	mov    rax,QWORD PTR [r15+0x8]
    a4f2:	b9 01 00 00 00       	mov    ecx,0x1
    a4f7:	48 8b 70 50          	mov    rsi,QWORD PTR [rax+0x50]
    a4fb:	4c 8b 75 a8          	mov    r14,QWORD PTR [rbp-0x58]
    a4ff:	49 8b 46 10          	mov    rax,QWORD PTR [r14+0x10]
    a503:	48 85 c0             	test   rax,rax
    a506:	48 8b 16             	mov    rdx,QWORD PTR [rsi]
    a509:	49 c7 45 00 01 00 00 	mov    QWORD PTR [r13+0x0],0x1
    a510:	00 
    a511:	41 0f 94 c3          	sete   r11b
    a515:	4c 89 7d b0          	mov    QWORD PTR [rbp-0x50],r15
    a519:	4c 89 75 a8          	mov    QWORD PTR [rbp-0x58],r14
    a51d:	e9 1c ea ff ff       	jmp    0x8f3e
    a522:	4c 8b 7d b0          	mov    r15,QWORD PTR [rbp-0x50]
    a526:	4c 8b 75 98          	mov    r14,QWORD PTR [rbp-0x68]
    a52a:	4d 89 fe             	mov    r14,r15
    a52d:	4d 8b 7d 28          	mov    r15,QWORD PTR [r13+0x28]
    a531:	4c 89 7d b0          	mov    QWORD PTR [rbp-0x50],r15
    a535:	4c 8b 7d a8          	mov    r15,QWORD PTR [rbp-0x58]
    a539:	4d 8b 7d 20          	mov    r15,QWORD PTR [r13+0x20]
    a53d:	4c 89 7d a8          	mov    QWORD PTR [rbp-0x58],r15
    a541:	4c 8b 7d b0          	mov    r15,QWORD PTR [rbp-0x50]
    a545:	49 8b 47 08          	mov    rax,QWORD PTR [r15+0x8]
    a549:	48 8b 70 50          	mov    rsi,QWORD PTR [rax+0x50]
    a54d:	48 83 3e 02          	cmp    QWORD PTR [rsi],0x2
    a551:	4c 89 7d b0          	mov    QWORD PTR [rbp-0x50],r15
    a555:	4c 89 75 98          	mov    QWORD PTR [rbp-0x68],r14
    a559:	0f 86 84 e4 ff ff    	jbe    0x89e3
    a55f:	4c 8b 7d a8          	mov    r15,QWORD PTR [rbp-0x58]
    a563:	4d 8d 4f 28          	lea    r9,[r15+0x28]
    a567:	4c 8b 75 98          	mov    r14,QWORD PTR [rbp-0x68]
    a56b:	4d 8d 46 08          	lea    r8,[r14+0x8]
    a56f:	31 d2                	xor    edx,edx
    a571:	bf 04 00 00 00       	mov    edi,0x4
    a576:	4c 89 7d a8          	mov    QWORD PTR [rbp-0x58],r15
    a57a:	49 bf 10 e6 5e 55 55 	movabs r15,0x5555555ee610
    a581:	55 00 00 
    a584:	49 8d 8f c0 fc 04 00 	lea    rcx,[r15+0x4fcc0]
    a58b:	31 c0                	xor    eax,eax
    a58d:	49 bf 17 e6 5e 55 55 	movabs r15,0x5555555ee617
    a594:	55 00 00 
    a597:	4d 8d 6d f8          	lea    r13,[r13-0x8]
    a59b:	4d 89 7d 00          	mov    QWORD PTR [r13+0x0],r15
    a59f:	4c 89 75 98          	mov    QWORD PTR [rbp-0x68],r14
    a5a3:	e9 d2 5a ff ff       	jmp    0x7a
    a5a8:	e9 36 e4 ff ff       	jmp    0x89e3
    a5ad:	4c 8b 7d b0          	mov    r15,QWORD PTR [rbp-0x50]
    a5b1:	49 8b 47 08          	mov    rax,QWORD PTR [r15+0x8]
    a5b5:	49 89 dc             	mov    r12,rbx
    a5b8:	b9 01 00 00 00       	mov    ecx,0x1
    a5bd:	4c 89 d3             	mov    rbx,r10
    a5c0:	49 c7 45 00 01 00 00 	mov    QWORD PTR [r13+0x0],0x1
    a5c7:	00 
    a5c8:	48 8b 70 50          	mov    rsi,QWORD PTR [rax+0x50]
    a5cc:	4c 8b 75 a8          	mov    r14,QWORD PTR [rbp-0x58]
    a5d0:	49 8b 46 10          	mov    rax,QWORD PTR [r14+0x10]
    a5d4:	48 85 c0             	test   rax,rax
    a5d7:	48 8b 16             	mov    rdx,QWORD PTR [rsi]
    a5da:	41 0f 94 c3          	sete   r11b
    a5de:	4c 89 7d b0          	mov    QWORD PTR [rbp-0x50],r15
    a5e2:	4c 89 75 a8          	mov    QWORD PTR [rbp-0x58],r14
    a5e6:	e9 53 e9 ff ff       	jmp    0x8f3e
    a5eb:	4c 8b 7d b0          	mov    r15,QWORD PTR [rbp-0x50]
    a5ef:	49 8b 47 08          	mov    rax,QWORD PTR [r15+0x8]
    a5f3:	4d 85 d2             	test   r10,r10
    a5f6:	4c 89 d3             	mov    rbx,r10
    a5f9:	41 0f 95 c3          	setne  r11b
    a5fd:	48 8b 70 50          	mov    rsi,QWORD PTR [rax+0x50]
    a601:	4c 8b 75 a8          	mov    r14,QWORD PTR [rbp-0x58]
    a605:	49 8b 46 10          	mov    rax,QWORD PTR [r14+0x10]
    a609:	48 85 c0             	test   rax,rax
    a60c:	48 8b 16             	mov    rdx,QWORD PTR [rsi]
    a60f:	0f 94 c1             	sete   cl
    a612:	41 21 cb             	and    r11d,ecx
    a615:	b9 0a 00 00 00       	mov    ecx,0xa
    a61a:	4c 89 7d b0          	mov    QWORD PTR [rbp-0x50],r15
    a61e:	4c 89 75 a8          	mov    QWORD PTR [rbp-0x58],r14
    a622:	e9 17 e9 ff ff       	jmp    0x8f3e
    a627:	49 89 c4             	mov    r12,rax
    a62a:	4c 8b 7d b0          	mov    r15,QWORD PTR [rbp-0x50]
    a62e:	49 8b 47 08          	mov    rax,QWORD PTR [r15+0x8]
    a632:	4d 85 d2             	test   r10,r10
    a635:	4c 89 d3             	mov    rbx,r10
    a638:	41 0f 95 c3          	setne  r11b
    a63c:	48 8b 70 50          	mov    rsi,QWORD PTR [rax+0x50]
    a640:	4c 8b 75 a8          	mov    r14,QWORD PTR [rbp-0x58]
    a644:	49 8b 46 10          	mov    rax,QWORD PTR [r14+0x10]
    a648:	48 85 c0             	test   rax,rax
    a64b:	48 8b 16             	mov    rdx,QWORD PTR [rsi]
    a64e:	0f 94 c1             	sete   cl
    a651:	41 21 cb             	and    r11d,ecx
    a654:	b9 07 00 00 00       	mov    ecx,0x7
    a659:	4c 89 7d b0          	mov    QWORD PTR [rbp-0x50],r15
    a65d:	4c 89 75 a8          	mov    QWORD PTR [rbp-0x58],r14
    a661:	e9 d8 e8 ff ff       	jmp    0x8f3e
    a666:	4c 8b 7d b0          	mov    r15,QWORD PTR [rbp-0x50]
    a66a:	49 8b 47 08          	mov    rax,QWORD PTR [r15+0x8]
    a66e:	4d 85 d2             	test   r10,r10
    a671:	49 89 dc             	mov    r12,rbx
    a674:	4c 89 d3             	mov    rbx,r10
    a677:	41 0f 95 c3          	setne  r11b
    a67b:	48 8b 70 50          	mov    rsi,QWORD PTR [rax+0x50]
    a67f:	4c 8b 75 a8          	mov    r14,QWORD PTR [rbp-0x58]
    a683:	49 8b 46 10          	mov    rax,QWORD PTR [r14+0x10]
    a687:	48 85 c0             	test   rax,rax
    a68a:	48 8b 16             	mov    rdx,QWORD PTR [rsi]
    a68d:	0f 94 c1             	sete   cl
    a690:	41 21 cb             	and    r11d,ecx
    a693:	b9 05 00 00 00       	mov    ecx,0x5
    a698:	4c 89 7d b0          	mov    QWORD PTR [rbp-0x50],r15
    a69c:	4c 89 75 a8          	mov    QWORD PTR [rbp-0x58],r14
    a6a0:	e9 99 e8 ff ff       	jmp    0x8f3e
    a6a5:	4c 8b 7d b0          	mov    r15,QWORD PTR [rbp-0x50]
    a6a9:	49 8b 57 08          	mov    rdx,QWORD PTR [r15+0x8]
    a6ad:	49 89 dc             	mov    r12,rbx
    a6b0:	b9 11 00 00 00       	mov    ecx,0x11
    a6b5:	4c 89 d3             	mov    rbx,r10
    a6b8:	48 8b 72 50          	mov    rsi,QWORD PTR [rdx+0x50]
    a6bc:	48 8b 16             	mov    rdx,QWORD PTR [rsi]
    a6bf:	4c 89 7d b0          	mov    QWORD PTR [rbp-0x50],r15
    a6c3:	e9 76 e8 ff ff       	jmp    0x8f3e
    a6c8:	4c 8b 7d b0          	mov    r15,QWORD PTR [rbp-0x50]
    a6cc:	49 8b 47 08          	mov    rax,QWORD PTR [r15+0x8]
    a6d0:	4d 85 d2             	test   r10,r10
    a6d3:	4c 89 d3             	mov    rbx,r10
    a6d6:	41 0f 95 c3          	setne  r11b
    a6da:	48 8b 70 50          	mov    rsi,QWORD PTR [rax+0x50]
    a6de:	4c 8b 75 a8          	mov    r14,QWORD PTR [rbp-0x58]
    a6e2:	49 8b 46 10          	mov    rax,QWORD PTR [r14+0x10]
    a6e6:	48 85 c0             	test   rax,rax
    a6e9:	48 8b 16             	mov    rdx,QWORD PTR [rsi]
    a6ec:	0f 94 c1             	sete   cl
    a6ef:	41 21 cb             	and    r11d,ecx
    a6f2:	b9 09 00 00 00       	mov    ecx,0x9
    a6f7:	4c 89 7d b0          	mov    QWORD PTR [rbp-0x50],r15
    a6fb:	4c 89 75 a8          	mov    QWORD PTR [rbp-0x58],r14
    a6ff:	e9 3a e8 ff ff       	jmp    0x8f3e
    a704:	4c 8b 7d b0          	mov    r15,QWORD PTR [rbp-0x50]
    a708:	49 8b 47 08          	mov    rax,QWORD PTR [r15+0x8]
    a70c:	48 8b 70 50          	mov    rsi,QWORD PTR [rax+0x50]
    a710:	48 83 3e 02          	cmp    QWORD PTR [rsi],0x2
    a714:	4c 89 7d b0          	mov    QWORD PTR [rbp-0x50],r15
    a718:	0f 86 c5 e2 ff ff    	jbe    0x89e3
    a71e:	4c 8b 7d a8          	mov    r15,QWORD PTR [rbp-0x58]
    a722:	4d 8d 4f 28          	lea    r9,[r15+0x28]
    a726:	4c 8b 75 a0          	mov    r14,QWORD PTR [rbp-0x60]
    a72a:	4d 89 f0             	mov    r8,r14
    a72d:	4c 89 7d a8          	mov    QWORD PTR [rbp-0x58],r15
    a731:	49 bf 8f e7 5e 55 55 	movabs r15,0x5555555ee78f
    a738:	55 00 00 
    a73b:	49 8d 8f a9 fb 04 00 	lea    rcx,[r15+0x4fba9]
    a742:	31 d2                	xor    edx,edx
    a744:	bf 04 00 00 00       	mov    edi,0x4
    a749:	31 c0                	xor    eax,eax
    a74b:	49 bf 9d e7 5e 55 55 	movabs r15,0x5555555ee79d
    a752:	55 00 00 
    a755:	4d 8d 6d f8          	lea    r13,[r13-0x8]
    a759:	4d 89 7d 00          	mov    QWORD PTR [r13+0x0],r15
    a75d:	4c 89 75 a0          	mov    QWORD PTR [rbp-0x60],r14
    a761:	e9 14 59 ff ff       	jmp    0x7a
    a766:	e9 78 e2 ff ff       	jmp    0x89e3
    a76b:	4c 8b 7d a8          	mov    r15,QWORD PTR [rbp-0x58]
    a76f:	49 8b 87 48 01 00 00 	mov    rax,QWORD PTR [r15+0x148]
    a776:	48 85 c0             	test   rax,rax
    a779:	4c 89 7d a8          	mov    QWORD PTR [rbp-0x58],r15
    a77d:	0f 84 ac 00 00 00    	je     0xa82f
    a783:	48 8b 50 08          	mov    rdx,QWORD PTR [rax+0x8]
    a787:	4c 8b 10             	mov    r10,QWORD PTR [rax]
    a78a:	66 0f ef c0          	pxor   xmm0,xmm0
    a78e:	4c 8b 7d a8          	mov    r15,QWORD PTR [rbp-0x58]
    a792:	49 89 97 48 01 00 00 	mov    QWORD PTR [r15+0x148],rdx
    a799:	41 0f 11 02          	movups XMMWORD PTR [r10],xmm0
    a79d:	41 0f 11 42 10       	movups XMMWORD PTR [r10+0x10],xmm0
    a7a2:	41 0f 11 42 20       	movups XMMWORD PTR [r10+0x20],xmm0
    a7a7:	41 0f 11 42 30       	movups XMMWORD PTR [r10+0x30],xmm0
    a7ac:	41 0f 11 42 40       	movups XMMWORD PTR [r10+0x40],xmm0
    a7b1:	4c 89 7d a8          	mov    QWORD PTR [rbp-0x58],r15
    a7b5:	41 80 4a 48 40       	or     BYTE PTR [r10+0x48],0x40
    a7ba:	4c 8b 7d a8          	mov    r15,QWORD PTR [rbp-0x58]
    a7be:	49 8b 97 38 01 00 00 	mov    rdx,QWORD PTR [r15+0x138]
    a7c5:	48 c7 40 08 00 00 00 	mov    QWORD PTR [rax+0x8],0x0
    a7cc:	00 
    a7cd:	48 89 02             	mov    QWORD PTR [rdx],rax
    a7d0:	48 83 c0 08          	add    rax,0x8
    a7d4:	49 89 87 38 01 00 00 	mov    QWORD PTR [r15+0x138],rax
    a7db:	49 8b 07             	mov    rax,QWORD PTR [r15]
    a7de:	4c 89 7d a8          	mov    QWORD PTR [rbp-0x58],r15
    a7e2:	e9 ea e2 ff ff       	jmp    0x8ad1
    a7e7:	48 83 c1 10          	add    rcx,0x10
    a7eb:	e9 28 f8 ff ff       	jmp    0xa018
    a7f0:	48 83 c2 10          	add    rdx,0x10
    a7f4:	e9 35 ee ff ff       	jmp    0x962e
    a7f9:	49 bf f0 e8 5e 55 55 	movabs r15,0x5555555ee8f0
    a800:	55 00 00 
    a803:	49 8d 8f 0c f5 04 00 	lea    rcx,[r15+0x4f50c]
    a80a:	31 d2                	xor    edx,edx
    a80c:	bf 08 00 00 00       	mov    edi,0x8
    a811:	31 c0                	xor    eax,eax
    a813:	49 bf fe e8 5e 55 55 	movabs r15,0x5555555ee8fe
    a81a:	55 00 00 
    a81d:	4d 8d 6d f8          	lea    r13,[r13-0x8]
    a821:	4d 89 7d 00          	mov    QWORD PTR [r13+0x0],r15
    a825:	e9 50 58 ff ff       	jmp    0x7a
    a82a:	e9 45 fb ff ff       	jmp    0xa374
    a82f:	4c 8b 7d b0          	mov    r15,QWORD PTR [rbp-0x50]
    a833:	49 8b 7f 58          	mov    rdi,QWORD PTR [r15+0x58]
    a837:	be 50 00 00 00       	mov    esi,0x50
    a83c:	49 be 11 e9 5e 55 55 	movabs r14,0x5555555ee911
    a843:	55 00 00 
    a846:	4d 8d 6d f8          	lea    r13,[r13-0x8]
    a84a:	4d 89 75 00          	mov    QWORD PTR [r13+0x0],r14
    a84e:	4c 89 7d b0          	mov    QWORD PTR [rbp-0x50],r15
    a852:	e9 5c 4b 00 00       	jmp    0xf3b3
    a857:	48 85 c0             	test   rax,rax
    a85a:	49 89 45 00          	mov    QWORD PTR [r13+0x0],rax
    a85e:	0f 84 b9 d9 ff ff    	je     0x821d
    a864:	4c 8b 7d b0          	mov    r15,QWORD PTR [rbp-0x50]
    a868:	49 8b 7f 58          	mov    rdi,QWORD PTR [r15+0x58]
    a86c:	49 be 27 e9 5e 55 55 	movabs r14,0x5555555ee927
    a873:	55 00 00 
    a876:	4d 8d 6d f8          	lea    r13,[r13-0x8]
    a87a:	4d 89 75 00          	mov    QWORD PTR [r13+0x0],r14
    a87e:	4c 89 7d b0          	mov    QWORD PTR [rbp-0x50],r15
    a882:	e9 3a 48 00 00       	jmp    0xf0c1
    a887:	48 85 c0             	test   rax,rax
    a88a:	0f 84 8d d9 ff ff    	je     0x821d
    a890:	4d 8b 55 00          	mov    r10,QWORD PTR [r13+0x0]
    a894:	4c 89 10             	mov    QWORD PTR [rax],r10
    a897:	e9 19 ff ff ff       	jmp    0xa7b5
    a89c:	4c 8b 7d b0          	mov    r15,QWORD PTR [rbp-0x50]
    a8a0:	49 8b 47 08          	mov    rax,QWORD PTR [r15+0x8]
    a8a4:	4d 85 d2             	test   r10,r10
    a8a7:	49 c7 45 00 02 00 00 	mov    QWORD PTR [r13+0x0],0x2
    a8ae:	00 
    a8af:	4c 89 d3             	mov    rbx,r10
    a8b2:	41 0f 95 c3          	setne  r11b
    a8b6:	48 8b 70 50          	mov    rsi,QWORD PTR [rax+0x50]
    a8ba:	4c 8b 75 a8          	mov    r14,QWORD PTR [rbp-0x58]
    a8be:	49 8b 46 10          	mov    rax,QWORD PTR [r14+0x10]
    a8c2:	48 85 c0             	test   rax,rax
    a8c5:	48 8b 16             	mov    rdx,QWORD PTR [rsi]
    a8c8:	0f 94 c1             	sete   cl
    a8cb:	41 21 cb             	and    r11d,ecx
    a8ce:	b9 03 00 00 00       	mov    ecx,0x3
    a8d3:	4c 89 7d b0          	mov    QWORD PTR [rbp-0x50],r15
    a8d7:	4c 89 75 a8          	mov    QWORD PTR [rbp-0x58],r14
    a8db:	e9 5e e6 ff ff       	jmp    0x8f3e
    a8e0:	4c 8b 7d b0          	mov    r15,QWORD PTR [rbp-0x50]
    a8e4:	49 8b 57 08          	mov    rdx,QWORD PTR [r15+0x8]
    a8e8:	4c 89 d3             	mov    rbx,r10
    a8eb:	b9 13 00 00 00       	mov    ecx,0x13
    a8f0:	48 8b 72 50          	mov    rsi,QWORD PTR [rdx+0x50]
    a8f4:	48 8b 16             	mov    rdx,QWORD PTR [rsi]
    a8f7:	4c 89 7d b0          	mov    QWORD PTR [rbp-0x50],r15
    a8fb:	e9 3e e6 ff ff       	jmp    0x8f3e
    a900:	4c 8b 7d b0          	mov    r15,QWORD PTR [rbp-0x50]
    a904:	49 8b 47 08          	mov    rax,QWORD PTR [r15+0x8]
    a908:	4d 85 d2             	test   r10,r10
    a90b:	49 c7 45 00 02 00 00 	mov    QWORD PTR [r13+0x0],0x2
    a912:	00 
    a913:	4c 89 d3             	mov    rbx,r10
    a916:	41 0f 95 c3          	setne  r11b
    a91a:	48 8b 70 50          	mov    rsi,QWORD PTR [rax+0x50]
    a91e:	4c 8b 75 a8          	mov    r14,QWORD PTR [rbp-0x58]
    a922:	49 8b 46 10          	mov    rax,QWORD PTR [r14+0x10]
    a926:	48 85 c0             	test   rax,rax
    a929:	48 8b 16             	mov    rdx,QWORD PTR [rsi]
    a92c:	0f 94 c1             	sete   cl
    a92f:	41 21 cb             	and    r11d,ecx
    a932:	b9 02 00 00 00       	mov    ecx,0x2
    a937:	4c 89 7d b0          	mov    QWORD PTR [rbp-0x50],r15
    a93b:	4c 89 75 a8          	mov    QWORD PTR [rbp-0x58],r14
    a93f:	e9 fa e5 ff ff       	jmp    0x8f3e
    a944:	4c 8b 7d b0          	mov    r15,QWORD PTR [rbp-0x50]
    a948:	49 8b 57 08          	mov    rdx,QWORD PTR [r15+0x8]
    a94c:	49 89 dc             	mov    r12,rbx
    a94f:	b9 12 00 00 00       	mov    ecx,0x12
    a954:	4c 89 d3             	mov    rbx,r10
    a957:	48 8b 72 50          	mov    rsi,QWORD PTR [rdx+0x50]
    a95b:	48 8b 16             	mov    rdx,QWORD PTR [rsi]
    a95e:	4c 89 7d b0          	mov    QWORD PTR [rbp-0x50],r15
    a962:	e9 d7 e5 ff ff       	jmp    0x8f3e
    a967:	4c 8b 7d b0          	mov    r15,QWORD PTR [rbp-0x50]
    a96b:	49 8b 47 08          	mov    rax,QWORD PTR [r15+0x8]
    a96f:	48 85 db             	test   rbx,rbx
    a972:	41 0f 95 c3          	setne  r11b
    a976:	48 8b 70 50          	mov    rsi,QWORD PTR [rax+0x50]
    a97a:	4c 8b 75 a8          	mov    r14,QWORD PTR [rbp-0x58]
    a97e:	49 8b 46 10          	mov    rax,QWORD PTR [r14+0x10]
    a982:	48 85 c0             	test   rax,rax
    a985:	48 8b 16             	mov    rdx,QWORD PTR [rsi]
    a988:	0f 94 c1             	sete   cl
    a98b:	41 21 cb             	and    r11d,ecx
    a98e:	b9 01 00 00 00       	mov    ecx,0x1
    a993:	4c 89 7d b0          	mov    QWORD PTR [rbp-0x50],r15
    a997:	4c 89 75 a8          	mov    QWORD PTR [rbp-0x58],r14
    a99b:	e9 9e e5 ff ff       	jmp    0x8f3e
    a9a0:	4c 8b 7d b0          	mov    r15,QWORD PTR [rbp-0x50]
    a9a4:	49 8b 47 08          	mov    rax,QWORD PTR [r15+0x8]
    a9a8:	4d 85 d2             	test   r10,r10
    a9ab:	49 c7 45 00 04 00 00 	mov    QWORD PTR [r13+0x0],0x4
    a9b2:	00 
    a9b3:	4c 89 d3             	mov    rbx,r10
    a9b6:	41 0f 95 c3          	setne  r11b
    a9ba:	48 8b 70 50          	mov    rsi,QWORD PTR [rax+0x50]
    a9be:	4c 8b 75 a8          	mov    r14,QWORD PTR [rbp-0x58]
    a9c2:	49 8b 46 10          	mov    rax,QWORD PTR [r14+0x10]
    a9c6:	48 85 c0             	test   rax,rax
    a9c9:	48 8b 16             	mov    rdx,QWORD PTR [rsi]
    a9cc:	0f 94 c1             	sete   cl
    a9cf:	41 21 cb             	and    r11d,ecx
    a9d2:	b9 04 00 00 00       	mov    ecx,0x4
    a9d7:	4c 89 7d b0          	mov    QWORD PTR [rbp-0x50],r15
    a9db:	4c 89 75 a8          	mov    QWORD PTR [rbp-0x58],r14
    a9df:	e9 5a e5 ff ff       	jmp    0x8f3e
    a9e4:	4c 8b 7d a8          	mov    r15,QWORD PTR [rbp-0x58]
    a9e8:	49 8b 47 10          	mov    rax,QWORD PTR [r15+0x10]
    a9ec:	4c 89 d3             	mov    rbx,r10
    a9ef:	48 85 c0             	test   rax,rax
    a9f2:	0f 94 c1             	sete   cl
    a9f5:	41 21 cb             	and    r11d,ecx
    a9f8:	b9 10 00 00 00       	mov    ecx,0x10
    a9fd:	4c 89 7d a8          	mov    QWORD PTR [rbp-0x58],r15
    aa01:	e9 38 e5 ff ff       	jmp    0x8f3e
    aa06:	4c 8b 7d b0          	mov    r15,QWORD PTR [rbp-0x50]
    aa0a:	49 8b 47 08          	mov    rax,QWORD PTR [r15+0x8]
    aa0e:	4d 85 d2             	test   r10,r10
    aa11:	4c 89 d3             	mov    rbx,r10
    aa14:	41 0f 95 c3          	setne  r11b
    aa18:	48 8b 70 50          	mov    rsi,QWORD PTR [rax+0x50]
    aa1c:	4c 8b 75 a8          	mov    r14,QWORD PTR [rbp-0x58]
    aa20:	49 8b 46 10          	mov    rax,QWORD PTR [r14+0x10]
    aa24:	48 85 c0             	test   rax,rax
    aa27:	48 8b 16             	mov    rdx,QWORD PTR [rsi]
    aa2a:	49 c7 45 00 00 00 00 	mov    QWORD PTR [r13+0x0],0x0
    aa31:	00 
    aa32:	0f 94 c1             	sete   cl
    aa35:	41 21 cb             	and    r11d,ecx
    aa38:	b9 05 00 00 00       	mov    ecx,0x5
    aa3d:	4c 89 7d b0          	mov    QWORD PTR [rbp-0x50],r15
    aa41:	4c 89 75 a8          	mov    QWORD PTR [rbp-0x58],r14
    aa45:	e9 f4 e4 ff ff       	jmp    0x8f3e
    aa4a:	4c 8b 7d b0          	mov    r15,QWORD PTR [rbp-0x50]
    aa4e:	49 8b 47 08          	mov    rax,QWORD PTR [r15+0x8]
    aa52:	4d 85 d2             	test   r10,r10
    aa55:	49 89 dc             	mov    r12,rbx
    aa58:	4c 89 d3             	mov    rbx,r10
    aa5b:	41 0f 95 c3          	setne  r11b
    aa5f:	48 8b 70 50          	mov    rsi,QWORD PTR [rax+0x50]
    aa63:	4c 8b 75 a8          	mov    r14,QWORD PTR [rbp-0x58]
    aa67:	49 8b 46 10          	mov    rax,QWORD PTR [r14+0x10]
    aa6b:	48 85 c0             	test   rax,rax
    aa6e:	48 8b 16             	mov    rdx,QWORD PTR [rsi]
    aa71:	0f 94 c1             	sete   cl
    aa74:	41 21 cb             	and    r11d,ecx
    aa77:	b9 07 00 00 00       	mov    ecx,0x7
    aa7c:	4c 89 7d b0          	mov    QWORD PTR [rbp-0x50],r15
    aa80:	4c 89 75 a8          	mov    QWORD PTR [rbp-0x58],r14
    aa84:	e9 b5 e4 ff ff       	jmp    0x8f3e
    aa89:	4c 8b 7d b0          	mov    r15,QWORD PTR [rbp-0x50]
    aa8d:	49 8b 47 08          	mov    rax,QWORD PTR [r15+0x8]
    aa91:	4d 85 d2             	test   r10,r10
    aa94:	4c 89 d3             	mov    rbx,r10
    aa97:	41 0f 95 c3          	setne  r11b
    aa9b:	48 8b 70 50          	mov    rsi,QWORD PTR [rax+0x50]
    aa9f:	4c 8b 75 a8          	mov    r14,QWORD PTR [rbp-0x58]
    aaa3:	49 8b 46 10          	mov    rax,QWORD PTR [r14+0x10]
    aaa7:	48 85 c0             	test   rax,rax
    aaaa:	48 8b 16             	mov    rdx,QWORD PTR [rsi]
    aaad:	0f 94 c1             	sete   cl
    aab0:	41 21 cb             	and    r11d,ecx
    aab3:	b9 06 00 00 00       	mov    ecx,0x6
    aab8:	4c 89 7d b0          	mov    QWORD PTR [rbp-0x50],r15
    aabc:	4c 89 75 a8          	mov    QWORD PTR [rbp-0x58],r14
    aac0:	e9 79 e4 ff ff       	jmp    0x8f3e
    aac5:	49 89 45 08          	mov    QWORD PTR [r13+0x8],rax
    aac9:	4c 8b 7d b0          	mov    r15,QWORD PTR [rbp-0x50]
    aacd:	49 8b 47 08          	mov    rax,QWORD PTR [r15+0x8]
    aad1:	4d 85 d2             	test   r10,r10
    aad4:	4c 89 d3             	mov    rbx,r10
    aad7:	41 0f 95 c3          	setne  r11b
    aadb:	4d 8b 65 08          	mov    r12,QWORD PTR [r13+0x8]
    aadf:	48 8b 70 50          	mov    rsi,QWORD PTR [rax+0x50]
    aae3:	4c 8b 75 a8          	mov    r14,QWORD PTR [rbp-0x58]
    aae7:	49 8b 46 10          	mov    rax,QWORD PTR [r14+0x10]
    aaeb:	48 85 c0             	test   rax,rax
    aaee:	48 8b 16             	mov    rdx,QWORD PTR [rsi]
    aaf1:	0f 94 c1             	sete   cl
    aaf4:	41 21 cb             	and    r11d,ecx
    aaf7:	b9 06 00 00 00       	mov    ecx,0x6
    aafc:	4c 89 7d b0          	mov    QWORD PTR [rbp-0x50],r15
    ab00:	4c 89 75 a8          	mov    QWORD PTR [rbp-0x58],r14
    ab04:	e9 35 e4 ff ff       	jmp    0x8f3e
    ab09:	4c 8b 7d a8          	mov    r15,QWORD PTR [rbp-0x58]
    ab0d:	49 8b 07             	mov    rax,QWORD PTR [r15]
    ab10:	48 8b 00             	mov    rax,QWORD PTR [rax]
    ab13:	49 89 47 10          	mov    QWORD PTR [r15+0x10],rax
    ab17:	4c 89 7d a8          	mov    QWORD PTR [rbp-0x58],r15
    ab1b:	e9 9a e4 ff ff       	jmp    0x8fba
    ab20:	4c 8b 7d a8          	mov    r15,QWORD PTR [rbp-0x58]
    ab24:	49 8b 07             	mov    rax,QWORD PTR [r15]
    ab27:	4c 89 d3             	mov    rbx,r10
    ab2a:	45 31 e4             	xor    r12d,r12d
    ab2d:	48 8b 00             	mov    rax,QWORD PTR [rax]
    ab30:	49 89 47 10          	mov    QWORD PTR [r15+0x10],rax
    ab34:	4c 89 7d a8          	mov    QWORD PTR [rbp-0x58],r15
    ab38:	e9 77 dc ff ff       	jmp    0x87b4
    ab3d:	4c 8b 7d a0          	mov    r15,QWORD PTR [rbp-0x60]
    ab41:	49 83 3f 00          	cmp    QWORD PTR [r15],0x0
    ab45:	4c 89 7d a0          	mov    QWORD PTR [rbp-0x60],r15
    ab49:	0f 84 ec f7 ff ff    	je     0xa33b
    ab4f:	e9 ae f7 ff ff       	jmp    0xa302
    ab54:	4c 8b 7d b0          	mov    r15,QWORD PTR [rbp-0x50]
    ab58:	49 8b 47 08          	mov    rax,QWORD PTR [r15+0x8]
    ab5c:	4c 89 d3             	mov    rbx,r10
    ab5f:	b9 12 00 00 00       	mov    ecx,0x12
    ab64:	48 8b 70 50          	mov    rsi,QWORD PTR [rax+0x50]
    ab68:	4c 8b 75 a8          	mov    r14,QWORD PTR [rbp-0x58]
    ab6c:	49 8b 46 10          	mov    rax,QWORD PTR [r14+0x10]
    ab70:	48 85 c0             	test   rax,rax
    ab73:	48 8b 16             	mov    rdx,QWORD PTR [rsi]
    ab76:	41 0f 94 c3          	sete   r11b
    ab7a:	45 22 5d 08          	and    r11b,BYTE PTR [r13+0x8]
    ab7e:	4c 89 7d b0          	mov    QWORD PTR [rbp-0x50],r15
    ab82:	4c 89 75 a8          	mov    QWORD PTR [rbp-0x58],r14
    ab86:	e9 b3 e3 ff ff       	jmp    0x8f3e
    ab8b:	4c 8b 7d a8          	mov    r15,QWORD PTR [rbp-0x58]
    ab8f:	49 83 bf 40 01 00 00 	cmp    QWORD PTR [r15+0x140],0x0
    ab96:	00 
    ab97:	4c 89 7d a8          	mov    QWORD PTR [rbp-0x58],r15
    ab9b:	0f 85 ff f6 ff ff    	jne    0xa2a0
    aba1:	4c 8b 7d 98          	mov    r15,QWORD PTR [rbp-0x68]
    aba5:	45 31 ff             	xor    r15d,r15d
    aba8:	4c 89 7d 98          	mov    QWORD PTR [rbp-0x68],r15
    abac:	e9 7b d6 ff ff       	jmp    0x822c
    abb1:	49 bf c1 eb 5e 55 55 	movabs r15,0x5555555eebc1
    abb8:	55 00 00 
    abbb:	4d 8d 6d f8          	lea    r13,[r13-0x8]
    abbf:	4d 89 7d 00          	mov    QWORD PTR [r13+0x0],r15
    abc3:	e9 77 44 00 00       	jmp    0xf03f
    abc8:	4d 85 d2             	test   r10,r10
    abcb:	4c 89 d3             	mov    rbx,r10
    abce:	41 0f 95 c4          	setne  r12b
    abd2:	45 21 e3             	and    r11d,r12d
    abd5:	e9 af db ff ff       	jmp    0x8789
    abda:	83 e0 fe             	and    eax,0xfffffffe
    abdd:	4c 8b 7d b0          	mov    r15,QWORD PTR [rbp-0x50]
    abe1:	41 88 87 1c 05 00 00 	mov    BYTE PTR [r15+0x51c],al
    abe8:	4c 89 7d b0          	mov    QWORD PTR [rbp-0x50],r15
    abec:	e9 3b d6 ff ff       	jmp    0x822c
    abf1:	49 8b 7d 58          	mov    rdi,QWORD PTR [r13+0x58]
    abf5:	4c 8b 7d 88          	mov    r15,QWORD PTR [rbp-0x78]
    abf9:	49 33 7f 28          	xor    rdi,QWORD PTR [r15+0x28]
    abfd:	75 62                	jne    0xac61
    abff:	49 83 c5 68          	add    r13,0x68
    ac03:	49 8b 5d 00          	mov    rbx,QWORD PTR [r13+0x0]
    ac07:	4d 8d 6d 08          	lea    r13,[r13+0x8]
    ac0b:	4d 8b 65 00          	mov    r12,QWORD PTR [r13+0x0]
    ac0f:	4d 8d 6d 08          	lea    r13,[r13+0x8]
    ac13:	4c 8b 7d 98          	mov    r15,QWORD PTR [rbp-0x68]
    ac17:	4d 8b 7d 00          	mov    r15,QWORD PTR [r13+0x0]
    ac1b:	4d 8d 6d 08          	lea    r13,[r13+0x8]
    ac1f:	4c 8b 75 a0          	mov    r14,QWORD PTR [rbp-0x60]
    ac23:	4d 8b 75 00          	mov    r14,QWORD PTR [r13+0x0]
    ac27:	4d 8d 6d 08          	lea    r13,[r13+0x8]
    ac2b:	4c 89 7d 98          	mov    QWORD PTR [rbp-0x68],r15
    ac2f:	4c 8b 7d a8          	mov    r15,QWORD PTR [rbp-0x58]
    ac33:	4d 8b 7d 00          	mov    r15,QWORD PTR [r13+0x0]
    ac37:	4d 8d 6d 08          	lea    r13,[r13+0x8]
    ac3b:	4c 89 7d a8          	mov    QWORD PTR [rbp-0x58],r15
    ac3f:	4c 8b 7d b0          	mov    r15,QWORD PTR [rbp-0x50]
    ac43:	4d 8b 7d 00          	mov    r15,QWORD PTR [r13+0x0]
    ac47:	4d 8d 6d 08          	lea    r13,[r13+0x8]
    ac4b:	4c 89 7d b0          	mov    QWORD PTR [rbp-0x50],r15
    ac4f:	4d 8b 7d 00          	mov    r15,QWORD PTR [r13+0x0]
    ac53:	4d 8d 6d 08          	lea    r13,[r13+0x8]
    ac57:	4d 89 fe             	mov    r14,r15
    ac5a:	e9 e0 18 00 00       	jmp    0xc53f
    ac5f:	eb 90                	jmp    0xabf1
    ac61:	49 bf ec 1e 5f 55 55 	movabs r15,0x5555555f1eec
    ac68:	55 00 00 
    ac6b:	4d 8d 6d f8          	lea    r13,[r13-0x8]
    ac6f:	4d 89 7d 00          	mov    QWORD PTR [r13+0x0],r15
    ac73:	e9 c7 43 00 00       	jmp    0xf03f
    ac78:	90                   	nop
    ac79:	49 bf f7 1e 5f 55 55 	movabs r15,0x5555555f1ef7
    ac80:	55 00 00 
    ac83:	49 8d 87 09 be 07 00 	lea    rax,[r15+0x7be09]
    ac8a:	4d 8d 6d f8          	lea    r13,[r13-0x8]
    ac8e:	4c 8b 7d a8          	mov    r15,QWORD PTR [rbp-0x58]
    ac92:	4d 89 7d 00          	mov    QWORD PTR [r13+0x0],r15
    ac96:	4d 8d 6d f8          	lea    r13,[r13-0x8]
    ac9a:	4c 8b 75 a0          	mov    r14,QWORD PTR [rbp-0x60]
    ac9e:	4d 89 75 00          	mov    QWORD PTR [r13+0x0],r14
    aca2:	4d 8d 6d f8          	lea    r13,[r13-0x8]
    aca6:	4c 89 7d a8          	mov    QWORD PTR [rbp-0x58],r15
    acaa:	4c 8b 7d 98          	mov    r15,QWORD PTR [rbp-0x68]
    acae:	4d 89 7d 00          	mov    QWORD PTR [r13+0x0],r15
    acb2:	4d 8d 6d f8          	lea    r13,[r13-0x8]
    acb6:	4d 89 65 00          	mov    QWORD PTR [r13+0x0],r12
    acba:	4d 8d 6d f8          	lea    r13,[r13-0x8]
    acbe:	49 89 5d 00          	mov    QWORD PTR [r13+0x0],rbx
    acc2:	48 8b 00             	mov    rax,QWORD PTR [rax]
    acc5:	48 8b 04 c7          	mov    rax,QWORD PTR [rdi+rax*8]
    acc9:	4c 89 7d 98          	mov    QWORD PTR [rbp-0x68],r15
    accd:	4c 8b 7d a8          	mov    r15,QWORD PTR [rbp-0x58]
    acd1:	4c 8b 78 08          	mov    r15,QWORD PTR [rax+0x8]
    acd5:	48 8b 18             	mov    rbx,QWORD PTR [rax]
    acd8:	4d 85 ff             	test   r15,r15
    acdb:	4c 89 7d a8          	mov    QWORD PTR [rbp-0x58],r15
    acdf:	4c 89 75 a0          	mov    QWORD PTR [rbp-0x60],r14
    ace3:	0f 84 c2 00 00 00    	je     0xadab
    ace9:	4c 8b 7d 98          	mov    r15,QWORD PTR [rbp-0x68]
    aced:	49 89 f7             	mov    r15,rsi
    acf0:	4c 8b 75 a0          	mov    r14,QWORD PTR [rbp-0x60]
    acf4:	49 89 d6             	mov    r14,rdx
    acf7:	48 83 c3 08          	add    rbx,0x8
    acfb:	45 31 e4             	xor    r12d,r12d
    acfe:	4c 89 7d 98          	mov    QWORD PTR [rbp-0x68],r15
    ad02:	4c 89 75 a0          	mov    QWORD PTR [rbp-0x60],r14
    ad06:	eb 19                	jmp    0xad21
    ad08:	49 83 c4 01          	add    r12,0x1
    ad0c:	48 83 c3 20          	add    rbx,0x20
    ad10:	4c 8b 7d a8          	mov    r15,QWORD PTR [rbp-0x58]
    ad14:	4d 39 e7             	cmp    r15,r12
    ad17:	4c 89 7d a8          	mov    QWORD PTR [rbp-0x58],r15
    ad1b:	0f 84 8a 00 00 00    	je     0xadab
    ad21:	4c 8b 7d 98          	mov    r15,QWORD PTR [rbp-0x68]
    ad25:	49 8b 17             	mov    rdx,QWORD PTR [r15]
    ad28:	48 39 13             	cmp    QWORD PTR [rbx],rdx
    ad2b:	4c 89 7d 98          	mov    QWORD PTR [rbp-0x68],r15
    ad2f:	75 d7                	jne    0xad08
    ad31:	48 8b 7b 08          	mov    rdi,QWORD PTR [rbx+0x8]
    ad35:	4c 8b 7d a0          	mov    r15,QWORD PTR [rbp-0x60]
    ad39:	49 8b 37             	mov    rsi,QWORD PTR [r15]
    ad3c:	49 be 43 1f 5f 55 55 	movabs r14,0x5555555f1f43
    ad43:	55 00 00 
    ad46:	4d 8d 6d f8          	lea    r13,[r13-0x8]
    ad4a:	4d 89 75 00          	mov    QWORD PTR [r13+0x0],r14
    ad4e:	4c 89 7d a0          	mov    QWORD PTR [rbp-0x60],r15
    ad52:	e9 84 43 00 00       	jmp    0xf0db
    ad57:	48 85 c0             	test   rax,rax
    ad5a:	75 ac                	jne    0xad08
    ad5c:	49 8b 5d 00          	mov    rbx,QWORD PTR [r13+0x0]
    ad60:	4d 8d 6d 08          	lea    r13,[r13+0x8]
    ad64:	4c 89 e0             	mov    rax,r12
    ad67:	4d 8b 65 00          	mov    r12,QWORD PTR [r13+0x0]
    ad6b:	4d 8d 6d 08          	lea    r13,[r13+0x8]
    ad6f:	4c 8b 7d 98          	mov    r15,QWORD PTR [rbp-0x68]
    ad73:	4d 8b 7d 00          	mov    r15,QWORD PTR [r13+0x0]
    ad77:	4d 8d 6d 08          	lea    r13,[r13+0x8]
    ad7b:	4c 8b 75 a0          	mov    r14,QWORD PTR [rbp-0x60]
    ad7f:	4d 8b 75 00          	mov    r14,QWORD PTR [r13+0x0]
    ad83:	4d 8d 6d 08          	lea    r13,[r13+0x8]
    ad87:	4c 89 7d 98          	mov    QWORD PTR [rbp-0x68],r15
    ad8b:	4c 8b 7d a8          	mov    r15,QWORD PTR [rbp-0x58]
    ad8f:	4d 8b 7d 00          	mov    r15,QWORD PTR [r13+0x0]
    ad93:	4d 8d 6d 08          	lea    r13,[r13+0x8]
    ad97:	4c 89 7d a8          	mov    QWORD PTR [rbp-0x58],r15
    ad9b:	4d 8b 7d 00          	mov    r15,QWORD PTR [r13+0x0]
    ad9f:	4d 8d 6d 08          	lea    r13,[r13+0x8]
    ada3:	4d 89 fe             	mov    r14,r15
    ada6:	e9 49 42 00 00       	jmp    0xeff4
    adab:	49 8b 5d 00          	mov    rbx,QWORD PTR [r13+0x0]
    adaf:	4d 8d 6d 08          	lea    r13,[r13+0x8]
    adb3:	48 c7 c0 fd ff ff ff 	mov    rax,0xfffffffffffffffd
    adba:	4d 8b 65 00          	mov    r12,QWORD PTR [r13+0x0]
    adbe:	4d 8d 6d 08          	lea    r13,[r13+0x8]
    adc2:	4c 8b 7d 98          	mov    r15,QWORD PTR [rbp-0x68]
    adc6:	4d 8b 7d 00          	mov    r15,QWORD PTR [r13+0x0]
    adca:	4d 8d 6d 08          	lea    r13,[r13+0x8]
    adce:	4c 8b 75 a0          	mov    r14,QWORD PTR [rbp-0x60]
    add2:	4d 8b 75 00          	mov    r14,QWORD PTR [r13+0x0]
    add6:	4d 8d 6d 08          	lea    r13,[r13+0x8]
    adda:	4c 89 7d 98          	mov    QWORD PTR [rbp-0x68],r15
    adde:	4c 8b 7d a8          	mov    r15,QWORD PTR [rbp-0x58]
    ade2:	4d 8b 7d 00          	mov    r15,QWORD PTR [r13+0x0]
    ade6:	4d 8d 6d 08          	lea    r13,[r13+0x8]
    adea:	4c 89 7d a8          	mov    QWORD PTR [rbp-0x58],r15
    adee:	4d 8b 7d 00          	mov    r15,QWORD PTR [r13+0x0]
    adf2:	4d 8d 6d 08          	lea    r13,[r13+0x8]
    adf6:	4d 89 fe             	mov    r14,r15
    adf9:	e9 e7 41 00 00       	jmp    0xefe5
    adfe:	49 8b 5d 08          	mov    rbx,QWORD PTR [r13+0x8]
    ae02:	4c 8b 7d 88          	mov    r15,QWORD PTR [rbp-0x78]
    ae06:	49 33 5f 28          	xor    rbx,QWORD PTR [r15+0x28]
    ae0a:	75 50                	jne    0xae5c
    ae0c:	49 83 c5 10          	add    r13,0x10
    ae10:	49 8b 5d 00          	mov    rbx,QWORD PTR [r13+0x0]
    ae14:	4d 8d 6d 08          	lea    r13,[r13+0x8]
    ae18:	4d 8b 65 00          	mov    r12,QWORD PTR [r13+0x0]
    ae1c:	4d 8d 6d 08          	lea    r13,[r13+0x8]
    ae20:	4c 8b 7d 98          	mov    r15,QWORD PTR [rbp-0x68]
    ae24:	4d 8b 7d 00          	mov    r15,QWORD PTR [r13+0x0]
    ae28:	4d 8d 6d 08          	lea    r13,[r13+0x8]
    ae2c:	4c 8b 75 a0          	mov    r14,QWORD PTR [rbp-0x60]
    ae30:	4d 8b 75 00          	mov    r14,QWORD PTR [r13+0x0]
    ae34:	4d 8d 6d 08          	lea    r13,[r13+0x8]
    ae38:	4c 89 7d 98          	mov    QWORD PTR [rbp-0x68],r15
    ae3c:	4c 8b 7d a8          	mov    r15,QWORD PTR [rbp-0x58]
    ae40:	4d 8b 7d 00          	mov    r15,QWORD PTR [r13+0x0]
    ae44:	4d 8d 6d 08          	lea    r13,[r13+0x8]
    ae48:	4c 89 7d a8          	mov    QWORD PTR [rbp-0x58],r15
    ae4c:	4d 8b 7d 00          	mov    r15,QWORD PTR [r13+0x0]
    ae50:	4d 8d 6d 08          	lea    r13,[r13+0x8]
    ae54:	4d 89 fe             	mov    r14,r15
    ae57:	e9 9f 16 00 00       	jmp    0xc4fb
    ae5c:	49 bf e7 40 5f 55 55 	movabs r15,0x5555555f40e7
    ae63:	55 00 00 
    ae66:	4d 8d 6d f8          	lea    r13,[r13-0x8]
    ae6a:	4d 89 7d 00          	mov    QWORD PTR [r13+0x0],r15
    ae6e:	e9 cc 41 00 00       	jmp    0xf03f
    ae73:	90                   	nop
    ae74:	90                   	nop
    ae75:	4d 8d 6d f8          	lea    r13,[r13-0x8]
    ae79:	4d 89 65 00          	mov    QWORD PTR [r13+0x0],r12
    ae7d:	49 89 fc             	mov    r12,rdi
    ae80:	4d 8d 6d f8          	lea    r13,[r13-0x8]
    ae84:	49 89 5d 00          	mov    QWORD PTR [r13+0x0],rbx
    ae88:	49 83 ed 08          	sub    r13,0x8
    ae8c:	48 81 bf 88 02 00 00 	cmp    QWORD PTR [rdi+0x288],0xc8
    ae93:	c8 00 00 00 
    ae97:	75 09                	jne    0xaea2
    ae99:	48 39 bf 68 04 00 00 	cmp    QWORD PTR [rdi+0x468],rdi
    aea0:	74 30                	je     0xaed2
    aea2:	49 83 c5 08          	add    r13,0x8
    aea6:	4c 89 e7             	mov    rdi,r12
    aea9:	49 8b 5d 00          	mov    rbx,QWORD PTR [r13+0x0]
    aead:	4d 8d 6d 08          	lea    r13,[r13+0x8]
    aeb1:	4d 8b 65 00          	mov    r12,QWORD PTR [r13+0x0]
    aeb5:	4d 8d 6d 08          	lea    r13,[r13+0x8]
    aeb9:	49 be 22 41 5f 55 55 	movabs r14,0x5555555f4122
    aec0:	55 00 00 
    aec3:	4d 8b be 3e e5 09 00 	mov    r15,QWORD PTR [r14+0x9e53e]
    aeca:	4d 89 fe             	mov    r14,r15
    aecd:	e9 31 41 00 00       	jmp    0xf003
    aed2:	49 bf 2f 41 5f 55 55 	movabs r15,0x5555555f412f
    aed9:	55 00 00 
    aedc:	49 8d 9f 11 a1 07 00 	lea    rbx,[r15+0x7a111]
    aee3:	48 8b 47 28          	mov    rax,QWORD PTR [rdi+0x28]
    aee7:	48 8b 13             	mov    rdx,QWORD PTR [rbx]
    aeea:	48 8b 34 d0          	mov    rsi,QWORD PTR [rax+rdx*8]
    aeee:	48 83 3e 00          	cmp    QWORD PTR [rsi],0x0
    aef2:	75 07                	jne    0xaefb
    aef4:	48 83 7e 10 00       	cmp    QWORD PTR [rsi+0x10],0x0
    aef9:	74 a7                	je     0xaea2
    aefb:	48 83 c6 20          	add    rsi,0x20
    aeff:	4c 89 e7             	mov    rdi,r12
    af02:	49 bf 53 41 5f 55 55 	movabs r15,0x5555555f4153
    af09:	55 00 00 
    af0c:	4d 8d 6d f8          	lea    r13,[r13-0x8]
    af10:	4d 89 7d 00          	mov    QWORD PTR [r13+0x0],r15
    af14:	e9 44 42 00 00       	jmp    0xf15d
    af19:	48 85 c0             	test   rax,rax
    af1c:	74 84                	je     0xaea2
    af1e:	49 8b 7c 24 58       	mov    rdi,QWORD PTR [r12+0x58]
    af23:	be 08 00 00 00       	mov    esi,0x8
    af28:	49 bf 66 41 5f 55 55 	movabs r15,0x5555555f4166
    af2f:	55 00 00 
    af32:	4d 8d 6d f8          	lea    r13,[r13-0x8]
    af36:	4d 89 7d 00          	mov    QWORD PTR [r13+0x0],r15
    af3a:	e9 74 44 00 00       	jmp    0xf3b3
    af3f:	48 85 c0             	test   rax,rax
    af42:	0f 84 b4 00 00 00    	je     0xaffc
    af48:	48 8b 0b             	mov    rcx,QWORD PTR [rbx]
    af4b:	49 8b 54 24 10       	mov    rdx,QWORD PTR [r12+0x10]
    af50:	48 89 04 ca          	mov    QWORD PTR [rdx+rcx*8],rax
    af54:	49 8b 84 24 b0 02 00 	mov    rax,QWORD PTR [r12+0x2b0]
    af5b:	00 
    af5c:	49 c7 84 24 90 03 00 	mov    QWORD PTR [r12+0x390],0xffffffffffffffff
    af63:	00 ff ff ff ff 
    af68:	48 85 c0             	test   rax,rax
    af6b:	74 13                	je     0xaf80
    af6d:	48 c7 00 00 00 00 00 	mov    QWORD PTR [rax],0x0
    af74:	49 c7 84 24 b0 02 00 	mov    QWORD PTR [r12+0x2b0],0x0
    af7b:	00 00 00 00 00 
    af80:	49 8b 84 24 e0 02 00 	mov    rax,QWORD PTR [r12+0x2e0]
    af87:	00 
    af88:	41 80 a4 24 1d 05 00 	and    BYTE PTR [r12+0x51d],0xfe
    af8f:	00 fe 
    af91:	48 85 c0             	test   rax,rax
    af94:	74 13                	je     0xafa9
    af96:	48 c7 00 00 00 00 00 	mov    QWORD PTR [rax],0x0
    af9d:	49 c7 84 24 e0 02 00 	mov    QWORD PTR [r12+0x2e0],0x0
    afa4:	00 00 00 00 00 
    afa9:	4c 89 e7             	mov    rdi,r12
    afac:	49 bf cc 41 5f 55 55 	movabs r15,0x5555555f41cc
    afb3:	55 00 00 
    afb6:	4d 8d 6d f8          	lea    r13,[r13-0x8]
    afba:	4d 89 7d 00          	mov    QWORD PTR [r13+0x0],r15
    afbe:	e9 20 43 00 00       	jmp    0xf2e3
    afc3:	41 80 8c 24 1c 05 00 	or     BYTE PTR [r12+0x51c],0x80
    afca:	00 80 
    afcc:	49 83 c5 08          	add    r13,0x8
    afd0:	4c 89 e7             	mov    rdi,r12
    afd3:	49 8b 5d 00          	mov    rbx,QWORD PTR [r13+0x0]
    afd7:	4d 8d 6d 08          	lea    r13,[r13+0x8]
    afdb:	4d 8b 65 00          	mov    r12,QWORD PTR [r13+0x0]
    afdf:	4d 8d 6d 08          	lea    r13,[r13+0x8]
    afe3:	49 be e2 41 5f 55 55 	movabs r14,0x5555555f41e2
    afea:	55 00 00 
    afed:	4d 8b be 7e e4 09 00 	mov    r15,QWORD PTR [r14+0x9e47e]
    aff4:	4d 89 fe             	mov    r14,r15
    aff7:	e9 25 40 00 00       	jmp    0xf021
    affc:	49 8b 55 00          	mov    rdx,QWORD PTR [r13+0x0]
    b000:	4d 8d 6d 08          	lea    r13,[r13+0x8]
    b004:	48 83 c8 ff          	or     rax,0xffffffffffffffff
    b008:	49 8b 5d 00          	mov    rbx,QWORD PTR [r13+0x0]
    b00c:	4d 8d 6d 08          	lea    r13,[r13+0x8]
    b010:	4d 8b 65 00          	mov    r12,QWORD PTR [r13+0x0]
    b014:	4d 8d 6d 08          	lea    r13,[r13+0x8]
    b018:	4d 8b 7d 00          	mov    r15,QWORD PTR [r13+0x0]
    b01c:	4d 8d 6d 08          	lea    r13,[r13+0x8]
    b020:	4d 89 fe             	mov    r14,r15
    b023:	e9 ea 3f 00 00       	jmp    0xf012
    b028:	49 8b 4d 18          	mov    rcx,QWORD PTR [r13+0x18]
    b02c:	4c 8b 7d 88          	mov    r15,QWORD PTR [rbp-0x78]
    b030:	49 33 4f 28          	xor    rcx,QWORD PTR [r15+0x28]
    b034:	75 62                	jne    0xb098
    b036:	49 83 c5 28          	add    r13,0x28
    b03a:	49 8b 5d 00          	mov    rbx,QWORD PTR [r13+0x0]
    b03e:	4d 8d 6d 08          	lea    r13,[r13+0x8]
    b042:	4d 8b 65 00          	mov    r12,QWORD PTR [r13+0x0]
    b046:	4d 8d 6d 08          	lea    r13,[r13+0x8]
    b04a:	4c 8b 7d 98          	mov    r15,QWORD PTR [rbp-0x68]
    b04e:	4d 8b 7d 00          	mov    r15,QWORD PTR [r13+0x0]
    b052:	4d 8d 6d 08          	lea    r13,[r13+0x8]
    b056:	4c 8b 75 a0          	mov    r14,QWORD PTR [rbp-0x60]
    b05a:	4d 8b 75 00          	mov    r14,QWORD PTR [r13+0x0]
    b05e:	4d 8d 6d 08          	lea    r13,[r13+0x8]
    b062:	4c 89 7d 98          	mov    QWORD PTR [rbp-0x68],r15
    b066:	4c 8b 7d a8          	mov    r15,QWORD PTR [rbp-0x58]
    b06a:	4d 8b 7d 00          	mov    r15,QWORD PTR [r13+0x0]
    b06e:	4d 8d 6d 08          	lea    r13,[r13+0x8]
    b072:	4c 89 7d a8          	mov    QWORD PTR [rbp-0x58],r15
    b076:	4c 8b 7d b0          	mov    r15,QWORD PTR [rbp-0x50]
    b07a:	4d 8b 7d 00          	mov    r15,QWORD PTR [r13+0x0]
    b07e:	4d 8d 6d 08          	lea    r13,[r13+0x8]
    b082:	4c 89 7d b0          	mov    QWORD PTR [rbp-0x50],r15
    b086:	4d 8b 7d 00          	mov    r15,QWORD PTR [r13+0x0]
    b08a:	4d 8d 6d 08          	lea    r13,[r13+0x8]
    b08e:	4d 89 fe             	mov    r14,r15
    b091:	e9 bb 13 00 00       	jmp    0xc451
    b096:	eb 90                	jmp    0xb028
    b098:	49 bf 3d 4c 5f 55 55 	movabs r15,0x5555555f4c3d
    b09f:	55 00 00 
    b0a2:	4d 8d 6d f8          	lea    r13,[r13-0x8]
    b0a6:	4d 89 7d 00          	mov    QWORD PTR [r13+0x0],r15
    b0aa:	e9 90 3f 00 00       	jmp    0xf03f
    b0af:	90                   	nop
    b0b0:	90                   	nop
    b0b1:	4d 8d 6d f8          	lea    r13,[r13-0x8]
    b0b5:	4d 89 65 00          	mov    QWORD PTR [r13+0x0],r12
    b0b9:	49 89 fc             	mov    r12,rdi
    b0bc:	4d 8d 6d f8          	lea    r13,[r13-0x8]
    b0c0:	49 89 5d 00          	mov    QWORD PTR [r13+0x0],rbx
    b0c4:	49 83 ed 08          	sub    r13,0x8
    b0c8:	49 bf 54 4c 5f 55 55 	movabs r15,0x5555555f4c54
    b0cf:	55 00 00 
    b0d2:	49 8d 9f ec 97 07 00 	lea    rbx,[r15+0x797ec]
    b0d9:	48 8b 47 28          	mov    rax,QWORD PTR [rdi+0x28]
    b0dd:	48 8b 13             	mov    rdx,QWORD PTR [rbx]
    b0e0:	48 8b 04 d0          	mov    rax,QWORD PTR [rax+rdx*8]
    b0e4:	48 83 38 00          	cmp    QWORD PTR [rax],0x0
    b0e8:	74 13                	je     0xb0fd
    b0ea:	48 8b 87 b8 02 00 00 	mov    rax,QWORD PTR [rdi+0x2b8]
    b0f1:	48 85 c0             	test   rax,rax
    b0f4:	74 07                	je     0xb0fd
    b0f6:	48 83 78 18 04       	cmp    QWORD PTR [rax+0x18],0x4
    b0fb:	74 30                	je     0xb12d
    b0fd:	49 83 c5 08          	add    r13,0x8
    b101:	4c 89 e7             	mov    rdi,r12
    b104:	49 8b 5d 00          	mov    rbx,QWORD PTR [r13+0x0]
    b108:	4d 8d 6d 08          	lea    r13,[r13+0x8]
    b10c:	4d 8b 65 00          	mov    r12,QWORD PTR [r13+0x0]
    b110:	4d 8d 6d 08          	lea    r13,[r13+0x8]
    b114:	49 be 87 4c 5f 55 55 	movabs r14,0x5555555f4c87
    b11b:	55 00 00 
    b11e:	4d 8b be e9 d9 09 00 	mov    r15,QWORD PTR [r14+0x9d9e9]
    b125:	4d 89 fe             	mov    r14,r15
    b128:	e9 ae 3a 00 00       	jmp    0xebdb
    b12d:	48 8b 78 20          	mov    rdi,QWORD PTR [rax+0x20]
    b131:	ba 04 00 00 00       	mov    edx,0x4
    b136:	49 bf a0 4c 5f 55 55 	movabs r15,0x5555555f4ca0
    b13d:	55 00 00 
    b140:	49 8d b7 23 36 04 00 	lea    rsi,[r15+0x43623]
    b147:	49 bf a5 4c 5f 55 55 	movabs r15,0x5555555f4ca5
    b14e:	55 00 00 
    b151:	4d 8d 6d f8          	lea    r13,[r13-0x8]
    b155:	4d 89 7d 00          	mov    QWORD PTR [r13+0x0],r15
    b159:	e9 7d 3f 00 00       	jmp    0xf0db
    b15e:	48 85 c0             	test   rax,rax
    b161:	75 9a                	jne    0xb0fd
    b163:	41 0f b6 84 24 18 05 	movzx  eax,BYTE PTR [r12+0x518]
    b16a:	00 00 
    b16c:	83 c8 02             	or     eax,0x2
    b16f:	41 80 bc 24 17 05 00 	cmp    BYTE PTR [r12+0x517],0x0
    b176:	00 00 
    b178:	41 88 84 24 18 05 00 	mov    BYTE PTR [r12+0x518],al
    b17f:	00 
    b180:	0f 89 dd 00 00 00    	jns    0xb263
    b186:	a8 01                	test   al,0x1
    b188:	0f 85 6f ff ff ff    	jne    0xb0fd
    b18e:	49 8b 7c 24 58       	mov    rdi,QWORD PTR [r12+0x58]
    b193:	be c0 00 00 00       	mov    esi,0xc0
    b198:	49 bf d9 4c 5f 55 55 	movabs r15,0x5555555f4cd9
    b19f:	55 00 00 
    b1a2:	4d 8d 6d f8          	lea    r13,[r13-0x8]
    b1a6:	4d 89 7d 00          	mov    QWORD PTR [r13+0x0],r15
    b1aa:	e9 04 42 00 00       	jmp    0xf3b3
    b1af:	48 85 c0             	test   rax,rax
    b1b2:	0f 84 d3 00 00 00    	je     0xb28b
    b1b8:	48 8b 0b             	mov    rcx,QWORD PTR [rbx]
    b1bb:	49 8b 54 24 10       	mov    rdx,QWORD PTR [r12+0x10]
    b1c0:	48 89 04 ca          	mov    QWORD PTR [rdx+rcx*8],rax
    b1c4:	4c 89 a0 b8 00 00 00 	mov    QWORD PTR [rax+0xb8],r12
    b1cb:	49 8b 84 24 b8 02 00 	mov    rax,QWORD PTR [r12+0x2b8]
    b1d2:	00 
    b1d3:	41 80 8c 24 1c 05 00 	or     BYTE PTR [r12+0x51c],0x20
    b1da:	00 20 
    b1dc:	48 c7 00 00 00 00 00 	mov    QWORD PTR [rax],0x0
    b1e3:	49 8b 84 24 b0 02 00 	mov    rax,QWORD PTR [r12+0x2b0]
    b1ea:	00 
    b1eb:	49 c7 84 24 b8 02 00 	mov    QWORD PTR [r12+0x2b8],0x0
    b1f2:	00 00 00 00 00 
    b1f7:	49 c7 84 24 90 03 00 	mov    QWORD PTR [r12+0x390],0xffffffffffffffff
    b1fe:	00 ff ff ff ff 
    b203:	48 85 c0             	test   rax,rax
    b206:	74 13                	je     0xb21b
    b208:	48 c7 00 00 00 00 00 	mov    QWORD PTR [rax],0x0
    b20f:	49 c7 84 24 b0 02 00 	mov    QWORD PTR [r12+0x2b0],0x0
    b216:	00 00 00 00 00 
    b21b:	49 8b 84 24 e0 02 00 	mov    rax,QWORD PTR [r12+0x2e0]
    b222:	00 
    b223:	41 80 a4 24 1d 05 00 	and    BYTE PTR [r12+0x51d],0xfe
    b22a:	00 fe 
    b22c:	48 85 c0             	test   rax,rax
    b22f:	74 13                	je     0xb244
    b231:	48 c7 00 00 00 00 00 	mov    QWORD PTR [rax],0x0
    b238:	49 c7 84 24 e0 02 00 	mov    QWORD PTR [r12+0x2e0],0x0
    b23f:	00 00 00 00 00 
    b244:	4c 89 e7             	mov    rdi,r12
    b247:	49 bf 6a 4d 5f 55 55 	movabs r15,0x5555555f4d6a
    b24e:	55 00 00 
    b251:	4d 8d 6d f8          	lea    r13,[r13-0x8]
    b255:	4d 89 7d 00          	mov    QWORD PTR [r13+0x0],r15
    b259:	e9 85 40 00 00       	jmp    0xf2e3
    b25e:	e9 9a fe ff ff       	jmp    0xb0fd
    b263:	4c 89 e7             	mov    rdi,r12
    b266:	49 bf 78 4d 5f 55 55 	movabs r15,0x5555555f4d78
    b26d:	55 00 00 
    b270:	4d 8d 6d f8          	lea    r13,[r13-0x8]
    b274:	4d 89 7d 00          	mov    QWORD PTR [r13+0x0],r15
    b278:	e9 1c 41 00 00       	jmp    0xf399
    b27d:	48 85 c0             	test   rax,rax
    b280:	0f 85 08 ff ff ff    	jne    0xb18e
    b286:	e9 72 fe ff ff       	jmp    0xb0fd
    b28b:	49 8b 55 00          	mov    rdx,QWORD PTR [r13+0x0]
    b28f:	4d 8d 6d 08          	lea    r13,[r13+0x8]
    b293:	48 83 c8 ff          	or     rax,0xffffffffffffffff
    b297:	49 8b 5d 00          	mov    rbx,QWORD PTR [r13+0x0]
    b29b:	4d 8d 6d 08          	lea    r13,[r13+0x8]
    b29f:	4d 8b 65 00          	mov    r12,QWORD PTR [r13+0x0]
    b2a3:	4d 8d 6d 08          	lea    r13,[r13+0x8]
    b2a7:	4d 8b 7d 00          	mov    r15,QWORD PTR [r13+0x0]
    b2ab:	4d 8d 6d 08          	lea    r13,[r13+0x8]
    b2af:	4d 89 fe             	mov    r14,r15
    b2b2:	e9 33 39 00 00       	jmp    0xebea
    b2b7:	49 8b 5d 28          	mov    rbx,QWORD PTR [r13+0x28]
    b2bb:	4c 8b 7d 88          	mov    r15,QWORD PTR [rbp-0x78]
    b2bf:	49 33 5f 28          	xor    rbx,QWORD PTR [r15+0x28]
    b2c3:	75 60                	jne    0xb325
    b2c5:	49 83 c5 38          	add    r13,0x38
    b2c9:	49 8b 5d 00          	mov    rbx,QWORD PTR [r13+0x0]
    b2cd:	4d 8d 6d 08          	lea    r13,[r13+0x8]
    b2d1:	4d 8b 65 00          	mov    r12,QWORD PTR [r13+0x0]
    b2d5:	4d 8d 6d 08          	lea    r13,[r13+0x8]
    b2d9:	4c 8b 7d 98          	mov    r15,QWORD PTR [rbp-0x68]
    b2dd:	4d 8b 7d 00          	mov    r15,QWORD PTR [r13+0x0]
    b2e1:	4d 8d 6d 08          	lea    r13,[r13+0x8]
    b2e5:	4c 8b 75 a0          	mov    r14,QWORD PTR [rbp-0x60]
    b2e9:	4d 8b 75 00          	mov    r14,QWORD PTR [r13+0x0]
    b2ed:	4d 8d 6d 08          	lea    r13,[r13+0x8]
    b2f1:	4c 89 7d 98          	mov    QWORD PTR [rbp-0x68],r15
    b2f5:	4c 8b 7d a8          	mov    r15,QWORD PTR [rbp-0x58]
    b2f9:	4d 8b 7d 00          	mov    r15,QWORD PTR [r13+0x0]
    b2fd:	4d 8d 6d 08          	lea    r13,[r13+0x8]
    b301:	4c 89 7d a8          	mov    QWORD PTR [rbp-0x58],r15
    b305:	4c 8b 7d b0          	mov    r15,QWORD PTR [rbp-0x50]
    b309:	4d 8b 7d 00          	mov    r15,QWORD PTR [r13+0x0]
    b30d:	4d 8d 6d 08          	lea    r13,[r13+0x8]
    b311:	4c 89 7d b0          	mov    QWORD PTR [rbp-0x50],r15
    b315:	4d 8b 7d 00          	mov    r15,QWORD PTR [r13+0x0]
    b319:	4d 8d 6d 08          	lea    r13,[r13+0x8]
    b31d:	4d 89 fe             	mov    r14,r15
    b320:	e9 80 12 00 00       	jmp    0xc5a5
    b325:	49 bf e1 63 5f 55 55 	movabs r15,0x5555555f63e1
    b32c:	55 00 00 
    b32f:	4d 8d 6d f8          	lea    r13,[r13-0x8]
    b333:	4d 89 7d 00          	mov    QWORD PTR [r13+0x0],r15
    b337:	e9 03 3d 00 00       	jmp    0xf03f
    b33c:	90                   	nop
    b33d:	90                   	nop
    b33e:	90                   	nop
    b33f:	4d 8d 6d f8          	lea    r13,[r13-0x8]
    b343:	4c 8b 7d a8          	mov    r15,QWORD PTR [rbp-0x58]
    b347:	4d 89 7d 00          	mov    QWORD PTR [r13+0x0],r15
    b34b:	4d 8d 6d f8          	lea    r13,[r13-0x8]
    b34f:	4c 8b 75 a0          	mov    r14,QWORD PTR [rbp-0x60]
    b353:	4d 89 75 00          	mov    QWORD PTR [r13+0x0],r14
    b357:	4d 8d 6d f8          	lea    r13,[r13-0x8]
    b35b:	4c 89 7d a8          	mov    QWORD PTR [rbp-0x58],r15
    b35f:	4c 8b 7d 98          	mov    r15,QWORD PTR [rbp-0x68]
    b363:	4d 89 7d 00          	mov    QWORD PTR [r13+0x0],r15
    b367:	49 89 ff             	mov    r15,rdi
    b36a:	4d 8d 6d f8          	lea    r13,[r13-0x8]
    b36e:	4d 89 65 00          	mov    QWORD PTR [r13+0x0],r12
    b372:	49 89 d4             	mov    r12,rdx
    b375:	4d 8d 6d f8          	lea    r13,[r13-0x8]
    b379:	49 89 5d 00          	mov    QWORD PTR [r13+0x0],rbx
    b37d:	49 83 ed 30          	sub    r13,0x30
    b381:	4c 89 7d 98          	mov    QWORD PTR [rbp-0x68],r15
    b385:	4c 8b 7d a8          	mov    r15,QWORD PTR [rbp-0x58]
    b389:	4c 8b 7e 28          	mov    r15,QWORD PTR [rsi+0x28]
    b38d:	4c 89 7d a8          	mov    QWORD PTR [rbp-0x58],r15
    b391:	4c 8b 7d 88          	mov    r15,QWORD PTR [rbp-0x78]
    b395:	49 8b 47 28          	mov    rax,QWORD PTR [r15+0x28]
    b399:	49 89 45 28          	mov    QWORD PTR [r13+0x28],rax
    b39d:	31 c0                	xor    eax,eax
    b39f:	48 8b 47 08          	mov    rax,QWORD PTR [rdi+0x8]
    b3a3:	4c 89 7d 88          	mov    QWORD PTR [rbp-0x78],r15
    b3a7:	4c 8b 7d a8          	mov    r15,QWORD PTR [rbp-0x58]
    b3ab:	49 01 d7             	add    r15,rdx
    b3ae:	49 8b 3f             	mov    rdi,QWORD PTR [r15]
    b3b1:	4c 8b 30             	mov    r14,QWORD PTR [rax]
    b3b4:	48 85 ff             	test   rdi,rdi
    b3b7:	4c 89 7d a8          	mov    QWORD PTR [rbp-0x58],r15
    b3bb:	4c 89 75 a0          	mov    QWORD PTR [rbp-0x60],r14
    b3bf:	0f 84 d5 01 00 00    	je     0xb59a
    b3c5:	49 bf 35 64 5f 55 55 	movabs r15,0x5555555f6435
    b3cc:	55 00 00 
    b3cf:	4d 8d 6d f8          	lea    r13,[r13-0x8]
    b3d3:	4d 89 7d 00          	mov    QWORD PTR [r13+0x0],r15
    b3d7:	e9 95 42 00 00       	jmp    0xf671
    b3dc:	48 89 c3             	mov    rbx,rax
    b3df:	48 85 c0             	test   rax,rax
    b3e2:	0f 84 35 01 00 00    	je     0xb51d
    b3e8:	4c 8b 7d a0          	mov    r15,QWORD PTR [rbp-0x60]
    b3ec:	f3 41 0f 6f 4f 10    	movdqu xmm1,XMMWORD PTR [r15+0x10]
    b3f2:	49 83 c4 18          	add    r12,0x18
    b3f6:	48 c7 40 40 00 00 00 	mov    QWORD PTR [rax+0x40],0x0
    b3fd:	00 
    b3fe:	48 c7 40 48 00 00 00 	mov    QWORD PTR [rax+0x48],0x0
    b405:	00 
    b406:	48 c7 40 50 00 00 00 	mov    QWORD PTR [rax+0x50],0x0
    b40d:	00 
    b40e:	0f 11 48 30          	movups XMMWORD PTR [rax+0x30],xmm1
    b412:	4c 8b 75 a8          	mov    r14,QWORD PTR [rbp-0x58]
    b416:	4d 39 e6             	cmp    r14,r12
    b419:	4c 89 7d a0          	mov    QWORD PTR [rbp-0x60],r15
    b41d:	4c 89 75 a8          	mov    QWORD PTR [rbp-0x58],r14
    b421:	0f 84 bc 01 00 00    	je     0xb5e3
    b427:	4c 8b 7d a0          	mov    r15,QWORD PTR [rbp-0x60]
    b42b:	49 83 7f 20 00       	cmp    QWORD PTR [r15+0x20],0x0
    b430:	4c 89 7d a0          	mov    QWORD PTR [rbp-0x60],r15
    b434:	0f 84 4c 01 00 00    	je     0xb586
    b43a:	4c 8b 7d a0          	mov    r15,QWORD PTR [rbp-0x60]
    b43e:	49 8d 47 20          	lea    rax,[r15+0x20]
    b442:	4c 89 ef             	mov    rdi,r13
    b445:	4c 8b 75 98          	mov    r14,QWORD PTR [rbp-0x68]
    b449:	4d 89 75 00          	mov    QWORD PTR [r13+0x0],r14
    b44d:	49 c7 45 18 00 00 00 	mov    QWORD PTR [r13+0x18],0x0
    b454:	00 
    b455:	49 89 45 08          	mov    QWORD PTR [r13+0x8],rax
    b459:	49 89 5d 10          	mov    QWORD PTR [r13+0x10],rbx
    b45d:	4c 89 7d a0          	mov    QWORD PTR [rbp-0x60],r15
    b461:	49 bf 9e 64 5f 55 55 	movabs r15,0x5555555f649e
    b468:	55 00 00 
    b46b:	4d 8d 6d f8          	lea    r13,[r13-0x8]
    b46f:	4d 89 7d 00          	mov    QWORD PTR [r13+0x0],r15
    b473:	4c 89 75 98          	mov    QWORD PTR [rbp-0x68],r14
    b477:	e9 f1 40 00 00       	jmp    0xf56d
    b47c:	48 85 c0             	test   rax,rax
    b47f:	0f 85 98 00 00 00    	jne    0xb51d
    b485:	4c 8b 7d 98          	mov    r15,QWORD PTR [rbp-0x68]
    b489:	49 8b 47 08          	mov    rax,QWORD PTR [r15+0x8]
    b48d:	48 83 78 08 02       	cmp    QWORD PTR [rax+0x8],0x2
    b492:	4c 89 7d 98          	mov    QWORD PTR [rbp-0x68],r15
    b496:	0f 84 d6 01 00 00    	je     0xb672
    b49c:	4c 8b 7d a0          	mov    r15,QWORD PTR [rbp-0x60]
    b4a0:	49 8b 77 38          	mov    rsi,QWORD PTR [r15+0x38]
    b4a4:	b9 07 00 00 00       	mov    ecx,0x7
    b4a9:	49 be c3 64 5f 55 55 	movabs r14,0x5555555f64c3
    b4b0:	55 00 00 
    b4b3:	49 8d be 1b 24 04 00 	lea    rdi,[r14+0x4241b]
    b4ba:	f3 a6                	repz cmps BYTE PTR ds:[rsi],BYTE PTR es:[rdi]
    b4bc:	0f 97 c0             	seta   al
    b4bf:	1c 00                	sbb    al,0x0
    b4c1:	84 c0                	test   al,al
    b4c3:	4c 89 7d a0          	mov    QWORD PTR [rbp-0x60],r15
    b4c7:	75 0c                	jne    0xb4d5
    b4c9:	48 c7 43 50 01 00 00 	mov    QWORD PTR [rbx+0x50],0x1
    b4d0:	00 
    b4d1:	31 c0                	xor    eax,eax
    b4d3:	eb 4f                	jmp    0xb524
    b4d5:	4c 8b 7d a0          	mov    r15,QWORD PTR [rbp-0x60]
    b4d9:	4d 8d 47 30          	lea    r8,[r15+0x30]
    b4dd:	49 be eb 64 5f 55 55 	movabs r14,0x5555555f64eb
    b4e4:	55 00 00 
    b4e7:	49 8d 8e 4f 1c 04 00 	lea    rcx,[r14+0x41c4f]
    b4ee:	31 d2                	xor    edx,edx
    b4f0:	4c 8b 75 98          	mov    r14,QWORD PTR [rbp-0x68]
    b4f4:	4c 89 f6             	mov    rsi,r14
    b4f7:	bf 01 00 00 00       	mov    edi,0x1
    b4fc:	31 c0                	xor    eax,eax
    b4fe:	4c 89 7d a0          	mov    QWORD PTR [rbp-0x60],r15
    b502:	49 bf fc 64 5f 55 55 	movabs r15,0x5555555f64fc
    b509:	55 00 00 
    b50c:	4d 8d 6d f8          	lea    r13,[r13-0x8]
    b510:	4d 89 7d 00          	mov    QWORD PTR [r13+0x0],r15
    b514:	4c 89 75 98          	mov    QWORD PTR [rbp-0x68],r14
    b518:	e9 3c 3b 00 00       	jmp    0xf059
    b51d:	48 c7 c0 ff ff ff ff 	mov    rax,0xffffffffffffffff
    b524:	49 8b 4d 28          	mov    rcx,QWORD PTR [r13+0x28]
    b528:	4c 8b 7d 88          	mov    r15,QWORD PTR [rbp-0x78]
    b52c:	49 33 4f 28          	xor    rcx,QWORD PTR [r15+0x28]
    b530:	0f 85 43 01 00 00    	jne    0xb679
    b536:	49 83 c5 30          	add    r13,0x30
    b53a:	49 8b 5d 00          	mov    rbx,QWORD PTR [r13+0x0]
    b53e:	4d 8d 6d 08          	lea    r13,[r13+0x8]
    b542:	4d 8b 65 00          	mov    r12,QWORD PTR [r13+0x0]
    b546:	4d 8d 6d 08          	lea    r13,[r13+0x8]
    b54a:	4c 8b 7d 98          	mov    r15,QWORD PTR [rbp-0x68]
    b54e:	4d 8b 7d 00          	mov    r15,QWORD PTR [r13+0x0]
    b552:	4d 8d 6d 08          	lea    r13,[r13+0x8]
    b556:	4c 8b 75 a0          	mov    r14,QWORD PTR [rbp-0x60]
    b55a:	4d 8b 75 00          	mov    r14,QWORD PTR [r13+0x0]
    b55e:	4d 8d 6d 08          	lea    r13,[r13+0x8]
    b562:	4c 89 7d 98          	mov    QWORD PTR [rbp-0x68],r15
    b566:	4c 8b 7d a8          	mov    r15,QWORD PTR [rbp-0x58]
    b56a:	4d 8b 7d 00          	mov    r15,QWORD PTR [r13+0x0]
    b56e:	4d 8d 6d 08          	lea    r13,[r13+0x8]
    b572:	4c 89 7d a8          	mov    QWORD PTR [rbp-0x58],r15
    b576:	4d 8b 7d 00          	mov    r15,QWORD PTR [r13+0x0]
    b57a:	4d 8d 6d 08          	lea    r13,[r13+0x8]
    b57e:	4d 89 fe             	mov    r14,r15
    b581:	e9 02 11 00 00       	jmp    0xc688
    b586:	66 0f ef c0          	pxor   xmm0,xmm0
    b58a:	0f 11 03             	movups XMMWORD PTR [rbx],xmm0
    b58d:	0f 11 43 10          	movups XMMWORD PTR [rbx+0x10],xmm0
    b591:	0f 11 43 20          	movups XMMWORD PTR [rbx+0x20],xmm0
    b595:	e9 eb fe ff ff       	jmp    0xb485
    b59a:	4c 8b 7d 98          	mov    r15,QWORD PTR [rbp-0x68]
    b59e:	49 8b 7f 18          	mov    rdi,QWORD PTR [r15+0x18]
    b5a2:	ba 58 00 00 00       	mov    edx,0x58
    b5a7:	be 01 00 00 00       	mov    esi,0x1
    b5ac:	49 be 54 65 5f 55 55 	movabs r14,0x5555555f6554
    b5b3:	55 00 00 
    b5b6:	4d 8d 6d f8          	lea    r13,[r13-0x8]
    b5ba:	4d 89 75 00          	mov    QWORD PTR [r13+0x0],r14
    b5be:	4c 89 7d 98          	mov    QWORD PTR [rbp-0x68],r15
    b5c2:	e9 b4 3c 00 00       	jmp    0xf27b
    b5c7:	4c 8b 7d a8          	mov    r15,QWORD PTR [rbp-0x58]
    b5cb:	49 89 07             	mov    QWORD PTR [r15],rax
    b5ce:	48 89 c7             	mov    rdi,rax
    b5d1:	48 85 c0             	test   rax,rax
    b5d4:	4c 89 7d a8          	mov    QWORD PTR [rbp-0x58],r15
    b5d8:	0f 85 e7 fd ff ff    	jne    0xb3c5
    b5de:	e9 3a ff ff ff       	jmp    0xb51d
    b5e3:	49 bf 6f 65 5f 55 55 	movabs r15,0x5555555f656f
    b5ea:	55 00 00 
    b5ed:	49 8d 47 61          	lea    rax,[r15+0x61]
    b5f1:	49 bf 77 65 5f 55 55 	movabs r15,0x5555555f6577
    b5f8:	55 00 00 
    b5fb:	49 83 bf e9 87 07 00 	cmp    QWORD PTR [r15+0x787e9],0x0
    b602:	00 
    b603:	48 89 43 40          	mov    QWORD PTR [rbx+0x40],rax
    b607:	0f 84 1a fe ff ff    	je     0xb427
    b60d:	49 bf 88 65 5f 55 55 	movabs r15,0x5555555f6588
    b614:	55 00 00 
    b617:	4d 8d a7 d8 87 07 00 	lea    r12,[r15+0x787d8]
    b61e:	49 8b 74 24 08       	mov    rsi,QWORD PTR [r12+0x8]
    b623:	4c 8b 7d a0          	mov    r15,QWORD PTR [rbp-0x60]
    b627:	49 8b 7f 18          	mov    rdi,QWORD PTR [r15+0x18]
    b62b:	49 be 95 65 5f 55 55 	movabs r14,0x5555555f6595
    b632:	55 00 00 
    b635:	4d 8d 6d f8          	lea    r13,[r13-0x8]
    b639:	4d 89 75 00          	mov    QWORD PTR [r13+0x0],r14
    b63d:	4c 89 7d a0          	mov    QWORD PTR [rbp-0x60],r15
    b641:	e9 4f 3c 00 00       	jmp    0xf295
    b646:	48 85 c0             	test   rax,rax
    b649:	75 17                	jne    0xb662
    b64b:	49 8b 44 24 10       	mov    rax,QWORD PTR [r12+0x10]
    b650:	48 89 43 48          	mov    QWORD PTR [rbx+0x48],rax
    b654:	49 8b 44 24 18       	mov    rax,QWORD PTR [r12+0x18]
    b659:	48 89 43 40          	mov    QWORD PTR [rbx+0x40],rax
    b65d:	e9 c5 fd ff ff       	jmp    0xb427
    b662:	49 83 c4 20          	add    r12,0x20
    b666:	49 83 3c 24 00       	cmp    QWORD PTR [r12],0x0
    b66b:	75 b1                	jne    0xb61e
    b66d:	e9 b5 fd ff ff       	jmp    0xb427
    b672:	31 c0                	xor    eax,eax
    b674:	e9 ab fe ff ff       	jmp    0xb524
    b679:	49 bf cc 65 5f 55 55 	movabs r15,0x5555555f65cc
    b680:	55 00 00 
    b683:	4d 8d 6d f8          	lea    r13,[r13-0x8]
    b687:	4d 89 7d 00          	mov    QWORD PTR [r13+0x0],r15
    b68b:	e9 af 39 00 00       	jmp    0xf03f
    b690:	90                   	nop
    b691:	90                   	nop
    b692:	4d 8d 6d f8          	lea    r13,[r13-0x8]
    b696:	4c 8b 7d 98          	mov    r15,QWORD PTR [rbp-0x68]
    b69a:	4d 89 7d 00          	mov    QWORD PTR [r13+0x0],r15
    b69e:	45 31 ff             	xor    r15d,r15d
    b6a1:	48 83 3a 00          	cmp    QWORD PTR [rdx],0x0
    b6a5:	4d 8d 6d f8          	lea    r13,[r13-0x8]
    b6a9:	4d 89 65 00          	mov    QWORD PTR [r13+0x0],r12
    b6ad:	4d 8d 6d f8          	lea    r13,[r13-0x8]
    b6b1:	49 89 5d 00          	mov    QWORD PTR [r13+0x0],rbx
    b6b5:	4c 89 7d 98          	mov    QWORD PTR [rbp-0x68],r15
    b6b9:	75 2c                	jne    0xb6e7
    b6bb:	4c 8b 7d 98          	mov    r15,QWORD PTR [rbp-0x68]
    b6bf:	4c 89 f8             	mov    rax,r15
    b6c2:	49 8b 5d 00          	mov    rbx,QWORD PTR [r13+0x0]
    b6c6:	4d 8d 6d 08          	lea    r13,[r13+0x8]
    b6ca:	4d 8b 65 00          	mov    r12,QWORD PTR [r13+0x0]
    b6ce:	4d 8d 6d 08          	lea    r13,[r13+0x8]
    b6d2:	4d 8b 7d 00          	mov    r15,QWORD PTR [r13+0x0]
    b6d6:	4d 8d 6d 08          	lea    r13,[r13+0x8]
    b6da:	4d 8b 75 00          	mov    r14,QWORD PTR [r13+0x0]
    b6de:	4d 8d 6d 08          	lea    r13,[r13+0x8]
    b6e2:	e9 b0 0f 00 00       	jmp    0xc697
    b6e7:	48 81 c7 18 02 00 00 	add    rdi,0x218
    b6ee:	49 89 f4             	mov    r12,rsi
    b6f1:	48 89 d3             	mov    rbx,rdx
    b6f4:	49 bf 02 66 5f 55 55 	movabs r15,0x5555555f6602
    b6fb:	55 00 00 
    b6fe:	4d 8d 6d f8          	lea    r13,[r13-0x8]
    b702:	4d 89 7d 00          	mov    QWORD PTR [r13+0x0],r15
    b706:	e9 1c 40 00 00       	jmp    0xf727
    b70b:	48 85 c0             	test   rax,rax
    b70e:	74 46                	je     0xb756
    b710:	f3 41 0f 6f 44 24 30 	movdqu xmm0,XMMWORD PTR [r12+0x30]
    b717:	48 c7 00 01 00 00 00 	mov    QWORD PTR [rax],0x1
    b71e:	0f 11 40 08          	movups XMMWORD PTR [rax+0x8],xmm0
    b722:	f3 0f 6f 0b          	movdqu xmm1,XMMWORD PTR [rbx]
    b726:	0f 11 48 18          	movups XMMWORD PTR [rax+0x18],xmm1
    b72a:	4c 8b 7d 98          	mov    r15,QWORD PTR [rbp-0x68]
    b72e:	4c 89 f8             	mov    rax,r15
    b731:	49 8b 5d 00          	mov    rbx,QWORD PTR [r13+0x0]
    b735:	4d 8d 6d 08          	lea    r13,[r13+0x8]
    b739:	4d 8b 65 00          	mov    r12,QWORD PTR [r13+0x0]
    b73d:	4d 8d 6d 08          	lea    r13,[r13+0x8]
    b741:	4d 8b 7d 00          	mov    r15,QWORD PTR [r13+0x0]
    b745:	4d 8d 6d 08          	lea    r13,[r13+0x8]
    b749:	4d 8b 75 00          	mov    r14,QWORD PTR [r13+0x0]
    b74d:	4d 8d 6d 08          	lea    r13,[r13+0x8]
    b751:	e9 50 0f 00 00       	jmp    0xc6a6
    b756:	4c 8b 7d 98          	mov    r15,QWORD PTR [rbp-0x68]
    b75a:	49 c7 c7 ff ff ff ff 	mov    r15,0xffffffffffffffff
    b761:	4c 89 7d 98          	mov    QWORD PTR [rbp-0x68],r15
    b765:	e9 51 ff ff ff       	jmp    0xb6bb
    b76a:	49 83 7c 24 08 00    	cmp    QWORD PTR [r12+0x8],0x0
    b770:	4c 8b 7d a0          	mov    r15,QWORD PTR [rbp-0x60]
    b774:	49 89 c7             	mov    r15,rax
    b777:	4c 89 7d a0          	mov    QWORD PTR [rbp-0x60],r15
    b77b:	0f 84 3a 01 00 00    	je     0xb8bb
    b781:	0f b6 83 1c 05 00 00 	movzx  eax,BYTE PTR [rbx+0x51c]
    b788:	83 e0 0f             	and    eax,0xf
    b78b:	83 c8 04             	or     eax,0x4
    b78e:	89 c2                	mov    edx,eax
    b790:	0f b6 83 1c 05 00 00 	movzx  eax,BYTE PTR [rbx+0x51c]
    b797:	83 e0 f0             	and    eax,0xfffffff0
    b79a:	09 d0                	or     eax,edx
    b79c:	88 83 1c 05 00 00    	mov    BYTE PTR [rbx+0x51c],al
    b7a2:	4c 8b 7d 98          	mov    r15,QWORD PTR [rbp-0x68]
    b7a6:	49 8b 77 50          	mov    rsi,QWORD PTR [r15+0x50]
    b7aa:	48 f7 06 00 01 00 00 	test   QWORD PTR [rsi],0x100
    b7b1:	4c 89 7d 98          	mov    QWORD PTR [rbp-0x68],r15
    b7b5:	75 4f                	jne    0xb806
    b7b7:	49 8b 5d 00          	mov    rbx,QWORD PTR [r13+0x0]
    b7bb:	4d 8d 6d 08          	lea    r13,[r13+0x8]
    b7bf:	4c 8b 7d a0          	mov    r15,QWORD PTR [rbp-0x60]
    b7c3:	4c 89 f8             	mov    rax,r15
    b7c6:	4d 8b 65 00          	mov    r12,QWORD PTR [r13+0x0]
    b7ca:	4d 8d 6d 08          	lea    r13,[r13+0x8]
    b7ce:	4c 8b 75 98          	mov    r14,QWORD PTR [rbp-0x68]
    b7d2:	4d 8b 75 00          	mov    r14,QWORD PTR [r13+0x0]
    b7d6:	4d 8d 6d 08          	lea    r13,[r13+0x8]
    b7da:	4d 8b 7d 00          	mov    r15,QWORD PTR [r13+0x0]
    b7de:	4d 8d 6d 08          	lea    r13,[r13+0x8]
    b7e2:	4c 89 7d a0          	mov    QWORD PTR [rbp-0x60],r15
    b7e6:	4c 8b 7d a8          	mov    r15,QWORD PTR [rbp-0x58]
    b7ea:	4d 8b 7d 00          	mov    r15,QWORD PTR [r13+0x0]
    b7ee:	4d 8d 6d 08          	lea    r13,[r13+0x8]
    b7f2:	4c 89 7d a8          	mov    QWORD PTR [rbp-0x58],r15
    b7f6:	4d 8b 7d 00          	mov    r15,QWORD PTR [r13+0x0]
    b7fa:	4d 8d 6d 08          	lea    r13,[r13+0x8]
    b7fe:	4d 89 fe             	mov    r14,r15
    b801:	e9 e3 0d 00 00       	jmp    0xc5e9
    b806:	49 83 ed 08          	sub    r13,0x8
    b80a:	48 8d 83 00 04 00 00 	lea    rax,[rbx+0x400]
    b811:	4c 8b 7d a0          	mov    r15,QWORD PTR [rbp-0x60]
    b815:	4d 89 f8             	mov    r8,r15
    b818:	31 d2                	xor    edx,edx
    b81a:	4d 8d 6d f8          	lea    r13,[r13-0x8]
    b81e:	49 89 45 00          	mov    QWORD PTR [r13+0x0],rax
    b822:	4c 8d 8b f0 03 00 00 	lea    r9,[rbx+0x3f0]
    b829:	31 c0                	xor    eax,eax
    b82b:	49 be f1 6f 5f 55 55 	movabs r14,0x5555555f6ff1
    b832:	55 00 00 
    b835:	49 8d 8e ad 7d 04 00 	lea    rcx,[r14+0x47dad]
    b83c:	bf 08 00 00 00       	mov    edi,0x8
    b841:	49 be fb 6f 5f 55 55 	movabs r14,0x5555555f6ffb
    b848:	55 00 00 
    b84b:	4d 8d 6d f8          	lea    r13,[r13-0x8]
    b84f:	4d 89 75 00          	mov    QWORD PTR [r13+0x0],r14
    b853:	4c 89 7d a0          	mov    QWORD PTR [rbp-0x60],r15
    b857:	e9 1e 48 ff ff       	jmp    0x7a
    b85c:	49 8b 45 00          	mov    rax,QWORD PTR [r13+0x0]
    b860:	4d 8d 6d 08          	lea    r13,[r13+0x8]
    b864:	4c 8b 7d a0          	mov    r15,QWORD PTR [rbp-0x60]
    b868:	4c 89 f8             	mov    rax,r15
    b86b:	49 8b 55 00          	mov    rdx,QWORD PTR [r13+0x0]
    b86f:	4d 8d 6d 08          	lea    r13,[r13+0x8]
    b873:	49 8b 5d 00          	mov    rbx,QWORD PTR [r13+0x0]
    b877:	4d 8d 6d 08          	lea    r13,[r13+0x8]
    b87b:	4d 8b 65 00          	mov    r12,QWORD PTR [r13+0x0]
    b87f:	4d 8d 6d 08          	lea    r13,[r13+0x8]
    b883:	4c 8b 75 98          	mov    r14,QWORD PTR [rbp-0x68]
    b887:	4d 8b 75 00          	mov    r14,QWORD PTR [r13+0x0]
    b88b:	4d 8d 6d 08          	lea    r13,[r13+0x8]
    b88f:	4d 8b 7d 00          	mov    r15,QWORD PTR [r13+0x0]
    b893:	4d 8d 6d 08          	lea    r13,[r13+0x8]
    b897:	4c 89 7d a0          	mov    QWORD PTR [rbp-0x60],r15
    b89b:	4c 8b 7d a8          	mov    r15,QWORD PTR [rbp-0x58]
    b89f:	4d 8b 7d 00          	mov    r15,QWORD PTR [r13+0x0]
    b8a3:	4d 8d 6d 08          	lea    r13,[r13+0x8]
    b8a7:	4c 89 7d a8          	mov    QWORD PTR [rbp-0x58],r15
    b8ab:	4d 8b 7d 00          	mov    r15,QWORD PTR [r13+0x0]
    b8af:	4d 8d 6d 08          	lea    r13,[r13+0x8]
    b8b3:	4d 89 fe             	mov    r14,r15
    b8b6:	e9 a3 36 00 00       	jmp    0xef5e
    b8bb:	0f b6 93 1c 05 00 00 	movzx  edx,BYTE PTR [rbx+0x51c]
    b8c2:	83 e2 0b             	and    edx,0xb
    b8c5:	e9 c6 fe ff ff       	jmp    0xb790
    b8ca:	90                   	nop
    b8cb:	4d 8d 6d f8          	lea    r13,[r13-0x8]
    b8cf:	4c 8b 7d b0          	mov    r15,QWORD PTR [rbp-0x50]
    b8d3:	4d 89 7d 00          	mov    QWORD PTR [r13+0x0],r15
    b8d7:	49 89 f7             	mov    r15,rsi
    b8da:	4d 8d 6d f8          	lea    r13,[r13-0x8]
    b8de:	4c 8b 75 a8          	mov    r14,QWORD PTR [rbp-0x58]
    b8e2:	4d 89 75 00          	mov    QWORD PTR [r13+0x0],r14
    b8e6:	4d 8d 6d f8          	lea    r13,[r13-0x8]
    b8ea:	4c 89 7d b0          	mov    QWORD PTR [rbp-0x50],r15
    b8ee:	4c 8b 7d a0          	mov    r15,QWORD PTR [rbp-0x60]
    b8f2:	4d 89 7d 00          	mov    QWORD PTR [r13+0x0],r15
    b8f6:	4d 8d 6d f8          	lea    r13,[r13-0x8]
    b8fa:	4c 89 7d a0          	mov    QWORD PTR [rbp-0x60],r15
    b8fe:	4c 8b 7d 98          	mov    r15,QWORD PTR [rbp-0x68]
    b902:	4d 89 7d 00          	mov    QWORD PTR [r13+0x0],r15
    b906:	4d 8d 6d f8          	lea    r13,[r13-0x8]
    b90a:	4d 89 65 00          	mov    QWORD PTR [r13+0x0],r12
    b90e:	49 89 fc             	mov    r12,rdi
    b911:	4d 8d 6d f8          	lea    r13,[r13-0x8]
    b915:	49 89 5d 00          	mov    QWORD PTR [r13+0x0],rbx
    b919:	49 83 ed 08          	sub    r13,0x8
    b91d:	48 8b 5f 08          	mov    rbx,QWORD PTR [rdi+0x8]
    b921:	4c 8b 77 10          	mov    r14,QWORD PTR [rdi+0x10]
    b925:	4c 8b 4f 18          	mov    r9,QWORD PTR [rdi+0x18]
    b929:	48 8b 03             	mov    rax,QWORD PTR [rbx]
    b92c:	48 8b 70 50          	mov    rsi,QWORD PTR [rax+0x50]
    b930:	48 f7 06 00 01 00 00 	test   QWORD PTR [rsi],0x100
    b937:	4c 89 7d 98          	mov    QWORD PTR [rbp-0x68],r15
    b93b:	4c 89 75 a8          	mov    QWORD PTR [rbp-0x58],r14
    b93f:	0f 85 50 04 00 00    	jne    0xbd95
    b945:	49 8b 3c 24          	mov    rdi,QWORD PTR [r12]
    b949:	4c 8b 7d 98          	mov    r15,QWORD PTR [rbp-0x68]
    b94d:	4c 8b 7f 08          	mov    r15,QWORD PTR [rdi+0x8]
    b951:	4d 85 c9             	test   r9,r9
    b954:	4c 89 7d 98          	mov    QWORD PTR [rbp-0x68],r15
    b958:	0f 85 a1 03 00 00    	jne    0xbcff
    b95e:	41 0f b6 44 24 78    	movzx  eax,BYTE PTR [r12+0x78]
    b964:	a8 20                	test   al,0x20
    b966:	75 66                	jne    0xb9ce
    b968:	48 8b 13             	mov    rdx,QWORD PTR [rbx]
    b96b:	f6 82 e1 00 00 00 10 	test   BYTE PTR [rdx+0xe1],0x10
    b972:	75 5a                	jne    0xb9ce
    b974:	a8 10                	test   al,0x10
    b976:	0f 85 77 06 00 00    	jne    0xbff3
    b97c:	31 d2                	xor    edx,edx
    b97e:	4c 8b 7d 98          	mov    r15,QWORD PTR [rbp-0x68]
    b982:	41 f6 87 e1 00 00 00 	test   BYTE PTR [r15+0xe1],0x8
    b989:	08 
    b98a:	0f 94 c2             	sete   dl
    b98d:	48 83 c2 01          	add    rdx,0x1
    b991:	4c 89 7d 98          	mov    QWORD PTR [rbp-0x68],r15
    b995:	4c 8b 7d a8          	mov    r15,QWORD PTR [rbp-0x58]
    b999:	49 8b 37             	mov    rsi,QWORD PTR [r15]
    b99c:	48 89 df             	mov    rdi,rbx
    b99f:	49 be 32 dd 5f 55 55 	movabs r14,0x5555555fdd32
    b9a6:	55 00 00 
    b9a9:	4d 8d 6d f8          	lea    r13,[r13-0x8]
    b9ad:	4d 89 75 00          	mov    QWORD PTR [r13+0x0],r14
    b9b1:	4c 89 7d a8          	mov    QWORD PTR [rbp-0x58],r15
    b9b5:	e9 ed 36 00 00       	jmp    0xf0a7
    b9ba:	48 85 c0             	test   rax,rax
    b9bd:	74 0a                	je     0xb9c9
    b9bf:	48 8b 03             	mov    rax,QWORD PTR [rbx]
    b9c2:	80 88 e1 00 00 00 10 	or     BYTE PTR [rax+0xe1],0x10
    b9c9:	49 8b 3c 24          	mov    rdi,QWORD PTR [r12]
    b9cd:	90                   	nop
    b9ce:	4c 39 a3 f0 00 00 00 	cmp    QWORD PTR [rbx+0xf0],r12
    b9d5:	0f 84 06 05 00 00    	je     0xbee1
    b9db:	49 8b 44 24 10       	mov    rax,QWORD PTR [r12+0x10]
    b9e0:	48 8b 93 98 01 00 00 	mov    rdx,QWORD PTR [rbx+0x198]
    b9e7:	4c 8b 7d b0          	mov    r15,QWORD PTR [rbp-0x50]
    b9eb:	4c 89 fe             	mov    rsi,r15
    b9ee:	4c 8b 75 a0          	mov    r14,QWORD PTR [rbp-0x60]
    b9f2:	4c 8b 30             	mov    r14,QWORD PTR [rax]
    b9f5:	4c 89 7d b0          	mov    QWORD PTR [rbp-0x50],r15
    b9f9:	4c 8b 7d a8          	mov    r15,QWORD PTR [rbp-0x58]
    b9fd:	49 8d 47 38          	lea    rax,[r15+0x38]
    ba01:	49 89 57 38          	mov    QWORD PTR [r15+0x38],rdx
    ba05:	49 c7 47 60 00 00 00 	mov    QWORD PTR [r15+0x60],0x0
    ba0c:	00 
    ba0d:	48 89 42 08          	mov    QWORD PTR [rdx+0x8],rax
    ba11:	48 8d 93 98 01 00 00 	lea    rdx,[rbx+0x198]
    ba18:	41 83 e6 01          	and    r14d,0x1
    ba1c:	49 89 57 40          	mov    QWORD PTR [r15+0x40],rdx
    ba20:	4d 8b 7c 24 70       	mov    r15,QWORD PTR [r12+0x70]
    ba25:	80 83 c0 01 00 00 01 	add    BYTE PTR [rbx+0x1c0],0x1
    ba2c:	48 89 83 98 01 00 00 	mov    QWORD PTR [rbx+0x198],rax
    ba33:	49 8b 44 24 38       	mov    rax,QWORD PTR [r12+0x38]
    ba38:	48 29 43 28          	sub    QWORD PTR [rbx+0x28],rax
    ba3c:	4c 89 7d a8          	mov    QWORD PTR [rbp-0x58],r15
    ba40:	49 bf a8 dd 5f 55 55 	movabs r15,0x5555555fdda8
    ba47:	55 00 00 
    ba4a:	4d 8d 6d f8          	lea    r13,[r13-0x8]
    ba4e:	4d 89 7d 00          	mov    QWORD PTR [r13+0x0],r15
    ba52:	4c 89 75 a0          	mov    QWORD PTR [rbp-0x60],r14
    ba56:	e9 5b 73 ff ff       	jmp    0x2db6
    ba5b:	4c 8b 7d a8          	mov    r15,QWORD PTR [rbp-0x58]
    ba5f:	4c 39 bb e8 00 00 00 	cmp    QWORD PTR [rbx+0xe8],r15
    ba66:	4c 89 7d a8          	mov    QWORD PTR [rbp-0x58],r15
    ba6a:	0f 84 8d 01 00 00    	je     0xbbfd
    ba70:	4c 8b 7d a8          	mov    r15,QWORD PTR [rbp-0x58]
    ba74:	4c 89 ff             	mov    rdi,r15
    ba77:	49 be bd dd 5f 55 55 	movabs r14,0x5555555fddbd
    ba7e:	55 00 00 
    ba81:	4d 8d 6d f8          	lea    r13,[r13-0x8]
    ba85:	4d 89 75 00          	mov    QWORD PTR [r13+0x0],r14
    ba89:	4c 89 7d a8          	mov    QWORD PTR [rbp-0x58],r15
    ba8d:	e9 3b 4e ff ff       	jmp    0x8cd
    ba92:	4c 8b 7d 98          	mov    r15,QWORD PTR [rbp-0x68]
    ba96:	4d 8b 67 08          	mov    r12,QWORD PTR [r15+0x8]
    ba9a:	41 0f b6 44 24 09    	movzx  eax,BYTE PTR [r12+0x9]
    baa0:	a8 08                	test   al,0x8
    baa2:	4c 89 7d 98          	mov    QWORD PTR [rbp-0x68],r15
    baa6:	0f 85 72 01 00 00    	jne    0xbc1e
    baac:	84 c0                	test   al,al
    baae:	0f 88 d6 01 00 00    	js     0xbc8a
    bab4:	4c 8b 7d 98          	mov    r15,QWORD PTR [rbp-0x68]
    bab8:	4d 8b 67 10          	mov    r12,QWORD PTR [r15+0x10]
    babc:	41 0f b6 44 24 09    	movzx  eax,BYTE PTR [r12+0x9]
    bac2:	a8 08                	test   al,0x8
    bac4:	4c 89 7d 98          	mov    QWORD PTR [rbp-0x68],r15
    bac8:	0f 85 aa 03 00 00    	jne    0xbe78
    bace:	84 c0                	test   al,al
    bad0:	0f 88 2d 03 00 00    	js     0xbe03
    bad6:	48 8b 83 70 01 00 00 	mov    rax,QWORD PTR [rbx+0x170]
    badd:	4c 8b 7d 98          	mov    r15,QWORD PTR [rbp-0x68]
    bae1:	49 89 07             	mov    QWORD PTR [r15],rax
    bae4:	48 8b 43 20          	mov    rax,QWORD PTR [rbx+0x20]
    bae8:	4c 89 bb 70 01 00 00 	mov    QWORD PTR [rbx+0x170],r15
    baef:	4c 8b 75 a0          	mov    r14,QWORD PTR [rbp-0x60]
    baf3:	4d 85 f6             	test   r14,r14
    baf6:	4c 89 7d 98          	mov    QWORD PTR [rbp-0x68],r15
    bafa:	4c 89 75 a0          	mov    QWORD PTR [rbp-0x60],r14
    bafe:	0f 85 84 02 00 00    	jne    0xbd88
    bb04:	48 83 6b 40 01       	sub    QWORD PTR [rbx+0x40],0x1
    bb09:	48 85 c0             	test   rax,rax
    bb0c:	0f 85 8b 00 00 00    	jne    0xbb9d
    bb12:	48 83 7b 40 00       	cmp    QWORD PTR [rbx+0x40],0x0
    bb17:	0f 85 80 00 00 00    	jne    0xbb9d
    bb1d:	f6 83 c1 01 00 00 04 	test   BYTE PTR [rbx+0x1c1],0x4
    bb24:	75 77                	jne    0xbb9d
    bb26:	48 8b 03             	mov    rax,QWORD PTR [rbx]
    bb29:	4c 8b 40 08          	mov    r8,QWORD PTR [rax+0x8]
    bb2d:	49 bf 36 de 5f 55 55 	movabs r15,0x5555555fde36
    bb34:	55 00 00 
    bb37:	49 8d 87 fa f6 ff ff 	lea    rax,[r15-0x906]
    bb3e:	49 8b 70 20          	mov    rsi,QWORD PTR [r8+0x20]
    bb42:	49 89 40 10          	mov    QWORD PTR [r8+0x10],rax
    bb46:	48 8b 06             	mov    rax,QWORD PTR [rsi]
    bb49:	83 e0 10             	and    eax,0x10
    bb4c:	41 80 78 09 00       	cmp    BYTE PTR [r8+0x9],0x0
    bb51:	0f 88 20 04 00 00    	js     0xbf77
    bb57:	49 bf 56 de 5f 55 55 	movabs r15,0x5555555fde56
    bb5e:	55 00 00 
    bb61:	49 8d 97 6a 4c 09 00 	lea    rdx,[r15+0x94c6a]
    bb68:	41 80 48 09 80       	or     BYTE PTR [r8+0x9],0x80
    bb6d:	49 8d 48 50          	lea    rcx,[r8+0x50]
    bb71:	48 8b 3a             	mov    rdi,QWORD PTR [rdx]
    bb74:	48 89 0a             	mov    QWORD PTR [rdx],rcx
    bb77:	49 89 78 50          	mov    QWORD PTR [r8+0x50],rdi
    bb7b:	48 89 4f 08          	mov    QWORD PTR [rdi+0x8],rcx
    bb7f:	49 bf 74 de 5f 55 55 	movabs r15,0x5555555fde74
    bb86:	55 00 00 
    bb89:	49 8d 8f 40 7d 03 00 	lea    rcx,[r15+0x37d40]
    bb90:	49 89 50 58          	mov    QWORD PTR [r8+0x58],rdx
    bb94:	48 85 c0             	test   rax,rax
    bb97:	0f 85 f4 03 00 00    	jne    0xbf91
    bb9d:	49 83 c5 08          	add    r13,0x8
    bba1:	49 8b 5d 00          	mov    rbx,QWORD PTR [r13+0x0]
    bba5:	4d 8d 6d 08          	lea    r13,[r13+0x8]
    bba9:	4d 8b 65 00          	mov    r12,QWORD PTR [r13+0x0]
    bbad:	4d 8d 6d 08          	lea    r13,[r13+0x8]
    bbb1:	4c 8b 7d 98          	mov    r15,QWORD PTR [rbp-0x68]
    bbb5:	4d 8b 7d 00          	mov    r15,QWORD PTR [r13+0x0]
    bbb9:	4d 8d 6d 08          	lea    r13,[r13+0x8]
    bbbd:	4c 8b 75 a0          	mov    r14,QWORD PTR [rbp-0x60]
    bbc1:	4d 8b 75 00          	mov    r14,QWORD PTR [r13+0x0]
    bbc5:	4d 8d 6d 08          	lea    r13,[r13+0x8]
    bbc9:	4c 89 7d 98          	mov    QWORD PTR [rbp-0x68],r15
    bbcd:	4c 8b 7d a8          	mov    r15,QWORD PTR [rbp-0x58]
    bbd1:	4d 8b 7d 00          	mov    r15,QWORD PTR [r13+0x0]
    bbd5:	4d 8d 6d 08          	lea    r13,[r13+0x8]
    bbd9:	4c 89 7d a8          	mov    QWORD PTR [rbp-0x58],r15
    bbdd:	4c 8b 7d b0          	mov    r15,QWORD PTR [rbp-0x50]
    bbe1:	4d 8b 7d 00          	mov    r15,QWORD PTR [r13+0x0]
    bbe5:	4d 8d 6d 08          	lea    r13,[r13+0x8]
    bbe9:	4c 89 7d b0          	mov    QWORD PTR [rbp-0x50],r15
    bbed:	4d 8b 7d 00          	mov    r15,QWORD PTR [r13+0x0]
    bbf1:	4d 8d 6d 08          	lea    r13,[r13+0x8]
    bbf5:	4d 89 fe             	mov    r14,r15
    bbf8:	e9 b9 2d 00 00       	jmp    0xe9b6
    bbfd:	80 a3 99 00 00 00 fd 	and    BYTE PTR [rbx+0x99],0xfd
    bc04:	4c 8b 7d 98          	mov    r15,QWORD PTR [rbp-0x68]
    bc08:	4d 8b 67 08          	mov    r12,QWORD PTR [r15+0x8]
    bc0c:	41 0f b6 44 24 09    	movzx  eax,BYTE PTR [r12+0x9]
    bc12:	a8 08                	test   al,0x8
    bc14:	4c 89 7d 98          	mov    QWORD PTR [rbp-0x68],r15
    bc18:	0f 84 8e fe ff ff    	je     0xbaac
    bc1e:	49 8b 74 24 20       	mov    rsi,QWORD PTR [r12+0x20]
    bc23:	f6 06 80             	test   BYTE PTR [rsi],0x80
    bc26:	0f 85 c5 02 00 00    	jne    0xbef1
    bc2c:	49 bf bc de 5f 55 55 	movabs r15,0x5555555fdebc
    bc33:	55 00 00 
    bc36:	49 8d bf e4 4b 09 00 	lea    rdi,[r15+0x94be4]
    bc3d:	49 8d 74 24 28       	lea    rsi,[r12+0x28]
    bc42:	49 bf c5 de 5f 55 55 	movabs r15,0x5555555fdec5
    bc49:	55 00 00 
    bc4c:	4d 8d 6d f8          	lea    r13,[r13-0x8]
    bc50:	4d 89 7d 00          	mov    QWORD PTR [r13+0x0],r15
    bc54:	e9 62 39 00 00       	jmp    0xf5bb
    bc59:	41 0f b6 44 24 09    	movzx  eax,BYTE PTR [r12+0x9]
    bc5f:	49 c7 44 24 30 00 00 	mov    QWORD PTR [r12+0x30],0x0
    bc66:	00 00 
    bc68:	49 c7 44 24 38 00 00 	mov    QWORD PTR [r12+0x38],0x0
    bc6f:	00 00 
    bc71:	83 e0 f7             	and    eax,0xfffffff7
    bc74:	49 c7 44 24 40 00 00 	mov    QWORD PTR [r12+0x40],0x0
    bc7b:	00 00 
    bc7d:	41 88 44 24 09       	mov    BYTE PTR [r12+0x9],al
    bc82:	84 c0                	test   al,al
    bc84:	0f 89 2a fe ff ff    	jns    0xbab4
    bc8a:	49 8b 54 24 50       	mov    rdx,QWORD PTR [r12+0x50]
    bc8f:	49 8b 44 24 58       	mov    rax,QWORD PTR [r12+0x58]
    bc94:	41 80 64 24 09 7f    	and    BYTE PTR [r12+0x9],0x7f
    bc9a:	49 8b 74 24 20       	mov    rsi,QWORD PTR [r12+0x20]
    bc9f:	48 89 10             	mov    QWORD PTR [rax],rdx
    bca2:	49 8b 54 24 50       	mov    rdx,QWORD PTR [r12+0x50]
    bca7:	48 89 42 08          	mov    QWORD PTR [rdx+0x8],rax
    bcab:	49 c7 44 24 50 00 00 	mov    QWORD PTR [r12+0x50],0x0
    bcb2:	00 00 
    bcb4:	49 c7 44 24 58 00 00 	mov    QWORD PTR [r12+0x58],0x0
    bcbb:	00 00 
    bcbd:	f6 06 10             	test   BYTE PTR [rsi],0x10
    bcc0:	0f 84 ee fd ff ff    	je     0xbab4
    bcc6:	4d 89 e0             	mov    r8,r12
    bcc9:	49 bf 2d df 5f 55 55 	movabs r15,0x5555555fdf2d
    bcd0:	55 00 00 
    bcd3:	49 8d 8f 71 4b 03 00 	lea    rcx,[r15+0x34b71]
    bcda:	31 d2                	xor    edx,edx
    bcdc:	31 c0                	xor    eax,eax
    bcde:	bf 08 00 00 00       	mov    edi,0x8
    bce3:	49 bf 3b df 5f 55 55 	movabs r15,0x5555555fdf3b
    bcea:	55 00 00 
    bced:	4d 8d 6d f8          	lea    r13,[r13-0x8]
    bcf1:	4d 89 7d 00          	mov    QWORD PTR [r13+0x0],r15
    bcf5:	e9 80 43 ff ff       	jmp    0x7a
    bcfa:	e9 b5 fd ff ff       	jmp    0xbab4
    bcff:	4c 8b 7d 98          	mov    r15,QWORD PTR [rbp-0x68]
    bd03:	49 8b 57 10          	mov    rdx,QWORD PTR [r15+0x10]
    bd07:	49 be 4c df 5f 55 55 	movabs r14,0x5555555fdf4c
    bd0e:	55 00 00 
    bd11:	49 8d 86 04 23 00 00 	lea    rax,[r14+0x2304]
    bd18:	41 80 8f e1 00 00 00 	or     BYTE PTR [r15+0xe1],0x10
    bd1f:	10 
    bd20:	48 89 42 10          	mov    QWORD PTR [rdx+0x10],rax
    bd24:	49 8b 57 08          	mov    rdx,QWORD PTR [r15+0x8]
    bd28:	48 89 42 10          	mov    QWORD PTR [rdx+0x10],rax
    bd2c:	49 83 c5 08          	add    r13,0x8
    bd30:	49 8b 5d 00          	mov    rbx,QWORD PTR [r13+0x0]
    bd34:	4d 8d 6d 08          	lea    r13,[r13+0x8]
    bd38:	4d 8b 65 00          	mov    r12,QWORD PTR [r13+0x0]
    bd3c:	4d 8d 6d 08          	lea    r13,[r13+0x8]
    bd40:	4d 8b 7d 00          	mov    r15,QWORD PTR [r13+0x0]
    bd44:	4d 8d 6d 08          	lea    r13,[r13+0x8]
    bd48:	4c 8b 75 a0          	mov    r14,QWORD PTR [rbp-0x60]
    bd4c:	4d 8b 75 00          	mov    r14,QWORD PTR [r13+0x0]
    bd50:	4d 8d 6d 08          	lea    r13,[r13+0x8]
    bd54:	4c 89 7d 98          	mov    QWORD PTR [rbp-0x68],r15
    bd58:	4c 8b 7d a8          	mov    r15,QWORD PTR [rbp-0x58]
    bd5c:	4d 8b 7d 00          	mov    r15,QWORD PTR [r13+0x0]
    bd60:	4d 8d 6d 08          	lea    r13,[r13+0x8]
    bd64:	4c 89 7d a8          	mov    QWORD PTR [rbp-0x58],r15
    bd68:	4c 8b 7d b0          	mov    r15,QWORD PTR [rbp-0x50]
    bd6c:	4d 8b 7d 00          	mov    r15,QWORD PTR [r13+0x0]
    bd70:	4d 8d 6d 08          	lea    r13,[r13+0x8]
    bd74:	4c 89 7d b0          	mov    QWORD PTR [rbp-0x50],r15
    bd78:	4d 8b 7d 00          	mov    r15,QWORD PTR [r13+0x0]
    bd7c:	4d 8d 6d 08          	lea    r13,[r13+0x8]
    bd80:	4d 89 fe             	mov    r14,r15
    bd83:	e9 c2 2c 00 00       	jmp    0xea4a
    bd88:	48 83 e8 01          	sub    rax,0x1
    bd8c:	48 89 43 20          	mov    QWORD PTR [rbx+0x20],rax
    bd90:	e9 74 fd ff ff       	jmp    0xbb09
    bd95:	4d 8d 6d f8          	lea    r13,[r13-0x8]
    bd99:	4c 8b 7b 40          	mov    r15,QWORD PTR [rbx+0x40]
    bd9d:	4d 89 7d 00          	mov    QWORD PTR [r13+0x0],r15
    bda1:	31 d2                	xor    edx,edx
    bda3:	31 c0                	xor    eax,eax
    bda5:	49 bf 96 df 5f 55 55 	movabs r15,0x5555555fdf96
    bdac:	55 00 00 
    bdaf:	49 8d 8f 22 20 04 00 	lea    rcx,[r15+0x42022]
    bdb6:	4d 8d 6d f8          	lea    r13,[r13-0x8]
    bdba:	4c 8b 7b 20          	mov    r15,QWORD PTR [rbx+0x20]
    bdbe:	4d 89 7d 00          	mov    QWORD PTR [r13+0x0],r15
    bdc2:	bf 08 00 00 00       	mov    edi,0x8
    bdc7:	4c 8b 7d a8          	mov    r15,QWORD PTR [rbp-0x58]
    bdcb:	4d 8b 07             	mov    r8,QWORD PTR [r15]
    bdce:	49 be a6 df 5f 55 55 	movabs r14,0x5555555fdfa6
    bdd5:	55 00 00 
    bdd8:	4d 8d 6d f8          	lea    r13,[r13-0x8]
    bddc:	4d 89 75 00          	mov    QWORD PTR [r13+0x0],r14
    bde0:	4c 89 7d a8          	mov    QWORD PTR [rbp-0x58],r15
    bde4:	e9 91 42 ff ff       	jmp    0x7a
    bde9:	49 8b 45 00          	mov    rax,QWORD PTR [r13+0x0]
    bded:	4d 8d 6d 08          	lea    r13,[r13+0x8]
    bdf1:	4d 8b 4c 24 18       	mov    r9,QWORD PTR [r12+0x18]
    bdf6:	49 8b 55 00          	mov    rdx,QWORD PTR [r13+0x0]
    bdfa:	4d 8d 6d 08          	lea    r13,[r13+0x8]
    bdfe:	e9 42 fb ff ff       	jmp    0xb945
    be03:	49 8b 54 24 50       	mov    rdx,QWORD PTR [r12+0x50]
    be08:	49 8b 44 24 58       	mov    rax,QWORD PTR [r12+0x58]
    be0d:	41 80 64 24 09 7f    	and    BYTE PTR [r12+0x9],0x7f
    be13:	49 8b 74 24 20       	mov    rsi,QWORD PTR [r12+0x20]
    be18:	48 89 10             	mov    QWORD PTR [rax],rdx
    be1b:	49 8b 54 24 50       	mov    rdx,QWORD PTR [r12+0x50]
    be20:	48 89 42 08          	mov    QWORD PTR [rdx+0x8],rax
    be24:	49 c7 44 24 50 00 00 	mov    QWORD PTR [r12+0x50],0x0
    be2b:	00 00 
    be2d:	49 c7 44 24 58 00 00 	mov    QWORD PTR [r12+0x58],0x0
    be34:	00 00 
    be36:	f6 06 10             	test   BYTE PTR [rsi],0x10
    be39:	0f 84 97 fc ff ff    	je     0xbad6
    be3f:	4d 89 e0             	mov    r8,r12
    be42:	49 bf f6 df 5f 55 55 	movabs r15,0x5555555fdff6
    be49:	55 00 00 
    be4c:	49 8d 8f a8 4a 03 00 	lea    rcx,[r15+0x34aa8]
    be53:	31 d2                	xor    edx,edx
    be55:	31 c0                	xor    eax,eax
    be57:	bf 08 00 00 00       	mov    edi,0x8
    be5c:	49 bf 04 e0 5f 55 55 	movabs r15,0x5555555fe004
    be63:	55 00 00 
    be66:	4d 8d 6d f8          	lea    r13,[r13-0x8]
    be6a:	4d 89 7d 00          	mov    QWORD PTR [r13+0x0],r15
    be6e:	e9 07 42 ff ff       	jmp    0x7a
    be73:	e9 5e fc ff ff       	jmp    0xbad6
    be78:	49 8b 74 24 20       	mov    rsi,QWORD PTR [r12+0x20]
    be7d:	f6 06 80             	test   BYTE PTR [rsi],0x80
    be80:	0f 85 ae 00 00 00    	jne    0xbf34
    be86:	49 bf 20 e0 5f 55 55 	movabs r15,0x5555555fe020
    be8d:	55 00 00 
    be90:	49 8d bf 80 4a 09 00 	lea    rdi,[r15+0x94a80]
    be97:	49 8d 74 24 28       	lea    rsi,[r12+0x28]
    be9c:	49 bf 29 e0 5f 55 55 	movabs r15,0x5555555fe029
    bea3:	55 00 00 
    bea6:	4d 8d 6d f8          	lea    r13,[r13-0x8]
    beaa:	4d 89 7d 00          	mov    QWORD PTR [r13+0x0],r15
    beae:	e9 08 37 00 00       	jmp    0xf5bb
    beb3:	41 0f b6 44 24 09    	movzx  eax,BYTE PTR [r12+0x9]
    beb9:	49 c7 44 24 30 00 00 	mov    QWORD PTR [r12+0x30],0x0
    bec0:	00 00 
    bec2:	49 c7 44 24 38 00 00 	mov    QWORD PTR [r12+0x38],0x0
    bec9:	00 00 
    becb:	83 e0 f7             	and    eax,0xfffffff7
    bece:	49 c7 44 24 40 00 00 	mov    QWORD PTR [r12+0x40],0x0
    bed5:	00 00 
    bed7:	41 88 44 24 09       	mov    BYTE PTR [r12+0x9],al
    bedc:	e9 ed fb ff ff       	jmp    0xbace
    bee1:	48 c7 83 f0 00 00 00 	mov    QWORD PTR [rbx+0xf0],0x0
    bee8:	00 00 00 00 
    beec:	e9 ea fa ff ff       	jmp    0xb9db
    bef1:	49 8b 04 24          	mov    rax,QWORD PTR [r12]
    bef5:	4d 8b 4c 24 28       	mov    r9,QWORD PTR [r12+0x28]
    befa:	31 d2                	xor    edx,edx
    befc:	bf 08 00 00 00       	mov    edi,0x8
    bf01:	49 bf 76 e0 5f 55 55 	movabs r15,0x5555555fe076
    bf08:	55 00 00 
    bf0b:	49 8d 8f 10 4a 03 00 	lea    rcx,[r15+0x34a10]
    bf12:	44 8b 40 18          	mov    r8d,DWORD PTR [rax+0x18]
    bf16:	31 c0                	xor    eax,eax
    bf18:	49 bf 81 e0 5f 55 55 	movabs r15,0x5555555fe081
    bf1f:	55 00 00 
    bf22:	4d 8d 6d f8          	lea    r13,[r13-0x8]
    bf26:	4d 89 7d 00          	mov    QWORD PTR [r13+0x0],r15
    bf2a:	e9 4b 41 ff ff       	jmp    0x7a
    bf2f:	e9 f8 fc ff ff       	jmp    0xbc2c
    bf34:	49 8b 04 24          	mov    rax,QWORD PTR [r12]
    bf38:	4d 8b 4c 24 28       	mov    r9,QWORD PTR [r12+0x28]
    bf3d:	31 d2                	xor    edx,edx
    bf3f:	bf 08 00 00 00       	mov    edi,0x8
    bf44:	49 bf a6 e0 5f 55 55 	movabs r15,0x5555555fe0a6
    bf4b:	55 00 00 
    bf4e:	49 8d 8f e0 49 03 00 	lea    rcx,[r15+0x349e0]
    bf55:	44 8b 40 18          	mov    r8d,DWORD PTR [rax+0x18]
    bf59:	31 c0                	xor    eax,eax
    bf5b:	49 bf b1 e0 5f 55 55 	movabs r15,0x5555555fe0b1
    bf62:	55 00 00 
    bf65:	4d 8d 6d f8          	lea    r13,[r13-0x8]
    bf69:	4d 89 7d 00          	mov    QWORD PTR [r13+0x0],r15
    bf6d:	e9 08 41 ff ff       	jmp    0x7a
    bf72:	e9 0f ff ff ff       	jmp    0xbe86
    bf77:	48 85 c0             	test   rax,rax
    bf7a:	0f 84 1d fc ff ff    	je     0xbb9d
    bf80:	49 bf d0 e0 5f 55 55 	movabs r15,0x5555555fe0d0
    bf87:	55 00 00 
    bf8a:	49 8d 8f f2 7a 03 00 	lea    rcx,[r15+0x37af2]
    bf91:	49 83 c5 08          	add    r13,0x8
    bf95:	31 d2                	xor    edx,edx
    bf97:	bf 08 00 00 00       	mov    edi,0x8
    bf9c:	31 c0                	xor    eax,eax
    bf9e:	49 8b 5d 00          	mov    rbx,QWORD PTR [r13+0x0]
    bfa2:	4d 8d 6d 08          	lea    r13,[r13+0x8]
    bfa6:	4d 8b 65 00          	mov    r12,QWORD PTR [r13+0x0]
    bfaa:	4d 8d 6d 08          	lea    r13,[r13+0x8]
    bfae:	4c 8b 7d 98          	mov    r15,QWORD PTR [rbp-0x68]
    bfb2:	4d 8b 7d 00          	mov    r15,QWORD PTR [r13+0x0]
    bfb6:	4d 8d 6d 08          	lea    r13,[r13+0x8]
    bfba:	4c 8b 75 a0          	mov    r14,QWORD PTR [rbp-0x60]
    bfbe:	4d 8b 75 00          	mov    r14,QWORD PTR [r13+0x0]
    bfc2:	4d 8d 6d 08          	lea    r13,[r13+0x8]
    bfc6:	4c 89 7d 98          	mov    QWORD PTR [rbp-0x68],r15
    bfca:	4c 8b 7d a8          	mov    r15,QWORD PTR [rbp-0x58]
    bfce:	4d 8b 7d 00          	mov    r15,QWORD PTR [r13+0x0]
    bfd2:	4d 8d 6d 08          	lea    r13,[r13+0x8]
    bfd6:	4c 89 7d a8          	mov    QWORD PTR [rbp-0x58],r15
    bfda:	4c 8b 7d b0          	mov    r15,QWORD PTR [rbp-0x50]
    bfde:	4d 8b 7d 00          	mov    r15,QWORD PTR [r13+0x0]
    bfe2:	4d 8d 6d 08          	lea    r13,[r13+0x8]
    bfe6:	4c 89 7d b0          	mov    QWORD PTR [rbp-0x50],r15
    bfea:	4c 89 75 a0          	mov    QWORD PTR [rbp-0x60],r14
    bfee:	e9 87 40 ff ff       	jmp    0x7a
    bff3:	a8 08                	test   al,0x8
    bff5:	0f 85 d3 f9 ff ff    	jne    0xb9ce
    bffb:	31 d2                	xor    edx,edx
    bffd:	e9 93 f9 ff ff       	jmp    0xb995
    c002:	49 8b 85 98 00 00 00 	mov    rax,QWORD PTR [r13+0x98]
    c009:	4c 8b 7d 88          	mov    r15,QWORD PTR [rbp-0x78]
    c00d:	49 33 47 28          	xor    rax,QWORD PTR [r15+0x28]
    c011:	75 76                	jne    0xc089
    c013:	49 81 c5 a8 00 00 00 	add    r13,0xa8
    c01a:	4c 8b 7d 98          	mov    r15,QWORD PTR [rbp-0x68]
    c01e:	4c 89 f8             	mov    rax,r15
    c021:	49 8b 5d 00          	mov    rbx,QWORD PTR [r13+0x0]
    c025:	4d 8d 6d 08          	lea    r13,[r13+0x8]
    c029:	4d 8b 65 00          	mov    r12,QWORD PTR [r13+0x0]
    c02d:	4d 8d 6d 08          	lea    r13,[r13+0x8]
    c031:	4d 8b 7d 00          	mov    r15,QWORD PTR [r13+0x0]
    c035:	4d 8d 6d 08          	lea    r13,[r13+0x8]
    c039:	4c 8b 75 a0          	mov    r14,QWORD PTR [rbp-0x60]
    c03d:	4d 8b 75 00          	mov    r14,QWORD PTR [r13+0x0]
    c041:	4d 8d 6d 08          	lea    r13,[r13+0x8]
    c045:	4c 89 7d 98          	mov    QWORD PTR [rbp-0x68],r15
    c049:	4c 8b 7d a8          	mov    r15,QWORD PTR [rbp-0x58]
    c04d:	4d 8b 7d 00          	mov    r15,QWORD PTR [r13+0x0]
    c051:	4d 8d 6d 08          	lea    r13,[r13+0x8]
    c055:	4c 89 7d a8          	mov    QWORD PTR [rbp-0x58],r15
    c059:	4c 8b 7d b0          	mov    r15,QWORD PTR [rbp-0x50]
    c05d:	4d 8b 7d 00          	mov    r15,QWORD PTR [r13+0x0]
    c061:	4d 8d 6d 08          	lea    r13,[r13+0x8]
    c065:	4c 89 7d b0          	mov    QWORD PTR [rbp-0x50],r15
    c069:	4d 8b 7d 00          	mov    r15,QWORD PTR [r13+0x0]
    c06d:	4d 8d 6d 08          	lea    r13,[r13+0x8]
    c071:	4d 89 fe             	mov    r14,r15
    c074:	e9 3e 04 00 00       	jmp    0xc4b7
    c079:	4c 8b 7d 98          	mov    r15,QWORD PTR [rbp-0x68]
    c07d:	49 89 c7             	mov    r15,rax
    c080:	4c 89 7d 98          	mov    QWORD PTR [rbp-0x68],r15
    c084:	e9 79 ff ff ff       	jmp    0xc002
    c089:	49 bf d5 1a 60 55 55 	movabs r15,0x555555601ad5
    c090:	55 00 00 
    c093:	4d 8d 6d f8          	lea    r13,[r13-0x8]
    c097:	4d 89 7d 00          	mov    QWORD PTR [r13+0x0],r15
    c09b:	e9 9f 2f 00 00       	jmp    0xf03f
    c0a0:	90                   	nop
    c0a1:	90                   	nop
    c0a2:	90                   	nop
    c0a3:	48 83 3a ff          	cmp    QWORD PTR [rdx],0xffffffffffffffff
    c0a7:	75 13                	jne    0xc0bc
    c0a9:	48 8b 06             	mov    rax,QWORD PTR [rsi]
    c0ac:	b9 00 00 00 00       	mov    ecx,0x0
    c0b1:	48 83 f8 ff          	cmp    rax,0xffffffffffffffff
    c0b5:	48 0f 44 c1          	cmove  rax,rcx
    c0b9:	48 89 02             	mov    QWORD PTR [rdx],rax
    c0bc:	31 c0                	xor    eax,eax
    c0be:	4d 8b 7d 00          	mov    r15,QWORD PTR [r13+0x0]
    c0c2:	4d 8d 6d 08          	lea    r13,[r13+0x8]
    c0c6:	4d 89 fe             	mov    r14,r15
    c0c9:	e9 e7 05 00 00       	jmp    0xc6b5
    c0ce:	49 8b 85 98 01 00 00 	mov    rax,QWORD PTR [r13+0x198]
    c0d5:	4c 8b 7d 88          	mov    r15,QWORD PTR [rbp-0x78]
    c0d9:	49 33 47 28          	xor    rax,QWORD PTR [r15+0x28]
    c0dd:	75 76                	jne    0xc155
    c0df:	49 81 c5 a8 01 00 00 	add    r13,0x1a8
    c0e6:	4c 8b 7d 98          	mov    r15,QWORD PTR [rbp-0x68]
    c0ea:	4c 89 f8             	mov    rax,r15
    c0ed:	49 8b 5d 00          	mov    rbx,QWORD PTR [r13+0x0]
    c0f1:	4d 8d 6d 08          	lea    r13,[r13+0x8]
    c0f5:	4d 8b 65 00          	mov    r12,QWORD PTR [r13+0x0]
    c0f9:	4d 8d 6d 08          	lea    r13,[r13+0x8]
    c0fd:	4d 8b 7d 00          	mov    r15,QWORD PTR [r13+0x0]
    c101:	4d 8d 6d 08          	lea    r13,[r13+0x8]
    c105:	4c 8b 75 a0          	mov    r14,QWORD PTR [rbp-0x60]
    c109:	4d 8b 75 00          	mov    r14,QWORD PTR [r13+0x0]
    c10d:	4d 8d 6d 08          	lea    r13,[r13+0x8]
    c111:	4c 89 7d 98          	mov    QWORD PTR [rbp-0x68],r15
    c115:	4c 8b 7d a8          	mov    r15,QWORD PTR [rbp-0x58]
    c119:	4d 8b 7d 00          	mov    r15,QWORD PTR [r13+0x0]
    c11d:	4d 8d 6d 08          	lea    r13,[r13+0x8]
    c121:	4c 89 7d a8          	mov    QWORD PTR [rbp-0x58],r15
    c125:	4c 8b 7d b0          	mov    r15,QWORD PTR [rbp-0x50]
    c129:	4d 8b 7d 00          	mov    r15,QWORD PTR [r13+0x0]
    c12d:	4d 8d 6d 08          	lea    r13,[r13+0x8]
    c131:	4c 89 7d b0          	mov    QWORD PTR [rbp-0x50],r15
    c135:	4d 8b 7d 00          	mov    r15,QWORD PTR [r13+0x0]
    c139:	4d 8d 6d 08          	lea    r13,[r13+0x8]
    c13d:	4d 89 fe             	mov    r14,r15
    c140:	e9 62 02 00 00       	jmp    0xc3a7
    c145:	4c 8b 7d 98          	mov    r15,QWORD PTR [rbp-0x68]
    c149:	49 89 c7             	mov    r15,rax
    c14c:	4c 89 7d 98          	mov    QWORD PTR [rbp-0x68],r15
    c150:	e9 79 ff ff ff       	jmp    0xc0ce
    c155:	49 bf ed 5f 60 55 55 	movabs r15,0x555555605fed
    c15c:	55 00 00 
    c15f:	4d 8d 6d f8          	lea    r13,[r13-0x8]
    c163:	4d 89 7d 00          	mov    QWORD PTR [r13+0x0],r15
    c167:	e9 d3 2e 00 00       	jmp    0xf03f
    c16c:	90                   	nop
    c16d:	90                   	nop
    c16e:	48 83 3a ff          	cmp    QWORD PTR [rdx],0xffffffffffffffff
    c172:	74 2e                	je     0xc1a2
    c174:	48 83 7a 08 ff       	cmp    QWORD PTR [rdx+0x8],0xffffffffffffffff
    c179:	75 15                	jne    0xc190
    c17b:	48 8b 46 08          	mov    rax,QWORD PTR [rsi+0x8]
    c17f:	b9 01 00 00 00       	mov    ecx,0x1
    c184:	48 83 f8 ff          	cmp    rax,0xffffffffffffffff
    c188:	48 0f 44 c1          	cmove  rax,rcx
    c18c:	48 89 42 08          	mov    QWORD PTR [rdx+0x8],rax
    c190:	31 c0                	xor    eax,eax
    c192:	4d 8b 7d 00          	mov    r15,QWORD PTR [r13+0x0]
    c196:	4d 8d 6d 08          	lea    r13,[r13+0x8]
    c19a:	4d 89 fe             	mov    r14,r15
    c19d:	e9 da 2d 00 00       	jmp    0xef7c
    c1a2:	48 8b 06             	mov    rax,QWORD PTR [rsi]
    c1a5:	b9 00 00 00 00       	mov    ecx,0x0
    c1aa:	48 83 f8 ff          	cmp    rax,0xffffffffffffffff
    c1ae:	48 0f 44 c1          	cmove  rax,rcx
    c1b2:	48 89 02             	mov    QWORD PTR [rdx],rax
    c1b5:	eb bd                	jmp    0xc174
    c1b7:	48 c7 43 48 01 00 00 	mov    QWORD PTR [rbx+0x48],0x1
    c1be:	00 
    c1bf:	49 bf de 25 94 f7 ff 	movabs r15,0x7ffff79425de
    c1c6:	7f 00 00 
    c1c9:	49 8b b7 f2 29 00 00 	mov    rsi,QWORD PTR [r15+0x29f2]
    c1d0:	ba f4 01 00 00       	mov    edx,0x1f4
    c1d5:	4c 89 e7             	mov    rdi,r12
    c1d8:	49 bf eb 25 94 f7 ff 	movabs r15,0x7ffff79425eb
    c1df:	7f 00 00 
    c1e2:	4d 8d 6d f8          	lea    r13,[r13-0x8]
    c1e6:	4d 89 7d 00          	mov    QWORD PTR [r13+0x0],r15
    c1ea:	e9 c8 35 00 00       	jmp    0xf7b7
    c1ef:	eb 00                	jmp    0xc1f1
    c1f1:	49 8b 5d 38          	mov    rbx,QWORD PTR [r13+0x38]
    c1f5:	4c 8b 7d 88          	mov    r15,QWORD PTR [rbp-0x78]
    c1f9:	49 33 5f 28          	xor    rbx,QWORD PTR [r15+0x28]
    c1fd:	75 60                	jne    0xc25f
    c1ff:	49 83 c5 48          	add    r13,0x48
    c203:	49 8b 5d 00          	mov    rbx,QWORD PTR [r13+0x0]
    c207:	4d 8d 6d 08          	lea    r13,[r13+0x8]
    c20b:	4d 8b 65 00          	mov    r12,QWORD PTR [r13+0x0]
    c20f:	4d 8d 6d 08          	lea    r13,[r13+0x8]
    c213:	4c 8b 7d 98          	mov    r15,QWORD PTR [rbp-0x68]
    c217:	4d 8b 7d 00          	mov    r15,QWORD PTR [r13+0x0]
    c21b:	4d 8d 6d 08          	lea    r13,[r13+0x8]
    c21f:	4c 8b 75 a0          	mov    r14,QWORD PTR [rbp-0x60]
    c223:	4d 8b 75 00          	mov    r14,QWORD PTR [r13+0x0]
    c227:	4d 8d 6d 08          	lea    r13,[r13+0x8]
    c22b:	4c 89 7d 98          	mov    QWORD PTR [rbp-0x68],r15
    c22f:	4c 8b 7d a8          	mov    r15,QWORD PTR [rbp-0x58]
    c233:	4d 8b 7d 00          	mov    r15,QWORD PTR [r13+0x0]
    c237:	4d 8d 6d 08          	lea    r13,[r13+0x8]
    c23b:	4c 89 7d a8          	mov    QWORD PTR [rbp-0x58],r15
    c23f:	4c 8b 7d b0          	mov    r15,QWORD PTR [rbp-0x50]
    c243:	4d 8b 7d 00          	mov    r15,QWORD PTR [r13+0x0]
    c247:	4d 8d 6d 08          	lea    r13,[r13+0x8]
    c24b:	4c 89 7d b0          	mov    QWORD PTR [rbp-0x50],r15
    c24f:	4d 8b 7d 00          	mov    r15,QWORD PTR [r13+0x0]
    c253:	4d 8d 6d 08          	lea    r13,[r13+0x8]
    c257:	4d 89 fe             	mov    r14,r15
    c25a:	e9 d0 01 00 00       	jmp    0xc42f
    c25f:	49 bf a1 2c 94 f7 ff 	movabs r15,0x7ffff7942ca1
    c266:	7f 00 00 
    c269:	4d 8d 6d f8          	lea    r13,[r13-0x8]
    c26d:	4d 89 7d 00          	mov    QWORD PTR [r13+0x0],r15
    c271:	e9 d5 30 00 00       	jmp    0xf34b
    c276:	49 8b 7d 20          	mov    rdi,QWORD PTR [r13+0x20]
    c27a:	49 bf ab 2c 94 f7 ff 	movabs r15,0x7ffff7942cab
    c281:	7f 00 00 
    c284:	4d 8d 6d f8          	lea    r13,[r13-0x8]
    c288:	4d 89 7d 00          	mov    QWORD PTR [r13+0x0],r15
    c28c:	e9 ac 33 00 00       	jmp    0xf63d
    c291:	e9 21 ff ff ff       	jmp    0xc1b7
    c296:	48 3d 01 f0 ff ff    	cmp    rax,0xfffffffffffff001
    c29c:	73 10                	jae    0xc2ae
    c29e:	4d 8b 7d 00          	mov    r15,QWORD PTR [r13+0x0]
    c2a2:	4d 8d 6d 08          	lea    r13,[r13+0x8]
    c2a6:	4d 89 fe             	mov    r14,r15
    c2a9:	e9 2b 02 00 00       	jmp    0xc4d9
    c2ae:	49 bf be ef a6 f7 ff 	movabs r15,0x7ffff7a6efbe
    c2b5:	7f 00 00 
    c2b8:	49 8b 8f b2 8e 0d 00 	mov    rcx,QWORD PTR [r15+0xd8eb2]
    c2bf:	f7 d8                	neg    eax
    c2c1:	4c 8b 7d 88          	mov    r15,QWORD PTR [rbp-0x78]
    c2c5:	41 89 04 0f          	mov    DWORD PTR [r15+rcx*1],eax
    c2c9:	48 83 c8 ff          	or     rax,0xffffffffffffffff
    c2cd:	4d 8b 75 00          	mov    r14,QWORD PTR [r13+0x0]
    c2d1:	4d 8d 6d 08          	lea    r13,[r13+0x8]
    c2d5:	e9 56 2d 00 00       	jmp    0xf030
    c2da:	49 8b 4d 38          	mov    rcx,QWORD PTR [r13+0x38]
    c2de:	4c 8b 7d 88          	mov    r15,QWORD PTR [rbp-0x78]
    c2e2:	49 33 4f 28          	xor    rcx,QWORD PTR [r15+0x28]
    c2e6:	75 60                	jne    0xc348
    c2e8:	49 83 c5 48          	add    r13,0x48
    c2ec:	49 8b 5d 00          	mov    rbx,QWORD PTR [r13+0x0]
    c2f0:	4d 8d 6d 08          	lea    r13,[r13+0x8]
    c2f4:	4d 8b 65 00          	mov    r12,QWORD PTR [r13+0x0]
    c2f8:	4d 8d 6d 08          	lea    r13,[r13+0x8]
    c2fc:	4c 8b 7d 98          	mov    r15,QWORD PTR [rbp-0x68]
    c300:	4d 8b 7d 00          	mov    r15,QWORD PTR [r13+0x0]
    c304:	4d 8d 6d 08          	lea    r13,[r13+0x8]
    c308:	4c 8b 75 a0          	mov    r14,QWORD PTR [rbp-0x60]
    c30c:	4d 8b 75 00          	mov    r14,QWORD PTR [r13+0x0]
    c310:	4d 8d 6d 08          	lea    r13,[r13+0x8]
    c314:	4c 89 7d 98          	mov    QWORD PTR [rbp-0x68],r15
    c318:	4c 8b 7d a8          	mov    r15,QWORD PTR [rbp-0x58]
    c31c:	4d 8b 7d 00          	mov    r15,QWORD PTR [r13+0x0]
    c320:	4d 8d 6d 08          	lea    r13,[r13+0x8]
    c324:	4c 89 7d a8          	mov    QWORD PTR [rbp-0x58],r15
    c328:	4c 8b 7d b0          	mov    r15,QWORD PTR [rbp-0x50]
    c32c:	4d 8b 7d 00          	mov    r15,QWORD PTR [r13+0x0]
    c330:	4d 8d 6d 08          	lea    r13,[r13+0x8]
    c334:	4c 89 7d b0          	mov    QWORD PTR [rbp-0x50],r15
    c338:	4d 8b 7d 00          	mov    r15,QWORD PTR [r13+0x0]
    c33c:	4d 8d 6d 08          	lea    r13,[r13+0x8]
    c340:	4d 89 fe             	mov    r14,r15
    c343:	e9 1e 03 00 00       	jmp    0xc666
    c348:	49 bf d9 7b fc f7 ff 	movabs r15,0x7ffff7fc7bd9
    c34f:	7f 00 00 
    c352:	4d 8d 6d f8          	lea    r13,[r13-0x8]
    c356:	4d 89 7d 00          	mov    QWORD PTR [r13+0x0],r15
    c35a:	e9 f4 31 00 00       	jmp    0xf553
    c35f:	00 00                	add    BYTE PTR [rax],al
    c361:	00 f3                	add    bl,dh
    c363:	49 bf 50 c5 5c 55 55 	movabs r15,0x5555555cc550
    c36a:	55 00 00 
    c36d:	4d 39 fe             	cmp    r14,r15
    c370:	0f 84 be 9a ff ff    	je     0x5e34
    c376:	49 bf 25 0d 5c 55 55 	movabs r15,0x5555555c0d25
    c37d:	55 00 00 
    c380:	e9 56 34 00 00       	jmp    0xf7db
    c385:	49 bf e1 5e 60 55 55 	movabs r15,0x555555605ee1
    c38c:	55 00 00 
    c38f:	4d 39 fe             	cmp    r14,r15
    c392:	0f 84 ad fd ff ff    	je     0xc145
    c398:	49 bf 88 fb 5b 55 55 	movabs r15,0x5555555bfb88
    c39f:	55 00 00 
    c3a2:	e9 34 34 00 00       	jmp    0xf7db
    c3a7:	49 bf 6e ed 5b 55 55 	movabs r15,0x5555555bed6e
    c3ae:	55 00 00 
    c3b1:	4d 39 fe             	cmp    r14,r15
    c3b4:	0f 84 c3 5b ff ff    	je     0x1f7d
    c3ba:	49 bf 30 5b 60 55 55 	movabs r15,0x555555605b30
    c3c1:	55 00 00 
    c3c4:	e9 12 34 00 00       	jmp    0xf7db
    c3c9:	49 bf 25 0d 5c 55 55 	movabs r15,0x5555555c0d25
    c3d0:	55 00 00 
    c3d3:	4d 39 fe             	cmp    r14,r15
    c3d6:	0f 84 ef 65 ff ff    	je     0x29cb
    c3dc:	49 bf 75 c9 5c 55 55 	movabs r15,0x5555555cc975
    c3e3:	55 00 00 
    c3e6:	e9 f0 33 00 00       	jmp    0xf7db
    c3eb:	49 bf ec 55 5e 55 55 	movabs r15,0x5555555e55ec
    c3f2:	55 00 00 
    c3f5:	4d 39 fe             	cmp    r14,r15
    c3f8:	0f 84 dc b9 ff ff    	je     0x7dda
    c3fe:	49 bf 18 3d 5e 55 55 	movabs r15,0x5555555e3d18
    c405:	55 00 00 
    c408:	e9 ce 33 00 00       	jmp    0xf7db
    c40d:	49 bf 59 6f 5f 55 55 	movabs r15,0x5555555f6f59
    c414:	55 00 00 
    c417:	4d 39 fe             	cmp    r14,r15
    c41a:	0f 84 4a f3 ff ff    	je     0xb76a
    c420:	49 bf fc ee 57 55 55 	movabs r15,0x55555557eefc
    c427:	55 00 00 
    c42a:	e9 ac 33 00 00       	jmp    0xf7db
    c42f:	49 bf b6 71 fc f7 ff 	movabs r15,0x7ffff7fc71b6
    c436:	7f 00 00 
    c439:	4d 39 fe             	cmp    r14,r15
    c43c:	0f 84 98 fe ff ff    	je     0xc2da
    c442:	49 bf df 26 94 f7 ff 	movabs r15,0x7ffff79426df
    c449:	7f 00 00 
    c44c:	e9 8a 33 00 00       	jmp    0xf7db
    c451:	49 bf 7d 62 5f 55 55 	movabs r15,0x5555555f627d
    c458:	55 00 00 
    c45b:	4d 39 fe             	cmp    r14,r15
    c45e:	0f 84 53 ee ff ff    	je     0xb2b7
    c464:	49 bf ce 46 5f 55 55 	movabs r15,0x5555555f46ce
    c46b:	55 00 00 
    c46e:	e9 68 33 00 00       	jmp    0xf7db
    c473:	49 bf 91 18 60 55 55 	movabs r15,0x555555601891
    c47a:	55 00 00 
    c47d:	4d 39 fe             	cmp    r14,r15
    c480:	0f 84 f3 fb ff ff    	je     0xc079
    c486:	49 bf b0 e8 5b 55 55 	movabs r15,0x5555555be8b0
    c48d:	55 00 00 
    c490:	e9 46 33 00 00       	jmp    0xf7db
    c495:	49 bf e8 40 5e 55 55 	movabs r15,0x5555555e40e8
    c49c:	55 00 00 
    c49f:	4d 39 fe             	cmp    r14,r15
    c4a2:	0f 84 85 b2 ff ff    	je     0x772d
    c4a8:	49 bf 91 9b 5a 55 55 	movabs r15,0x5555555a9b91
    c4af:	55 00 00 
    c4b2:	e9 24 33 00 00       	jmp    0xf7db
    c4b7:	49 bf 6e ed 5b 55 55 	movabs r15,0x5555555bed6e
    c4be:	55 00 00 
    c4c1:	4d 39 fe             	cmp    r14,r15
    c4c4:	0f 84 b3 5a ff ff    	je     0x1f7d
    c4ca:	49 bf 92 16 60 55 55 	movabs r15,0x555555601692
    c4d1:	55 00 00 
    c4d4:	e9 02 33 00 00       	jmp    0xf7db
    c4d9:	49 bf 1b 9b 5a 55 55 	movabs r15,0x5555555a9b1b
    c4e0:	55 00 00 
    c4e3:	4d 39 fe             	cmp    r14,r15
    c4e6:	0f 84 a0 52 ff ff    	je     0x178c
    c4ec:	49 bf b7 ef a6 f7 ff 	movabs r15,0x7ffff7a6efb7
    c4f3:	7f 00 00 
    c4f6:	e9 e0 32 00 00       	jmp    0xf7db
    c4fb:	49 bf 34 4a 5f 55 55 	movabs r15,0x5555555f4a34
    c502:	55 00 00 
    c505:	4d 39 fe             	cmp    r14,r15
    c508:	0f 84 88 eb ff ff    	je     0xb096
    c50e:	49 bf 99 40 5f 55 55 	movabs r15,0x5555555f4099
    c515:	55 00 00 
    c518:	e9 be 32 00 00       	jmp    0xf7db
    c51d:	49 bf 78 1c 5f 55 55 	movabs r15,0x5555555f1c78
    c524:	55 00 00 
    c527:	4d 39 fe             	cmp    r14,r15
    c52a:	0f 84 2f e7 ff ff    	je     0xac5f
    c530:	49 bf d3 c9 5e 55 55 	movabs r15,0x5555555ec9d3
    c537:	55 00 00 
    c53a:	e9 9c 32 00 00       	jmp    0xf7db
    c53f:	49 bf bc 26 94 f7 ff 	movabs r15,0x7ffff79426bc
    c546:	7f 00 00 
    c549:	4d 39 fe             	cmp    r14,r15
    c54c:	0f 84 9f fc ff ff    	je     0xc1f1
    c552:	49 bf e6 17 5f 55 55 	movabs r15,0x5555555f17e6
    c559:	55 00 00 
    c55c:	e9 7a 32 00 00       	jmp    0xf7db
    c561:	49 bf dc ab 5e 55 55 	movabs r15,0x5555555eabdc
    c568:	55 00 00 
    c56b:	4d 39 fe             	cmp    r14,r15
    c56e:	0f 84 84 ba ff ff    	je     0x7ff8
    c574:	49 bf 0f 56 5e 55 55 	movabs r15,0x5555555e560f
    c57b:	55 00 00 
    c57e:	e9 58 32 00 00       	jmp    0xf7db
    c583:	49 bf 42 e3 5e 55 55 	movabs r15,0x5555555ee342
    c58a:	55 00 00 
    c58d:	4d 39 fe             	cmp    r14,r15
    c590:	0f 84 5a db ff ff    	je     0xa0f0
    c596:	49 bf ff ab 5e 55 55 	movabs r15,0x5555555eabff
    c59d:	55 00 00 
    c5a0:	e9 36 32 00 00       	jmp    0xf7db
    c5a5:	49 bf b3 f1 57 55 55 	movabs r15,0x55555557f1b3
    c5ac:	55 00 00 
    c5af:	4d 39 fe             	cmp    r14,r15
    c5b2:	0f 84 68 46 ff ff    	je     0xc20
    c5b8:	49 bf a0 62 5f 55 55 	movabs r15,0x5555555f62a0
    c5bf:	55 00 00 
    c5c2:	e9 14 32 00 00       	jmp    0xf7db
    c5c7:	49 bf fd 90 5b 55 55 	movabs r15,0x5555555b90fd
    c5ce:	55 00 00 
    c5d1:	4d 39 fe             	cmp    r14,r15
    c5d4:	0f 84 f7 58 ff ff    	je     0x1ed1
    c5da:	49 bf 4e ed 5b 55 55 	movabs r15,0x5555555bed4e
    c5e1:	55 00 00 
    c5e4:	e9 f2 31 00 00       	jmp    0xf7db
    c5e9:	49 bf 9e e8 5b 55 55 	movabs r15,0x5555555be89e
    c5f0:	55 00 00 
    c5f3:	4d 39 fe             	cmp    r14,r15
    c5f6:	0f 84 15 59 ff ff    	je     0x1f11
    c5fc:	49 bf a2 6f 5f 55 55 	movabs r15,0x5555555f6fa2
    c603:	55 00 00 
    c606:	e9 d0 31 00 00       	jmp    0xf7db
    c60b:	49 bf 7f fb 5b 55 55 	movabs r15,0x5555555bfb7f
    c612:	55 00 00 
    c615:	4d 39 fe             	cmp    r14,r15
    c618:	0f 84 10 63 ff ff    	je     0x292e
    c61e:	49 bf db ed 5b 55 55 	movabs r15,0x5555555beddb
    c625:	55 00 00 
    c628:	4d 39 fe             	cmp    r14,r15
    c62b:	0f 84 01 5a ff ff    	je     0x2032
    c631:	49 bf af ed 5b 55 55 	movabs r15,0x5555555bedaf
    c638:	55 00 00 
    c63b:	4d 39 fe             	cmp    r14,r15
    c63e:	0f 84 97 59 ff ff    	je     0x1fdb
    c644:	49 bf 44 ee 5b 55 55 	movabs r15,0x5555555bee44
    c64b:	55 00 00 
    c64e:	4d 39 fe             	cmp    r14,r15
    c651:	0f 84 39 5a ff ff    	je     0x2090
    c657:	49 bf 21 91 5b 55 55 	movabs r15,0x5555555b9121
    c65e:	55 00 00 
    c661:	e9 75 31 00 00       	jmp    0xf7db
    c666:	49 bf 7c 40 5f 55 55 	movabs r15,0x5555555f407c
    c66d:	55 00 00 
    c670:	4d 39 fe             	cmp    r14,r15
    c673:	0f 84 85 e7 ff ff    	je     0xadfe
    c679:	49 bf d9 71 fc f7 ff 	movabs r15,0x7ffff7fc71d9
    c680:	7f 00 00 
    c683:	e9 53 31 00 00       	jmp    0xf7db
    c688:	49 bf 24 65 5f 55 55 	movabs r15,0x5555555f6524
    c68f:	55 00 00 
    c692:	e9 44 31 00 00       	jmp    0xf7db
    c697:	49 bf e9 65 5f 55 55 	movabs r15,0x5555555f65e9
    c69e:	55 00 00 
    c6a1:	e9 35 31 00 00       	jmp    0xf7db
    c6a6:	49 bf 27 66 5f 55 55 	movabs r15,0x5555555f6627
    c6ad:	55 00 00 
    c6b0:	e9 26 31 00 00       	jmp    0xf7db
    c6b5:	49 bf 00 1b 60 55 55 	movabs r15,0x555555601b00
    c6bc:	55 00 00 
    c6bf:	e9 17 31 00 00       	jmp    0xf7db
    c6c4:	49 bf 9f 9e 5a 55 55 	movabs r15,0x5555555a9e9f
    c6cb:	55 00 00 
    c6ce:	4d 39 fe             	cmp    r14,r15
    c6d1:	0f 84 52 56 ff ff    	je     0x1d29
    c6d7:	49 bf 15 9f 5a 55 55 	movabs r15,0x5555555a9f15
    c6de:	55 00 00 
    c6e1:	4d 39 fe             	cmp    r14,r15
    c6e4:	0f 84 19 57 ff ff    	je     0x1e03
    c6ea:	49 bf bc 9c 5a 55 55 	movabs r15,0x5555555a9cbc
    c6f1:	55 00 00 
    c6f4:	4d 39 fe             	cmp    r14,r15
    c6f7:	0f 84 33 53 ff ff    	je     0x1a30
    c6fd:	49 bf ab 9d 5a 55 55 	movabs r15,0x5555555a9dab
    c704:	55 00 00 
    c707:	4d 39 fe             	cmp    r14,r15
    c70a:	0f 84 8b 54 ff ff    	je     0x1b9b
    c710:	49 bf 05 9b 5a 55 55 	movabs r15,0x5555555a9b05
    c717:	55 00 00 
    c71a:	4d 39 fe             	cmp    r14,r15
    c71d:	0f 84 2a 50 ff ff    	je     0x174d
    c723:	49 bf 30 9e 5a 55 55 	movabs r15,0x5555555a9e30
    c72a:	55 00 00 
    c72d:	4d 39 fe             	cmp    r14,r15
    c730:	0f 84 46 55 ff ff    	je     0x1c7c
    c736:	49 bf 82 9d 5a 55 55 	movabs r15,0x5555555a9d82
    c73d:	55 00 00 
    c740:	4d 39 fe             	cmp    r14,r15
    c743:	0f 84 01 54 ff ff    	je     0x1b4a
    c749:	49 bf ca 9d 5a 55 55 	movabs r15,0x5555555a9dca
    c750:	55 00 00 
    c753:	4d 39 fe             	cmp    r14,r15
    c756:	0f 84 79 54 ff ff    	je     0x1bd5
    c75c:	49 bf 08 19 5c 55 55 	movabs r15,0x5555555c1908
    c763:	55 00 00 
    c766:	4d 39 fe             	cmp    r14,r15
    c769:	0f 84 4b 64 ff ff    	je     0x2bba
    c76f:	49 bf 68 2b 5c 55 55 	movabs r15,0x5555555c2b68
    c776:	55 00 00 
    c779:	4d 39 fe             	cmp    r14,r15
    c77c:	0f 84 03 69 ff ff    	je     0x3085
    c782:	49 bf 96 2b 5c 55 55 	movabs r15,0x5555555c2b96
    c789:	55 00 00 
    c78c:	4d 39 fe             	cmp    r14,r15
    c78f:	0f 84 4a 69 ff ff    	je     0x30df
    c795:	49 bf ed 2c 5c 55 55 	movabs r15,0x5555555c2ced
    c79c:	55 00 00 
    c79f:	4d 39 fe             	cmp    r14,r15
    c7a2:	0f 84 c4 6b ff ff    	je     0x336c
    c7a8:	49 bf ad 2c 5c 55 55 	movabs r15,0x5555555c2cad
    c7af:	55 00 00 
    c7b2:	4d 39 fe             	cmp    r14,r15
    c7b5:	0f 84 36 6b ff ff    	je     0x32f1
    c7bb:	49 bf 88 2c 5c 55 55 	movabs r15,0x5555555c2c88
    c7c2:	55 00 00 
    c7c5:	4d 39 fe             	cmp    r14,r15
    c7c8:	0f 84 c2 6a ff ff    	je     0x3290
    c7ce:	49 bf a6 df 5f 55 55 	movabs r15,0x5555555fdfa6
    c7d5:	55 00 00 
    c7d8:	4d 39 fe             	cmp    r14,r15
    c7db:	0f 84 08 f6 ff ff    	je     0xbde9
    c7e1:	49 bf a1 19 5c 55 55 	movabs r15,0x5555555c19a1
    c7e8:	55 00 00 
    c7eb:	4d 39 fe             	cmp    r14,r15
    c7ee:	0f 84 d1 64 ff ff    	je     0x2cc5
    c7f4:	49 bf fb 2b 5c 55 55 	movabs r15,0x5555555c2bfb
    c7fb:	55 00 00 
    c7fe:	4d 39 fe             	cmp    r14,r15
    c801:	0f 84 87 69 ff ff    	je     0x318e
    c807:	49 bf a8 dd 5f 55 55 	movabs r15,0x5555555fdda8
    c80e:	55 00 00 
    c811:	4d 39 fe             	cmp    r14,r15
    c814:	0f 84 41 f2 ff ff    	je     0xba5b
    c81a:	49 bf 81 e0 5f 55 55 	movabs r15,0x5555555fe081
    c821:	55 00 00 
    c824:	4d 39 fe             	cmp    r14,r15
    c827:	0f 84 02 f7 ff ff    	je     0xbf2f
    c82d:	49 bf 0f c6 57 55 55 	movabs r15,0x55555557c60f
    c834:	55 00 00 
    c837:	4d 39 fe             	cmp    r14,r15
    c83a:	0f 84 33 42 ff ff    	je     0xa73
    c840:	49 bf c1 c5 57 55 55 	movabs r15,0x55555557c5c1
    c847:	55 00 00 
    c84a:	4d 39 fe             	cmp    r14,r15
    c84d:	0f 84 a3 41 ff ff    	je     0x9f6
    c853:	49 bf 7e c5 57 55 55 	movabs r15,0x55555557c57e
    c85a:	55 00 00 
    c85d:	4d 39 fe             	cmp    r14,r15
    c860:	0f 84 2b 41 ff ff    	je     0x991
    c866:	49 bf 3b df 5f 55 55 	movabs r15,0x5555555fdf3b
    c86d:	55 00 00 
    c870:	4d 39 fe             	cmp    r14,r15
    c873:	0f 84 81 f4 ff ff    	je     0xbcfa
    c879:	49 bf b1 e0 5f 55 55 	movabs r15,0x5555555fe0b1
    c880:	55 00 00 
    c883:	4d 39 fe             	cmp    r14,r15
    c886:	0f 84 e6 f6 ff ff    	je     0xbf72
    c88c:	49 bf 04 e0 5f 55 55 	movabs r15,0x5555555fe004
    c893:	55 00 00 
    c896:	4d 39 fe             	cmp    r14,r15
    c899:	0f 84 d4 f5 ff ff    	je     0xbe73
    c89f:	49 bf e9 b8 57 55 55 	movabs r15,0x55555557b8e9
    c8a6:	55 00 00 
    c8a9:	4d 39 fe             	cmp    r14,r15
    c8ac:	0f 84 45 3f ff ff    	je     0x7f7
    c8b2:	49 bf 48 b9 57 55 55 	movabs r15,0x55555557b948
    c8b9:	55 00 00 
    c8bc:	4d 39 fe             	cmp    r14,r15
    c8bf:	0f 84 e8 3f ff ff    	je     0x8ad
    c8c5:	49 bf 38 f6 57 55 55 	movabs r15,0x55555557f638
    c8cc:	55 00 00 
    c8cf:	4d 39 fe             	cmp    r14,r15
    c8d2:	0f 84 d6 4a ff ff    	je     0x13ae
    c8d8:	49 bf d2 f5 57 55 55 	movabs r15,0x55555557f5d2
    c8df:	55 00 00 
    c8e2:	4d 39 fe             	cmp    r14,r15
    c8e5:	0f 84 d4 49 ff ff    	je     0x12bf
    c8eb:	49 bf 41 f5 57 55 55 	movabs r15,0x55555557f541
    c8f2:	55 00 00 
    c8f5:	4d 39 fe             	cmp    r14,r15
    c8f8:	0f 84 7a 48 ff ff    	je     0x1178
    c8fe:	49 bf 84 f3 57 55 55 	movabs r15,0x55555557f384
    c905:	55 00 00 
    c908:	4d 39 fe             	cmp    r14,r15
    c90b:	0f 84 47 45 ff ff    	je     0xe58
    c911:	49 bf 14 f6 57 55 55 	movabs r15,0x55555557f614
    c918:	55 00 00 
    c91b:	4d 39 fe             	cmp    r14,r15
    c91e:	0f 84 49 4a ff ff    	je     0x136d
    c924:	49 bf 7b f4 57 55 55 	movabs r15,0x55555557f47b
    c92b:	55 00 00 
    c92e:	4d 39 fe             	cmp    r14,r15
    c931:	0f 84 c5 46 ff ff    	je     0xffc
    c937:	49 bf 41 cb 5e 55 55 	movabs r15,0x5555555ecb41
    c93e:	55 00 00 
    c941:	4d 39 fe             	cmp    r14,r15
    c944:	0f 84 bd ba ff ff    	je     0x8407
    c94a:	49 bf 35 de 5e 55 55 	movabs r15,0x5555555ede35
    c951:	55 00 00 
    c954:	4d 39 fe             	cmp    r14,r15
    c957:	0f 84 01 d1 ff ff    	je     0x9a5e
    c95d:	49 bf 8c d9 5e 55 55 	movabs r15,0x5555555ed98c
    c964:	55 00 00 
    c967:	4d 39 fe             	cmp    r14,r15
    c96a:	0f 84 82 ca ff ff    	je     0x93f2
    c970:	49 bf 29 df 5e 55 55 	movabs r15,0x5555555edf29
    c977:	55 00 00 
    c97a:	4d 39 fe             	cmp    r14,r15
    c97d:	0f 84 1a d2 ff ff    	je     0x9b9d
    c983:	49 bf cb df 5e 55 55 	movabs r15,0x5555555edfcb
    c98a:	55 00 00 
    c98d:	4d 39 fe             	cmp    r14,r15
    c990:	0f 84 43 d3 ff ff    	je     0x9cd9
    c996:	49 bf 0a dc 5e 55 55 	movabs r15,0x5555555edc0a
    c99d:	55 00 00 
    c9a0:	4d 39 fe             	cmp    r14,r15
    c9a3:	0f 84 af cd ff ff    	je     0x9758
    c9a9:	49 bf b6 dd 5e 55 55 	movabs r15,0x5555555eddb6
    c9b0:	55 00 00 
    c9b3:	4d 39 fe             	cmp    r14,r15
    c9b6:	0f 84 6c d0 ff ff    	je     0x9a28
    c9bc:	49 bf fe e8 5e 55 55 	movabs r15,0x5555555ee8fe
    c9c3:	55 00 00 
    c9c6:	4d 39 fe             	cmp    r14,r15
    c9c9:	0f 84 5b de ff ff    	je     0xa82a
    c9cf:	49 bf 9d e7 5e 55 55 	movabs r15,0x5555555ee79d
    c9d6:	55 00 00 
    c9d9:	4d 39 fe             	cmp    r14,r15
    c9dc:	0f 84 84 dd ff ff    	je     0xa766
    c9e2:	49 bf 17 e6 5e 55 55 	movabs r15,0x5555555ee617
    c9e9:	55 00 00 
    c9ec:	4d 39 fe             	cmp    r14,r15
    c9ef:	0f 84 b3 db ff ff    	je     0xa5a8
    c9f5:	49 bf 99 c9 5e 55 55 	movabs r15,0x5555555ec999
    c9fc:	55 00 00 
    c9ff:	4d 39 fe             	cmp    r14,r15
    ca02:	0f 84 04 b8 ff ff    	je     0x820c
    ca08:	49 bf b7 de 5e 55 55 	movabs r15,0x5555555edeb7
    ca0f:	55 00 00 
    ca12:	4d 39 fe             	cmp    r14,r15
    ca15:	0f 84 d9 d0 ff ff    	je     0x9af4
    ca1b:	49 bf b9 d7 5e 55 55 	movabs r15,0x5555555ed7b9
    ca22:	55 00 00 
    ca25:	4d 39 fe             	cmp    r14,r15
    ca28:	0f 84 6b c7 ff ff    	je     0x9199
    ca2e:	49 bf c5 d4 5e 55 55 	movabs r15,0x5555555ed4c5
    ca35:	55 00 00 
    ca38:	4d 39 fe             	cmp    r14,r15
    ca3b:	0f 84 98 c4 ff ff    	je     0x8ed9
    ca41:	49 bf 6b e1 5e 55 55 	movabs r15,0x5555555ee16b
    ca48:	55 00 00 
    ca4b:	4d 39 fe             	cmp    r14,r15
    ca4e:	0f 84 66 d4 ff ff    	je     0x9eba
    ca54:	49 bf 79 de 5e 55 55 	movabs r15,0x5555555ede79
    ca5b:	55 00 00 
    ca5e:	4d 39 fe             	cmp    r14,r15
    ca61:	0f 84 2b d0 ff ff    	je     0x9a92
    ca67:	49 bf d8 e0 5e 55 55 	movabs r15,0x5555555ee0d8
    ca6e:	55 00 00 
    ca71:	4d 39 fe             	cmp    r14,r15
    ca74:	0f 84 72 d3 ff ff    	je     0x9dec
    ca7a:	49 bf 81 e3 5e 55 55 	movabs r15,0x5555555ee381
    ca81:	55 00 00 
    ca84:	4d 39 fe             	cmp    r14,r15
    ca87:	0f 84 ce d6 ff ff    	je     0xa15b
    ca8d:	49 bf 38 d4 5e 55 55 	movabs r15,0x5555555ed438
    ca94:	55 00 00 
    ca97:	4d 39 fe             	cmp    r14,r15
    ca9a:	0f 84 87 c3 ff ff    	je     0x8e27
    caa0:	49 bf bd c9 5c 55 55 	movabs r15,0x5555555cc9bd
    caa7:	55 00 00 
    caaa:	4d 39 fe             	cmp    r14,r15
    caad:	0f 84 ec 9a ff ff    	je     0x659f
    cab3:	49 bf 7d d1 5c 55 55 	movabs r15,0x5555555cd17d
    caba:	55 00 00 
    cabd:	4d 39 fe             	cmp    r14,r15
    cac0:	0f 84 c3 a6 ff ff    	je     0x7189
    cac6:	49 bf 5d d1 5c 55 55 	movabs r15,0x5555555cd15d
    cacd:	55 00 00 
    cad0:	4d 39 fe             	cmp    r14,r15
    cad3:	0f 84 7a a6 ff ff    	je     0x7153
    cad9:	49 bf da cd 5c 55 55 	movabs r15,0x5555555ccdda
    cae0:	55 00 00 
    cae3:	4d 39 fe             	cmp    r14,r15
    cae6:	0f 84 ee a0 ff ff    	je     0x6bda
    caec:	49 bf 44 d2 5c 55 55 	movabs r15,0x5555555cd244
    caf3:	55 00 00 
    caf6:	4d 39 fe             	cmp    r14,r15
    caf9:	0f 84 a5 a7 ff ff    	je     0x72a4
    caff:	49 bf 15 d2 5c 55 55 	movabs r15,0x5555555cd215
    cb06:	55 00 00 
    cb09:	4d 39 fe             	cmp    r14,r15
    cb0c:	0f 84 3f a7 ff ff    	je     0x7251
    cb12:	49 bf 48 d3 5c 55 55 	movabs r15,0x5555555cd348
    cb19:	55 00 00 
    cb1c:	4d 39 fe             	cmp    r14,r15
    cb1f:	0f 84 cc a9 ff ff    	je     0x74f1
    cb25:	49 bf af ca 5c 55 55 	movabs r15,0x5555555ccaaf
    cb2c:	55 00 00 
    cb2f:	4d 39 fe             	cmp    r14,r15
    cb32:	0f 84 de 9b ff ff    	je     0x6716
    cb38:	49 bf c3 c7 5c 55 55 	movabs r15,0x5555555cc7c3
    cb3f:	55 00 00 
    cb42:	4d 39 fe             	cmp    r14,r15
    cb45:	0f 84 e1 96 ff ff    	je     0x622c
    cb4b:	49 bf 5a cb 5c 55 55 	movabs r15,0x5555555ccb5a
    cb52:	55 00 00 
    cb55:	4d 39 fe             	cmp    r14,r15
    cb58:	0f 84 ba 9c ff ff    	je     0x6818
    cb5e:	49 bf 96 cb 5c 55 55 	movabs r15,0x5555555ccb96
    cb65:	55 00 00 
    cb68:	4d 39 fe             	cmp    r14,r15
    cb6b:	0f 84 11 9d ff ff    	je     0x6882
    cb71:	49 bf 3a d4 5c 55 55 	movabs r15,0x5555555cd43a
    cb78:	55 00 00 
    cb7b:	4d 39 fe             	cmp    r14,r15
    cb7e:	0f 84 2d ab ff ff    	je     0x76b1
    cb84:	49 bf 9f c9 5c 55 55 	movabs r15,0x5555555cc99f
    cb8b:	55 00 00 
    cb8e:	4d 39 fe             	cmp    r14,r15
    cb91:	0f 84 d2 99 ff ff    	je     0x6569
    cb97:	49 bf cb c8 5c 55 55 	movabs r15,0x5555555cc8cb
    cb9e:	55 00 00 
    cba1:	4d 39 fe             	cmp    r14,r15
    cba4:	0f 84 56 98 ff ff    	je     0x6400
    cbaa:	49 bf 91 d3 5c 55 55 	movabs r15,0x5555555cd391
    cbb1:	55 00 00 
    cbb4:	4d 39 fe             	cmp    r14,r15
    cbb7:	0f 84 ee a9 ff ff    	je     0x75ab
    cbbd:	49 bf 4e 45 5c 55 55 	movabs r15,0x5555555c454e
    cbc4:	55 00 00 
    cbc7:	4d 39 fe             	cmp    r14,r15
    cbca:	0f 84 21 8a ff ff    	je     0x55f1
    cbd0:	49 bf fb 3e 5c 55 55 	movabs r15,0x5555555c3efb
    cbd7:	55 00 00 
    cbda:	4d 39 fe             	cmp    r14,r15
    cbdd:	0f 84 da 7d ff ff    	je     0x49bd
    cbe3:	49 bf 26 3f 5c 55 55 	movabs r15,0x5555555c3f26
    cbea:	55 00 00 
    cbed:	4d 39 fe             	cmp    r14,r15
    cbf0:	0f 84 28 7e ff ff    	je     0x4a1e
    cbf6:	49 bf 66 3e 5c 55 55 	movabs r15,0x5555555c3e66
    cbfd:	55 00 00 
    cc00:	4d 39 fe             	cmp    r14,r15
    cc03:	0f 84 ac 7c ff ff    	je     0x48b5
    cc09:	49 bf 9d 2e 5c 55 55 	movabs r15,0x5555555c2e9d
    cc10:	55 00 00 
    cc13:	4d 39 fe             	cmp    r14,r15
    cc16:	0f 84 28 69 ff ff    	je     0x3544
    cc1c:	49 bf 51 3f 5c 55 55 	movabs r15,0x5555555c3f51
    cc23:	55 00 00 
    cc26:	4d 39 fe             	cmp    r14,r15
    cc29:	0f 84 36 7e ff ff    	je     0x4a65
    cc2f:	49 bf a4 49 5c 55 55 	movabs r15,0x5555555c49a4
    cc36:	55 00 00 
    cc39:	4d 39 fe             	cmp    r14,r15
    cc3c:	0f 84 c0 91 ff ff    	je     0x5e02
    cc42:	49 bf f0 48 5c 55 55 	movabs r15,0x5555555c48f0
    cc49:	55 00 00 
    cc4c:	4d 39 fe             	cmp    r14,r15
    cc4f:	0f 84 76 90 ff ff    	je     0x5ccb
    cc55:	49 bf 08 3c 5c 55 55 	movabs r15,0x5555555c3c08
    cc5c:	55 00 00 
    cc5f:	4d 39 fe             	cmp    r14,r15
    cc62:	0f 84 b9 77 ff ff    	je     0x4421
    cc68:	49 bf cd 2e 5c 55 55 	movabs r15,0x5555555c2ecd
    cc6f:	55 00 00 
    cc72:	4d 39 fe             	cmp    r14,r15
    cc75:	0f 84 11 69 ff ff    	je     0x358c
    cc7b:	49 bf 69 46 5c 55 55 	movabs r15,0x5555555c4669
    cc82:	55 00 00 
    cc85:	4d 39 fe             	cmp    r14,r15
    cc88:	0f 84 d5 8b ff ff    	je     0x5863
    cc8e:	49 bf 90 46 5c 55 55 	movabs r15,0x5555555c4690
    cc95:	55 00 00 
    cc98:	4d 39 fe             	cmp    r14,r15
    cc9b:	0f 84 0b 8c ff ff    	je     0x58ac
    cca1:	49 bf e7 41 5c 55 55 	movabs r15,0x5555555c41e7
    cca8:	55 00 00 
    ccab:	4d 39 fe             	cmp    r14,r15
    ccae:	0f 84 41 83 ff ff    	je     0x4ff5
    ccb4:	49 bf f9 37 5c 55 55 	movabs r15,0x5555555c37f9
    ccbb:	55 00 00 
    ccbe:	4d 39 fe             	cmp    r14,r15
    ccc1:	0f 84 3a 74 ff ff    	je     0x4101
    ccc7:	49 bf ba 42 5c 55 55 	movabs r15,0x5555555c42ba
    ccce:	55 00 00 
    ccd1:	4d 39 fe             	cmp    r14,r15
    ccd4:	0f 84 83 84 ff ff    	je     0x515d
    ccda:	49 bf 2d 38 5c 55 55 	movabs r15,0x5555555c382d
    cce1:	55 00 00 
    cce4:	4d 39 fe             	cmp    r14,r15
    cce7:	0f 84 b1 74 ff ff    	je     0x419e
    cced:	49 bf 4f 37 5c 55 55 	movabs r15,0x5555555c374f
    ccf4:	55 00 00 
    ccf7:	4d 39 fe             	cmp    r14,r15
    ccfa:	0f 84 a3 72 ff ff    	je     0x3fa3
    cd00:	49 bf 32 43 5c 55 55 	movabs r15,0x5555555c4332
    cd07:	55 00 00 
    cd0a:	4d 39 fe             	cmp    r14,r15
    cd0d:	0f 84 34 85 ff ff    	je     0x5247
    cd13:	49 bf 53 34 5c 55 55 	movabs r15,0x5555555c3453
    cd1a:	55 00 00 
    cd1d:	4d 39 fe             	cmp    r14,r15
    cd20:	0f 84 a2 6c ff ff    	je     0x39c8
    cd26:	49 bf 24 40 5c 55 55 	movabs r15,0x5555555c4024
    cd2d:	55 00 00 
    cd30:	4d 39 fe             	cmp    r14,r15
    cd33:	0f 84 45 7f ff ff    	je     0x4c7e
    cd39:	49 bf 2e 33 5c 55 55 	movabs r15,0x5555555c332e
    cd40:	55 00 00 
    cd43:	4d 39 fe             	cmp    r14,r15
    cd46:	0f 84 28 6a ff ff    	je     0x3774
    cd4c:	49 bf 74 33 5c 55 55 	movabs r15,0x5555555c3374
    cd53:	55 00 00 
    cd56:	4d 39 fe             	cmp    r14,r15
    cd59:	0f 84 bb 6a ff ff    	je     0x381a
    cd5f:	49 bf 67 43 5c 55 55 	movabs r15,0x5555555c4367
    cd66:	55 00 00 
    cd69:	4d 39 fe             	cmp    r14,r15
    cd6c:	0f 84 43 85 ff ff    	je     0x52b5
    cd72:	49 bf 99 42 5c 55 55 	movabs r15,0x5555555c4299
    cd79:	55 00 00 
    cd7c:	4d 39 fe             	cmp    r14,r15
    cd7f:	0f 84 87 83 ff ff    	je     0x510c
    cd85:	49 bf c6 43 5c 55 55 	movabs r15,0x5555555c43c6
    cd8c:	55 00 00 
    cd8f:	4d 39 fe             	cmp    r14,r15
    cd92:	0f 84 ca 85 ff ff    	je     0x5362
    cd98:	49 bf 25 35 5c 55 55 	movabs r15,0x5555555c3525
    cd9f:	55 00 00 
    cda2:	4d 39 fe             	cmp    r14,r15
    cda5:	0f 84 6f 6d ff ff    	je     0x3b1a
    cdab:	49 bf 49 35 5c 55 55 	movabs r15,0x5555555c3549
    cdb2:	55 00 00 
    cdb5:	4d 39 fe             	cmp    r14,r15
    cdb8:	0f 84 aa 6d ff ff    	je     0x3b68
    cdbe:	49 bf a5 34 5c 55 55 	movabs r15,0x5555555c34a5
    cdc5:	55 00 00 
    cdc8:	4d 39 fe             	cmp    r14,r15
    cdcb:	0f 84 65 6c ff ff    	je     0x3a36
    cdd1:	49 bf fb 6f 5f 55 55 	movabs r15,0x5555555f6ffb
    cdd8:	55 00 00 
    cddb:	4d 39 fe             	cmp    r14,r15
    cdde:	0f 84 78 ea ff ff    	je     0xb85c
    cde4:	49 bf cc 42 5e 55 55 	movabs r15,0x5555555e42cc
    cdeb:	55 00 00 
    cdee:	4d 39 fe             	cmp    r14,r15
    cdf1:	0f 84 e6 aa ff ff    	je     0x78dd
    cdf7:	49 bf 9b 44 5e 55 55 	movabs r15,0x5555555e449b
    cdfe:	55 00 00 
    ce01:	4d 39 fe             	cmp    r14,r15
    ce04:	0f 84 46 ad ff ff    	je     0x7b50
    ce0a:	49 bf 5c 45 5e 55 55 	movabs r15,0x5555555e455c
    ce11:	55 00 00 
    ce14:	4d 39 fe             	cmp    r14,r15
    ce17:	0f 84 83 ae ff ff    	je     0x7ca0
    ce1d:	49 bf 80 45 5e 55 55 	movabs r15,0x5555555e4580
    ce24:	55 00 00 
    ce27:	4d 39 fe             	cmp    r14,r15
    ce2a:	0f 84 be ae ff ff    	je     0x7cee
    ce30:	49 bf 77 46 5e 55 55 	movabs r15,0x5555555e4677
    ce37:	55 00 00 
    ce3a:	4d 39 fe             	cmp    r14,r15
    ce3d:	0f 84 92 af ff ff    	je     0x7dd5
    ce43:	49 bf 0a 44 5e 55 55 	movabs r15,0x5555555e440a
    ce4a:	55 00 00 
    ce4d:	4d 39 fe             	cmp    r14,r15
    ce50:	0f 84 d2 ab ff ff    	je     0x7a28
    ce56:	49 bf db ed 5b 55 55 	movabs r15,0x5555555beddb
    ce5d:	55 00 00 
    ce60:	4d 39 fe             	cmp    r14,r15
    ce63:	0f 84 c9 51 ff ff    	je     0x2032
    ce69:	49 bf cd ed 5b 55 55 	movabs r15,0x5555555bedcd
    ce70:	55 00 00 
    ce73:	4d 39 fe             	cmp    r14,r15
    ce76:	0f 84 97 51 ff ff    	je     0x2013
    ce7c:	49 bf af ed 5b 55 55 	movabs r15,0x5555555bedaf
    ce83:	55 00 00 
    ce86:	4d 39 fe             	cmp    r14,r15
    ce89:	0f 84 4c 51 ff ff    	je     0x1fdb
    ce8f:	49 bf 44 ee 5b 55 55 	movabs r15,0x5555555bee44
    ce96:	55 00 00 
    ce99:	4d 39 fe             	cmp    r14,r15
    ce9c:	0f 84 ee 51 ff ff    	je     0x2090
    cea2:	49 bf 65 ee 5b 55 55 	movabs r15,0x5555555bee65
    cea9:	55 00 00 
    ceac:	4d 39 fe             	cmp    r14,r15
    ceaf:	0f 84 17 52 ff ff    	je     0x20cc
    ceb5:	49 bf 6e b7 57 55 55 	movabs r15,0x55555557b76e
    cebc:	55 00 00 
    cebf:	e9 17 29 00 00       	jmp    0xf7db
    cec4:	49 bf 9f 9e 5a 55 55 	movabs r15,0x5555555a9e9f
    cecb:	55 00 00 
    cece:	4d 39 fe             	cmp    r14,r15
    ced1:	0f 84 52 4e ff ff    	je     0x1d29
    ced7:	49 bf 15 9f 5a 55 55 	movabs r15,0x5555555a9f15
    cede:	55 00 00 
    cee1:	4d 39 fe             	cmp    r14,r15
    cee4:	0f 84 19 4f ff ff    	je     0x1e03
    ceea:	49 bf bc 9c 5a 55 55 	movabs r15,0x5555555a9cbc
    cef1:	55 00 00 
    cef4:	4d 39 fe             	cmp    r14,r15
    cef7:	0f 84 33 4b ff ff    	je     0x1a30
    cefd:	49 bf ab 9d 5a 55 55 	movabs r15,0x5555555a9dab
    cf04:	55 00 00 
    cf07:	4d 39 fe             	cmp    r14,r15
    cf0a:	0f 84 8b 4c ff ff    	je     0x1b9b
    cf10:	49 bf 05 9b 5a 55 55 	movabs r15,0x5555555a9b05
    cf17:	55 00 00 
    cf1a:	4d 39 fe             	cmp    r14,r15
    cf1d:	0f 84 2a 48 ff ff    	je     0x174d
    cf23:	49 bf 30 9e 5a 55 55 	movabs r15,0x5555555a9e30
    cf2a:	55 00 00 
    cf2d:	4d 39 fe             	cmp    r14,r15
    cf30:	0f 84 46 4d ff ff    	je     0x1c7c
    cf36:	49 bf 82 9d 5a 55 55 	movabs r15,0x5555555a9d82
    cf3d:	55 00 00 
    cf40:	4d 39 fe             	cmp    r14,r15
    cf43:	0f 84 01 4c ff ff    	je     0x1b4a
    cf49:	49 bf ca 9d 5a 55 55 	movabs r15,0x5555555a9dca
    cf50:	55 00 00 
    cf53:	4d 39 fe             	cmp    r14,r15
    cf56:	0f 84 79 4c ff ff    	je     0x1bd5
    cf5c:	49 bf 08 19 5c 55 55 	movabs r15,0x5555555c1908
    cf63:	55 00 00 
    cf66:	4d 39 fe             	cmp    r14,r15
    cf69:	0f 84 4b 5c ff ff    	je     0x2bba
    cf6f:	49 bf 68 2b 5c 55 55 	movabs r15,0x5555555c2b68
    cf76:	55 00 00 
    cf79:	4d 39 fe             	cmp    r14,r15
    cf7c:	0f 84 03 61 ff ff    	je     0x3085
    cf82:	49 bf 96 2b 5c 55 55 	movabs r15,0x5555555c2b96
    cf89:	55 00 00 
    cf8c:	4d 39 fe             	cmp    r14,r15
    cf8f:	0f 84 4a 61 ff ff    	je     0x30df
    cf95:	49 bf ed 2c 5c 55 55 	movabs r15,0x5555555c2ced
    cf9c:	55 00 00 
    cf9f:	4d 39 fe             	cmp    r14,r15
    cfa2:	0f 84 c4 63 ff ff    	je     0x336c
    cfa8:	49 bf ad 2c 5c 55 55 	movabs r15,0x5555555c2cad
    cfaf:	55 00 00 
    cfb2:	4d 39 fe             	cmp    r14,r15
    cfb5:	0f 84 36 63 ff ff    	je     0x32f1
    cfbb:	49 bf 88 2c 5c 55 55 	movabs r15,0x5555555c2c88
    cfc2:	55 00 00 
    cfc5:	4d 39 fe             	cmp    r14,r15
    cfc8:	0f 84 c2 62 ff ff    	je     0x3290
    cfce:	49 bf a6 df 5f 55 55 	movabs r15,0x5555555fdfa6
    cfd5:	55 00 00 
    cfd8:	4d 39 fe             	cmp    r14,r15
    cfdb:	0f 84 08 ee ff ff    	je     0xbde9
    cfe1:	49 bf a1 19 5c 55 55 	movabs r15,0x5555555c19a1
    cfe8:	55 00 00 
    cfeb:	4d 39 fe             	cmp    r14,r15
    cfee:	0f 84 d1 5c ff ff    	je     0x2cc5
    cff4:	49 bf fb 2b 5c 55 55 	movabs r15,0x5555555c2bfb
    cffb:	55 00 00 
    cffe:	4d 39 fe             	cmp    r14,r15
    d001:	0f 84 87 61 ff ff    	je     0x318e
    d007:	49 bf a8 dd 5f 55 55 	movabs r15,0x5555555fdda8
    d00e:	55 00 00 
    d011:	4d 39 fe             	cmp    r14,r15
    d014:	0f 84 41 ea ff ff    	je     0xba5b
    d01a:	49 bf 81 e0 5f 55 55 	movabs r15,0x5555555fe081
    d021:	55 00 00 
    d024:	4d 39 fe             	cmp    r14,r15
    d027:	0f 84 02 ef ff ff    	je     0xbf2f
    d02d:	49 bf 0f c6 57 55 55 	movabs r15,0x55555557c60f
    d034:	55 00 00 
    d037:	4d 39 fe             	cmp    r14,r15
    d03a:	0f 84 33 3a ff ff    	je     0xa73
    d040:	49 bf c1 c5 57 55 55 	movabs r15,0x55555557c5c1
    d047:	55 00 00 
    d04a:	4d 39 fe             	cmp    r14,r15
    d04d:	0f 84 a3 39 ff ff    	je     0x9f6
    d053:	49 bf 7e c5 57 55 55 	movabs r15,0x55555557c57e
    d05a:	55 00 00 
    d05d:	4d 39 fe             	cmp    r14,r15
    d060:	0f 84 2b 39 ff ff    	je     0x991
    d066:	49 bf 3b df 5f 55 55 	movabs r15,0x5555555fdf3b
    d06d:	55 00 00 
    d070:	4d 39 fe             	cmp    r14,r15
    d073:	0f 84 81 ec ff ff    	je     0xbcfa
    d079:	49 bf b1 e0 5f 55 55 	movabs r15,0x5555555fe0b1
    d080:	55 00 00 
    d083:	4d 39 fe             	cmp    r14,r15
    d086:	0f 84 e6 ee ff ff    	je     0xbf72
    d08c:	49 bf 04 e0 5f 55 55 	movabs r15,0x5555555fe004
    d093:	55 00 00 
    d096:	4d 39 fe             	cmp    r14,r15
    d099:	0f 84 d4 ed ff ff    	je     0xbe73
    d09f:	49 bf e9 b8 57 55 55 	movabs r15,0x55555557b8e9
    d0a6:	55 00 00 
    d0a9:	4d 39 fe             	cmp    r14,r15
    d0ac:	0f 84 45 37 ff ff    	je     0x7f7
    d0b2:	49 bf 48 b9 57 55 55 	movabs r15,0x55555557b948
    d0b9:	55 00 00 
    d0bc:	4d 39 fe             	cmp    r14,r15
    d0bf:	0f 84 e8 37 ff ff    	je     0x8ad
    d0c5:	49 bf 38 f6 57 55 55 	movabs r15,0x55555557f638
    d0cc:	55 00 00 
    d0cf:	4d 39 fe             	cmp    r14,r15
    d0d2:	0f 84 d6 42 ff ff    	je     0x13ae
    d0d8:	49 bf d2 f5 57 55 55 	movabs r15,0x55555557f5d2
    d0df:	55 00 00 
    d0e2:	4d 39 fe             	cmp    r14,r15
    d0e5:	0f 84 d4 41 ff ff    	je     0x12bf
    d0eb:	49 bf 41 f5 57 55 55 	movabs r15,0x55555557f541
    d0f2:	55 00 00 
    d0f5:	4d 39 fe             	cmp    r14,r15
    d0f8:	0f 84 7a 40 ff ff    	je     0x1178
    d0fe:	49 bf 84 f3 57 55 55 	movabs r15,0x55555557f384
    d105:	55 00 00 
    d108:	4d 39 fe             	cmp    r14,r15
    d10b:	0f 84 47 3d ff ff    	je     0xe58
    d111:	49 bf 14 f6 57 55 55 	movabs r15,0x55555557f614
    d118:	55 00 00 
    d11b:	4d 39 fe             	cmp    r14,r15
    d11e:	0f 84 49 42 ff ff    	je     0x136d
    d124:	49 bf 7b f4 57 55 55 	movabs r15,0x55555557f47b
    d12b:	55 00 00 
    d12e:	4d 39 fe             	cmp    r14,r15
    d131:	0f 84 c5 3e ff ff    	je     0xffc
    d137:	49 bf 41 cb 5e 55 55 	movabs r15,0x5555555ecb41
    d13e:	55 00 00 
    d141:	4d 39 fe             	cmp    r14,r15
    d144:	0f 84 bd b2 ff ff    	je     0x8407
    d14a:	49 bf 35 de 5e 55 55 	movabs r15,0x5555555ede35
    d151:	55 00 00 
    d154:	4d 39 fe             	cmp    r14,r15
    d157:	0f 84 01 c9 ff ff    	je     0x9a5e
    d15d:	49 bf 8c d9 5e 55 55 	movabs r15,0x5555555ed98c
    d164:	55 00 00 
    d167:	4d 39 fe             	cmp    r14,r15
    d16a:	0f 84 82 c2 ff ff    	je     0x93f2
    d170:	49 bf 29 df 5e 55 55 	movabs r15,0x5555555edf29
    d177:	55 00 00 
    d17a:	4d 39 fe             	cmp    r14,r15
    d17d:	0f 84 1a ca ff ff    	je     0x9b9d
    d183:	49 bf cb df 5e 55 55 	movabs r15,0x5555555edfcb
    d18a:	55 00 00 
    d18d:	4d 39 fe             	cmp    r14,r15
    d190:	0f 84 43 cb ff ff    	je     0x9cd9
    d196:	49 bf 0a dc 5e 55 55 	movabs r15,0x5555555edc0a
    d19d:	55 00 00 
    d1a0:	4d 39 fe             	cmp    r14,r15
    d1a3:	0f 84 af c5 ff ff    	je     0x9758
    d1a9:	49 bf b6 dd 5e 55 55 	movabs r15,0x5555555eddb6
    d1b0:	55 00 00 
    d1b3:	4d 39 fe             	cmp    r14,r15
    d1b6:	0f 84 6c c8 ff ff    	je     0x9a28
    d1bc:	49 bf fe e8 5e 55 55 	movabs r15,0x5555555ee8fe
    d1c3:	55 00 00 
    d1c6:	4d 39 fe             	cmp    r14,r15
    d1c9:	0f 84 5b d6 ff ff    	je     0xa82a
    d1cf:	49 bf 9d e7 5e 55 55 	movabs r15,0x5555555ee79d
    d1d6:	55 00 00 
    d1d9:	4d 39 fe             	cmp    r14,r15
    d1dc:	0f 84 84 d5 ff ff    	je     0xa766
    d1e2:	49 bf 17 e6 5e 55 55 	movabs r15,0x5555555ee617
    d1e9:	55 00 00 
    d1ec:	4d 39 fe             	cmp    r14,r15
    d1ef:	0f 84 b3 d3 ff ff    	je     0xa5a8
    d1f5:	49 bf 99 c9 5e 55 55 	movabs r15,0x5555555ec999
    d1fc:	55 00 00 
    d1ff:	4d 39 fe             	cmp    r14,r15
    d202:	0f 84 04 b0 ff ff    	je     0x820c
    d208:	49 bf b7 de 5e 55 55 	movabs r15,0x5555555edeb7
    d20f:	55 00 00 
    d212:	4d 39 fe             	cmp    r14,r15
    d215:	0f 84 d9 c8 ff ff    	je     0x9af4
    d21b:	49 bf b9 d7 5e 55 55 	movabs r15,0x5555555ed7b9
    d222:	55 00 00 
    d225:	4d 39 fe             	cmp    r14,r15
    d228:	0f 84 6b bf ff ff    	je     0x9199
    d22e:	49 bf c5 d4 5e 55 55 	movabs r15,0x5555555ed4c5
    d235:	55 00 00 
    d238:	4d 39 fe             	cmp    r14,r15
    d23b:	0f 84 98 bc ff ff    	je     0x8ed9
    d241:	49 bf 6b e1 5e 55 55 	movabs r15,0x5555555ee16b
    d248:	55 00 00 
    d24b:	4d 39 fe             	cmp    r14,r15
    d24e:	0f 84 66 cc ff ff    	je     0x9eba
    d254:	49 bf 79 de 5e 55 55 	movabs r15,0x5555555ede79
    d25b:	55 00 00 
    d25e:	4d 39 fe             	cmp    r14,r15
    d261:	0f 84 2b c8 ff ff    	je     0x9a92
    d267:	49 bf d8 e0 5e 55 55 	movabs r15,0x5555555ee0d8
    d26e:	55 00 00 
    d271:	4d 39 fe             	cmp    r14,r15
    d274:	0f 84 72 cb ff ff    	je     0x9dec
    d27a:	49 bf 81 e3 5e 55 55 	movabs r15,0x5555555ee381
    d281:	55 00 00 
    d284:	4d 39 fe             	cmp    r14,r15
    d287:	0f 84 ce ce ff ff    	je     0xa15b
    d28d:	49 bf 38 d4 5e 55 55 	movabs r15,0x5555555ed438
    d294:	55 00 00 
    d297:	4d 39 fe             	cmp    r14,r15
    d29a:	0f 84 87 bb ff ff    	je     0x8e27
    d2a0:	49 bf bd c9 5c 55 55 	movabs r15,0x5555555cc9bd
    d2a7:	55 00 00 
    d2aa:	4d 39 fe             	cmp    r14,r15
    d2ad:	0f 84 ec 92 ff ff    	je     0x659f
    d2b3:	49 bf 7d d1 5c 55 55 	movabs r15,0x5555555cd17d
    d2ba:	55 00 00 
    d2bd:	4d 39 fe             	cmp    r14,r15
    d2c0:	0f 84 c3 9e ff ff    	je     0x7189
    d2c6:	49 bf 5d d1 5c 55 55 	movabs r15,0x5555555cd15d
    d2cd:	55 00 00 
    d2d0:	4d 39 fe             	cmp    r14,r15
    d2d3:	0f 84 7a 9e ff ff    	je     0x7153
    d2d9:	49 bf da cd 5c 55 55 	movabs r15,0x5555555ccdda
    d2e0:	55 00 00 
    d2e3:	4d 39 fe             	cmp    r14,r15
    d2e6:	0f 84 ee 98 ff ff    	je     0x6bda
    d2ec:	49 bf 44 d2 5c 55 55 	movabs r15,0x5555555cd244
    d2f3:	55 00 00 
    d2f6:	4d 39 fe             	cmp    r14,r15
    d2f9:	0f 84 a5 9f ff ff    	je     0x72a4
    d2ff:	49 bf 15 d2 5c 55 55 	movabs r15,0x5555555cd215
    d306:	55 00 00 
    d309:	4d 39 fe             	cmp    r14,r15
    d30c:	0f 84 3f 9f ff ff    	je     0x7251
    d312:	49 bf 48 d3 5c 55 55 	movabs r15,0x5555555cd348
    d319:	55 00 00 
    d31c:	4d 39 fe             	cmp    r14,r15
    d31f:	0f 84 cc a1 ff ff    	je     0x74f1
    d325:	49 bf af ca 5c 55 55 	movabs r15,0x5555555ccaaf
    d32c:	55 00 00 
    d32f:	4d 39 fe             	cmp    r14,r15
    d332:	0f 84 de 93 ff ff    	je     0x6716
    d338:	49 bf c3 c7 5c 55 55 	movabs r15,0x5555555cc7c3
    d33f:	55 00 00 
    d342:	4d 39 fe             	cmp    r14,r15
    d345:	0f 84 e1 8e ff ff    	je     0x622c
    d34b:	49 bf 5a cb 5c 55 55 	movabs r15,0x5555555ccb5a
    d352:	55 00 00 
    d355:	4d 39 fe             	cmp    r14,r15
    d358:	0f 84 ba 94 ff ff    	je     0x6818
    d35e:	49 bf 96 cb 5c 55 55 	movabs r15,0x5555555ccb96
    d365:	55 00 00 
    d368:	4d 39 fe             	cmp    r14,r15
    d36b:	0f 84 11 95 ff ff    	je     0x6882
    d371:	49 bf 3a d4 5c 55 55 	movabs r15,0x5555555cd43a
    d378:	55 00 00 
    d37b:	4d 39 fe             	cmp    r14,r15
    d37e:	0f 84 2d a3 ff ff    	je     0x76b1
    d384:	49 bf 9f c9 5c 55 55 	movabs r15,0x5555555cc99f
    d38b:	55 00 00 
    d38e:	4d 39 fe             	cmp    r14,r15
    d391:	0f 84 d2 91 ff ff    	je     0x6569
    d397:	49 bf cb c8 5c 55 55 	movabs r15,0x5555555cc8cb
    d39e:	55 00 00 
    d3a1:	4d 39 fe             	cmp    r14,r15
    d3a4:	0f 84 56 90 ff ff    	je     0x6400
    d3aa:	49 bf 91 d3 5c 55 55 	movabs r15,0x5555555cd391
    d3b1:	55 00 00 
    d3b4:	4d 39 fe             	cmp    r14,r15
    d3b7:	0f 84 ee a1 ff ff    	je     0x75ab
    d3bd:	49 bf 4e 45 5c 55 55 	movabs r15,0x5555555c454e
    d3c4:	55 00 00 
    d3c7:	4d 39 fe             	cmp    r14,r15
    d3ca:	0f 84 21 82 ff ff    	je     0x55f1
    d3d0:	49 bf fb 3e 5c 55 55 	movabs r15,0x5555555c3efb
    d3d7:	55 00 00 
    d3da:	4d 39 fe             	cmp    r14,r15
    d3dd:	0f 84 da 75 ff ff    	je     0x49bd
    d3e3:	49 bf 26 3f 5c 55 55 	movabs r15,0x5555555c3f26
    d3ea:	55 00 00 
    d3ed:	4d 39 fe             	cmp    r14,r15
    d3f0:	0f 84 28 76 ff ff    	je     0x4a1e
    d3f6:	49 bf 66 3e 5c 55 55 	movabs r15,0x5555555c3e66
    d3fd:	55 00 00 
    d400:	4d 39 fe             	cmp    r14,r15
    d403:	0f 84 ac 74 ff ff    	je     0x48b5
    d409:	49 bf 9d 2e 5c 55 55 	movabs r15,0x5555555c2e9d
    d410:	55 00 00 
    d413:	4d 39 fe             	cmp    r14,r15
    d416:	0f 84 28 61 ff ff    	je     0x3544
    d41c:	49 bf 51 3f 5c 55 55 	movabs r15,0x5555555c3f51
    d423:	55 00 00 
    d426:	4d 39 fe             	cmp    r14,r15
    d429:	0f 84 36 76 ff ff    	je     0x4a65
    d42f:	49 bf a4 49 5c 55 55 	movabs r15,0x5555555c49a4
    d436:	55 00 00 
    d439:	4d 39 fe             	cmp    r14,r15
    d43c:	0f 84 c0 89 ff ff    	je     0x5e02
    d442:	49 bf f0 48 5c 55 55 	movabs r15,0x5555555c48f0
    d449:	55 00 00 
    d44c:	4d 39 fe             	cmp    r14,r15
    d44f:	0f 84 76 88 ff ff    	je     0x5ccb
    d455:	49 bf 08 3c 5c 55 55 	movabs r15,0x5555555c3c08
    d45c:	55 00 00 
    d45f:	4d 39 fe             	cmp    r14,r15
    d462:	0f 84 b9 6f ff ff    	je     0x4421
    d468:	49 bf cd 2e 5c 55 55 	movabs r15,0x5555555c2ecd
    d46f:	55 00 00 
    d472:	4d 39 fe             	cmp    r14,r15
    d475:	0f 84 11 61 ff ff    	je     0x358c
    d47b:	49 bf 69 46 5c 55 55 	movabs r15,0x5555555c4669
    d482:	55 00 00 
    d485:	4d 39 fe             	cmp    r14,r15
    d488:	0f 84 d5 83 ff ff    	je     0x5863
    d48e:	49 bf 90 46 5c 55 55 	movabs r15,0x5555555c4690
    d495:	55 00 00 
    d498:	4d 39 fe             	cmp    r14,r15
    d49b:	0f 84 0b 84 ff ff    	je     0x58ac
    d4a1:	49 bf e7 41 5c 55 55 	movabs r15,0x5555555c41e7
    d4a8:	55 00 00 
    d4ab:	4d 39 fe             	cmp    r14,r15
    d4ae:	0f 84 41 7b ff ff    	je     0x4ff5
    d4b4:	49 bf f9 37 5c 55 55 	movabs r15,0x5555555c37f9
    d4bb:	55 00 00 
    d4be:	4d 39 fe             	cmp    r14,r15
    d4c1:	0f 84 3a 6c ff ff    	je     0x4101
    d4c7:	49 bf ba 42 5c 55 55 	movabs r15,0x5555555c42ba
    d4ce:	55 00 00 
    d4d1:	4d 39 fe             	cmp    r14,r15
    d4d4:	0f 84 83 7c ff ff    	je     0x515d
    d4da:	49 bf 2d 38 5c 55 55 	movabs r15,0x5555555c382d
    d4e1:	55 00 00 
    d4e4:	4d 39 fe             	cmp    r14,r15
    d4e7:	0f 84 b1 6c ff ff    	je     0x419e
    d4ed:	49 bf 4f 37 5c 55 55 	movabs r15,0x5555555c374f
    d4f4:	55 00 00 
    d4f7:	4d 39 fe             	cmp    r14,r15
    d4fa:	0f 84 a3 6a ff ff    	je     0x3fa3
    d500:	49 bf 32 43 5c 55 55 	movabs r15,0x5555555c4332
    d507:	55 00 00 
    d50a:	4d 39 fe             	cmp    r14,r15
    d50d:	0f 84 34 7d ff ff    	je     0x5247
    d513:	49 bf 53 34 5c 55 55 	movabs r15,0x5555555c3453
    d51a:	55 00 00 
    d51d:	4d 39 fe             	cmp    r14,r15
    d520:	0f 84 a2 64 ff ff    	je     0x39c8
    d526:	49 bf 24 40 5c 55 55 	movabs r15,0x5555555c4024
    d52d:	55 00 00 
    d530:	4d 39 fe             	cmp    r14,r15
    d533:	0f 84 45 77 ff ff    	je     0x4c7e
    d539:	49 bf 2e 33 5c 55 55 	movabs r15,0x5555555c332e
    d540:	55 00 00 
    d543:	4d 39 fe             	cmp    r14,r15
    d546:	0f 84 28 62 ff ff    	je     0x3774
    d54c:	49 bf 74 33 5c 55 55 	movabs r15,0x5555555c3374
    d553:	55 00 00 
    d556:	4d 39 fe             	cmp    r14,r15
    d559:	0f 84 bb 62 ff ff    	je     0x381a
    d55f:	49 bf 67 43 5c 55 55 	movabs r15,0x5555555c4367
    d566:	55 00 00 
    d569:	4d 39 fe             	cmp    r14,r15
    d56c:	0f 84 43 7d ff ff    	je     0x52b5
    d572:	49 bf 99 42 5c 55 55 	movabs r15,0x5555555c4299
    d579:	55 00 00 
    d57c:	4d 39 fe             	cmp    r14,r15
    d57f:	0f 84 87 7b ff ff    	je     0x510c
    d585:	49 bf c6 43 5c 55 55 	movabs r15,0x5555555c43c6
    d58c:	55 00 00 
    d58f:	4d 39 fe             	cmp    r14,r15
    d592:	0f 84 ca 7d ff ff    	je     0x5362
    d598:	49 bf 25 35 5c 55 55 	movabs r15,0x5555555c3525
    d59f:	55 00 00 
    d5a2:	4d 39 fe             	cmp    r14,r15
    d5a5:	0f 84 6f 65 ff ff    	je     0x3b1a
    d5ab:	49 bf 49 35 5c 55 55 	movabs r15,0x5555555c3549
    d5b2:	55 00 00 
    d5b5:	4d 39 fe             	cmp    r14,r15
    d5b8:	0f 84 aa 65 ff ff    	je     0x3b68
    d5be:	49 bf a5 34 5c 55 55 	movabs r15,0x5555555c34a5
    d5c5:	55 00 00 
    d5c8:	4d 39 fe             	cmp    r14,r15
    d5cb:	0f 84 65 64 ff ff    	je     0x3a36
    d5d1:	49 bf fb 6f 5f 55 55 	movabs r15,0x5555555f6ffb
    d5d8:	55 00 00 
    d5db:	4d 39 fe             	cmp    r14,r15
    d5de:	0f 84 78 e2 ff ff    	je     0xb85c
    d5e4:	49 bf cc 42 5e 55 55 	movabs r15,0x5555555e42cc
    d5eb:	55 00 00 
    d5ee:	4d 39 fe             	cmp    r14,r15
    d5f1:	0f 84 e6 a2 ff ff    	je     0x78dd
    d5f7:	49 bf 9b 44 5e 55 55 	movabs r15,0x5555555e449b
    d5fe:	55 00 00 
    d601:	4d 39 fe             	cmp    r14,r15
    d604:	0f 84 46 a5 ff ff    	je     0x7b50
    d60a:	49 bf 5c 45 5e 55 55 	movabs r15,0x5555555e455c
    d611:	55 00 00 
    d614:	4d 39 fe             	cmp    r14,r15
    d617:	0f 84 83 a6 ff ff    	je     0x7ca0
    d61d:	49 bf 80 45 5e 55 55 	movabs r15,0x5555555e4580
    d624:	55 00 00 
    d627:	4d 39 fe             	cmp    r14,r15
    d62a:	0f 84 be a6 ff ff    	je     0x7cee
    d630:	49 bf 77 46 5e 55 55 	movabs r15,0x5555555e4677
    d637:	55 00 00 
    d63a:	4d 39 fe             	cmp    r14,r15
    d63d:	0f 84 92 a7 ff ff    	je     0x7dd5
    d643:	49 bf 0a 44 5e 55 55 	movabs r15,0x5555555e440a
    d64a:	55 00 00 
    d64d:	4d 39 fe             	cmp    r14,r15
    d650:	0f 84 d2 a3 ff ff    	je     0x7a28
    d656:	49 bf db ed 5b 55 55 	movabs r15,0x5555555beddb
    d65d:	55 00 00 
    d660:	4d 39 fe             	cmp    r14,r15
    d663:	0f 84 c9 49 ff ff    	je     0x2032
    d669:	49 bf cd ed 5b 55 55 	movabs r15,0x5555555bedcd
    d670:	55 00 00 
    d673:	4d 39 fe             	cmp    r14,r15
    d676:	0f 84 97 49 ff ff    	je     0x2013
    d67c:	49 bf af ed 5b 55 55 	movabs r15,0x5555555bedaf
    d683:	55 00 00 
    d686:	4d 39 fe             	cmp    r14,r15
    d689:	0f 84 4c 49 ff ff    	je     0x1fdb
    d68f:	49 bf 44 ee 5b 55 55 	movabs r15,0x5555555bee44
    d696:	55 00 00 
    d699:	4d 39 fe             	cmp    r14,r15
    d69c:	0f 84 ee 49 ff ff    	je     0x2090
    d6a2:	49 bf 65 ee 5b 55 55 	movabs r15,0x5555555bee65
    d6a9:	55 00 00 
    d6ac:	4d 39 fe             	cmp    r14,r15
    d6af:	0f 84 17 4a ff ff    	je     0x20cc
    d6b5:	49 bf 07 b9 57 55 55 	movabs r15,0x55555557b907
    d6bc:	55 00 00 
    d6bf:	e9 17 21 00 00       	jmp    0xf7db
    d6c4:	49 bf 9f 9e 5a 55 55 	movabs r15,0x5555555a9e9f
    d6cb:	55 00 00 
    d6ce:	4d 39 fe             	cmp    r14,r15
    d6d1:	0f 84 52 46 ff ff    	je     0x1d29
    d6d7:	49 bf 15 9f 5a 55 55 	movabs r15,0x5555555a9f15
    d6de:	55 00 00 
    d6e1:	4d 39 fe             	cmp    r14,r15
    d6e4:	0f 84 19 47 ff ff    	je     0x1e03
    d6ea:	49 bf bc 9c 5a 55 55 	movabs r15,0x5555555a9cbc
    d6f1:	55 00 00 
    d6f4:	4d 39 fe             	cmp    r14,r15
    d6f7:	0f 84 33 43 ff ff    	je     0x1a30
    d6fd:	49 bf ab 9d 5a 55 55 	movabs r15,0x5555555a9dab
    d704:	55 00 00 
    d707:	4d 39 fe             	cmp    r14,r15
    d70a:	0f 84 8b 44 ff ff    	je     0x1b9b
    d710:	49 bf 05 9b 5a 55 55 	movabs r15,0x5555555a9b05
    d717:	55 00 00 
    d71a:	4d 39 fe             	cmp    r14,r15
    d71d:	0f 84 2a 40 ff ff    	je     0x174d
    d723:	49 bf 30 9e 5a 55 55 	movabs r15,0x5555555a9e30
    d72a:	55 00 00 
    d72d:	4d 39 fe             	cmp    r14,r15
    d730:	0f 84 46 45 ff ff    	je     0x1c7c
    d736:	49 bf 82 9d 5a 55 55 	movabs r15,0x5555555a9d82
    d73d:	55 00 00 
    d740:	4d 39 fe             	cmp    r14,r15
    d743:	0f 84 01 44 ff ff    	je     0x1b4a
    d749:	49 bf ca 9d 5a 55 55 	movabs r15,0x5555555a9dca
    d750:	55 00 00 
    d753:	4d 39 fe             	cmp    r14,r15
    d756:	0f 84 79 44 ff ff    	je     0x1bd5
    d75c:	49 bf 08 19 5c 55 55 	movabs r15,0x5555555c1908
    d763:	55 00 00 
    d766:	4d 39 fe             	cmp    r14,r15
    d769:	0f 84 4b 54 ff ff    	je     0x2bba
    d76f:	49 bf 68 2b 5c 55 55 	movabs r15,0x5555555c2b68
    d776:	55 00 00 
    d779:	4d 39 fe             	cmp    r14,r15
    d77c:	0f 84 03 59 ff ff    	je     0x3085
    d782:	49 bf 96 2b 5c 55 55 	movabs r15,0x5555555c2b96
    d789:	55 00 00 
    d78c:	4d 39 fe             	cmp    r14,r15
    d78f:	0f 84 4a 59 ff ff    	je     0x30df
    d795:	49 bf ed 2c 5c 55 55 	movabs r15,0x5555555c2ced
    d79c:	55 00 00 
    d79f:	4d 39 fe             	cmp    r14,r15
    d7a2:	0f 84 c4 5b ff ff    	je     0x336c
    d7a8:	49 bf ad 2c 5c 55 55 	movabs r15,0x5555555c2cad
    d7af:	55 00 00 
    d7b2:	4d 39 fe             	cmp    r14,r15
    d7b5:	0f 84 36 5b ff ff    	je     0x32f1
    d7bb:	49 bf 88 2c 5c 55 55 	movabs r15,0x5555555c2c88
    d7c2:	55 00 00 
    d7c5:	4d 39 fe             	cmp    r14,r15
    d7c8:	0f 84 c2 5a ff ff    	je     0x3290
    d7ce:	49 bf a6 df 5f 55 55 	movabs r15,0x5555555fdfa6
    d7d5:	55 00 00 
    d7d8:	4d 39 fe             	cmp    r14,r15
    d7db:	0f 84 08 e6 ff ff    	je     0xbde9
    d7e1:	49 bf a1 19 5c 55 55 	movabs r15,0x5555555c19a1
    d7e8:	55 00 00 
    d7eb:	4d 39 fe             	cmp    r14,r15
    d7ee:	0f 84 d1 54 ff ff    	je     0x2cc5
    d7f4:	49 bf fb 2b 5c 55 55 	movabs r15,0x5555555c2bfb
    d7fb:	55 00 00 
    d7fe:	4d 39 fe             	cmp    r14,r15
    d801:	0f 84 87 59 ff ff    	je     0x318e
    d807:	49 bf a8 dd 5f 55 55 	movabs r15,0x5555555fdda8
    d80e:	55 00 00 
    d811:	4d 39 fe             	cmp    r14,r15
    d814:	0f 84 41 e2 ff ff    	je     0xba5b
    d81a:	49 bf 81 e0 5f 55 55 	movabs r15,0x5555555fe081
    d821:	55 00 00 
    d824:	4d 39 fe             	cmp    r14,r15
    d827:	0f 84 02 e7 ff ff    	je     0xbf2f
    d82d:	49 bf 0f c6 57 55 55 	movabs r15,0x55555557c60f
    d834:	55 00 00 
    d837:	4d 39 fe             	cmp    r14,r15
    d83a:	0f 84 33 32 ff ff    	je     0xa73
    d840:	49 bf c1 c5 57 55 55 	movabs r15,0x55555557c5c1
    d847:	55 00 00 
    d84a:	4d 39 fe             	cmp    r14,r15
    d84d:	0f 84 a3 31 ff ff    	je     0x9f6
    d853:	49 bf 7e c5 57 55 55 	movabs r15,0x55555557c57e
    d85a:	55 00 00 
    d85d:	4d 39 fe             	cmp    r14,r15
    d860:	0f 84 2b 31 ff ff    	je     0x991
    d866:	49 bf 3b df 5f 55 55 	movabs r15,0x5555555fdf3b
    d86d:	55 00 00 
    d870:	4d 39 fe             	cmp    r14,r15
    d873:	0f 84 81 e4 ff ff    	je     0xbcfa
    d879:	49 bf b1 e0 5f 55 55 	movabs r15,0x5555555fe0b1
    d880:	55 00 00 
    d883:	4d 39 fe             	cmp    r14,r15
    d886:	0f 84 e6 e6 ff ff    	je     0xbf72
    d88c:	49 bf 04 e0 5f 55 55 	movabs r15,0x5555555fe004
    d893:	55 00 00 
    d896:	4d 39 fe             	cmp    r14,r15
    d899:	0f 84 d4 e5 ff ff    	je     0xbe73
    d89f:	49 bf e9 b8 57 55 55 	movabs r15,0x55555557b8e9
    d8a6:	55 00 00 
    d8a9:	4d 39 fe             	cmp    r14,r15
    d8ac:	0f 84 45 2f ff ff    	je     0x7f7
    d8b2:	49 bf 48 b9 57 55 55 	movabs r15,0x55555557b948
    d8b9:	55 00 00 
    d8bc:	4d 39 fe             	cmp    r14,r15
    d8bf:	0f 84 e8 2f ff ff    	je     0x8ad
    d8c5:	49 bf 38 f6 57 55 55 	movabs r15,0x55555557f638
    d8cc:	55 00 00 
    d8cf:	4d 39 fe             	cmp    r14,r15
    d8d2:	0f 84 d6 3a ff ff    	je     0x13ae
    d8d8:	49 bf d2 f5 57 55 55 	movabs r15,0x55555557f5d2
    d8df:	55 00 00 
    d8e2:	4d 39 fe             	cmp    r14,r15
    d8e5:	0f 84 d4 39 ff ff    	je     0x12bf
    d8eb:	49 bf 41 f5 57 55 55 	movabs r15,0x55555557f541
    d8f2:	55 00 00 
    d8f5:	4d 39 fe             	cmp    r14,r15
    d8f8:	0f 84 7a 38 ff ff    	je     0x1178
    d8fe:	49 bf 84 f3 57 55 55 	movabs r15,0x55555557f384
    d905:	55 00 00 
    d908:	4d 39 fe             	cmp    r14,r15
    d90b:	0f 84 47 35 ff ff    	je     0xe58
    d911:	49 bf 14 f6 57 55 55 	movabs r15,0x55555557f614
    d918:	55 00 00 
    d91b:	4d 39 fe             	cmp    r14,r15
    d91e:	0f 84 49 3a ff ff    	je     0x136d
    d924:	49 bf 7b f4 57 55 55 	movabs r15,0x55555557f47b
    d92b:	55 00 00 
    d92e:	4d 39 fe             	cmp    r14,r15
    d931:	0f 84 c5 36 ff ff    	je     0xffc
    d937:	49 bf 41 cb 5e 55 55 	movabs r15,0x5555555ecb41
    d93e:	55 00 00 
    d941:	4d 39 fe             	cmp    r14,r15
    d944:	0f 84 bd aa ff ff    	je     0x8407
    d94a:	49 bf 35 de 5e 55 55 	movabs r15,0x5555555ede35
    d951:	55 00 00 
    d954:	4d 39 fe             	cmp    r14,r15
    d957:	0f 84 01 c1 ff ff    	je     0x9a5e
    d95d:	49 bf 8c d9 5e 55 55 	movabs r15,0x5555555ed98c
    d964:	55 00 00 
    d967:	4d 39 fe             	cmp    r14,r15
    d96a:	0f 84 82 ba ff ff    	je     0x93f2
    d970:	49 bf 29 df 5e 55 55 	movabs r15,0x5555555edf29
    d977:	55 00 00 
    d97a:	4d 39 fe             	cmp    r14,r15
    d97d:	0f 84 1a c2 ff ff    	je     0x9b9d
    d983:	49 bf cb df 5e 55 55 	movabs r15,0x5555555edfcb
    d98a:	55 00 00 
    d98d:	4d 39 fe             	cmp    r14,r15
    d990:	0f 84 43 c3 ff ff    	je     0x9cd9
    d996:	49 bf 0a dc 5e 55 55 	movabs r15,0x5555555edc0a
    d99d:	55 00 00 
    d9a0:	4d 39 fe             	cmp    r14,r15
    d9a3:	0f 84 af bd ff ff    	je     0x9758
    d9a9:	49 bf b6 dd 5e 55 55 	movabs r15,0x5555555eddb6
    d9b0:	55 00 00 
    d9b3:	4d 39 fe             	cmp    r14,r15
    d9b6:	0f 84 6c c0 ff ff    	je     0x9a28
    d9bc:	49 bf fe e8 5e 55 55 	movabs r15,0x5555555ee8fe
    d9c3:	55 00 00 
    d9c6:	4d 39 fe             	cmp    r14,r15
    d9c9:	0f 84 5b ce ff ff    	je     0xa82a
    d9cf:	49 bf 9d e7 5e 55 55 	movabs r15,0x5555555ee79d
    d9d6:	55 00 00 
    d9d9:	4d 39 fe             	cmp    r14,r15
    d9dc:	0f 84 84 cd ff ff    	je     0xa766
    d9e2:	49 bf 17 e6 5e 55 55 	movabs r15,0x5555555ee617
    d9e9:	55 00 00 
    d9ec:	4d 39 fe             	cmp    r14,r15
    d9ef:	0f 84 b3 cb ff ff    	je     0xa5a8
    d9f5:	49 bf 99 c9 5e 55 55 	movabs r15,0x5555555ec999
    d9fc:	55 00 00 
    d9ff:	4d 39 fe             	cmp    r14,r15
    da02:	0f 84 04 a8 ff ff    	je     0x820c
    da08:	49 bf b7 de 5e 55 55 	movabs r15,0x5555555edeb7
    da0f:	55 00 00 
    da12:	4d 39 fe             	cmp    r14,r15
    da15:	0f 84 d9 c0 ff ff    	je     0x9af4
    da1b:	49 bf b9 d7 5e 55 55 	movabs r15,0x5555555ed7b9
    da22:	55 00 00 
    da25:	4d 39 fe             	cmp    r14,r15
    da28:	0f 84 6b b7 ff ff    	je     0x9199
    da2e:	49 bf c5 d4 5e 55 55 	movabs r15,0x5555555ed4c5
    da35:	55 00 00 
    da38:	4d 39 fe             	cmp    r14,r15
    da3b:	0f 84 98 b4 ff ff    	je     0x8ed9
    da41:	49 bf 6b e1 5e 55 55 	movabs r15,0x5555555ee16b
    da48:	55 00 00 
    da4b:	4d 39 fe             	cmp    r14,r15
    da4e:	0f 84 66 c4 ff ff    	je     0x9eba
    da54:	49 bf 79 de 5e 55 55 	movabs r15,0x5555555ede79
    da5b:	55 00 00 
    da5e:	4d 39 fe             	cmp    r14,r15
    da61:	0f 84 2b c0 ff ff    	je     0x9a92
    da67:	49 bf d8 e0 5e 55 55 	movabs r15,0x5555555ee0d8
    da6e:	55 00 00 
    da71:	4d 39 fe             	cmp    r14,r15
    da74:	0f 84 72 c3 ff ff    	je     0x9dec
    da7a:	49 bf 81 e3 5e 55 55 	movabs r15,0x5555555ee381
    da81:	55 00 00 
    da84:	4d 39 fe             	cmp    r14,r15
    da87:	0f 84 ce c6 ff ff    	je     0xa15b
    da8d:	49 bf 38 d4 5e 55 55 	movabs r15,0x5555555ed438
    da94:	55 00 00 
    da97:	4d 39 fe             	cmp    r14,r15
    da9a:	0f 84 87 b3 ff ff    	je     0x8e27
    daa0:	49 bf bd c9 5c 55 55 	movabs r15,0x5555555cc9bd
    daa7:	55 00 00 
    daaa:	4d 39 fe             	cmp    r14,r15
    daad:	0f 84 ec 8a ff ff    	je     0x659f
    dab3:	49 bf 7d d1 5c 55 55 	movabs r15,0x5555555cd17d
    daba:	55 00 00 
    dabd:	4d 39 fe             	cmp    r14,r15
    dac0:	0f 84 c3 96 ff ff    	je     0x7189
    dac6:	49 bf 5d d1 5c 55 55 	movabs r15,0x5555555cd15d
    dacd:	55 00 00 
    dad0:	4d 39 fe             	cmp    r14,r15
    dad3:	0f 84 7a 96 ff ff    	je     0x7153
    dad9:	49 bf da cd 5c 55 55 	movabs r15,0x5555555ccdda
    dae0:	55 00 00 
    dae3:	4d 39 fe             	cmp    r14,r15
    dae6:	0f 84 ee 90 ff ff    	je     0x6bda
    daec:	49 bf 44 d2 5c 55 55 	movabs r15,0x5555555cd244
    daf3:	55 00 00 
    daf6:	4d 39 fe             	cmp    r14,r15
    daf9:	0f 84 a5 97 ff ff    	je     0x72a4
    daff:	49 bf 15 d2 5c 55 55 	movabs r15,0x5555555cd215
    db06:	55 00 00 
    db09:	4d 39 fe             	cmp    r14,r15
    db0c:	0f 84 3f 97 ff ff    	je     0x7251
    db12:	49 bf 48 d3 5c 55 55 	movabs r15,0x5555555cd348
    db19:	55 00 00 
    db1c:	4d 39 fe             	cmp    r14,r15
    db1f:	0f 84 cc 99 ff ff    	je     0x74f1
    db25:	49 bf af ca 5c 55 55 	movabs r15,0x5555555ccaaf
    db2c:	55 00 00 
    db2f:	4d 39 fe             	cmp    r14,r15
    db32:	0f 84 de 8b ff ff    	je     0x6716
    db38:	49 bf c3 c7 5c 55 55 	movabs r15,0x5555555cc7c3
    db3f:	55 00 00 
    db42:	4d 39 fe             	cmp    r14,r15
    db45:	0f 84 e1 86 ff ff    	je     0x622c
    db4b:	49 bf 5a cb 5c 55 55 	movabs r15,0x5555555ccb5a
    db52:	55 00 00 
    db55:	4d 39 fe             	cmp    r14,r15
    db58:	0f 84 ba 8c ff ff    	je     0x6818
    db5e:	49 bf 96 cb 5c 55 55 	movabs r15,0x5555555ccb96
    db65:	55 00 00 
    db68:	4d 39 fe             	cmp    r14,r15
    db6b:	0f 84 11 8d ff ff    	je     0x6882
    db71:	49 bf 3a d4 5c 55 55 	movabs r15,0x5555555cd43a
    db78:	55 00 00 
    db7b:	4d 39 fe             	cmp    r14,r15
    db7e:	0f 84 2d 9b ff ff    	je     0x76b1
    db84:	49 bf 9f c9 5c 55 55 	movabs r15,0x5555555cc99f
    db8b:	55 00 00 
    db8e:	4d 39 fe             	cmp    r14,r15
    db91:	0f 84 d2 89 ff ff    	je     0x6569
    db97:	49 bf cb c8 5c 55 55 	movabs r15,0x5555555cc8cb
    db9e:	55 00 00 
    dba1:	4d 39 fe             	cmp    r14,r15
    dba4:	0f 84 56 88 ff ff    	je     0x6400
    dbaa:	49 bf 91 d3 5c 55 55 	movabs r15,0x5555555cd391
    dbb1:	55 00 00 
    dbb4:	4d 39 fe             	cmp    r14,r15
    dbb7:	0f 84 ee 99 ff ff    	je     0x75ab
    dbbd:	49 bf 4e 45 5c 55 55 	movabs r15,0x5555555c454e
    dbc4:	55 00 00 
    dbc7:	4d 39 fe             	cmp    r14,r15
    dbca:	0f 84 21 7a ff ff    	je     0x55f1
    dbd0:	49 bf fb 3e 5c 55 55 	movabs r15,0x5555555c3efb
    dbd7:	55 00 00 
    dbda:	4d 39 fe             	cmp    r14,r15
    dbdd:	0f 84 da 6d ff ff    	je     0x49bd
    dbe3:	49 bf 26 3f 5c 55 55 	movabs r15,0x5555555c3f26
    dbea:	55 00 00 
    dbed:	4d 39 fe             	cmp    r14,r15
    dbf0:	0f 84 28 6e ff ff    	je     0x4a1e
    dbf6:	49 bf 66 3e 5c 55 55 	movabs r15,0x5555555c3e66
    dbfd:	55 00 00 
    dc00:	4d 39 fe             	cmp    r14,r15
    dc03:	0f 84 ac 6c ff ff    	je     0x48b5
    dc09:	49 bf 9d 2e 5c 55 55 	movabs r15,0x5555555c2e9d
    dc10:	55 00 00 
    dc13:	4d 39 fe             	cmp    r14,r15
    dc16:	0f 84 28 59 ff ff    	je     0x3544
    dc1c:	49 bf 51 3f 5c 55 55 	movabs r15,0x5555555c3f51
    dc23:	55 00 00 
    dc26:	4d 39 fe             	cmp    r14,r15
    dc29:	0f 84 36 6e ff ff    	je     0x4a65
    dc2f:	49 bf a4 49 5c 55 55 	movabs r15,0x5555555c49a4
    dc36:	55 00 00 
    dc39:	4d 39 fe             	cmp    r14,r15
    dc3c:	0f 84 c0 81 ff ff    	je     0x5e02
    dc42:	49 bf f0 48 5c 55 55 	movabs r15,0x5555555c48f0
    dc49:	55 00 00 
    dc4c:	4d 39 fe             	cmp    r14,r15
    dc4f:	0f 84 76 80 ff ff    	je     0x5ccb
    dc55:	49 bf 08 3c 5c 55 55 	movabs r15,0x5555555c3c08
    dc5c:	55 00 00 
    dc5f:	4d 39 fe             	cmp    r14,r15
    dc62:	0f 84 b9 67 ff ff    	je     0x4421
    dc68:	49 bf cd 2e 5c 55 55 	movabs r15,0x5555555c2ecd
    dc6f:	55 00 00 
    dc72:	4d 39 fe             	cmp    r14,r15
    dc75:	0f 84 11 59 ff ff    	je     0x358c
    dc7b:	49 bf 69 46 5c 55 55 	movabs r15,0x5555555c4669
    dc82:	55 00 00 
    dc85:	4d 39 fe             	cmp    r14,r15
    dc88:	0f 84 d5 7b ff ff    	je     0x5863
    dc8e:	49 bf 90 46 5c 55 55 	movabs r15,0x5555555c4690
    dc95:	55 00 00 
    dc98:	4d 39 fe             	cmp    r14,r15
    dc9b:	0f 84 0b 7c ff ff    	je     0x58ac
    dca1:	49 bf e7 41 5c 55 55 	movabs r15,0x5555555c41e7
    dca8:	55 00 00 
    dcab:	4d 39 fe             	cmp    r14,r15
    dcae:	0f 84 41 73 ff ff    	je     0x4ff5
    dcb4:	49 bf f9 37 5c 55 55 	movabs r15,0x5555555c37f9
    dcbb:	55 00 00 
    dcbe:	4d 39 fe             	cmp    r14,r15
    dcc1:	0f 84 3a 64 ff ff    	je     0x4101
    dcc7:	49 bf ba 42 5c 55 55 	movabs r15,0x5555555c42ba
    dcce:	55 00 00 
    dcd1:	4d 39 fe             	cmp    r14,r15
    dcd4:	0f 84 83 74 ff ff    	je     0x515d
    dcda:	49 bf 2d 38 5c 55 55 	movabs r15,0x5555555c382d
    dce1:	55 00 00 
    dce4:	4d 39 fe             	cmp    r14,r15
    dce7:	0f 84 b1 64 ff ff    	je     0x419e
    dced:	49 bf 4f 37 5c 55 55 	movabs r15,0x5555555c374f
    dcf4:	55 00 00 
    dcf7:	4d 39 fe             	cmp    r14,r15
    dcfa:	0f 84 a3 62 ff ff    	je     0x3fa3
    dd00:	49 bf 32 43 5c 55 55 	movabs r15,0x5555555c4332
    dd07:	55 00 00 
    dd0a:	4d 39 fe             	cmp    r14,r15
    dd0d:	0f 84 34 75 ff ff    	je     0x5247
    dd13:	49 bf 53 34 5c 55 55 	movabs r15,0x5555555c3453
    dd1a:	55 00 00 
    dd1d:	4d 39 fe             	cmp    r14,r15
    dd20:	0f 84 a2 5c ff ff    	je     0x39c8
    dd26:	49 bf 24 40 5c 55 55 	movabs r15,0x5555555c4024
    dd2d:	55 00 00 
    dd30:	4d 39 fe             	cmp    r14,r15
    dd33:	0f 84 45 6f ff ff    	je     0x4c7e
    dd39:	49 bf 2e 33 5c 55 55 	movabs r15,0x5555555c332e
    dd40:	55 00 00 
    dd43:	4d 39 fe             	cmp    r14,r15
    dd46:	0f 84 28 5a ff ff    	je     0x3774
    dd4c:	49 bf 74 33 5c 55 55 	movabs r15,0x5555555c3374
    dd53:	55 00 00 
    dd56:	4d 39 fe             	cmp    r14,r15
    dd59:	0f 84 bb 5a ff ff    	je     0x381a
    dd5f:	49 bf 67 43 5c 55 55 	movabs r15,0x5555555c4367
    dd66:	55 00 00 
    dd69:	4d 39 fe             	cmp    r14,r15
    dd6c:	0f 84 43 75 ff ff    	je     0x52b5
    dd72:	49 bf 99 42 5c 55 55 	movabs r15,0x5555555c4299
    dd79:	55 00 00 
    dd7c:	4d 39 fe             	cmp    r14,r15
    dd7f:	0f 84 87 73 ff ff    	je     0x510c
    dd85:	49 bf c6 43 5c 55 55 	movabs r15,0x5555555c43c6
    dd8c:	55 00 00 
    dd8f:	4d 39 fe             	cmp    r14,r15
    dd92:	0f 84 ca 75 ff ff    	je     0x5362
    dd98:	49 bf 25 35 5c 55 55 	movabs r15,0x5555555c3525
    dd9f:	55 00 00 
    dda2:	4d 39 fe             	cmp    r14,r15
    dda5:	0f 84 6f 5d ff ff    	je     0x3b1a
    ddab:	49 bf 49 35 5c 55 55 	movabs r15,0x5555555c3549
    ddb2:	55 00 00 
    ddb5:	4d 39 fe             	cmp    r14,r15
    ddb8:	0f 84 aa 5d ff ff    	je     0x3b68
    ddbe:	49 bf a5 34 5c 55 55 	movabs r15,0x5555555c34a5
    ddc5:	55 00 00 
    ddc8:	4d 39 fe             	cmp    r14,r15
    ddcb:	0f 84 65 5c ff ff    	je     0x3a36
    ddd1:	49 bf fb 6f 5f 55 55 	movabs r15,0x5555555f6ffb
    ddd8:	55 00 00 
    dddb:	4d 39 fe             	cmp    r14,r15
    ddde:	0f 84 78 da ff ff    	je     0xb85c
    dde4:	49 bf cc 42 5e 55 55 	movabs r15,0x5555555e42cc
    ddeb:	55 00 00 
    ddee:	4d 39 fe             	cmp    r14,r15
    ddf1:	0f 84 e6 9a ff ff    	je     0x78dd
    ddf7:	49 bf 9b 44 5e 55 55 	movabs r15,0x5555555e449b
    ddfe:	55 00 00 
    de01:	4d 39 fe             	cmp    r14,r15
    de04:	0f 84 46 9d ff ff    	je     0x7b50
    de0a:	49 bf 5c 45 5e 55 55 	movabs r15,0x5555555e455c
    de11:	55 00 00 
    de14:	4d 39 fe             	cmp    r14,r15
    de17:	0f 84 83 9e ff ff    	je     0x7ca0
    de1d:	49 bf 80 45 5e 55 55 	movabs r15,0x5555555e4580
    de24:	55 00 00 
    de27:	4d 39 fe             	cmp    r14,r15
    de2a:	0f 84 be 9e ff ff    	je     0x7cee
    de30:	49 bf 77 46 5e 55 55 	movabs r15,0x5555555e4677
    de37:	55 00 00 
    de3a:	4d 39 fe             	cmp    r14,r15
    de3d:	0f 84 92 9f ff ff    	je     0x7dd5
    de43:	49 bf 0a 44 5e 55 55 	movabs r15,0x5555555e440a
    de4a:	55 00 00 
    de4d:	4d 39 fe             	cmp    r14,r15
    de50:	0f 84 d2 9b ff ff    	je     0x7a28
    de56:	49 bf db ed 5b 55 55 	movabs r15,0x5555555beddb
    de5d:	55 00 00 
    de60:	4d 39 fe             	cmp    r14,r15
    de63:	0f 84 c9 41 ff ff    	je     0x2032
    de69:	49 bf cd ed 5b 55 55 	movabs r15,0x5555555bedcd
    de70:	55 00 00 
    de73:	4d 39 fe             	cmp    r14,r15
    de76:	0f 84 97 41 ff ff    	je     0x2013
    de7c:	49 bf af ed 5b 55 55 	movabs r15,0x5555555bedaf
    de83:	55 00 00 
    de86:	4d 39 fe             	cmp    r14,r15
    de89:	0f 84 4c 41 ff ff    	je     0x1fdb
    de8f:	49 bf 44 ee 5b 55 55 	movabs r15,0x5555555bee44
    de96:	55 00 00 
    de99:	4d 39 fe             	cmp    r14,r15
    de9c:	0f 84 ee 41 ff ff    	je     0x2090
    dea2:	49 bf 65 ee 5b 55 55 	movabs r15,0x5555555bee65
    dea9:	55 00 00 
    deac:	4d 39 fe             	cmp    r14,r15
    deaf:	0f 84 17 42 ff ff    	je     0x20cc
    deb5:	49 bf 27 b9 57 55 55 	movabs r15,0x55555557b927
    debc:	55 00 00 
    debf:	e9 17 19 00 00       	jmp    0xf7db
    dec4:	49 bf 9f 9e 5a 55 55 	movabs r15,0x5555555a9e9f
    decb:	55 00 00 
    dece:	4d 39 fe             	cmp    r14,r15
    ded1:	0f 84 52 3e ff ff    	je     0x1d29
    ded7:	49 bf 15 9f 5a 55 55 	movabs r15,0x5555555a9f15
    dede:	55 00 00 
    dee1:	4d 39 fe             	cmp    r14,r15
    dee4:	0f 84 19 3f ff ff    	je     0x1e03
    deea:	49 bf bc 9c 5a 55 55 	movabs r15,0x5555555a9cbc
    def1:	55 00 00 
    def4:	4d 39 fe             	cmp    r14,r15
    def7:	0f 84 33 3b ff ff    	je     0x1a30
    defd:	49 bf ab 9d 5a 55 55 	movabs r15,0x5555555a9dab
    df04:	55 00 00 
    df07:	4d 39 fe             	cmp    r14,r15
    df0a:	0f 84 8b 3c ff ff    	je     0x1b9b
    df10:	49 bf 05 9b 5a 55 55 	movabs r15,0x5555555a9b05
    df17:	55 00 00 
    df1a:	4d 39 fe             	cmp    r14,r15
    df1d:	0f 84 2a 38 ff ff    	je     0x174d
    df23:	49 bf 30 9e 5a 55 55 	movabs r15,0x5555555a9e30
    df2a:	55 00 00 
    df2d:	4d 39 fe             	cmp    r14,r15
    df30:	0f 84 46 3d ff ff    	je     0x1c7c
    df36:	49 bf 82 9d 5a 55 55 	movabs r15,0x5555555a9d82
    df3d:	55 00 00 
    df40:	4d 39 fe             	cmp    r14,r15
    df43:	0f 84 01 3c ff ff    	je     0x1b4a
    df49:	49 bf ca 9d 5a 55 55 	movabs r15,0x5555555a9dca
    df50:	55 00 00 
    df53:	4d 39 fe             	cmp    r14,r15
    df56:	0f 84 79 3c ff ff    	je     0x1bd5
    df5c:	49 bf 08 19 5c 55 55 	movabs r15,0x5555555c1908
    df63:	55 00 00 
    df66:	4d 39 fe             	cmp    r14,r15
    df69:	0f 84 4b 4c ff ff    	je     0x2bba
    df6f:	49 bf 68 2b 5c 55 55 	movabs r15,0x5555555c2b68
    df76:	55 00 00 
    df79:	4d 39 fe             	cmp    r14,r15
    df7c:	0f 84 03 51 ff ff    	je     0x3085
    df82:	49 bf 96 2b 5c 55 55 	movabs r15,0x5555555c2b96
    df89:	55 00 00 
    df8c:	4d 39 fe             	cmp    r14,r15
    df8f:	0f 84 4a 51 ff ff    	je     0x30df
    df95:	49 bf ed 2c 5c 55 55 	movabs r15,0x5555555c2ced
    df9c:	55 00 00 
    df9f:	4d 39 fe             	cmp    r14,r15
    dfa2:	0f 84 c4 53 ff ff    	je     0x336c
    dfa8:	49 bf ad 2c 5c 55 55 	movabs r15,0x5555555c2cad
    dfaf:	55 00 00 
    dfb2:	4d 39 fe             	cmp    r14,r15
    dfb5:	0f 84 36 53 ff ff    	je     0x32f1
    dfbb:	49 bf 88 2c 5c 55 55 	movabs r15,0x5555555c2c88
    dfc2:	55 00 00 
    dfc5:	4d 39 fe             	cmp    r14,r15
    dfc8:	0f 84 c2 52 ff ff    	je     0x3290
    dfce:	49 bf a6 df 5f 55 55 	movabs r15,0x5555555fdfa6
    dfd5:	55 00 00 
    dfd8:	4d 39 fe             	cmp    r14,r15
    dfdb:	0f 84 08 de ff ff    	je     0xbde9
    dfe1:	49 bf a1 19 5c 55 55 	movabs r15,0x5555555c19a1
    dfe8:	55 00 00 
    dfeb:	4d 39 fe             	cmp    r14,r15
    dfee:	0f 84 d1 4c ff ff    	je     0x2cc5
    dff4:	49 bf fb 2b 5c 55 55 	movabs r15,0x5555555c2bfb
    dffb:	55 00 00 
    dffe:	4d 39 fe             	cmp    r14,r15
    e001:	0f 84 87 51 ff ff    	je     0x318e
    e007:	49 bf a8 dd 5f 55 55 	movabs r15,0x5555555fdda8
    e00e:	55 00 00 
    e011:	4d 39 fe             	cmp    r14,r15
    e014:	0f 84 41 da ff ff    	je     0xba5b
    e01a:	49 bf 81 e0 5f 55 55 	movabs r15,0x5555555fe081
    e021:	55 00 00 
    e024:	4d 39 fe             	cmp    r14,r15
    e027:	0f 84 02 df ff ff    	je     0xbf2f
    e02d:	49 bf 0f c6 57 55 55 	movabs r15,0x55555557c60f
    e034:	55 00 00 
    e037:	4d 39 fe             	cmp    r14,r15
    e03a:	0f 84 33 2a ff ff    	je     0xa73
    e040:	49 bf c1 c5 57 55 55 	movabs r15,0x55555557c5c1
    e047:	55 00 00 
    e04a:	4d 39 fe             	cmp    r14,r15
    e04d:	0f 84 a3 29 ff ff    	je     0x9f6
    e053:	49 bf 7e c5 57 55 55 	movabs r15,0x55555557c57e
    e05a:	55 00 00 
    e05d:	4d 39 fe             	cmp    r14,r15
    e060:	0f 84 2b 29 ff ff    	je     0x991
    e066:	49 bf 3b df 5f 55 55 	movabs r15,0x5555555fdf3b
    e06d:	55 00 00 
    e070:	4d 39 fe             	cmp    r14,r15
    e073:	0f 84 81 dc ff ff    	je     0xbcfa
    e079:	49 bf b1 e0 5f 55 55 	movabs r15,0x5555555fe0b1
    e080:	55 00 00 
    e083:	4d 39 fe             	cmp    r14,r15
    e086:	0f 84 e6 de ff ff    	je     0xbf72
    e08c:	49 bf 04 e0 5f 55 55 	movabs r15,0x5555555fe004
    e093:	55 00 00 
    e096:	4d 39 fe             	cmp    r14,r15
    e099:	0f 84 d4 dd ff ff    	je     0xbe73
    e09f:	49 bf e9 b8 57 55 55 	movabs r15,0x55555557b8e9
    e0a6:	55 00 00 
    e0a9:	4d 39 fe             	cmp    r14,r15
    e0ac:	0f 84 45 27 ff ff    	je     0x7f7
    e0b2:	49 bf 48 b9 57 55 55 	movabs r15,0x55555557b948
    e0b9:	55 00 00 
    e0bc:	4d 39 fe             	cmp    r14,r15
    e0bf:	0f 84 e8 27 ff ff    	je     0x8ad
    e0c5:	49 bf 38 f6 57 55 55 	movabs r15,0x55555557f638
    e0cc:	55 00 00 
    e0cf:	4d 39 fe             	cmp    r14,r15
    e0d2:	0f 84 d6 32 ff ff    	je     0x13ae
    e0d8:	49 bf d2 f5 57 55 55 	movabs r15,0x55555557f5d2
    e0df:	55 00 00 
    e0e2:	4d 39 fe             	cmp    r14,r15
    e0e5:	0f 84 d4 31 ff ff    	je     0x12bf
    e0eb:	49 bf 41 f5 57 55 55 	movabs r15,0x55555557f541
    e0f2:	55 00 00 
    e0f5:	4d 39 fe             	cmp    r14,r15
    e0f8:	0f 84 7a 30 ff ff    	je     0x1178
    e0fe:	49 bf 84 f3 57 55 55 	movabs r15,0x55555557f384
    e105:	55 00 00 
    e108:	4d 39 fe             	cmp    r14,r15
    e10b:	0f 84 47 2d ff ff    	je     0xe58
    e111:	49 bf 14 f6 57 55 55 	movabs r15,0x55555557f614
    e118:	55 00 00 
    e11b:	4d 39 fe             	cmp    r14,r15
    e11e:	0f 84 49 32 ff ff    	je     0x136d
    e124:	49 bf 7b f4 57 55 55 	movabs r15,0x55555557f47b
    e12b:	55 00 00 
    e12e:	4d 39 fe             	cmp    r14,r15
    e131:	0f 84 c5 2e ff ff    	je     0xffc
    e137:	49 bf 41 cb 5e 55 55 	movabs r15,0x5555555ecb41
    e13e:	55 00 00 
    e141:	4d 39 fe             	cmp    r14,r15
    e144:	0f 84 bd a2 ff ff    	je     0x8407
    e14a:	49 bf 35 de 5e 55 55 	movabs r15,0x5555555ede35
    e151:	55 00 00 
    e154:	4d 39 fe             	cmp    r14,r15
    e157:	0f 84 01 b9 ff ff    	je     0x9a5e
    e15d:	49 bf 8c d9 5e 55 55 	movabs r15,0x5555555ed98c
    e164:	55 00 00 
    e167:	4d 39 fe             	cmp    r14,r15
    e16a:	0f 84 82 b2 ff ff    	je     0x93f2
    e170:	49 bf 29 df 5e 55 55 	movabs r15,0x5555555edf29
    e177:	55 00 00 
    e17a:	4d 39 fe             	cmp    r14,r15
    e17d:	0f 84 1a ba ff ff    	je     0x9b9d
    e183:	49 bf cb df 5e 55 55 	movabs r15,0x5555555edfcb
    e18a:	55 00 00 
    e18d:	4d 39 fe             	cmp    r14,r15
    e190:	0f 84 43 bb ff ff    	je     0x9cd9
    e196:	49 bf 0a dc 5e 55 55 	movabs r15,0x5555555edc0a
    e19d:	55 00 00 
    e1a0:	4d 39 fe             	cmp    r14,r15
    e1a3:	0f 84 af b5 ff ff    	je     0x9758
    e1a9:	49 bf b6 dd 5e 55 55 	movabs r15,0x5555555eddb6
    e1b0:	55 00 00 
    e1b3:	4d 39 fe             	cmp    r14,r15
    e1b6:	0f 84 6c b8 ff ff    	je     0x9a28
    e1bc:	49 bf fe e8 5e 55 55 	movabs r15,0x5555555ee8fe
    e1c3:	55 00 00 
    e1c6:	4d 39 fe             	cmp    r14,r15
    e1c9:	0f 84 5b c6 ff ff    	je     0xa82a
    e1cf:	49 bf 9d e7 5e 55 55 	movabs r15,0x5555555ee79d
    e1d6:	55 00 00 
    e1d9:	4d 39 fe             	cmp    r14,r15
    e1dc:	0f 84 84 c5 ff ff    	je     0xa766
    e1e2:	49 bf 17 e6 5e 55 55 	movabs r15,0x5555555ee617
    e1e9:	55 00 00 
    e1ec:	4d 39 fe             	cmp    r14,r15
    e1ef:	0f 84 b3 c3 ff ff    	je     0xa5a8
    e1f5:	49 bf 99 c9 5e 55 55 	movabs r15,0x5555555ec999
    e1fc:	55 00 00 
    e1ff:	4d 39 fe             	cmp    r14,r15
    e202:	0f 84 04 a0 ff ff    	je     0x820c
    e208:	49 bf b7 de 5e 55 55 	movabs r15,0x5555555edeb7
    e20f:	55 00 00 
    e212:	4d 39 fe             	cmp    r14,r15
    e215:	0f 84 d9 b8 ff ff    	je     0x9af4
    e21b:	49 bf b9 d7 5e 55 55 	movabs r15,0x5555555ed7b9
    e222:	55 00 00 
    e225:	4d 39 fe             	cmp    r14,r15
    e228:	0f 84 6b af ff ff    	je     0x9199
    e22e:	49 bf c5 d4 5e 55 55 	movabs r15,0x5555555ed4c5
    e235:	55 00 00 
    e238:	4d 39 fe             	cmp    r14,r15
    e23b:	0f 84 98 ac ff ff    	je     0x8ed9
    e241:	49 bf 6b e1 5e 55 55 	movabs r15,0x5555555ee16b
    e248:	55 00 00 
    e24b:	4d 39 fe             	cmp    r14,r15
    e24e:	0f 84 66 bc ff ff    	je     0x9eba
    e254:	49 bf 79 de 5e 55 55 	movabs r15,0x5555555ede79
    e25b:	55 00 00 
    e25e:	4d 39 fe             	cmp    r14,r15
    e261:	0f 84 2b b8 ff ff    	je     0x9a92
    e267:	49 bf d8 e0 5e 55 55 	movabs r15,0x5555555ee0d8
    e26e:	55 00 00 
    e271:	4d 39 fe             	cmp    r14,r15
    e274:	0f 84 72 bb ff ff    	je     0x9dec
    e27a:	49 bf 81 e3 5e 55 55 	movabs r15,0x5555555ee381
    e281:	55 00 00 
    e284:	4d 39 fe             	cmp    r14,r15
    e287:	0f 84 ce be ff ff    	je     0xa15b
    e28d:	49 bf 38 d4 5e 55 55 	movabs r15,0x5555555ed438
    e294:	55 00 00 
    e297:	4d 39 fe             	cmp    r14,r15
    e29a:	0f 84 87 ab ff ff    	je     0x8e27
    e2a0:	49 bf bd c9 5c 55 55 	movabs r15,0x5555555cc9bd
    e2a7:	55 00 00 
    e2aa:	4d 39 fe             	cmp    r14,r15
    e2ad:	0f 84 ec 82 ff ff    	je     0x659f
    e2b3:	49 bf 7d d1 5c 55 55 	movabs r15,0x5555555cd17d
    e2ba:	55 00 00 
    e2bd:	4d 39 fe             	cmp    r14,r15
    e2c0:	0f 84 c3 8e ff ff    	je     0x7189
    e2c6:	49 bf 5d d1 5c 55 55 	movabs r15,0x5555555cd15d
    e2cd:	55 00 00 
    e2d0:	4d 39 fe             	cmp    r14,r15
    e2d3:	0f 84 7a 8e ff ff    	je     0x7153
    e2d9:	49 bf da cd 5c 55 55 	movabs r15,0x5555555ccdda
    e2e0:	55 00 00 
    e2e3:	4d 39 fe             	cmp    r14,r15
    e2e6:	0f 84 ee 88 ff ff    	je     0x6bda
    e2ec:	49 bf 44 d2 5c 55 55 	movabs r15,0x5555555cd244
    e2f3:	55 00 00 
    e2f6:	4d 39 fe             	cmp    r14,r15
    e2f9:	0f 84 a5 8f ff ff    	je     0x72a4
    e2ff:	49 bf 15 d2 5c 55 55 	movabs r15,0x5555555cd215
    e306:	55 00 00 
    e309:	4d 39 fe             	cmp    r14,r15
    e30c:	0f 84 3f 8f ff ff    	je     0x7251
    e312:	49 bf 48 d3 5c 55 55 	movabs r15,0x5555555cd348
    e319:	55 00 00 
    e31c:	4d 39 fe             	cmp    r14,r15
    e31f:	0f 84 cc 91 ff ff    	je     0x74f1
    e325:	49 bf af ca 5c 55 55 	movabs r15,0x5555555ccaaf
    e32c:	55 00 00 
    e32f:	4d 39 fe             	cmp    r14,r15
    e332:	0f 84 de 83 ff ff    	je     0x6716
    e338:	49 bf c3 c7 5c 55 55 	movabs r15,0x5555555cc7c3
    e33f:	55 00 00 
    e342:	4d 39 fe             	cmp    r14,r15
    e345:	0f 84 e1 7e ff ff    	je     0x622c
    e34b:	49 bf 5a cb 5c 55 55 	movabs r15,0x5555555ccb5a
    e352:	55 00 00 
    e355:	4d 39 fe             	cmp    r14,r15
    e358:	0f 84 ba 84 ff ff    	je     0x6818
    e35e:	49 bf 96 cb 5c 55 55 	movabs r15,0x5555555ccb96
    e365:	55 00 00 
    e368:	4d 39 fe             	cmp    r14,r15
    e36b:	0f 84 11 85 ff ff    	je     0x6882
    e371:	49 bf 3a d4 5c 55 55 	movabs r15,0x5555555cd43a
    e378:	55 00 00 
    e37b:	4d 39 fe             	cmp    r14,r15
    e37e:	0f 84 2d 93 ff ff    	je     0x76b1
    e384:	49 bf 9f c9 5c 55 55 	movabs r15,0x5555555cc99f
    e38b:	55 00 00 
    e38e:	4d 39 fe             	cmp    r14,r15
    e391:	0f 84 d2 81 ff ff    	je     0x6569
    e397:	49 bf cb c8 5c 55 55 	movabs r15,0x5555555cc8cb
    e39e:	55 00 00 
    e3a1:	4d 39 fe             	cmp    r14,r15
    e3a4:	0f 84 56 80 ff ff    	je     0x6400
    e3aa:	49 bf 91 d3 5c 55 55 	movabs r15,0x5555555cd391
    e3b1:	55 00 00 
    e3b4:	4d 39 fe             	cmp    r14,r15
    e3b7:	0f 84 ee 91 ff ff    	je     0x75ab
    e3bd:	49 bf 4e 45 5c 55 55 	movabs r15,0x5555555c454e
    e3c4:	55 00 00 
    e3c7:	4d 39 fe             	cmp    r14,r15
    e3ca:	0f 84 21 72 ff ff    	je     0x55f1
    e3d0:	49 bf fb 3e 5c 55 55 	movabs r15,0x5555555c3efb
    e3d7:	55 00 00 
    e3da:	4d 39 fe             	cmp    r14,r15
    e3dd:	0f 84 da 65 ff ff    	je     0x49bd
    e3e3:	49 bf 26 3f 5c 55 55 	movabs r15,0x5555555c3f26
    e3ea:	55 00 00 
    e3ed:	4d 39 fe             	cmp    r14,r15
    e3f0:	0f 84 28 66 ff ff    	je     0x4a1e
    e3f6:	49 bf 66 3e 5c 55 55 	movabs r15,0x5555555c3e66
    e3fd:	55 00 00 
    e400:	4d 39 fe             	cmp    r14,r15
    e403:	0f 84 ac 64 ff ff    	je     0x48b5
    e409:	49 bf 9d 2e 5c 55 55 	movabs r15,0x5555555c2e9d
    e410:	55 00 00 
    e413:	4d 39 fe             	cmp    r14,r15
    e416:	0f 84 28 51 ff ff    	je     0x3544
    e41c:	49 bf 51 3f 5c 55 55 	movabs r15,0x5555555c3f51
    e423:	55 00 00 
    e426:	4d 39 fe             	cmp    r14,r15
    e429:	0f 84 36 66 ff ff    	je     0x4a65
    e42f:	49 bf a4 49 5c 55 55 	movabs r15,0x5555555c49a4
    e436:	55 00 00 
    e439:	4d 39 fe             	cmp    r14,r15
    e43c:	0f 84 c0 79 ff ff    	je     0x5e02
    e442:	49 bf f0 48 5c 55 55 	movabs r15,0x5555555c48f0
    e449:	55 00 00 
    e44c:	4d 39 fe             	cmp    r14,r15
    e44f:	0f 84 76 78 ff ff    	je     0x5ccb
    e455:	49 bf 08 3c 5c 55 55 	movabs r15,0x5555555c3c08
    e45c:	55 00 00 
    e45f:	4d 39 fe             	cmp    r14,r15
    e462:	0f 84 b9 5f ff ff    	je     0x4421
    e468:	49 bf cd 2e 5c 55 55 	movabs r15,0x5555555c2ecd
    e46f:	55 00 00 
    e472:	4d 39 fe             	cmp    r14,r15
    e475:	0f 84 11 51 ff ff    	je     0x358c
    e47b:	49 bf 69 46 5c 55 55 	movabs r15,0x5555555c4669
    e482:	55 00 00 
    e485:	4d 39 fe             	cmp    r14,r15
    e488:	0f 84 d5 73 ff ff    	je     0x5863
    e48e:	49 bf 90 46 5c 55 55 	movabs r15,0x5555555c4690
    e495:	55 00 00 
    e498:	4d 39 fe             	cmp    r14,r15
    e49b:	0f 84 0b 74 ff ff    	je     0x58ac
    e4a1:	49 bf e7 41 5c 55 55 	movabs r15,0x5555555c41e7
    e4a8:	55 00 00 
    e4ab:	4d 39 fe             	cmp    r14,r15
    e4ae:	0f 84 41 6b ff ff    	je     0x4ff5
    e4b4:	49 bf f9 37 5c 55 55 	movabs r15,0x5555555c37f9
    e4bb:	55 00 00 
    e4be:	4d 39 fe             	cmp    r14,r15
    e4c1:	0f 84 3a 5c ff ff    	je     0x4101
    e4c7:	49 bf ba 42 5c 55 55 	movabs r15,0x5555555c42ba
    e4ce:	55 00 00 
    e4d1:	4d 39 fe             	cmp    r14,r15
    e4d4:	0f 84 83 6c ff ff    	je     0x515d
    e4da:	49 bf 2d 38 5c 55 55 	movabs r15,0x5555555c382d
    e4e1:	55 00 00 
    e4e4:	4d 39 fe             	cmp    r14,r15
    e4e7:	0f 84 b1 5c ff ff    	je     0x419e
    e4ed:	49 bf 4f 37 5c 55 55 	movabs r15,0x5555555c374f
    e4f4:	55 00 00 
    e4f7:	4d 39 fe             	cmp    r14,r15
    e4fa:	0f 84 a3 5a ff ff    	je     0x3fa3
    e500:	49 bf 32 43 5c 55 55 	movabs r15,0x5555555c4332
    e507:	55 00 00 
    e50a:	4d 39 fe             	cmp    r14,r15
    e50d:	0f 84 34 6d ff ff    	je     0x5247
    e513:	49 bf 53 34 5c 55 55 	movabs r15,0x5555555c3453
    e51a:	55 00 00 
    e51d:	4d 39 fe             	cmp    r14,r15
    e520:	0f 84 a2 54 ff ff    	je     0x39c8
    e526:	49 bf 24 40 5c 55 55 	movabs r15,0x5555555c4024
    e52d:	55 00 00 
    e530:	4d 39 fe             	cmp    r14,r15
    e533:	0f 84 45 67 ff ff    	je     0x4c7e
    e539:	49 bf 2e 33 5c 55 55 	movabs r15,0x5555555c332e
    e540:	55 00 00 
    e543:	4d 39 fe             	cmp    r14,r15
    e546:	0f 84 28 52 ff ff    	je     0x3774
    e54c:	49 bf 74 33 5c 55 55 	movabs r15,0x5555555c3374
    e553:	55 00 00 
    e556:	4d 39 fe             	cmp    r14,r15
    e559:	0f 84 bb 52 ff ff    	je     0x381a
    e55f:	49 bf 67 43 5c 55 55 	movabs r15,0x5555555c4367
    e566:	55 00 00 
    e569:	4d 39 fe             	cmp    r14,r15
    e56c:	0f 84 43 6d ff ff    	je     0x52b5
    e572:	49 bf 99 42 5c 55 55 	movabs r15,0x5555555c4299
    e579:	55 00 00 
    e57c:	4d 39 fe             	cmp    r14,r15
    e57f:	0f 84 87 6b ff ff    	je     0x510c
    e585:	49 bf c6 43 5c 55 55 	movabs r15,0x5555555c43c6
    e58c:	55 00 00 
    e58f:	4d 39 fe             	cmp    r14,r15
    e592:	0f 84 ca 6d ff ff    	je     0x5362
    e598:	49 bf 25 35 5c 55 55 	movabs r15,0x5555555c3525
    e59f:	55 00 00 
    e5a2:	4d 39 fe             	cmp    r14,r15
    e5a5:	0f 84 6f 55 ff ff    	je     0x3b1a
    e5ab:	49 bf 49 35 5c 55 55 	movabs r15,0x5555555c3549
    e5b2:	55 00 00 
    e5b5:	4d 39 fe             	cmp    r14,r15
    e5b8:	0f 84 aa 55 ff ff    	je     0x3b68
    e5be:	49 bf a5 34 5c 55 55 	movabs r15,0x5555555c34a5
    e5c5:	55 00 00 
    e5c8:	4d 39 fe             	cmp    r14,r15
    e5cb:	0f 84 65 54 ff ff    	je     0x3a36
    e5d1:	49 bf fb 6f 5f 55 55 	movabs r15,0x5555555f6ffb
    e5d8:	55 00 00 
    e5db:	4d 39 fe             	cmp    r14,r15
    e5de:	0f 84 78 d2 ff ff    	je     0xb85c
    e5e4:	49 bf cc 42 5e 55 55 	movabs r15,0x5555555e42cc
    e5eb:	55 00 00 
    e5ee:	4d 39 fe             	cmp    r14,r15
    e5f1:	0f 84 e6 92 ff ff    	je     0x78dd
    e5f7:	49 bf 9b 44 5e 55 55 	movabs r15,0x5555555e449b
    e5fe:	55 00 00 
    e601:	4d 39 fe             	cmp    r14,r15
    e604:	0f 84 46 95 ff ff    	je     0x7b50
    e60a:	49 bf 5c 45 5e 55 55 	movabs r15,0x5555555e455c
    e611:	55 00 00 
    e614:	4d 39 fe             	cmp    r14,r15
    e617:	0f 84 83 96 ff ff    	je     0x7ca0
    e61d:	49 bf 80 45 5e 55 55 	movabs r15,0x5555555e4580
    e624:	55 00 00 
    e627:	4d 39 fe             	cmp    r14,r15
    e62a:	0f 84 be 96 ff ff    	je     0x7cee
    e630:	49 bf 77 46 5e 55 55 	movabs r15,0x5555555e4677
    e637:	55 00 00 
    e63a:	4d 39 fe             	cmp    r14,r15
    e63d:	0f 84 92 97 ff ff    	je     0x7dd5
    e643:	49 bf 0a 44 5e 55 55 	movabs r15,0x5555555e440a
    e64a:	55 00 00 
    e64d:	4d 39 fe             	cmp    r14,r15
    e650:	0f 84 d2 93 ff ff    	je     0x7a28
    e656:	49 bf db ed 5b 55 55 	movabs r15,0x5555555beddb
    e65d:	55 00 00 
    e660:	4d 39 fe             	cmp    r14,r15
    e663:	0f 84 c9 39 ff ff    	je     0x2032
    e669:	49 bf cd ed 5b 55 55 	movabs r15,0x5555555bedcd
    e670:	55 00 00 
    e673:	4d 39 fe             	cmp    r14,r15
    e676:	0f 84 97 39 ff ff    	je     0x2013
    e67c:	49 bf af ed 5b 55 55 	movabs r15,0x5555555bedaf
    e683:	55 00 00 
    e686:	4d 39 fe             	cmp    r14,r15
    e689:	0f 84 4c 39 ff ff    	je     0x1fdb
    e68f:	49 bf 44 ee 5b 55 55 	movabs r15,0x5555555bee44
    e696:	55 00 00 
    e699:	4d 39 fe             	cmp    r14,r15
    e69c:	0f 84 ee 39 ff ff    	je     0x2090
    e6a2:	49 bf 65 ee 5b 55 55 	movabs r15,0x5555555bee65
    e6a9:	55 00 00 
    e6ac:	4d 39 fe             	cmp    r14,r15
    e6af:	0f 84 17 3a ff ff    	je     0x20cc
    e6b5:	49 bf 52 b9 57 55 55 	movabs r15,0x55555557b952
    e6bc:	55 00 00 
    e6bf:	e9 17 11 00 00       	jmp    0xf7db
    e6c4:	49 bf 5a 9b 5a 55 55 	movabs r15,0x5555555a9b5a
    e6cb:	55 00 00 
    e6ce:	4d 39 fe             	cmp    r14,r15
    e6d1:	0f 84 1c 31 ff ff    	je     0x17f3
    e6d7:	49 bf 92 99 5a 55 55 	movabs r15,0x5555555a9992
    e6de:	55 00 00 
    e6e1:	4d 39 fe             	cmp    r14,r15
    e6e4:	0f 84 2f 2e ff ff    	je     0x1519
    e6ea:	49 bf 61 e7 57 55 55 	movabs r15,0x55555557e761
    e6f1:	55 00 00 
    e6f4:	e9 e2 10 00 00       	jmp    0xf7db
    e6f9:	49 bf 5a 9b 5a 55 55 	movabs r15,0x5555555a9b5a
    e700:	55 00 00 
    e703:	4d 39 fe             	cmp    r14,r15
    e706:	0f 84 e7 30 ff ff    	je     0x17f3
    e70c:	49 bf 92 99 5a 55 55 	movabs r15,0x5555555a9992
    e713:	55 00 00 
    e716:	4d 39 fe             	cmp    r14,r15
    e719:	0f 84 fa 2d ff ff    	je     0x1519
    e71f:	49 bf 29 e7 57 55 55 	movabs r15,0x55555557e729
    e726:	55 00 00 
    e729:	e9 ad 10 00 00       	jmp    0xf7db
    e72e:	49 bf 5a 9b 5a 55 55 	movabs r15,0x5555555a9b5a
    e735:	55 00 00 
    e738:	4d 39 fe             	cmp    r14,r15
    e73b:	0f 84 b2 30 ff ff    	je     0x17f3
    e741:	49 bf 92 99 5a 55 55 	movabs r15,0x5555555a9992
    e748:	55 00 00 
    e74b:	4d 39 fe             	cmp    r14,r15
    e74e:	0f 84 c5 2d ff ff    	je     0x1519
    e754:	49 bf 31 e7 57 55 55 	movabs r15,0x55555557e731
    e75b:	55 00 00 
    e75e:	e9 78 10 00 00       	jmp    0xf7db
    e763:	49 bf 1a 9c 5a 55 55 	movabs r15,0x5555555a9c1a
    e76a:	55 00 00 
    e76d:	e9 69 10 00 00       	jmp    0xf7db
    e772:	49 bf 44 2b 5c 55 55 	movabs r15,0x5555555c2b44
    e779:	55 00 00 
    e77c:	4d 39 fe             	cmp    r14,r15
    e77f:	0f 84 bf 48 ff ff    	je     0x3044
    e785:	49 bf 7a 49 5c 55 55 	movabs r15,0x5555555c497a
    e78c:	55 00 00 
    e78f:	4d 39 fe             	cmp    r14,r15
    e792:	0f 84 1e 76 ff ff    	je     0x5db6
    e798:	49 bf 33 0d 5c 55 55 	movabs r15,0x5555555c0d33
    e79f:	55 00 00 
    e7a2:	e9 34 10 00 00       	jmp    0xf7db
    e7a7:	49 bf a5 45 5c 55 55 	movabs r15,0x5555555c45a5
    e7ae:	55 00 00 
    e7b1:	4d 39 fe             	cmp    r14,r15
    e7b4:	0f 84 0b 6f ff ff    	je     0x56c5
    e7ba:	49 bf 3f 49 5c 55 55 	movabs r15,0x5555555c493f
    e7c1:	55 00 00 
    e7c4:	4d 39 fe             	cmp    r14,r15
    e7c7:	0f 84 7e 75 ff ff    	je     0x5d4b
    e7cd:	49 bf ba 18 5c 55 55 	movabs r15,0x5555555c18ba
    e7d4:	55 00 00 
    e7d7:	e9 ff 0f 00 00       	jmp    0xf7db
    e7dc:	49 bf a5 45 5c 55 55 	movabs r15,0x5555555c45a5
    e7e3:	55 00 00 
    e7e6:	4d 39 fe             	cmp    r14,r15
    e7e9:	0f 84 d6 6e ff ff    	je     0x56c5
    e7ef:	49 bf 3f 49 5c 55 55 	movabs r15,0x5555555c493f
    e7f6:	55 00 00 
    e7f9:	4d 39 fe             	cmp    r14,r15
    e7fc:	0f 84 49 75 ff ff    	je     0x5d4b
    e802:	49 bf ec 18 5c 55 55 	movabs r15,0x5555555c18ec
    e809:	55 00 00 
    e80c:	e9 ca 0f 00 00       	jmp    0xf7db
    e811:	49 bf 88 2c 5c 55 55 	movabs r15,0x5555555c2c88
    e818:	55 00 00 
    e81b:	4d 39 fe             	cmp    r14,r15
    e81e:	0f 84 6c 4a ff ff    	je     0x3290
    e824:	49 bf a8 dd 5f 55 55 	movabs r15,0x5555555fdda8
    e82b:	55 00 00 
    e82e:	4d 39 fe             	cmp    r14,r15
    e831:	0f 84 24 d2 ff ff    	je     0xba5b
    e837:	49 bf 08 3c 5c 55 55 	movabs r15,0x5555555c3c08
    e83e:	55 00 00 
    e841:	4d 39 fe             	cmp    r14,r15
    e844:	0f 84 d7 5b ff ff    	je     0x4421
    e84a:	49 bf d4 2a 5c 55 55 	movabs r15,0x5555555c2ad4
    e851:	55 00 00 
    e854:	e9 82 0f 00 00       	jmp    0xf7db
    e859:	49 bf 1e 2a 5c 55 55 	movabs r15,0x5555555c2a1e
    e860:	55 00 00 
    e863:	e9 73 0f 00 00       	jmp    0xf7db
    e868:	49 bf 88 2c 5c 55 55 	movabs r15,0x5555555c2c88
    e86f:	55 00 00 
    e872:	4d 39 fe             	cmp    r14,r15
    e875:	0f 84 15 4a ff ff    	je     0x3290
    e87b:	49 bf a8 dd 5f 55 55 	movabs r15,0x5555555fdda8
    e882:	55 00 00 
    e885:	4d 39 fe             	cmp    r14,r15
    e888:	0f 84 cd d1 ff ff    	je     0xba5b
    e88e:	49 bf 08 3c 5c 55 55 	movabs r15,0x5555555c3c08
    e895:	55 00 00 
    e898:	4d 39 fe             	cmp    r14,r15
    e89b:	0f 84 80 5b ff ff    	je     0x4421
    e8a1:	49 bf 2e 33 5c 55 55 	movabs r15,0x5555555c332e
    e8a8:	55 00 00 
    e8ab:	4d 39 fe             	cmp    r14,r15
    e8ae:	0f 84 c0 4e ff ff    	je     0x3774
    e8b4:	49 bf db ed 5b 55 55 	movabs r15,0x5555555beddb
    e8bb:	55 00 00 
    e8be:	4d 39 fe             	cmp    r14,r15
    e8c1:	0f 84 6b 37 ff ff    	je     0x2032
    e8c7:	49 bf af ed 5b 55 55 	movabs r15,0x5555555bedaf
    e8ce:	55 00 00 
    e8d1:	4d 39 fe             	cmp    r14,r15
    e8d4:	0f 84 01 37 ff ff    	je     0x1fdb
    e8da:	49 bf 44 ee 5b 55 55 	movabs r15,0x5555555bee44
    e8e1:	55 00 00 
    e8e4:	4d 39 fe             	cmp    r14,r15
    e8e7:	0f 84 a3 37 ff ff    	je     0x2090
    e8ed:	49 bf c6 2c 5c 55 55 	movabs r15,0x5555555c2cc6
    e8f4:	55 00 00 
    e8f7:	e9 df 0e 00 00       	jmp    0xf7db
    e8fc:	49 bf b5 2a 5c 55 55 	movabs r15,0x5555555c2ab5
    e903:	55 00 00 
    e906:	4d 39 fe             	cmp    r14,r15
    e909:	0f 84 39 46 ff ff    	je     0x2f48
    e90f:	49 bf 88 2c 5c 55 55 	movabs r15,0x5555555c2c88
    e916:	55 00 00 
    e919:	4d 39 fe             	cmp    r14,r15
    e91c:	0f 84 6e 49 ff ff    	je     0x3290
    e922:	49 bf a8 dd 5f 55 55 	movabs r15,0x5555555fdda8
    e929:	55 00 00 
    e92c:	4d 39 fe             	cmp    r14,r15
    e92f:	0f 84 26 d1 ff ff    	je     0xba5b
    e935:	49 bf bd dd 5f 55 55 	movabs r15,0x5555555fddbd
    e93c:	55 00 00 
    e93f:	4d 39 fe             	cmp    r14,r15
    e942:	0f 84 4a d1 ff ff    	je     0xba92
    e948:	49 bf 08 3c 5c 55 55 	movabs r15,0x5555555c3c08
    e94f:	55 00 00 
    e952:	4d 39 fe             	cmp    r14,r15
    e955:	0f 84 c6 5a ff ff    	je     0x4421
    e95b:	49 bf 2e 33 5c 55 55 	movabs r15,0x5555555c332e
    e962:	55 00 00 
    e965:	4d 39 fe             	cmp    r14,r15
    e968:	0f 84 06 4e ff ff    	je     0x3774
    e96e:	49 bf db ed 5b 55 55 	movabs r15,0x5555555beddb
    e975:	55 00 00 
    e978:	4d 39 fe             	cmp    r14,r15
    e97b:	0f 84 b1 36 ff ff    	je     0x2032
    e981:	49 bf af ed 5b 55 55 	movabs r15,0x5555555bedaf
    e988:	55 00 00 
    e98b:	4d 39 fe             	cmp    r14,r15
    e98e:	0f 84 47 36 ff ff    	je     0x1fdb
    e994:	49 bf 44 ee 5b 55 55 	movabs r15,0x5555555bee44
    e99b:	55 00 00 
    e99e:	4d 39 fe             	cmp    r14,r15
    e9a1:	0f 84 e9 36 ff ff    	je     0x2090
    e9a7:	49 bf 59 c6 57 55 55 	movabs r15,0x55555557c659
    e9ae:	55 00 00 
    e9b1:	e9 25 0e 00 00       	jmp    0xf7db
    e9b6:	49 bf 88 2c 5c 55 55 	movabs r15,0x5555555c2c88
    e9bd:	55 00 00 
    e9c0:	4d 39 fe             	cmp    r14,r15
    e9c3:	0f 84 c7 48 ff ff    	je     0x3290
    e9c9:	49 bf a8 dd 5f 55 55 	movabs r15,0x5555555fdda8
    e9d0:	55 00 00 
    e9d3:	4d 39 fe             	cmp    r14,r15
    e9d6:	0f 84 7f d0 ff ff    	je     0xba5b
    e9dc:	49 bf 08 3c 5c 55 55 	movabs r15,0x5555555c3c08
    e9e3:	55 00 00 
    e9e6:	4d 39 fe             	cmp    r14,r15
    e9e9:	0f 84 32 5a ff ff    	je     0x4421
    e9ef:	49 bf 2e 33 5c 55 55 	movabs r15,0x5555555c332e
    e9f6:	55 00 00 
    e9f9:	4d 39 fe             	cmp    r14,r15
    e9fc:	0f 84 72 4d ff ff    	je     0x3774
    ea02:	49 bf db ed 5b 55 55 	movabs r15,0x5555555beddb
    ea09:	55 00 00 
    ea0c:	4d 39 fe             	cmp    r14,r15
    ea0f:	0f 84 1d 36 ff ff    	je     0x2032
    ea15:	49 bf af ed 5b 55 55 	movabs r15,0x5555555bedaf
    ea1c:	55 00 00 
    ea1f:	4d 39 fe             	cmp    r14,r15
    ea22:	0f 84 b3 35 ff ff    	je     0x1fdb
    ea28:	49 bf 44 ee 5b 55 55 	movabs r15,0x5555555bee44
    ea2f:	55 00 00 
    ea32:	4d 39 fe             	cmp    r14,r15
    ea35:	0f 84 55 36 ff ff    	je     0x2090
    ea3b:	49 bf 90 de 5f 55 55 	movabs r15,0x5555555fde90
    ea42:	55 00 00 
    ea45:	e9 91 0d 00 00       	jmp    0xf7db
    ea4a:	49 bf 88 2c 5c 55 55 	movabs r15,0x5555555c2c88
    ea51:	55 00 00 
    ea54:	4d 39 fe             	cmp    r14,r15
    ea57:	0f 84 33 48 ff ff    	je     0x3290
    ea5d:	49 bf a8 dd 5f 55 55 	movabs r15,0x5555555fdda8
    ea64:	55 00 00 
    ea67:	4d 39 fe             	cmp    r14,r15
    ea6a:	0f 84 eb cf ff ff    	je     0xba5b
    ea70:	49 bf 08 3c 5c 55 55 	movabs r15,0x5555555c3c08
    ea77:	55 00 00 
    ea7a:	4d 39 fe             	cmp    r14,r15
    ea7d:	0f 84 9e 59 ff ff    	je     0x4421
    ea83:	49 bf 2e 33 5c 55 55 	movabs r15,0x5555555c332e
    ea8a:	55 00 00 
    ea8d:	4d 39 fe             	cmp    r14,r15
    ea90:	0f 84 de 4c ff ff    	je     0x3774
    ea96:	49 bf db ed 5b 55 55 	movabs r15,0x5555555beddb
    ea9d:	55 00 00 
    eaa0:	4d 39 fe             	cmp    r14,r15
    eaa3:	0f 84 89 35 ff ff    	je     0x2032
    eaa9:	49 bf af ed 5b 55 55 	movabs r15,0x5555555bedaf
    eab0:	55 00 00 
    eab3:	4d 39 fe             	cmp    r14,r15
    eab6:	0f 84 1f 35 ff ff    	je     0x1fdb
    eabc:	49 bf 44 ee 5b 55 55 	movabs r15,0x5555555bee44
    eac3:	55 00 00 
    eac6:	4d 39 fe             	cmp    r14,r15
    eac9:	0f 84 c1 35 ff ff    	je     0x2090
    eacf:	49 bf 71 df 5f 55 55 	movabs r15,0x5555555fdf71
    ead6:	55 00 00 
    ead9:	e9 fd 0c 00 00       	jmp    0xf7db
    eade:	49 bf 88 2c 5c 55 55 	movabs r15,0x5555555c2c88
    eae5:	55 00 00 
    eae8:	4d 39 fe             	cmp    r14,r15
    eaeb:	0f 84 9f 47 ff ff    	je     0x3290
    eaf1:	49 bf a8 dd 5f 55 55 	movabs r15,0x5555555fdda8
    eaf8:	55 00 00 
    eafb:	4d 39 fe             	cmp    r14,r15
    eafe:	0f 84 57 cf ff ff    	je     0xba5b
    eb04:	49 bf 08 3c 5c 55 55 	movabs r15,0x5555555c3c08
    eb0b:	55 00 00 
    eb0e:	4d 39 fe             	cmp    r14,r15
    eb11:	0f 84 0a 59 ff ff    	je     0x4421
    eb17:	49 bf 2e 33 5c 55 55 	movabs r15,0x5555555c332e
    eb1e:	55 00 00 
    eb21:	4d 39 fe             	cmp    r14,r15
    eb24:	0f 84 4a 4c ff ff    	je     0x3774
    eb2a:	49 bf db ed 5b 55 55 	movabs r15,0x5555555beddb
    eb31:	55 00 00 
    eb34:	4d 39 fe             	cmp    r14,r15
    eb37:	0f 84 f5 34 ff ff    	je     0x2032
    eb3d:	49 bf af ed 5b 55 55 	movabs r15,0x5555555bedaf
    eb44:	55 00 00 
    eb47:	4d 39 fe             	cmp    r14,r15
    eb4a:	0f 84 8b 34 ff ff    	je     0x1fdb
    eb50:	49 bf 44 ee 5b 55 55 	movabs r15,0x5555555bee44
    eb57:	55 00 00 
    eb5a:	4d 39 fe             	cmp    r14,r15
    eb5d:	0f 84 2d 35 ff ff    	je     0x2090
    eb63:	49 bf c2 19 5c 55 55 	movabs r15,0x5555555c19c2
    eb6a:	55 00 00 
    eb6d:	e9 69 0c 00 00       	jmp    0xf7db
    eb72:	49 bf 4e c5 57 55 55 	movabs r15,0x55555557c54e
    eb79:	55 00 00 
    eb7c:	e9 5a 0c 00 00       	jmp    0xf7db
    eb81:	49 bf 36 b6 57 55 55 	movabs r15,0x55555557b636
    eb88:	55 00 00 
    eb8b:	e9 4b 0c 00 00       	jmp    0xf7db
    eb90:	49 bf 86 b6 57 55 55 	movabs r15,0x55555557b686
    eb97:	55 00 00 
    eb9a:	e9 3c 0c 00 00       	jmp    0xf7db
    eb9f:	49 bf ac f4 57 55 55 	movabs r15,0x55555557f4ac
    eba6:	55 00 00 
    eba9:	e9 2d 0c 00 00       	jmp    0xf7db
    ebae:	49 bf 24 f5 57 55 55 	movabs r15,0x55555557f524
    ebb5:	55 00 00 
    ebb8:	e9 1e 0c 00 00       	jmp    0xf7db
    ebbd:	49 bf 63 f5 57 55 55 	movabs r15,0x55555557f563
    ebc4:	55 00 00 
    ebc7:	e9 0f 0c 00 00       	jmp    0xf7db
    ebcc:	49 bf eb f5 57 55 55 	movabs r15,0x55555557f5eb
    ebd3:	55 00 00 
    ebd6:	e9 00 0c 00 00       	jmp    0xf7db
    ebdb:	49 bf 87 4c 5f 55 55 	movabs r15,0x5555555f4c87
    ebe2:	55 00 00 
    ebe5:	e9 f1 0b 00 00       	jmp    0xf7db
    ebea:	49 bf 8e 4d 5f 55 55 	movabs r15,0x5555555f4d8e
    ebf1:	55 00 00 
    ebf4:	e9 e2 0b 00 00       	jmp    0xf7db
    ebf9:	49 bf 5d c9 5e 55 55 	movabs r15,0x5555555ec95d
    ec00:	55 00 00 
    ec03:	e9 d3 0b 00 00       	jmp    0xf7db
    ec08:	49 bf 02 e5 5e 55 55 	movabs r15,0x5555555ee502
    ec0f:	55 00 00 
    ec12:	e9 c4 0b 00 00       	jmp    0xf7db
    ec17:	49 bf a3 d2 5e 55 55 	movabs r15,0x5555555ed2a3
    ec1e:	55 00 00 
    ec21:	e9 b5 0b 00 00       	jmp    0xf7db
    ec26:	49 bf 1f d1 5c 55 55 	movabs r15,0x5555555cd11f
    ec2d:	55 00 00 
    ec30:	e9 a6 0b 00 00       	jmp    0xf7db
    ec35:	49 bf 9b d0 5c 55 55 	movabs r15,0x5555555cd09b
    ec3c:	55 00 00 
    ec3f:	e9 97 0b 00 00       	jmp    0xf7db
    ec44:	49 bf 4c cf 5c 55 55 	movabs r15,0x5555555ccf4c
    ec4b:	55 00 00 
    ec4e:	e9 88 0b 00 00       	jmp    0xf7db
    ec53:	49 bf 7d c6 5c 55 55 	movabs r15,0x5555555cc67d
    ec5a:	55 00 00 
    ec5d:	e9 79 0b 00 00       	jmp    0xf7db
    ec62:	49 bf 71 d3 5c 55 55 	movabs r15,0x5555555cd371
    ec69:	55 00 00 
    ec6c:	e9 6a 0b 00 00       	jmp    0xf7db
    ec71:	49 bf 1d c7 5c 55 55 	movabs r15,0x5555555cc71d
    ec78:	55 00 00 
    ec7b:	e9 5b 0b 00 00       	jmp    0xf7db
    ec80:	49 bf 2b d3 5c 55 55 	movabs r15,0x5555555cd32b
    ec87:	55 00 00 
    ec8a:	e9 4c 0b 00 00       	jmp    0xf7db
    ec8f:	49 bf 5d c8 5c 55 55 	movabs r15,0x5555555cc85d
    ec96:	55 00 00 
    ec99:	e9 3d 0b 00 00       	jmp    0xf7db
    ec9e:	49 bf 31 44 5c 55 55 	movabs r15,0x5555555c4431
    eca5:	55 00 00 
    eca8:	e9 2e 0b 00 00       	jmp    0xf7db
    ecad:	49 bf fd 90 5b 55 55 	movabs r15,0x5555555b90fd
    ecb4:	55 00 00 
    ecb7:	e9 1f 0b 00 00       	jmp    0xf7db
    ecbc:	49 bf db ed 5b 55 55 	movabs r15,0x5555555beddb
    ecc3:	55 00 00 
    ecc6:	4d 39 fe             	cmp    r14,r15
    ecc9:	0f 84 63 33 ff ff    	je     0x2032
    eccf:	49 bf af ed 5b 55 55 	movabs r15,0x5555555bedaf
    ecd6:	55 00 00 
    ecd9:	4d 39 fe             	cmp    r14,r15
    ecdc:	0f 84 f9 32 ff ff    	je     0x1fdb
    ece2:	49 bf 44 ee 5b 55 55 	movabs r15,0x5555555bee44
    ece9:	55 00 00 
    ecec:	4d 39 fe             	cmp    r14,r15
    ecef:	0f 84 9b 33 ff ff    	je     0x2090
    ecf5:	49 bf c0 45 5c 55 55 	movabs r15,0x5555555c45c0
    ecfc:	55 00 00 
    ecff:	e9 d7 0a 00 00       	jmp    0xf7db
    ed04:	49 bf fe 2d 5c 55 55 	movabs r15,0x5555555c2dfe
    ed0b:	55 00 00 
    ed0e:	e9 c8 0a 00 00       	jmp    0xf7db
    ed13:	49 bf e2 47 5c 55 55 	movabs r15,0x5555555c47e2
    ed1a:	55 00 00 
    ed1d:	4d 39 fe             	cmp    r14,r15
    ed20:	0f 84 2e 6e ff ff    	je     0x5b54
    ed26:	49 bf db ed 5b 55 55 	movabs r15,0x5555555beddb
    ed2d:	55 00 00 
    ed30:	4d 39 fe             	cmp    r14,r15
    ed33:	0f 84 f9 32 ff ff    	je     0x2032
    ed39:	49 bf af ed 5b 55 55 	movabs r15,0x5555555bedaf
    ed40:	55 00 00 
    ed43:	4d 39 fe             	cmp    r14,r15
    ed46:	0f 84 8f 32 ff ff    	je     0x1fdb
    ed4c:	49 bf 44 ee 5b 55 55 	movabs r15,0x5555555bee44
    ed53:	55 00 00 
    ed56:	4d 39 fe             	cmp    r14,r15
    ed59:	0f 84 31 33 ff ff    	je     0x2090
    ed5f:	49 bf c7 28 5c 55 55 	movabs r15,0x5555555c28c7
    ed66:	55 00 00 
    ed69:	e9 6d 0a 00 00       	jmp    0xf7db
    ed6e:	49 bf e2 47 5c 55 55 	movabs r15,0x5555555c47e2
    ed75:	55 00 00 
    ed78:	4d 39 fe             	cmp    r14,r15
    ed7b:	0f 84 d3 6d ff ff    	je     0x5b54
    ed81:	49 bf db ed 5b 55 55 	movabs r15,0x5555555beddb
    ed88:	55 00 00 
    ed8b:	4d 39 fe             	cmp    r14,r15
    ed8e:	0f 84 9e 32 ff ff    	je     0x2032
    ed94:	49 bf af ed 5b 55 55 	movabs r15,0x5555555bedaf
    ed9b:	55 00 00 
    ed9e:	4d 39 fe             	cmp    r14,r15
    eda1:	0f 84 34 32 ff ff    	je     0x1fdb
    eda7:	49 bf 44 ee 5b 55 55 	movabs r15,0x5555555bee44
    edae:	55 00 00 
    edb1:	4d 39 fe             	cmp    r14,r15
    edb4:	0f 84 d6 32 ff ff    	je     0x2090
    edba:	49 bf ec 28 5c 55 55 	movabs r15,0x5555555c28ec
    edc1:	55 00 00 
    edc4:	e9 12 0a 00 00       	jmp    0xf7db
    edc9:	49 bf db ed 5b 55 55 	movabs r15,0x5555555beddb
    edd0:	55 00 00 
    edd3:	4d 39 fe             	cmp    r14,r15
    edd6:	0f 84 56 32 ff ff    	je     0x2032
    eddc:	49 bf af ed 5b 55 55 	movabs r15,0x5555555bedaf
    ede3:	55 00 00 
    ede6:	4d 39 fe             	cmp    r14,r15
    ede9:	0f 84 ec 31 ff ff    	je     0x1fdb
    edef:	49 bf 44 ee 5b 55 55 	movabs r15,0x5555555bee44
    edf6:	55 00 00 
    edf9:	4d 39 fe             	cmp    r14,r15
    edfc:	0f 84 8e 32 ff ff    	je     0x2090
    ee02:	49 bf 7b 37 5c 55 55 	movabs r15,0x5555555c377b
    ee09:	55 00 00 
    ee0c:	e9 ca 09 00 00       	jmp    0xf7db
    ee11:	49 bf db ed 5b 55 55 	movabs r15,0x5555555beddb
    ee18:	55 00 00 
    ee1b:	4d 39 fe             	cmp    r14,r15
    ee1e:	0f 84 0e 32 ff ff    	je     0x2032
    ee24:	49 bf af ed 5b 55 55 	movabs r15,0x5555555bedaf
    ee2b:	55 00 00 
    ee2e:	4d 39 fe             	cmp    r14,r15
    ee31:	0f 84 a4 31 ff ff    	je     0x1fdb
    ee37:	49 bf 44 ee 5b 55 55 	movabs r15,0x5555555bee44
    ee3e:	55 00 00 
    ee41:	4d 39 fe             	cmp    r14,r15
    ee44:	0f 84 46 32 ff ff    	je     0x2090
    ee4a:	49 bf 58 2e 5c 55 55 	movabs r15,0x5555555c2e58
    ee51:	55 00 00 
    ee54:	e9 82 09 00 00       	jmp    0xf7db
    ee59:	49 bf 3f 36 5c 55 55 	movabs r15,0x5555555c363f
    ee60:	55 00 00 
    ee63:	e9 73 09 00 00       	jmp    0xf7db
    ee68:	49 bf db ed 5b 55 55 	movabs r15,0x5555555beddb
    ee6f:	55 00 00 
    ee72:	4d 39 fe             	cmp    r14,r15
    ee75:	0f 84 b7 31 ff ff    	je     0x2032
    ee7b:	49 bf af ed 5b 55 55 	movabs r15,0x5555555bedaf
    ee82:	55 00 00 
    ee85:	4d 39 fe             	cmp    r14,r15
    ee88:	0f 84 4d 31 ff ff    	je     0x1fdb
    ee8e:	49 bf 44 ee 5b 55 55 	movabs r15,0x5555555bee44
    ee95:	55 00 00 
    ee98:	4d 39 fe             	cmp    r14,r15
    ee9b:	0f 84 ef 31 ff ff    	je     0x2090
    eea1:	49 bf cf 36 5c 55 55 	movabs r15,0x5555555c36cf
    eea8:	55 00 00 
    eeab:	e9 2b 09 00 00       	jmp    0xf7db
    eeb0:	49 bf db ed 5b 55 55 	movabs r15,0x5555555beddb
    eeb7:	55 00 00 
    eeba:	4d 39 fe             	cmp    r14,r15
    eebd:	0f 84 6f 31 ff ff    	je     0x2032
    eec3:	49 bf af ed 5b 55 55 	movabs r15,0x5555555bedaf
    eeca:	55 00 00 
    eecd:	4d 39 fe             	cmp    r14,r15
    eed0:	0f 84 05 31 ff ff    	je     0x1fdb
    eed6:	49 bf 44 ee 5b 55 55 	movabs r15,0x5555555bee44
    eedd:	55 00 00 
    eee0:	4d 39 fe             	cmp    r14,r15
    eee3:	0f 84 a7 31 ff ff    	je     0x2090
    eee9:	49 bf e5 3c 5c 55 55 	movabs r15,0x5555555c3ce5
    eef0:	55 00 00 
    eef3:	e9 e3 08 00 00       	jmp    0xf7db
    eef8:	49 bf ae 40 5c 55 55 	movabs r15,0x5555555c40ae
    eeff:	55 00 00 
    ef02:	e9 d4 08 00 00       	jmp    0xf7db
    ef07:	49 bf db ed 5b 55 55 	movabs r15,0x5555555beddb
    ef0e:	55 00 00 
    ef11:	4d 39 fe             	cmp    r14,r15
    ef14:	0f 84 18 31 ff ff    	je     0x2032
    ef1a:	49 bf af ed 5b 55 55 	movabs r15,0x5555555bedaf
    ef21:	55 00 00 
    ef24:	4d 39 fe             	cmp    r14,r15
    ef27:	0f 84 ae 30 ff ff    	je     0x1fdb
    ef2d:	49 bf 44 ee 5b 55 55 	movabs r15,0x5555555bee44
    ef34:	55 00 00 
    ef37:	4d 39 fe             	cmp    r14,r15
    ef3a:	0f 84 50 31 ff ff    	je     0x2090
    ef40:	49 bf 57 33 5c 55 55 	movabs r15,0x5555555c3357
    ef47:	55 00 00 
    ef4a:	e9 8c 08 00 00       	jmp    0xf7db
    ef4f:	49 bf 99 33 5c 55 55 	movabs r15,0x5555555c3399
    ef56:	55 00 00 
    ef59:	e9 7d 08 00 00       	jmp    0xf7db
    ef5e:	49 bf 09 70 5f 55 55 	movabs r15,0x5555555f7009
    ef65:	55 00 00 
    ef68:	e9 6e 08 00 00       	jmp    0xf7db
    ef6d:	49 bf 12 b4 5e 55 55 	movabs r15,0x5555555eb412
    ef74:	55 00 00 
    ef77:	e9 5f 08 00 00       	jmp    0xf7db
    ef7c:	49 bf 19 60 60 55 55 	movabs r15,0x555555606019
    ef83:	55 00 00 
    ef86:	e9 50 08 00 00       	jmp    0xf7db
    ef8b:	49 bf 00 5a 5e 55 55 	movabs r15,0x5555555e5a00
    ef92:	55 00 00 
    ef95:	e9 41 08 00 00       	jmp    0xf7db
    ef9a:	49 bf f2 5a 5e 55 55 	movabs r15,0x5555555e5af2
    efa1:	55 00 00 
    efa4:	e9 32 08 00 00       	jmp    0xf7db
    efa9:	49 bf f2 ef 5b 55 55 	movabs r15,0x5555555beff2
    efb0:	55 00 00 
    efb3:	e9 23 08 00 00       	jmp    0xf7db
    efb8:	49 bf f8 f3 5b 55 55 	movabs r15,0x5555555bf3f8
    efbf:	55 00 00 
    efc2:	e9 14 08 00 00       	jmp    0xf7db
    efc7:	49 bf d9 f0 5b 55 55 	movabs r15,0x5555555bf0d9
    efce:	55 00 00 
    efd1:	e9 05 08 00 00       	jmp    0xf7db
    efd6:	49 bf f7 f1 5b 55 55 	movabs r15,0x5555555bf1f7
    efdd:	55 00 00 
    efe0:	e9 f6 07 00 00       	jmp    0xf7db
    efe5:	49 bf 68 1f 5f 55 55 	movabs r15,0x5555555f1f68
    efec:	55 00 00 
    efef:	e9 e7 07 00 00       	jmp    0xf7db
    eff4:	49 bf 54 1f 5f 55 55 	movabs r15,0x5555555f1f54
    effb:	55 00 00 
    effe:	e9 d8 07 00 00       	jmp    0xf7db
    f003:	49 bf 22 41 5f 55 55 	movabs r15,0x5555555f4122
    f00a:	55 00 00 
    f00d:	e9 c9 07 00 00       	jmp    0xf7db
    f012:	49 bf ea 41 5f 55 55 	movabs r15,0x5555555f41ea
    f019:	55 00 00 
    f01c:	e9 ba 07 00 00       	jmp    0xf7db
    f021:	49 bf e2 41 5f 55 55 	movabs r15,0x5555555f41e2
    f028:	55 00 00 
    f02b:	e9 ab 07 00 00       	jmp    0xf7db
    f030:	49 bf c8 ef a6 f7 ff 	movabs r15,0x7ffff7a6efc8
    f037:	7f 00 00 
    f03a:	e9 9c 07 00 00       	jmp    0xf7db
    f03f:	49 be 80 86 57 55 55 	movabs r14,0x555555578680
    f046:	55 00 00 
    f049:	48 c7 85 78 ff ff ff 	mov    QWORD PTR [rbp-0x88],0x1
    f050:	01 00 00 00 
    f054:	e9 90 07 00 00       	jmp    0xf7e9
    f059:	49 be 00 f8 58 55 55 	movabs r14,0x55555558f800
    f060:	55 00 00 
    f063:	48 c7 85 78 ff ff ff 	mov    QWORD PTR [rbp-0x88],0x1
    f06a:	01 00 00 00 
    f06e:	e9 76 07 00 00       	jmp    0xf7e9
    f073:	49 be 00 b0 5a 55 55 	movabs r14,0x5555555ab000
    f07a:	55 00 00 
    f07d:	48 c7 85 78 ff ff ff 	mov    QWORD PTR [rbp-0x88],0x1
    f084:	01 00 00 00 
    f088:	e9 5c 07 00 00       	jmp    0xf7e9
    f08d:	49 be 00 7d 57 55 55 	movabs r14,0x555555577d00
    f094:	55 00 00 
    f097:	48 c7 85 78 ff ff ff 	mov    QWORD PTR [rbp-0x88],0x1
    f09e:	01 00 00 00 
    f0a2:	e9 42 07 00 00       	jmp    0xf7e9
    f0a7:	49 be 80 85 5f 55 55 	movabs r14,0x5555555f8580
    f0ae:	55 00 00 
    f0b1:	48 c7 85 78 ff ff ff 	mov    QWORD PTR [rbp-0x88],0x1
    f0b8:	01 00 00 00 
    f0bc:	e9 28 07 00 00       	jmp    0xf7e9
    f0c1:	49 be 80 e3 57 55 55 	movabs r14,0x55555557e380
    f0c8:	55 00 00 
    f0cb:	48 c7 85 78 ff ff ff 	mov    QWORD PTR [rbp-0x88],0x1
    f0d2:	01 00 00 00 
    f0d6:	e9 0e 07 00 00       	jmp    0xf7e9
    f0db:	49 be 80 06 58 55 55 	movabs r14,0x555555580680
    f0e2:	55 00 00 
    f0e5:	48 c7 85 78 ff ff ff 	mov    QWORD PTR [rbp-0x88],0x1
    f0ec:	01 00 00 00 
    f0f0:	e9 f4 06 00 00       	jmp    0xf7e9
    f0f5:	49 be 00 c6 5e 55 55 	movabs r14,0x5555555ec600
    f0fc:	55 00 00 
    f0ff:	48 c7 85 78 ff ff ff 	mov    QWORD PTR [rbp-0x88],0x1
    f106:	01 00 00 00 
    f10a:	e9 da 06 00 00       	jmp    0xf7e9
    f10f:	49 be 00 d2 59 55 55 	movabs r14,0x55555559d200
    f116:	55 00 00 
    f119:	48 c7 85 78 ff ff ff 	mov    QWORD PTR [rbp-0x88],0x1
    f120:	01 00 00 00 
    f124:	e9 c0 06 00 00       	jmp    0xf7e9
    f129:	49 be 00 24 5c 55 55 	movabs r14,0x5555555c2400
    f130:	55 00 00 
    f133:	48 c7 85 78 ff ff ff 	mov    QWORD PTR [rbp-0x88],0x1
    f13a:	01 00 00 00 
    f13e:	e9 a6 06 00 00       	jmp    0xf7e9
    f143:	49 be 10 c7 5a 55 55 	movabs r14,0x5555555ac710
    f14a:	55 00 00 
    f14d:	48 c7 85 78 ff ff ff 	mov    QWORD PTR [rbp-0x88],0x1
    f154:	01 00 00 00 
    f158:	e9 8c 06 00 00       	jmp    0xf7e9
    f15d:	49 be b0 e3 5b 55 55 	movabs r14,0x5555555be3b0
    f164:	55 00 00 
    f167:	48 c7 85 78 ff ff ff 	mov    QWORD PTR [rbp-0x88],0x1
    f16e:	01 00 00 00 
    f172:	e9 72 06 00 00       	jmp    0xf7e9
    f177:	49 be 90 37 5a 55 55 	movabs r14,0x5555555a3790
    f17e:	55 00 00 
    f181:	48 c7 85 78 ff ff ff 	mov    QWORD PTR [rbp-0x88],0x1
    f188:	01 00 00 00 
    f18c:	e9 58 06 00 00       	jmp    0xf7e9
    f191:	49 be 90 2d 5a 55 55 	movabs r14,0x5555555a2d90
    f198:	55 00 00 
    f19b:	48 c7 85 78 ff ff ff 	mov    QWORD PTR [rbp-0x88],0x1
    f1a2:	01 00 00 00 
    f1a6:	e9 3e 06 00 00       	jmp    0xf7e9
    f1ab:	49 be 90 fa 5b 55 55 	movabs r14,0x5555555bfa90
    f1b2:	55 00 00 
    f1b5:	48 c7 85 78 ff ff ff 	mov    QWORD PTR [rbp-0x88],0x1
    f1bc:	01 00 00 00 
    f1c0:	e9 24 06 00 00       	jmp    0xf7e9
    f1c5:	49 be 90 7f 57 55 55 	movabs r14,0x555555577f90
    f1cc:	55 00 00 
    f1cf:	48 c7 85 78 ff ff ff 	mov    QWORD PTR [rbp-0x88],0x1
    f1d6:	01 00 00 00 
    f1da:	e9 0a 06 00 00       	jmp    0xf7e9
    f1df:	49 be 90 fd 57 55 55 	movabs r14,0x55555557fd90
    f1e6:	55 00 00 
    f1e9:	48 c7 85 78 ff ff ff 	mov    QWORD PTR [rbp-0x88],0x1
    f1f0:	01 00 00 00 
    f1f4:	e9 f0 05 00 00       	jmp    0xf7e9
    f1f9:	49 be 10 e3 57 55 55 	movabs r14,0x55555557e310
    f200:	55 00 00 
    f203:	48 c7 85 78 ff ff ff 	mov    QWORD PTR [rbp-0x88],0x1
    f20a:	01 00 00 00 
    f20e:	e9 d6 05 00 00       	jmp    0xf7e9
    f213:	49 be 10 ce 57 55 55 	movabs r14,0x55555557ce10
    f21a:	55 00 00 
    f21d:	48 c7 85 78 ff ff ff 	mov    QWORD PTR [rbp-0x88],0x1
    f224:	01 00 00 00 
    f228:	e9 bc 05 00 00       	jmp    0xf7e9
    f22d:	49 be 90 23 5d 55 55 	movabs r14,0x5555555d2390
    f234:	55 00 00 
    f237:	48 c7 85 78 ff ff ff 	mov    QWORD PTR [rbp-0x88],0x1
    f23e:	01 00 00 00 
    f242:	e9 a2 05 00 00       	jmp    0xf7e9
    f247:	49 be 90 e5 57 55 55 	movabs r14,0x55555557e590
    f24e:	55 00 00 
    f251:	48 c7 85 78 ff ff ff 	mov    QWORD PTR [rbp-0x88],0x1
    f258:	01 00 00 00 
    f25c:	e9 88 05 00 00       	jmp    0xf7e9
    f261:	49 be 90 c5 58 55 55 	movabs r14,0x55555558c590
    f268:	55 00 00 
    f26b:	48 c7 85 78 ff ff ff 	mov    QWORD PTR [rbp-0x88],0x1
    f272:	01 00 00 00 
    f276:	e9 6e 05 00 00       	jmp    0xf7e9
    f27b:	49 be a0 ca 57 55 55 	movabs r14,0x55555557caa0
    f282:	55 00 00 
    f285:	48 c7 85 78 ff ff ff 	mov    QWORD PTR [rbp-0x88],0x1
    f28c:	01 00 00 00 
    f290:	e9 54 05 00 00       	jmp    0xf7e9
    f295:	49 be 20 06 58 55 55 	movabs r14,0x555555580620
    f29c:	55 00 00 
    f29f:	48 c7 85 78 ff ff ff 	mov    QWORD PTR [rbp-0x88],0x1
    f2a6:	01 00 00 00 
    f2aa:	e9 3a 05 00 00       	jmp    0xf7e9
    f2af:	49 be a0 85 57 55 55 	movabs r14,0x5555555785a0
    f2b6:	55 00 00 
    f2b9:	48 c7 85 78 ff ff ff 	mov    QWORD PTR [rbp-0x88],0x1
    f2c0:	01 00 00 00 
    f2c4:	e9 20 05 00 00       	jmp    0xf7e9
    f2c9:	49 be 20 fb 5a 55 55 	movabs r14,0x5555555afb20
    f2d0:	55 00 00 
    f2d3:	48 c7 85 78 ff ff ff 	mov    QWORD PTR [rbp-0x88],0x1
    f2da:	01 00 00 00 
    f2de:	e9 06 05 00 00       	jmp    0xf7e9
    f2e3:	49 be 20 e7 5b 55 55 	movabs r14,0x5555555be720
    f2ea:	55 00 00 
    f2ed:	48 c7 85 78 ff ff ff 	mov    QWORD PTR [rbp-0x88],0x1
    f2f4:	01 00 00 00 
    f2f8:	e9 ec 04 00 00       	jmp    0xf7e9
    f2fd:	49 be 20 7c 57 55 55 	movabs r14,0x555555577c20
    f304:	55 00 00 
    f307:	48 c7 85 78 ff ff ff 	mov    QWORD PTR [rbp-0x88],0x1
    f30e:	01 00 00 00 
    f312:	e9 d2 04 00 00       	jmp    0xf7e9
    f317:	49 be 20 e5 57 55 55 	movabs r14,0x55555557e520
    f31e:	55 00 00 
    f321:	48 c7 85 78 ff ff ff 	mov    QWORD PTR [rbp-0x88],0x1
    f328:	01 00 00 00 
    f32c:	e9 b8 04 00 00       	jmp    0xf7e9
    f331:	49 be a0 79 58 55 55 	movabs r14,0x5555555879a0
    f338:	55 00 00 
    f33b:	48 c7 85 78 ff ff ff 	mov    QWORD PTR [rbp-0x88],0x1
    f342:	01 00 00 00 
    f346:	e9 9e 04 00 00       	jmp    0xf7e9
    f34b:	49 be 80 14 94 f7 ff 	movabs r14,0x7ffff7941480
    f352:	7f 00 00 
    f355:	48 c7 85 78 ff ff ff 	mov    QWORD PTR [rbp-0x88],0x1
    f35c:	01 00 00 00 
    f360:	e9 84 04 00 00       	jmp    0xf7e9
    f365:	49 be 30 7d 57 55 55 	movabs r14,0x555555577d30
    f36c:	55 00 00 
    f36f:	48 c7 85 78 ff ff ff 	mov    QWORD PTR [rbp-0x88],0x1
    f376:	01 00 00 00 
    f37a:	e9 6a 04 00 00       	jmp    0xf7e9
    f37f:	49 be 30 fc 5b 55 55 	movabs r14,0x5555555bfc30
    f386:	55 00 00 
    f389:	48 c7 85 78 ff ff ff 	mov    QWORD PTR [rbp-0x88],0x1
    f390:	01 00 00 00 
    f394:	e9 50 04 00 00       	jmp    0xf7e9
    f399:	49 be 30 f0 5b 55 55 	movabs r14,0x5555555bf030
    f3a0:	55 00 00 
    f3a3:	48 c7 85 78 ff ff ff 	mov    QWORD PTR [rbp-0x88],0x1
    f3aa:	01 00 00 00 
    f3ae:	e9 36 04 00 00       	jmp    0xf7e9
    f3b3:	49 be b0 c8 57 55 55 	movabs r14,0x55555557c8b0
    f3ba:	55 00 00 
    f3bd:	48 c7 85 78 ff ff ff 	mov    QWORD PTR [rbp-0x88],0x1
    f3c4:	01 00 00 00 
    f3c8:	e9 1c 04 00 00       	jmp    0xf7e9
    f3cd:	49 be b0 8d 57 55 55 	movabs r14,0x555555578db0
    f3d4:	55 00 00 
    f3d7:	48 c7 85 78 ff ff ff 	mov    QWORD PTR [rbp-0x88],0x1
    f3de:	01 00 00 00 
    f3e2:	e9 02 04 00 00       	jmp    0xf7e9
    f3e7:	49 be b0 9d 5c 55 55 	movabs r14,0x5555555c9db0
    f3ee:	55 00 00 
    f3f1:	48 c7 85 78 ff ff ff 	mov    QWORD PTR [rbp-0x88],0x1
    f3f8:	01 00 00 00 
    f3fc:	e9 e8 03 00 00       	jmp    0xf7e9
    f401:	49 be 30 79 57 55 55 	movabs r14,0x555555577930
    f408:	55 00 00 
    f40b:	48 c7 85 78 ff ff ff 	mov    QWORD PTR [rbp-0x88],0x1
    f412:	01 00 00 00 
    f416:	e9 ce 03 00 00       	jmp    0xf7e9
    f41b:	49 be 30 c8 57 55 55 	movabs r14,0x55555557c830
    f422:	55 00 00 
    f425:	48 c7 85 78 ff ff ff 	mov    QWORD PTR [rbp-0x88],0x1
    f42c:	01 00 00 00 
    f430:	e9 b4 03 00 00       	jmp    0xf7e9
    f435:	49 be 30 1d 58 55 55 	movabs r14,0x555555581d30
    f43c:	55 00 00 
    f43f:	48 c7 85 78 ff ff ff 	mov    QWORD PTR [rbp-0x88],0x1
    f446:	01 00 00 00 
    f44a:	e9 9a 03 00 00       	jmp    0xf7e9
    f44f:	49 be 30 99 5c 55 55 	movabs r14,0x5555555c9930
    f456:	55 00 00 
    f459:	48 c7 85 78 ff ff ff 	mov    QWORD PTR [rbp-0x88],0x1
    f460:	01 00 00 00 
    f464:	e9 80 03 00 00       	jmp    0xf7e9
    f469:	49 be c0 8a 57 55 55 	movabs r14,0x555555578ac0
    f470:	55 00 00 
    f473:	48 c7 85 78 ff ff ff 	mov    QWORD PTR [rbp-0x88],0x1
    f47a:	01 00 00 00 
    f47e:	e9 66 03 00 00       	jmp    0xf7e9
    f483:	49 be c0 38 5a 55 55 	movabs r14,0x5555555a38c0
    f48a:	55 00 00 
    f48d:	48 c7 85 78 ff ff ff 	mov    QWORD PTR [rbp-0x88],0x1
    f494:	01 00 00 00 
    f498:	e9 4c 03 00 00       	jmp    0xf7e9
    f49d:	49 be c0 c6 58 55 55 	movabs r14,0x55555558c6c0
    f4a4:	55 00 00 
    f4a7:	48 c7 85 78 ff ff ff 	mov    QWORD PTR [rbp-0x88],0x1
    f4ae:	01 00 00 00 
    f4b2:	e9 32 03 00 00       	jmp    0xf7e9
    f4b7:	49 be 40 c7 57 55 55 	movabs r14,0x55555557c740
    f4be:	55 00 00 
    f4c1:	48 c7 85 78 ff ff ff 	mov    QWORD PTR [rbp-0x88],0x1
    f4c8:	01 00 00 00 
    f4cc:	e9 18 03 00 00       	jmp    0xf7e9
    f4d1:	49 be c0 1e 5d 55 55 	movabs r14,0x5555555d1ec0
    f4d8:	55 00 00 
    f4db:	48 c7 85 78 ff ff ff 	mov    QWORD PTR [rbp-0x88],0x1
    f4e2:	01 00 00 00 
    f4e6:	e9 fe 02 00 00       	jmp    0xf7e9
    f4eb:	49 be 40 84 57 55 55 	movabs r14,0x555555578440
    f4f2:	55 00 00 
    f4f5:	48 c7 85 78 ff ff ff 	mov    QWORD PTR [rbp-0x88],0x1
    f4fc:	01 00 00 00 
    f500:	e9 e4 02 00 00       	jmp    0xf7e9
    f505:	49 be 10 0e 58 55 55 	movabs r14,0x555555580e10
    f50c:	55 00 00 
    f50f:	48 c7 85 78 ff ff ff 	mov    QWORD PTR [rbp-0x88],0x1
    f516:	01 00 00 00 
    f51a:	e9 ca 02 00 00       	jmp    0xf7e9
    f51f:	49 be 00 08 58 55 55 	movabs r14,0x555555580800
    f526:	55 00 00 
    f529:	48 c7 85 78 ff ff ff 	mov    QWORD PTR [rbp-0x88],0x1
    f530:	01 00 00 00 
    f534:	e9 b0 02 00 00       	jmp    0xf7e9
    f539:	49 be c0 67 5b 55 55 	movabs r14,0x5555555b67c0
    f540:	55 00 00 
    f543:	48 c7 85 78 ff ff ff 	mov    QWORD PTR [rbp-0x88],0x1
    f54a:	01 00 00 00 
    f54e:	e9 96 02 00 00       	jmp    0xf7e9
    f553:	49 be 40 53 fc f7 ff 	movabs r14,0x7ffff7fc5340
    f55a:	7f 00 00 
    f55d:	48 c7 85 78 ff ff ff 	mov    QWORD PTR [rbp-0x88],0x1
    f564:	01 00 00 00 
    f568:	e9 7c 02 00 00       	jmp    0xf7e9
    f56d:	49 be 50 2b 5d 55 55 	movabs r14,0x5555555d2b50
    f574:	55 00 00 
    f577:	48 c7 85 78 ff ff ff 	mov    QWORD PTR [rbp-0x88],0x1
    f57e:	01 00 00 00 
    f582:	e9 62 02 00 00       	jmp    0xf7e9
    f587:	49 be 50 e6 57 55 55 	movabs r14,0x55555557e650
    f58e:	55 00 00 
    f591:	48 c7 85 78 ff ff ff 	mov    QWORD PTR [rbp-0x88],0x1
    f598:	01 00 00 00 
    f59c:	e9 48 02 00 00       	jmp    0xf7e9
    f5a1:	49 be 50 55 5a 55 55 	movabs r14,0x5555555a5550
    f5a8:	55 00 00 
    f5ab:	48 c7 85 78 ff ff ff 	mov    QWORD PTR [rbp-0x88],0x1
    f5b2:	01 00 00 00 
    f5b6:	e9 2e 02 00 00       	jmp    0xf7e9
    f5bb:	49 be d0 7c 58 55 55 	movabs r14,0x555555587cd0
    f5c2:	55 00 00 
    f5c5:	48 c7 85 78 ff ff ff 	mov    QWORD PTR [rbp-0x88],0x1
    f5cc:	01 00 00 00 
    f5d0:	e9 14 02 00 00       	jmp    0xf7e9
    f5d5:	49 be 50 b4 57 55 55 	movabs r14,0x55555557b450
    f5dc:	55 00 00 
    f5df:	48 c7 85 78 ff ff ff 	mov    QWORD PTR [rbp-0x88],0x1
    f5e6:	01 00 00 00 
    f5ea:	e9 fa 01 00 00       	jmp    0xf7e9
    f5ef:	49 be d0 8c 57 55 55 	movabs r14,0x555555578cd0
    f5f6:	55 00 00 
    f5f9:	48 c7 85 78 ff ff ff 	mov    QWORD PTR [rbp-0x88],0x1
    f600:	01 00 00 00 
    f604:	e9 e0 01 00 00       	jmp    0xf7e9
    f609:	49 be d0 b9 59 55 55 	movabs r14,0x55555559b9d0
    f610:	55 00 00 
    f613:	48 c7 85 78 ff ff ff 	mov    QWORD PTR [rbp-0x88],0x1
    f61a:	01 00 00 00 
    f61e:	e9 c6 01 00 00       	jmp    0xf7e9
    f623:	49 be d0 14 5c 55 55 	movabs r14,0x5555555c14d0
    f62a:	55 00 00 
    f62d:	48 c7 85 78 ff ff ff 	mov    QWORD PTR [rbp-0x88],0x1
    f634:	01 00 00 00 
    f638:	e9 ac 01 00 00       	jmp    0xf7e9
    f63d:	49 be d0 13 94 f7 ff 	movabs r14,0x7ffff79413d0
    f644:	7f 00 00 
    f647:	48 c7 85 78 ff ff ff 	mov    QWORD PTR [rbp-0x88],0x1
    f64e:	01 00 00 00 
    f652:	e9 92 01 00 00       	jmp    0xf7e9
    f657:	49 be 00 eb 5b 55 55 	movabs r14,0x5555555beb00
    f65e:	55 00 00 
    f661:	48 c7 85 78 ff ff ff 	mov    QWORD PTR [rbp-0x88],0x1
    f668:	01 00 00 00 
    f66c:	e9 78 01 00 00       	jmp    0xf7e9
    f671:	49 be 60 cb 57 55 55 	movabs r14,0x55555557cb60
    f678:	55 00 00 
    f67b:	48 c7 85 78 ff ff ff 	mov    QWORD PTR [rbp-0x88],0x1
    f682:	01 00 00 00 
    f686:	e9 5e 01 00 00       	jmp    0xf7e9
    f68b:	49 be 60 a6 5a 55 55 	movabs r14,0x5555555aa660
    f692:	55 00 00 
    f695:	48 c7 85 78 ff ff ff 	mov    QWORD PTR [rbp-0x88],0x1
    f69c:	01 00 00 00 
    f6a0:	e9 44 01 00 00       	jmp    0xf7e9
    f6a5:	49 be e0 03 58 55 55 	movabs r14,0x5555555803e0
    f6ac:	55 00 00 
    f6af:	48 c7 85 78 ff ff ff 	mov    QWORD PTR [rbp-0x88],0x1
    f6b6:	01 00 00 00 
    f6ba:	e9 2a 01 00 00       	jmp    0xf7e9
    f6bf:	49 be e0 c6 57 55 55 	movabs r14,0x55555557c6e0
    f6c6:	55 00 00 
    f6c9:	48 c7 85 78 ff ff ff 	mov    QWORD PTR [rbp-0x88],0x1
    f6d0:	01 00 00 00 
    f6d4:	e9 10 01 00 00       	jmp    0xf7e9
    f6d9:	49 be e0 be 5c 55 55 	movabs r14,0x5555555cbee0
    f6e0:	55 00 00 
    f6e3:	48 c7 85 78 ff ff ff 	mov    QWORD PTR [rbp-0x88],0x1
    f6ea:	01 00 00 00 
    f6ee:	e9 f6 00 00 00       	jmp    0xf7e9
    f6f3:	49 be 60 b9 59 55 55 	movabs r14,0x55555559b960
    f6fa:	55 00 00 
    f6fd:	48 c7 85 78 ff ff ff 	mov    QWORD PTR [rbp-0x88],0x1
    f704:	01 00 00 00 
    f708:	e9 dc 00 00 00       	jmp    0xf7e9
    f70d:	49 be 60 30 5c 55 55 	movabs r14,0x5555555c3060
    f714:	55 00 00 
    f717:	48 c7 85 78 ff ff ff 	mov    QWORD PTR [rbp-0x88],0x1
    f71e:	01 00 00 00 
    f722:	e9 c2 00 00 00       	jmp    0xf7e9
    f727:	49 be 70 cd 57 55 55 	movabs r14,0x55555557cd70
    f72e:	55 00 00 
    f731:	48 c7 85 78 ff ff ff 	mov    QWORD PTR [rbp-0x88],0x1
    f738:	01 00 00 00 
    f73c:	e9 a8 00 00 00       	jmp    0xf7e9
    f741:	49 be 70 ca 58 55 55 	movabs r14,0x55555558ca70
    f748:	55 00 00 
    f74b:	48 c7 85 78 ff ff ff 	mov    QWORD PTR [rbp-0x88],0x1
    f752:	01 00 00 00 
    f756:	e9 8e 00 00 00       	jmp    0xf7e9
    f75b:	49 be 70 05 58 55 55 	movabs r14,0x555555580570
    f762:	55 00 00 
    f765:	48 c7 85 78 ff ff ff 	mov    QWORD PTR [rbp-0x88],0x1
    f76c:	01 00 00 00 
    f770:	eb 77                	jmp    0xf7e9
    f772:	49 be f0 2d 5a 55 55 	movabs r14,0x5555555a2df0
    f779:	55 00 00 
    f77c:	48 c7 85 78 ff ff ff 	mov    QWORD PTR [rbp-0x88],0x1
    f783:	01 00 00 00 
    f787:	eb 60                	jmp    0xf7e9
    f789:	49 be 70 cc 58 55 55 	movabs r14,0x55555558cc70
    f790:	55 00 00 
    f793:	48 c7 85 78 ff ff ff 	mov    QWORD PTR [rbp-0x88],0x1
    f79a:	01 00 00 00 
    f79e:	eb 49                	jmp    0xf7e9
    f7a0:	49 be f0 06 5c 55 55 	movabs r14,0x5555555c06f0
    f7a7:	55 00 00 
    f7aa:	48 c7 85 78 ff ff ff 	mov    QWORD PTR [rbp-0x88],0x1
    f7b1:	01 00 00 00 
    f7b5:	eb 32                	jmp    0xf7e9
    f7b7:	49 be 10 14 94 f7 ff 	movabs r14,0x7ffff7941410
    f7be:	7f 00 00 
    f7c1:	48 c7 85 78 ff ff ff 	mov    QWORD PTR [rbp-0x88],0x1
    f7c8:	01 00 00 00 
    f7cc:	eb 1b                	jmp    0xf7e9
    f7ce:	48 c7 85 78 ff ff ff 	mov    QWORD PTR [rbp-0x88],0x0
    f7d5:	00 00 00 00 
    f7d9:	eb 0e                	jmp    0xf7e9
    f7db:	4c 89 bd 78 ff ff ff 	mov    QWORD PTR [rbp-0x88],r15
    f7e2:	eb 05                	jmp    0xf7e9
    f7e4:	eb 03                	jmp    0xf7e9
    f7e6:	9d                   	popf   
    f7e7:	eb 00                	jmp    0xf7e9
    f7e9:	4c 89 75 80          	mov    QWORD PTR [rbp-0x80],r14
    f7ed:	4c 89 6d b8          	mov    QWORD PTR [rbp-0x48],r13
    f7f1:	4c 89 65 c0          	mov    QWORD PTR [rbp-0x40],r12
    f7f5:	4c 8b 75 d0          	mov    r14,QWORD PTR [rbp-0x30]
    f7f9:	4c 8b 7d c8          	mov    r15,QWORD PTR [rbp-0x38]
    f7fd:	41 8f 47 08          	pop    QWORD PTR [r15+0x8]
    f801:	41 8f 07             	pop    QWORD PTR [r15]
    f804:	41 8f 86 80 00 00 00 	pop    QWORD PTR [r14+0x80]
    f80b:	48 83 c4 10          	add    rsp,0x10
    f80f:	41 8f 46 18          	pop    QWORD PTR [r14+0x18]
    f813:	41 8f 46 10          	pop    QWORD PTR [r14+0x10]
    f817:	41 8f 46 08          	pop    QWORD PTR [r14+0x8]
    f81b:	41 8f 06             	pop    QWORD PTR [r14]
    f81e:	41 8f 86 98 00 00 00 	pop    QWORD PTR [r14+0x98]
    f825:	41 8f 46 20          	pop    QWORD PTR [r14+0x20]
    f829:	49 89 5e 28          	mov    QWORD PTR [r14+0x28],rbx
    f82d:	4d 89 5e 30          	mov    QWORD PTR [r14+0x30],r11
    f831:	4d 89 56 38          	mov    QWORD PTR [r14+0x38],r10
    f835:	4d 89 4e 40          	mov    QWORD PTR [r14+0x40],r9
    f839:	4d 89 46 48          	mov    QWORD PTR [r14+0x48],r8
    f83d:	49 89 46 50          	mov    QWORD PTR [r14+0x50],rax
    f841:	49 89 4e 58          	mov    QWORD PTR [r14+0x58],rcx
    f845:	49 89 56 60          	mov    QWORD PTR [r14+0x60],rdx
    f849:	49 89 76 68          	mov    QWORD PTR [r14+0x68],rsi
    f84d:	49 89 7e 70          	mov    QWORD PTR [r14+0x70],rdi
    f851:	48 83 c4 10          	add    rsp,0x10
    f855:	41 5f                	pop    r15
    f857:	41 5e                	pop    r14
    f859:	41 5d                	pop    r13
    f85b:	41 5c                	pop    r12
    f85d:	5b                   	pop    rbx
    f85e:	5d                   	pop    rbp
    f85f:	c3                   	ret    
